bin/app_slicekit_sdram_delay.xe: file format: xcore-xe

Loadable 1 for stdcore[0] (node "0", tile 0):

Disassembly of section .text (size: 588)

<main>:
<_start>:
             0x00010000: 00 68:       ldc (ru6)       r0, 0x0
             0x00010002: 40 68:       ldc (ru6)       r1, 0x0
             0x00010004: 80 68:       ldc (ru6)       r2, 0x0
             0x00010006: c0 68:       ldc (ru6)       r3, 0x0
             0x00010008: 00 69:       ldc (ru6)       r4, 0x0
             0x0001000a: 40 69:       ldc (ru6)       r5, 0x0
             0x0001000c: 80 69:       ldc (ru6)       r6, 0x0
             0x0001000e: c0 69:       ldc (ru6)       r7, 0x0
             0x00010010: 00 6a:       ldc (ru6)       r8, 0x0
             0x00010012: 40 6a:       ldc (ru6)       r9, 0x0
             0x00010014: 00 f0 2c d9: ldap (lu10)     r11, 0x12c <.label0>
             0x00010018: fb 37:       set (1r)        cp, r11
             0x0001001a: 00 f0 2d d9: ldap (lu10)     r11, 0x12d <.label1>
             0x0001001e: eb 37:       set (1r)        dp, r11
             0x00010020: cb 6a:       ldc (ru6)       r11, 0xb
             0x00010022: bb ff ec 17: get (l2r)       r10, ps[r11]
             0x00010026: 80 f0 c0 6a: ldc (lru6)      r11, 0x2000
             0x0001002a: be 16:       add (3r)        r11, r11, r10
             0x0001002c: fb 2f:       set (1r)        sp, r11
             0x0001002e: 07 68:       ldc (ru6)       r0, 0x7
             0x00010030: 40 68:       ldc (ru6)       r1, 0x0
             0x00010032: 80 68:       ldc (ru6)       r2, 0x0
             0x00010034: d4 d0:       bl (u10)        0xd4 <progSwitchRegBlind>
             0x00010036: 05 68:       ldc (ru6)       r0, 0x5
             0x00010038: 40 68:       ldc (ru6)       r1, 0x0
             0x0001003a: 80 68:       ldc (ru6)       r2, 0x0
             0x0001003c: d0 d0:       bl (u10)        0xd0 <progSwitchRegBlind>

<getAllChannels>:
             0x0001003e: c2 86:       getr (rus)      r0, 0x2
             0x00010040: 02 74:       bt (ru6)        r0, -0x2 <getAllChannels>
             0x00010042: 9f 68:       ldc (ru6)       r2, 0x1f
             0x00010044: c1 68:       ldc (ru6)       r3, 0x1
             0x00010046: 04 f0 40 68: ldc (lru6)      r1, 0x100
             0x0001004a: 00 f0 09 6c: ldw (lru6)      r0, cp[0x9]
             0x0001004e: 01 10:       add (3r)        r0, r0, r1

<freeAllChannels>:
             0x00010050: e0 17:       freer (1r)      res[r0]

<skipFree>:
             0x00010052: 01 10:       add (3r)        r0, r0, r1
             0x00010054: 4e 30:       eq (3r)         r4, r3, r2
             0x00010056: 3d 90:       add (2rus)      r3, r3, 0x1
             0x00010058: 05 7d:       bf (ru6)        r4, -0x5 <freeAllChannels>
             0x0001005a: 02 f0 40 69: ldc (lru6)      r5, 0x80
             0x0001005e: 02 f0 88 69: ldc (lru6)      r6, 0x88

<disableLinks>:
             0x00010062: c4 90:       add (2rus)      r0, r5, 0x0
             0x00010064: 40 68:       ldc (ru6)       r1, 0x0
             0x00010066: 80 68:       ldc (ru6)       r2, 0x0
             0x00010068: ba d0:       bl (u10)        0xba <progSwitchRegBlind>
             0x0001006a: 15 91:       add (2rus)      r5, r5, 0x1
             0x0001006c: 06 33:       eq (3r)         r0, r5, r6
             0x0001006e: 07 7c:       bf (ru6)        r0, -0x7 <disableLinks>
             0x00010070: 02 f0 04 68: ldc (lru6)      r0, 0x84
             0x00010074: 40 68:       ldc (ru6)       r1, 0x0
             0x00010076: 00 f0 80 58: ldw (lru6)      r2, dp[0x0]
             0x0001007a: b1 d0:       bl (u10)        0xb1 <progSwitchRegBlind>
             0x0001007c: 02 f0 05 68: ldc (lru6)      r0, 0x85
             0x00010080: 40 68:       ldc (ru6)       r1, 0x0
             0x00010082: 00 f0 81 58: ldw (lru6)      r2, dp[0x1]
             0x00010086: ab d0:       bl (u10)        0xab <progSwitchRegBlind>
             0x00010088: 02 f0 06 68: ldc (lru6)      r0, 0x86
             0x0001008c: 40 68:       ldc (ru6)       r1, 0x0
             0x0001008e: 00 f0 82 58: ldw (lru6)      r2, dp[0x2]
             0x00010092: a5 d0:       bl (u10)        0xa5 <progSwitchRegBlind>
             0x00010094: 02 f0 07 68: ldc (lru6)      r0, 0x87
             0x00010098: 40 68:       ldc (ru6)       r1, 0x0
             0x0001009a: 00 f0 83 58: ldw (lru6)      r2, dp[0x3]
             0x0001009e: 9f d0:       bl (u10)        0x9f <progSwitchRegBlind>
             0x000100a0: 02 f0 02 68: ldc (lru6)      r0, 0x82
             0x000100a4: 40 68:       ldc (ru6)       r1, 0x0
             0x000100a6: 00 f0 84 58: ldw (lru6)      r2, dp[0x4]
             0x000100aa: 99 d0:       bl (u10)        0x99 <progSwitchRegBlind>

<setDimensionReg>:
             0x000100ac: 0c 68:       ldc (ru6)       r0, 0xc
             0x000100ae: 40 68:       ldc (ru6)       r1, 0x0
             0x000100b0: 80 68:       ldc (ru6)       r2, 0x0
             0x000100b2: 95 d0:       bl (u10)        0x95 <progSwitchRegBlind>
             0x000100b4: 0d 68:       ldc (ru6)       r0, 0xd
             0x000100b6: 00 f0 85 58: ldw (lru6)      r2, dp[0x5]
             0x000100ba: 91 d0:       bl (u10)        0x91 <progSwitchRegBlind>

<sayHello4>:
             0x000100bc: 24 68:       ldc (ru6)       r0, 0x24
             0x000100be: 40 68:       ldc (ru6)       r1, 0x0
             0x000100c0: 80 68:       ldc (ru6)       r2, 0x0
             0x000100c2: 8d d0:       bl (u10)        0x8d <progSwitchRegBlind>
             0x000100c4: 02 f0 04 68: ldc (lru6)      r0, 0x84
             0x000100c8: 00 f0 80 58: ldw (lru6)      r2, dp[0x0]
             0x000100cc: dd a6:       mkmsk (rus)     r3, 0x1
             0x000100ce: 58 69:       ldc (ru6)       r5, 0x18
             0x000100d0: 7d 22:       shl (3r)        r3, r3, r5
             0x000100d2: 2b 40:       or (3r)         r2, r2, r3
             0x000100d4: 84 d0:       bl (u10)        0x84 <progSwitchRegBlind>
             0x000100d6: 5a 69:       ldc (ru6)       r5, 0x1a
             0x000100d8: 19 a7:       mkmsk (rus)     r6, 0x1
             0x000100da: 24 90:       add (2rus)      r2, r1, 0x0
             0x000100dc: 10 90:       add (2rus)      r1, r0, 0x0

<waitForHello4>:
             0x000100de: 9c d0:       bl (u10)        0x9c <readSwitchReg>
             0x000100e0: 41 2a:       shr (3r)        r0, r0, r5
             0x000100e2: 42 3a:       and (3r)        r0, r0, r6
             0x000100e4: 04 7c:       bf (ru6)        r0, -0x4 <waitForHello4>

<sayHelloAgain4>:
             0x000100e6: 02 f0 04 68: ldc (lru6)      r0, 0x84
             0x000100ea: 40 68:       ldc (ru6)       r1, 0x0
             0x000100ec: 00 f0 80 58: ldw (lru6)      r2, dp[0x0]
             0x000100f0: dd a6:       mkmsk (rus)     r3, 0x1
             0x000100f2: 58 69:       ldc (ru6)       r5, 0x18
             0x000100f4: 7d 22:       shl (3r)        r3, r3, r5
             0x000100f6: 2b 40:       or (3r)         r2, r2, r3
             0x000100f8: 72 d0:       bl (u10)        0x72 <progSwitchRegBlind>

<sayHello5>:
             0x000100fa: 25 68:       ldc (ru6)       r0, 0x25
             0x000100fc: 40 68:       ldc (ru6)       r1, 0x0
             0x000100fe: 80 68:       ldc (ru6)       r2, 0x0
             0x00010100: 6e d0:       bl (u10)        0x6e <progSwitchRegBlind>
             0x00010102: 02 f0 05 68: ldc (lru6)      r0, 0x85
             0x00010106: 00 f0 81 58: ldw (lru6)      r2, dp[0x1]
             0x0001010a: dd a6:       mkmsk (rus)     r3, 0x1
             0x0001010c: 58 69:       ldc (ru6)       r5, 0x18
             0x0001010e: 7d 22:       shl (3r)        r3, r3, r5
             0x00010110: 2b 40:       or (3r)         r2, r2, r3
             0x00010112: 65 d0:       bl (u10)        0x65 <progSwitchRegBlind>
             0x00010114: 5a 69:       ldc (ru6)       r5, 0x1a
             0x00010116: 19 a7:       mkmsk (rus)     r6, 0x1
             0x00010118: 24 90:       add (2rus)      r2, r1, 0x0
             0x0001011a: 10 90:       add (2rus)      r1, r0, 0x0

<waitForHello5>:
             0x0001011c: 7d d0:       bl (u10)        0x7d <readSwitchReg>
             0x0001011e: 41 2a:       shr (3r)        r0, r0, r5
             0x00010120: 42 3a:       and (3r)        r0, r0, r6
             0x00010122: 04 7c:       bf (ru6)        r0, -0x4 <waitForHello5>

<sayHelloAgain5>:
             0x00010124: 02 f0 05 68: ldc (lru6)      r0, 0x85
             0x00010128: 40 68:       ldc (ru6)       r1, 0x0
             0x0001012a: 00 f0 81 58: ldw (lru6)      r2, dp[0x1]
             0x0001012e: dd a6:       mkmsk (rus)     r3, 0x1
             0x00010130: 58 69:       ldc (ru6)       r5, 0x18
             0x00010132: 7d 22:       shl (3r)        r3, r3, r5
             0x00010134: 2b 40:       or (3r)         r2, r2, r3
             0x00010136: 53 d0:       bl (u10)        0x53 <progSwitchRegBlind>

<sayHello6>:
             0x00010138: 26 68:       ldc (ru6)       r0, 0x26
             0x0001013a: 40 68:       ldc (ru6)       r1, 0x0
             0x0001013c: 80 68:       ldc (ru6)       r2, 0x0
             0x0001013e: 4f d0:       bl (u10)        0x4f <progSwitchRegBlind>
             0x00010140: 02 f0 06 68: ldc (lru6)      r0, 0x86
             0x00010144: 00 f0 82 58: ldw (lru6)      r2, dp[0x2]
             0x00010148: dd a6:       mkmsk (rus)     r3, 0x1
             0x0001014a: 58 69:       ldc (ru6)       r5, 0x18
             0x0001014c: 7d 22:       shl (3r)        r3, r3, r5
             0x0001014e: 2b 40:       or (3r)         r2, r2, r3
             0x00010150: 46 d0:       bl (u10)        0x46 <progSwitchRegBlind>
             0x00010152: 5a 69:       ldc (ru6)       r5, 0x1a
             0x00010154: 19 a7:       mkmsk (rus)     r6, 0x1
             0x00010156: 24 90:       add (2rus)      r2, r1, 0x0
             0x00010158: 10 90:       add (2rus)      r1, r0, 0x0

<waitForHello6>:
             0x0001015a: 5e d0:       bl (u10)        0x5e <readSwitchReg>
             0x0001015c: 41 2a:       shr (3r)        r0, r0, r5
             0x0001015e: 42 3a:       and (3r)        r0, r0, r6
             0x00010160: 04 7c:       bf (ru6)        r0, -0x4 <waitForHello6>

<sayHelloAgain6>:
             0x00010162: 02 f0 06 68: ldc (lru6)      r0, 0x86
             0x00010166: 40 68:       ldc (ru6)       r1, 0x0
             0x00010168: 00 f0 82 58: ldw (lru6)      r2, dp[0x2]
             0x0001016c: dd a6:       mkmsk (rus)     r3, 0x1
             0x0001016e: 58 69:       ldc (ru6)       r5, 0x18
             0x00010170: 7d 22:       shl (3r)        r3, r3, r5
             0x00010172: 2b 40:       or (3r)         r2, r2, r3
             0x00010174: 34 d0:       bl (u10)        0x34 <progSwitchRegBlind>

<sayHello7>:
             0x00010176: 27 68:       ldc (ru6)       r0, 0x27
             0x00010178: 40 68:       ldc (ru6)       r1, 0x0
             0x0001017a: 80 68:       ldc (ru6)       r2, 0x0
             0x0001017c: 30 d0:       bl (u10)        0x30 <progSwitchRegBlind>
             0x0001017e: 02 f0 07 68: ldc (lru6)      r0, 0x87
             0x00010182: 00 f0 83 58: ldw (lru6)      r2, dp[0x3]
             0x00010186: dd a6:       mkmsk (rus)     r3, 0x1
             0x00010188: 58 69:       ldc (ru6)       r5, 0x18
             0x0001018a: 7d 22:       shl (3r)        r3, r3, r5
             0x0001018c: 2b 40:       or (3r)         r2, r2, r3
             0x0001018e: 27 d0:       bl (u10)        0x27 <progSwitchRegBlind>
             0x00010190: 5a 69:       ldc (ru6)       r5, 0x1a
             0x00010192: 19 a7:       mkmsk (rus)     r6, 0x1
             0x00010194: 24 90:       add (2rus)      r2, r1, 0x0
             0x00010196: 10 90:       add (2rus)      r1, r0, 0x0

<waitForHello7>:
             0x00010198: 3f d0:       bl (u10)        0x3f <readSwitchReg>
             0x0001019a: 41 2a:       shr (3r)        r0, r0, r5
             0x0001019c: 42 3a:       and (3r)        r0, r0, r6
             0x0001019e: 04 7c:       bf (ru6)        r0, -0x4 <waitForHello7>

<sayHelloAgain7>:
             0x000101a0: 02 f0 07 68: ldc (lru6)      r0, 0x87
             0x000101a4: 40 68:       ldc (ru6)       r1, 0x0
             0x000101a6: 00 f0 83 58: ldw (lru6)      r2, dp[0x3]
             0x000101aa: dd a6:       mkmsk (rus)     r3, 0x1
             0x000101ac: 58 69:       ldc (ru6)       r5, 0x18
             0x000101ae: 7d 22:       shl (3r)        r3, r3, r5
             0x000101b0: 2b 40:       or (3r)         r2, r2, r3
             0x000101b2: 15 d0:       bl (u10)        0x15 <progSwitchRegBlind>

<sayHello2>:
             0x000101b4: 22 68:       ldc (ru6)       r0, 0x22
             0x000101b6: 40 68:       ldc (ru6)       r1, 0x0
             0x000101b8: 3c f0 80 68: ldc (lru6)      r2, 0xf00
             0x000101bc: 10 d0:       bl (u10)        0x10 <progSwitchRegBlind>
             0x000101be: 02 f0 02 68: ldc (lru6)      r0, 0x82
             0x000101c2: 00 f0 84 58: ldw (lru6)      r2, dp[0x4]
             0x000101c6: dd a6:       mkmsk (rus)     r3, 0x1
             0x000101c8: 58 69:       ldc (ru6)       r5, 0x18
             0x000101ca: 7d 22:       shl (3r)        r3, r3, r5
             0x000101cc: 2b 40:       or (3r)         r2, r2, r3
             0x000101ce: 07 d0:       bl (u10)        0x7 <progSwitchRegBlind>

<finish>:
             0x000101d0: 07 68:       ldc (ru6)       r0, 0x7
             0x000101d2: 40 68:       ldc (ru6)       r1, 0x0
             0x000101d4: 80 68:       ldc (ru6)       r2, 0x0
             0x000101d6: c0 68:       ldc (ru6)       r3, 0x0

<doDoSyscall>:
             0x000101d8: 00 f0 36 d0: bl (lu10)       0x36 <_DoSyscall>
             0x000101dc: 03 77:       bu (u6)         -0x3 <doDoSyscall>

<progSwitchRegBlind>:
             0x000101de: 00 f0 c6 5a: ldw (lru6)      r11, dp[0x6]
             0x000101e2: b5 a4:       shl (2rus)      r3, r1, 0x10
             0x000101e4: 3f 45:       or (3r)         r11, r3, r11
             0x000101e6: ce 86:       getr (rus)      r3, 0x2
             0x000101e8: 5f 17:       setd (r2r)      res[r3], r11
             0x000101ea: 03 f0 c0 6a: ldc (lru6)      r11, 0xc0
             0x000101ee: 2f 4f:       outct (2r)      res[r3], r11
             0x000101f0: c5 6a:       ldc (ru6)       r11, 0x5
             0x000101f2: 3c 32:       eq (3r)         r11, r11, r0
             0x000101f4: c4 72:       bt (ru6)        r11, 0x4 <retIsValue>
             0x000101f6: 34 ad:       shr (2rus)      r11, r1, 0x8
             0x000101f8: 5f 0f:       outt (r2r)      res[r3], r11
             0x000101fa: d7 0e:       outt (r2r)      res[r3], r1
             0x000101fc: 03 73:       bu (u6)         0x3 <retSent>

<retIsValue>:
             0x000101fe: 38 ad:       shr (2rus)      r11, r2, 0x8
             0x00010200: 5f 0f:       outt (r2r)      res[r3], r11
             0x00010202: db 0e:       outt (r2r)      res[r3], r2

<retSent>:
             0x00010204: 03 f0 ff 6a: ldc (lru6)      r11, 0xff
             0x00010208: 5f 0f:       outt (r2r)      res[r3], r11
             0x0001020a: 30 ad:       shr (2rus)      r11, r0, 0x8
             0x0001020c: 5f 0f:       outt (r2r)      res[r3], r11
             0x0001020e: d3 0e:       outt (r2r)      res[r3], r0
             0x00010210: cb ae:       out (r2r)       res[r3], r2
             0x00010212: dd 4e:       outct (rus)     res[r3], 0x1
             0x00010214: e3 17:       freer (1r)      res[r3]
             0x00010216: c0 77:       retsp (u6)      0x0

<readSwitchReg>:
             0x00010218: 00 f0 c6 5a: ldw (lru6)      r11, dp[0x6]
             0x0001021c: b9 a4:       shl (2rus)      r3, r2, 0x10
             0x0001021e: 3f 45:       or (3r)         r11, r3, r11
             0x00010220: ce 86:       getr (rus)      r3, 0x2
             0x00010222: 5f 17:       setd (r2r)      res[r3], r11
             0x00010224: 03 f0 c1 6a: ldc (lru6)      r11, 0xc1
             0x00010228: 2f 4f:       outct (2r)      res[r3], r11
             0x0001022a: 3e ad:       shr (2rus)      r11, r3, 0x18
             0x0001022c: 5f 0f:       outt (r2r)      res[r3], r11
             0x0001022e: 3d ad:       shr (2rus)      r11, r3, 0x10
             0x00010230: 5f 0f:       outt (r2r)      res[r3], r11
             0x00010232: 3c ad:       shr (2rus)      r11, r3, 0x8
             0x00010234: 5f 0f:       outt (r2r)      res[r3], r11
             0x00010236: 34 ad:       shr (2rus)      r11, r1, 0x8
             0x00010238: 5f 0f:       outt (r2r)      res[r3], r11
             0x0001023a: d7 0e:       outt (r2r)      res[r3], r1
             0x0001023c: dd 4e:       outct (rus)     res[r3], 0x1
             0x0001023e: df ce:       chkct (rus)     res[r3], 0x3
             0x00010240: c3 b6:       in (2r)         r0, res[r3]
             0x00010242: dd ce:       chkct (rus)     res[r3], 0x1
             0x00010244: e3 17:       freer (1r)      res[r3]
             0x00010246: c0 77:       retsp (u6)      0x0

<_DoSyscall>:
             0x00010248: d0 a6:       mkmsk (rus)     r0, 0x20
             0x0001024a: c0 77:       retsp (u6)      0x0

Disassembly of section .globcode (size: 34)

<getAllChansFunc>:
             0x0001024c: 41 77:       entsp (u6)      0x1
             0x0001024e: 00 55:       stw (ru6)       r4, sp[0x0]

<getAllChannels>:
             0x00010250: c2 86:       getr (rus)      r0, 0x2
             0x00010252: 02 74:       bt (ru6)        r0, -0x2 <getAllChannels>
             0x00010254: 9f 68:       ldc (ru6)       r2, 0x1f
             0x00010256: c0 68:       ldc (ru6)       r3, 0x0
             0x00010258: 04 f0 40 68: ldc (lru6)      r1, 0x100
             0x0001025c: 00 f0 00 6c: ldw (lru6)      r0, cp[0x0]

<freeAllChannels>:
             0x00010260: e0 17:       freer (1r)      res[r0]

<skipFree>:
             0x00010262: 01 10:       add (3r)        r0, r0, r1
             0x00010264: 4e 30:       eq (3r)         r4, r3, r2
             0x00010266: 3d 90:       add (2rus)      r3, r3, 0x1
             0x00010268: 05 7d:       bf (ru6)        r4, -0x5 <freeAllChannels>
             0x0001026a: 00 5d:       ldw (ru6)       r4, sp[0x0]
             0x0001026c: c1 77:       retsp (u6)      0x1

Loadable 1 for stdcore[1] (node "1", tile 0):

Disassembly of section .text (size: 576)

<main>:
<_start>:
             0x00010000: 00 68:       ldc (ru6)       r0, 0x0
             0x00010002: 40 68:       ldc (ru6)       r1, 0x0
             0x00010004: 80 68:       ldc (ru6)       r2, 0x0
             0x00010006: c0 68:       ldc (ru6)       r3, 0x0
             0x00010008: 00 69:       ldc (ru6)       r4, 0x0
             0x0001000a: 40 69:       ldc (ru6)       r5, 0x0
             0x0001000c: 80 69:       ldc (ru6)       r6, 0x0
             0x0001000e: c0 69:       ldc (ru6)       r7, 0x0
             0x00010010: 00 6a:       ldc (ru6)       r8, 0x0
             0x00010012: 40 6a:       ldc (ru6)       r9, 0x0
             0x00010014: 00 f0 26 d9: ldap (lu10)     r11, 0x126 <.label0>
             0x00010018: fb 37:       set (1r)        cp, r11
             0x0001001a: 00 f0 27 d9: ldap (lu10)     r11, 0x127 <.label1>
             0x0001001e: eb 37:       set (1r)        dp, r11
             0x00010020: cb 6a:       ldc (ru6)       r11, 0xb
             0x00010022: bb ff ec 17: get (l2r)       r10, ps[r11]
             0x00010026: 80 f0 c0 6a: ldc (lru6)      r11, 0x2000
             0x0001002a: be 16:       add (3r)        r11, r11, r10
             0x0001002c: fb 2f:       set (1r)        sp, r11
             0x0001002e: 07 68:       ldc (ru6)       r0, 0x7
             0x00010030: 40 68:       ldc (ru6)       r1, 0x0
             0x00010032: 80 68:       ldc (ru6)       r2, 0x0
             0x00010034: ce d0:       bl (u10)        0xce <progSwitchRegBlind>
             0x00010036: 05 68:       ldc (ru6)       r0, 0x5
             0x00010038: 40 68:       ldc (ru6)       r1, 0x0
             0x0001003a: 00 f1 80 68: ldc (lru6)      r2, 0x4000
             0x0001003e: c9 d0:       bl (u10)        0xc9 <progSwitchRegBlind>

<getAllChannels>:
             0x00010040: c2 86:       getr (rus)      r0, 0x2
             0x00010042: 02 74:       bt (ru6)        r0, -0x2 <getAllChannels>
             0x00010044: 9f 68:       ldc (ru6)       r2, 0x1f
             0x00010046: c1 68:       ldc (ru6)       r3, 0x1
             0x00010048: 04 f0 40 68: ldc (lru6)      r1, 0x100
             0x0001004c: 00 f0 07 6c: ldw (lru6)      r0, cp[0x7]
             0x00010050: 01 10:       add (3r)        r0, r0, r1

<freeAllChannels>:
             0x00010052: e0 17:       freer (1r)      res[r0]

<skipFree>:
             0x00010054: 01 10:       add (3r)        r0, r0, r1
             0x00010056: 4e 30:       eq (3r)         r4, r3, r2
             0x00010058: 3d 90:       add (2rus)      r3, r3, 0x1
             0x0001005a: 05 7d:       bf (ru6)        r4, -0x5 <freeAllChannels>
             0x0001005c: 02 f0 40 69: ldc (lru6)      r5, 0x80
             0x00010060: 02 f0 88 69: ldc (lru6)      r6, 0x88

<disableLinks>:
             0x00010064: c4 90:       add (2rus)      r0, r5, 0x0
             0x00010066: 00 f1 40 68: ldc (lru6)      r1, 0x4000
             0x0001006a: 80 68:       ldc (ru6)       r2, 0x0
             0x0001006c: b2 d0:       bl (u10)        0xb2 <progSwitchRegBlind>
             0x0001006e: 15 91:       add (2rus)      r5, r5, 0x1
             0x00010070: 06 33:       eq (3r)         r0, r5, r6
             0x00010072: 08 7c:       bf (ru6)        r0, -0x8 <disableLinks>
             0x00010074: 02 f0 07 68: ldc (lru6)      r0, 0x87
             0x00010078: 00 f1 40 68: ldc (lru6)      r1, 0x4000
             0x0001007c: 00 f0 80 58: ldw (lru6)      r2, dp[0x0]
             0x00010080: a8 d0:       bl (u10)        0xa8 <progSwitchRegBlind>
             0x00010082: 02 f0 06 68: ldc (lru6)      r0, 0x86
             0x00010086: 00 f1 40 68: ldc (lru6)      r1, 0x4000
             0x0001008a: 00 f0 81 58: ldw (lru6)      r2, dp[0x1]
             0x0001008e: a1 d0:       bl (u10)        0xa1 <progSwitchRegBlind>
             0x00010090: 02 f0 05 68: ldc (lru6)      r0, 0x85
             0x00010094: 00 f1 40 68: ldc (lru6)      r1, 0x4000
             0x00010098: 00 f0 82 58: ldw (lru6)      r2, dp[0x2]
             0x0001009c: 9a d0:       bl (u10)        0x9a <progSwitchRegBlind>
             0x0001009e: 02 f0 04 68: ldc (lru6)      r0, 0x84
             0x000100a2: 00 f1 40 68: ldc (lru6)      r1, 0x4000
             0x000100a6: 00 f0 83 58: ldw (lru6)      r2, dp[0x3]
             0x000100aa: 93 d0:       bl (u10)        0x93 <progSwitchRegBlind>

<setDimensionReg>:
             0x000100ac: 0c 68:       ldc (ru6)       r0, 0xc
             0x000100ae: 00 f1 40 68: ldc (lru6)      r1, 0x4000
             0x000100b2: 80 68:       ldc (ru6)       r2, 0x0
             0x000100b4: 8e d0:       bl (u10)        0x8e <progSwitchRegBlind>
             0x000100b6: 0d 68:       ldc (ru6)       r0, 0xd
             0x000100b8: 80 68:       ldc (ru6)       r2, 0x0
             0x000100ba: 8b d0:       bl (u10)        0x8b <progSwitchRegBlind>

<sayHello7>:
             0x000100bc: 27 68:       ldc (ru6)       r0, 0x27
             0x000100be: 00 f1 40 68: ldc (lru6)      r1, 0x4000
             0x000100c2: 80 68:       ldc (ru6)       r2, 0x0
             0x000100c4: 86 d0:       bl (u10)        0x86 <progSwitchRegBlind>
             0x000100c6: 02 f0 07 68: ldc (lru6)      r0, 0x87
             0x000100ca: 00 f0 80 58: ldw (lru6)      r2, dp[0x0]
             0x000100ce: dd a6:       mkmsk (rus)     r3, 0x1
             0x000100d0: 58 69:       ldc (ru6)       r5, 0x18
             0x000100d2: 7d 22:       shl (3r)        r3, r3, r5
             0x000100d4: 2b 40:       or (3r)         r2, r2, r3
             0x000100d6: 7d d0:       bl (u10)        0x7d <progSwitchRegBlind>
             0x000100d8: 5a 69:       ldc (ru6)       r5, 0x1a
             0x000100da: 19 a7:       mkmsk (rus)     r6, 0x1
             0x000100dc: 24 90:       add (2rus)      r2, r1, 0x0
             0x000100de: 10 90:       add (2rus)      r1, r0, 0x0

<waitForHello7>:
             0x000100e0: 95 d0:       bl (u10)        0x95 <readSwitchReg>
             0x000100e2: 41 2a:       shr (3r)        r0, r0, r5
             0x000100e4: 42 3a:       and (3r)        r0, r0, r6
             0x000100e6: 04 7c:       bf (ru6)        r0, -0x4 <waitForHello7>

<sayHelloAgain7>:
             0x000100e8: 02 f0 07 68: ldc (lru6)      r0, 0x87
             0x000100ec: 00 f1 40 68: ldc (lru6)      r1, 0x4000
             0x000100f0: 00 f0 80 58: ldw (lru6)      r2, dp[0x0]
             0x000100f4: dd a6:       mkmsk (rus)     r3, 0x1
             0x000100f6: 58 69:       ldc (ru6)       r5, 0x18
             0x000100f8: 7d 22:       shl (3r)        r3, r3, r5
             0x000100fa: 2b 40:       or (3r)         r2, r2, r3
             0x000100fc: 6a d0:       bl (u10)        0x6a <progSwitchRegBlind>

<sayHello6>:
             0x000100fe: 26 68:       ldc (ru6)       r0, 0x26
             0x00010100: 00 f1 40 68: ldc (lru6)      r1, 0x4000
             0x00010104: 80 68:       ldc (ru6)       r2, 0x0
             0x00010106: 65 d0:       bl (u10)        0x65 <progSwitchRegBlind>
             0x00010108: 02 f0 06 68: ldc (lru6)      r0, 0x86
             0x0001010c: 00 f0 81 58: ldw (lru6)      r2, dp[0x1]
             0x00010110: dd a6:       mkmsk (rus)     r3, 0x1
             0x00010112: 58 69:       ldc (ru6)       r5, 0x18
             0x00010114: 7d 22:       shl (3r)        r3, r3, r5
             0x00010116: 2b 40:       or (3r)         r2, r2, r3
             0x00010118: 5c d0:       bl (u10)        0x5c <progSwitchRegBlind>
             0x0001011a: 5a 69:       ldc (ru6)       r5, 0x1a
             0x0001011c: 19 a7:       mkmsk (rus)     r6, 0x1
             0x0001011e: 24 90:       add (2rus)      r2, r1, 0x0
             0x00010120: 10 90:       add (2rus)      r1, r0, 0x0

<waitForHello6>:
             0x00010122: 74 d0:       bl (u10)        0x74 <readSwitchReg>
             0x00010124: 41 2a:       shr (3r)        r0, r0, r5
             0x00010126: 42 3a:       and (3r)        r0, r0, r6
             0x00010128: 04 7c:       bf (ru6)        r0, -0x4 <waitForHello6>

<sayHelloAgain6>:
             0x0001012a: 02 f0 06 68: ldc (lru6)      r0, 0x86
             0x0001012e: 00 f1 40 68: ldc (lru6)      r1, 0x4000
             0x00010132: 00 f0 81 58: ldw (lru6)      r2, dp[0x1]
             0x00010136: dd a6:       mkmsk (rus)     r3, 0x1
             0x00010138: 58 69:       ldc (ru6)       r5, 0x18
             0x0001013a: 7d 22:       shl (3r)        r3, r3, r5
             0x0001013c: 2b 40:       or (3r)         r2, r2, r3
             0x0001013e: 49 d0:       bl (u10)        0x49 <progSwitchRegBlind>

<sayHello5>:
             0x00010140: 25 68:       ldc (ru6)       r0, 0x25
             0x00010142: 00 f1 40 68: ldc (lru6)      r1, 0x4000
             0x00010146: 80 68:       ldc (ru6)       r2, 0x0
             0x00010148: 44 d0:       bl (u10)        0x44 <progSwitchRegBlind>
             0x0001014a: 02 f0 05 68: ldc (lru6)      r0, 0x85
             0x0001014e: 00 f0 82 58: ldw (lru6)      r2, dp[0x2]
             0x00010152: dd a6:       mkmsk (rus)     r3, 0x1
             0x00010154: 58 69:       ldc (ru6)       r5, 0x18
             0x00010156: 7d 22:       shl (3r)        r3, r3, r5
             0x00010158: 2b 40:       or (3r)         r2, r2, r3
             0x0001015a: 3b d0:       bl (u10)        0x3b <progSwitchRegBlind>
             0x0001015c: 5a 69:       ldc (ru6)       r5, 0x1a
             0x0001015e: 19 a7:       mkmsk (rus)     r6, 0x1
             0x00010160: 24 90:       add (2rus)      r2, r1, 0x0
             0x00010162: 10 90:       add (2rus)      r1, r0, 0x0

<waitForHello5>:
             0x00010164: 53 d0:       bl (u10)        0x53 <readSwitchReg>
             0x00010166: 41 2a:       shr (3r)        r0, r0, r5
             0x00010168: 42 3a:       and (3r)        r0, r0, r6
             0x0001016a: 04 7c:       bf (ru6)        r0, -0x4 <waitForHello5>

<sayHelloAgain5>:
             0x0001016c: 02 f0 05 68: ldc (lru6)      r0, 0x85
             0x00010170: 00 f1 40 68: ldc (lru6)      r1, 0x4000
             0x00010174: 00 f0 82 58: ldw (lru6)      r2, dp[0x2]
             0x00010178: dd a6:       mkmsk (rus)     r3, 0x1
             0x0001017a: 58 69:       ldc (ru6)       r5, 0x18
             0x0001017c: 7d 22:       shl (3r)        r3, r3, r5
             0x0001017e: 2b 40:       or (3r)         r2, r2, r3
             0x00010180: 28 d0:       bl (u10)        0x28 <progSwitchRegBlind>

<sayHello4>:
             0x00010182: 24 68:       ldc (ru6)       r0, 0x24
             0x00010184: 00 f1 40 68: ldc (lru6)      r1, 0x4000
             0x00010188: 80 68:       ldc (ru6)       r2, 0x0
             0x0001018a: 23 d0:       bl (u10)        0x23 <progSwitchRegBlind>
             0x0001018c: 02 f0 04 68: ldc (lru6)      r0, 0x84
             0x00010190: 00 f0 83 58: ldw (lru6)      r2, dp[0x3]
             0x00010194: dd a6:       mkmsk (rus)     r3, 0x1
             0x00010196: 58 69:       ldc (ru6)       r5, 0x18
             0x00010198: 7d 22:       shl (3r)        r3, r3, r5
             0x0001019a: 2b 40:       or (3r)         r2, r2, r3
             0x0001019c: 1a d0:       bl (u10)        0x1a <progSwitchRegBlind>
             0x0001019e: 5a 69:       ldc (ru6)       r5, 0x1a
             0x000101a0: 19 a7:       mkmsk (rus)     r6, 0x1
             0x000101a2: 24 90:       add (2rus)      r2, r1, 0x0
             0x000101a4: 10 90:       add (2rus)      r1, r0, 0x0

<waitForHello4>:
             0x000101a6: 32 d0:       bl (u10)        0x32 <readSwitchReg>
             0x000101a8: 41 2a:       shr (3r)        r0, r0, r5
             0x000101aa: 42 3a:       and (3r)        r0, r0, r6
             0x000101ac: 04 7c:       bf (ru6)        r0, -0x4 <waitForHello4>

<sayHelloAgain4>:
             0x000101ae: 02 f0 04 68: ldc (lru6)      r0, 0x84
             0x000101b2: 00 f1 40 68: ldc (lru6)      r1, 0x4000
             0x000101b6: 00 f0 83 58: ldw (lru6)      r2, dp[0x3]
             0x000101ba: dd a6:       mkmsk (rus)     r3, 0x1
             0x000101bc: 58 69:       ldc (ru6)       r5, 0x18
             0x000101be: 7d 22:       shl (3r)        r3, r3, r5
             0x000101c0: 2b 40:       or (3r)         r2, r2, r3
             0x000101c2: 07 d0:       bl (u10)        0x7 <progSwitchRegBlind>

<finish>:
             0x000101c4: 07 68:       ldc (ru6)       r0, 0x7
             0x000101c6: 40 68:       ldc (ru6)       r1, 0x0
             0x000101c8: 80 68:       ldc (ru6)       r2, 0x0
             0x000101ca: c0 68:       ldc (ru6)       r3, 0x0

<doDoSyscall>:
             0x000101cc: 00 f0 36 d0: bl (lu10)       0x36 <_DoSyscall>
             0x000101d0: 03 77:       bu (u6)         -0x3 <doDoSyscall>

<progSwitchRegBlind>:
             0x000101d2: 00 f0 c4 5a: ldw (lru6)      r11, dp[0x4]
             0x000101d6: b5 a4:       shl (2rus)      r3, r1, 0x10
             0x000101d8: 3f 45:       or (3r)         r11, r3, r11
             0x000101da: ce 86:       getr (rus)      r3, 0x2
             0x000101dc: 5f 17:       setd (r2r)      res[r3], r11
             0x000101de: 03 f0 c0 6a: ldc (lru6)      r11, 0xc0
             0x000101e2: 2f 4f:       outct (2r)      res[r3], r11
             0x000101e4: c5 6a:       ldc (ru6)       r11, 0x5
             0x000101e6: 3c 32:       eq (3r)         r11, r11, r0
             0x000101e8: c4 72:       bt (ru6)        r11, 0x4 <retIsValue>
             0x000101ea: 34 ad:       shr (2rus)      r11, r1, 0x8
             0x000101ec: 5f 0f:       outt (r2r)      res[r3], r11
             0x000101ee: d7 0e:       outt (r2r)      res[r3], r1
             0x000101f0: 03 73:       bu (u6)         0x3 <retSent>

<retIsValue>:
             0x000101f2: 38 ad:       shr (2rus)      r11, r2, 0x8
             0x000101f4: 5f 0f:       outt (r2r)      res[r3], r11
             0x000101f6: db 0e:       outt (r2r)      res[r3], r2

<retSent>:
             0x000101f8: 03 f0 ff 6a: ldc (lru6)      r11, 0xff
             0x000101fc: 5f 0f:       outt (r2r)      res[r3], r11
             0x000101fe: 30 ad:       shr (2rus)      r11, r0, 0x8
             0x00010200: 5f 0f:       outt (r2r)      res[r3], r11
             0x00010202: d3 0e:       outt (r2r)      res[r3], r0
             0x00010204: cb ae:       out (r2r)       res[r3], r2
             0x00010206: dd 4e:       outct (rus)     res[r3], 0x1
             0x00010208: e3 17:       freer (1r)      res[r3]
             0x0001020a: c0 77:       retsp (u6)      0x0

<readSwitchReg>:
             0x0001020c: 00 f0 c4 5a: ldw (lru6)      r11, dp[0x4]
             0x00010210: b9 a4:       shl (2rus)      r3, r2, 0x10
             0x00010212: 3f 45:       or (3r)         r11, r3, r11
             0x00010214: ce 86:       getr (rus)      r3, 0x2
             0x00010216: 5f 17:       setd (r2r)      res[r3], r11
             0x00010218: 03 f0 c1 6a: ldc (lru6)      r11, 0xc1
             0x0001021c: 2f 4f:       outct (2r)      res[r3], r11
             0x0001021e: 3e ad:       shr (2rus)      r11, r3, 0x18
             0x00010220: 5f 0f:       outt (r2r)      res[r3], r11
             0x00010222: 3d ad:       shr (2rus)      r11, r3, 0x10
             0x00010224: 5f 0f:       outt (r2r)      res[r3], r11
             0x00010226: 3c ad:       shr (2rus)      r11, r3, 0x8
             0x00010228: 5f 0f:       outt (r2r)      res[r3], r11
             0x0001022a: 34 ad:       shr (2rus)      r11, r1, 0x8
             0x0001022c: 5f 0f:       outt (r2r)      res[r3], r11
             0x0001022e: d7 0e:       outt (r2r)      res[r3], r1
             0x00010230: dd 4e:       outct (rus)     res[r3], 0x1
             0x00010232: df ce:       chkct (rus)     res[r3], 0x3
             0x00010234: c3 b6:       in (2r)         r0, res[r3]
             0x00010236: dd ce:       chkct (rus)     res[r3], 0x1
             0x00010238: e3 17:       freer (1r)      res[r3]
             0x0001023a: c0 77:       retsp (u6)      0x0

<_DoSyscall>:
             0x0001023c: d0 a6:       mkmsk (rus)     r0, 0x20
             0x0001023e: c0 77:       retsp (u6)      0x0

Disassembly of section .globcode (size: 34)

<getAllChansFunc>:
             0x00010240: 41 77:       entsp (u6)      0x1
             0x00010242: 00 55:       stw (ru6)       r4, sp[0x0]

<getAllChannels>:
             0x00010244: c2 86:       getr (rus)      r0, 0x2
             0x00010246: 02 74:       bt (ru6)        r0, -0x2 <getAllChannels>
             0x00010248: 9f 68:       ldc (ru6)       r2, 0x1f
             0x0001024a: c0 68:       ldc (ru6)       r3, 0x0
             0x0001024c: 04 f0 40 68: ldc (lru6)      r1, 0x100
             0x00010250: 00 f0 00 6c: ldw (lru6)      r0, cp[0x0]

<freeAllChannels>:
             0x00010254: e0 17:       freer (1r)      res[r0]

<skipFree>:
             0x00010256: 01 10:       add (3r)        r0, r0, r1
             0x00010258: 4e 30:       eq (3r)         r4, r3, r2
             0x0001025a: 3d 90:       add (2rus)      r3, r3, 0x1
             0x0001025c: 05 7d:       bf (ru6)        r4, -0x5 <freeAllChannels>
             0x0001025e: 00 5d:       ldw (ru6)       r4, sp[0x0]
             0x00010260: c1 77:       retsp (u6)      0x1

Loadable 2 for stdcore[0] (node "0", tile 0):

Disassembly of section .text (size: 11142)

<_start>:
             0x00010000: 4b 68:       ldc (ru6)       r1, 0xb
             0x00010002: d1 fe ec 17: get (l2r)       r0, ps[r1]
             0x00010006: 04 f0 8b 68: ldc (lru6)      r2, 0x10b
             0x0001000a: c2 fe ec 1f: set (lr2r)      ps[r2], r0
             0x0001000e: 4a d0:       bl (u10)        0x4a <_SetupTraps>
             0x00010010: 0f d0:       bl (u10)        0xf <_GetRamEnd>
             0x00010012: f0 2f:       set (1r)        sp, r0
             0x00010014: 01 f0 82 77: extsp (lu6)     0x42
             0x00010018: 05 f0 28 da: ldap (lu10)     r11, 0x1628 <.label0>
             0x0001001c: fb 37:       set (1r)        cp, r11
             0x0001001e: 05 f0 71 da: ldap (lu10)     r11, 0x1671 <.label1>
             0x00010022: eb 37:       set (1r)        dp, r11
             0x00010024: c3 86:       getr (rus)      r0, 0x3

<_InitThreadLoop>:
             0x00010026: d4 06:       getst (2r)      r1, res[r0]
             0x00010028: b4 b0:       eq (2rus)       r11, r1, 0x0
             0x0001002a: cc 72:       bt (ru6)        r11, 0xc <_Join>
             0x0001002c: 1f d0:       bl (u10)        0x1f <_InitThread>
             0x0001002e: 05 77:       bu (u6)         -0x5 <_InitThreadLoop>

<_GetRamEnd>:
             0x00010030: cb 6a:       ldc (ru6)       r11, 0xb
             0x00010032: bb ff ec 17: get (l2r)       r10, ps[r11]
             0x00010036: 05 f0 f5 d9: ldap (lu10)     r11, 0x15f5 <.label2>
             0x0001003a: 3c 0a:       ldw (2rus)      r11, r11[0x0]
             0x0001003c: 0b 16:       add (3r)        r0, r10, r11
             0x0001003e: c0 77:       retsp (u6)      0x0

<_ExitWithError>:
             0x00010040: 37 f0 08 73: bu (lu6)        0xdc8 <_exit>

<_Join>:
             0x00010044: f0 1f:       msync (1r)      res[r0]
             0x00010046: f0 17:       mjoin (1r)      res[r0]
             0x00010048: e0 17:       freer (1r)      res[r0]
             0x0001004a: 1f d0:       bl (u10)        0x1f <_TouchRegisters>
             0x0001004c: 05 f0 9b d1: bl (lu10)       0x159b <.label3>
             0x00010050: 00 f0 c6 6a: ldc (lru6)      r11, 0x6
             0x00010054: c8 ea:       setc (ru6)      res[r11], 0x8
             0x00010056: cf ea:       setc (ru6)      res[r11], 0xf
             0x00010058: 00 68:       ldc (ru6)       r0, 0x0
             0x0001005a: 00 f0 40 60: ldaw (lru6)     r1, dp[0x0]
             0x0001005e: 02 f0 fb d3: bl (lu10)       0xbfb <main>
             0x00010062: 02 70:       bt (ru6)        r0, 0x2 <_NonZeroReturn>
             0x00010064: 36 f0 2a 73: bu (lu6)        0xdaa <__libc_done>

<_NonZeroReturn>:
             0x00010068: 36 f0 3a 73: bu (lu6)        0xdba <_exit_unlocked>

<_InitThread>:
             0x0001006c: 05 f0 fe d9: ldap (lu10)     r11, 0x15fe <.label0>
             0x00010070: 4d 1f:       init (2r)       t[r1]:cp, r11
             0x00010072: 05 f0 47 da: ldap (lu10)     r11, 0x1647 <.label1>
             0x00010076: 4d 0f:       init (2r)       t[r1]:dp, r11
             0x00010078: 05 d8:       ldap (u10)      r11, 0x5 <_InitThreadRoutine>
             0x0001007a: 4d 07:       init (2r)       t[r1]:pc, r11
             0x0001007c: c0 77:       retsp (u6)      0x0
             0x0001007e: 00 90:       add (2rus)      r0, r0, 0x0

<_TrapHandler>:
             0x00010080: 32 f0 11 73: bu (lu6)        0xc91 <_DoException>

<_InitThreadRoutine>:
             0x00010084: 02 d0:       bl (u10)        0x2 <_TouchRegisters>
             0x00010086: 0e d0:       bl (u10)        0xe <_SetupTraps>
             0x00010088: ee 07:       ssync (0r)      

<_TouchRegisters>:
             0x0001008a: 00 68:       ldc (ru6)       r0, 0x0
             0x0001008c: 40 68:       ldc (ru6)       r1, 0x0
             0x0001008e: 80 68:       ldc (ru6)       r2, 0x0
             0x00010090: c0 68:       ldc (ru6)       r3, 0x0
             0x00010092: 00 69:       ldc (ru6)       r4, 0x0
             0x00010094: 40 69:       ldc (ru6)       r5, 0x0
             0x00010096: 80 69:       ldc (ru6)       r6, 0x0
             0x00010098: c0 69:       ldc (ru6)       r7, 0x0
             0x0001009a: 00 6a:       ldc (ru6)       r8, 0x0
             0x0001009c: 40 6a:       ldc (ru6)       r9, 0x0
             0x0001009e: 80 6a:       ldc (ru6)       r10, 0x0
             0x000100a0: c0 6a:       ldc (ru6)       r11, 0x0
             0x000100a2: c0 77:       retsp (u6)      0x0

<_SetupTraps>:
             0x000100a4: 13 dc:       ldap (u10)      r11, -0x13 <_TrapHandler>
             0x000100a6: ff 07:       set (0r)        kep, r11
             0x000100a8: c0 77:       retsp (u6)      0x0

<__register_frame_info_bases>:
<__free_libc_hwlock>:
.label246    0x000100aa: c0 77:       retsp (u6)      0x0

<update_common_delays>:
             0x000100ac: 48 77:       entsp (u6)      0x8
             0x000100ae: 07 55:       stw (ru6)       r4, sp[0x7]
             0x000100b0: 46 55:       stw (ru6)       r5, sp[0x6]
             0x000100b2: 85 55:       stw (ru6)       r6, sp[0x5]
             0x000100b4: c4 55:       stw (ru6)       r7, sp[0x4]
             0x000100b6: 03 56:       stw (ru6)       r8, sp[0x3]
             0x000100b8: 42 56:       stw (ru6)       r9, sp[0x2]
             0x000100ba: 81 56:       stw (ru6)       r10, sp[0x1]
             0x000100bc: 44 90:       add (2rus)      r4, r1, 0x0
             0x000100be: 50 90:       add (2rus)      r5, r0, 0x0
             0x000100c0: 91 f0 30 68: ldc (lru6)      r0, 0x2470
             0x000100c4: c4 10:       add (3r)        r0, r5, r0
             0x000100c6: b0 0d:       ldw (2rus)      r7, r4[0x8]
             0x000100c8: 70 00:       stw (2rus)      r7, r0[0x0]
             0x000100ca: 91 f0 20 68: ldc (lru6)      r0, 0x2460
             0x000100ce: 44 11:       add (3r)        r8, r5, r0
             0x000100d0: 80 6a:       ldc (ru6)       r10, 0x0
             0x000100d2: 10 f0 40 6a: ldc (lru6)      r9, 0x400
             0x000100d6: e8 91:       add (2rus)      r6, r10, 0x0
             0x000100d8: 23 73:       bu (u6)         0x23 <.label4>
.label7      0x000100da: 22 4b:       ldw (3r)        r2, r4[r6]
             0x000100dc: 71 0d:       ldw (2rus)      r3, r4[0x9]
             0x000100de: 00 f0 04 6c: ldw (lru6)      r0, cp[0x4]
             0x000100e2: 98 91:       add (2rus)      r1, r10, 0x0
             0x000100e4: 1b f8 e0 0f: maccs (l4r)     r1, r0, r2, r3
             0x000100e8: 00 f0 85 6c: ldw (lru6)      r2, cp[0x5]
             0x000100ec: b8 91:       add (2rus)      r3, r10, 0x0
             0x000100ee: 03 f0 07 d1: bl (lu10)       0xd07 <__divdi3>
             0x000100f2: 00 f0 46 6c: ldw (lru6)      r1, cp[0x6]
             0x000100f6: 11 c8:       lsu (3r)        r1, r0, r1
             0x000100f8: 5d 78:       bf (ru6)        r1, 0x1d <.label5>
             0x000100fa: 97 a7:       mkmsk (rus)     r1, 0x7
             0x000100fc: 14 c8:       lsu (3r)        r1, r1, r0
             0x000100fe: 63 78:       bf (ru6)        r1, 0x23 <.label6>
             0x00010100: 10 f0 4c 68: ldc (lru6)      r1, 0x40c
             0x00010104: d9 f8 ec 3f: mul (l3r)       r1, r6, r1
             0x00010108: d5 10:       add (3r)        r1, r5, r1
             0x0001010a: 95 14:       add (3r)        r1, r1, r9
             0x0001010c: 00 f0 87 6c: ldw (lru6)      r2, cp[0x7]
             0x00010110: 08 18:       sub (3r)        r0, r2, r0
             0x00010112: a0 09:       ldw (2rus)      r2, r8[0x0]
             0x00010114: 02 10:       add (3r)        r0, r0, r2
             0x00010116: 00 f0 88 6c: ldw (lru6)      r2, cp[0x8]
             0x0001011a: 02 38:       and (3r)        r0, r0, r2
             0x0001011c: 04 00:       stw (2rus)      r0, r1[0x0]
             0x0001011e: 29 91:       add (2rus)      r6, r6, 0x1
.label4      0x00010120: 0b c3:       lss (3r)        r0, r6, r7
             0x00010122: 25 74:       bt (ru6)        r0, -0x25 <.label7>
             0x00010124: 81 5e:       ldw (ru6)       r10, sp[0x1]
             0x00010126: 42 5e:       ldw (ru6)       r9, sp[0x2]
             0x00010128: 03 5e:       ldw (ru6)       r8, sp[0x3]
             0x0001012a: c4 5d:       ldw (ru6)       r7, sp[0x4]
             0x0001012c: 85 5d:       ldw (ru6)       r6, sp[0x5]
             0x0001012e: 46 5d:       ldw (ru6)       r5, sp[0x6]
             0x00010130: 07 5d:       ldw (ru6)       r4, sp[0x7]
             0x00010132: c8 77:       retsp (u6)      0x8
.label5      0x00010134: 00 f0 1c 60: ldaw (lru6)     r0, dp[0x1c]
             0x00010138: 7a 68:       ldc (ru6)       r1, 0x3a
             0x0001013a: 00 f0 af 60: ldaw (lru6)     r2, dp[0x2f]
             0x0001013e: 00 f0 f5 60: ldaw (lru6)     r3, dp[0x35]
             0x00010142: 03 f0 33 d0: bl (lu10)       0xc33 <__assert_func>
.label6      0x00010146: 00 f0 1c 60: ldaw (lru6)     r0, dp[0x1c]
             0x0001014a: 7b 68:       ldc (ru6)       r1, 0x3b
             0x0001014c: 00 f0 af 60: ldaw (lru6)     r2, dp[0x2f]
             0x00010150: 00 f0 fb 60: ldaw (lru6)     r3, dp[0x3b]
             0x00010154: 03 f0 2a d0: bl (lu10)       0xc2a <__assert_func>

<config_sdram_delay>:
<config_sdram_delay.coersed..f.7b0.7d.28p.28s.28.29.7b.7d.29.29>:
             0x00010158: 49 77:       entsp (u6)      0x9
             0x0001015a: 08 55:       stw (ru6)       r4, sp[0x8]
             0x0001015c: 47 55:       stw (ru6)       r5, sp[0x7]
             0x0001015e: 86 55:       stw (ru6)       r6, sp[0x6]
             0x00010160: c5 55:       stw (ru6)       r7, sp[0x5]
             0x00010162: 04 56:       stw (ru6)       r8, sp[0x4]
             0x00010164: 43 56:       stw (ru6)       r9, sp[0x3]
             0x00010166: 82 56:       stw (ru6)       r10, sp[0x2]
             0x00010168: 10 90:       add (2rus)      r1, r0, 0x0
             0x0001016a: 26 f0 06 58: ldw (lru6)      r0, dp[0x986]
             0x0001016e: 30 70:       bt (ru6)        r0, 0x30 <.label8>
             0x00010170: 41 54:       stw (ru6)       r1, sp[0x1]
             0x00010172: 22 f0 01 60: ldaw (lru6)     r0, dp[0x881]
             0x00010176: 00 6a:       ldc (ru6)       r8, 0x0
             0x00010178: 10 f0 80 69: ldc (lru6)      r6, 0x400
             0x0001017c: 90 91:       add (2rus)      r1, r8, 0x0
             0x0001017e: e8 90:       add (2rus)      r2, r6, 0x0
             0x00010180: 03 f0 3c d1: bl (lu10)       0xd3c <memset>
             0x00010184: 00 f0 08 6d: ldw (lru6)      r4, cp[0x8]
             0x00010188: 26 f0 01 51: stw (lru6)      r4, dp[0x981]
             0x0001018c: 26 f0 03 52: stw (lru6)      r8, dp[0x983]
             0x00010190: 26 f0 02 52: stw (lru6)      r8, dp[0x982]
             0x00010194: 10 f0 44 6a: ldc (lru6)      r9, 0x404
             0x00010198: d0 91:       add (2rus)      r5, r8, 0x0
.label9      0x0001019a: 10 f0 0c 68: ldc (lru6)      r0, 0x40c
             0x0001019e: c4 f8 ec 3f: mul (l3r)       r0, r5, r0
             0x000101a2: 01 f0 69 60: ldaw (lru6)     r1, dp[0x69]
             0x000101a6: 74 10:       add (3r)        r7, r1, r0
             0x000101a8: ae 13:       add (3r)        r10, r7, r6
             0x000101aa: cc 90:       add (2rus)      r0, r7, 0x0
             0x000101ac: 90 91:       add (2rus)      r1, r8, 0x0
             0x000101ae: e8 90:       add (2rus)      r2, r6, 0x0
             0x000101b0: 03 f0 24 d1: bl (lu10)       0xd24 <memset>
             0x000101b4: c8 01:       stw (2rus)      r4, r10[0x0]
             0x000101b6: 10 f0 08 68: ldc (lru6)      r0, 0x408
             0x000101ba: cc 10:       add (3r)        r0, r7, r0
             0x000101bc: 80 00:       stw (2rus)      r8, r0[0x0]
             0x000101be: 4d 15:       add (3r)        r0, r7, r9
             0x000101c0: 80 00:       stw (2rus)      r8, r0[0x0]
             0x000101c2: 15 91:       add (2rus)      r5, r5, 0x1
             0x000101c4: 44 b5:       eq (2rus)       r0, r5, 0x8
             0x000101c6: 17 7c:       bf (ru6)        r0, -0x17 <.label9>
             0x000101c8: d1 a6:       mkmsk (rus)     r0, 0x1
             0x000101ca: 26 f0 06 50: stw (lru6)      r0, dp[0x986]
             0x000101ce: 41 5c:       ldw (ru6)       r1, sp[0x1]
.label8      0x000101d0: 86 0c:       ldw (2rus)      r0, r1[0xa]
             0x000101d2: 26 f0 08 50: stw (lru6)      r0, dp[0x988]
             0x000101d6: 85 0c:       ldw (2rus)      r0, r1[0x9]
             0x000101d8: 95 68:       ldc (ru6)       r2, 0x15
             0x000101da: 02 c0:       lss (3r)        r0, r0, r2
             0x000101dc: 06 70:       bt (ru6)        r0, 0x6 <.label10>
             0x000101de: 01 f0 29 60: ldaw (lru6)     r0, dp[0x69]
             0x000101e2: 9c d4:       bl (u10)        -0x9c <update_common_delays>
             0x000101e4: d1 a6:       mkmsk (rus)     r0, 0x1
             0x000101e6: 26 f0 07 50: stw (lru6)      r0, dp[0x987]
.label10     0x000101ea: 82 5e:       ldw (ru6)       r10, sp[0x2]
             0x000101ec: 43 5e:       ldw (ru6)       r9, sp[0x3]
             0x000101ee: 04 5e:       ldw (ru6)       r8, sp[0x4]
             0x000101f0: c5 5d:       ldw (ru6)       r7, sp[0x5]
             0x000101f2: 86 5d:       ldw (ru6)       r6, sp[0x6]
             0x000101f4: 47 5d:       ldw (ru6)       r5, sp[0x7]
             0x000101f6: 08 5d:       ldw (ru6)       r4, sp[0x8]
             0x000101f8: c9 77:       retsp (u6)      0x9

<cross_fade_sample>:
<cross_fade_sample.coersed..f.7b0.7d.28p.28si.29.2cp.28si.29.2cp.28si.29.2csi.2csi.29>:
             0x000101fa: 49 77:       entsp (u6)      0x9
             0x000101fc: 08 55:       stw (ru6)       r4, sp[0x8]
             0x000101fe: 47 55:       stw (ru6)       r5, sp[0x7]
             0x00010200: 86 55:       stw (ru6)       r6, sp[0x6]
             0x00010202: c5 55:       stw (ru6)       r7, sp[0x5]
             0x00010204: 04 56:       stw (ru6)       r8, sp[0x4]
             0x00010206: 43 56:       stw (ru6)       r9, sp[0x3]
             0x00010208: 82 56:       stw (ru6)       r10, sp[0x2]
             0x0001020a: 5d a7:       mkmsk (rus)     r11, 0x1
             0x0001020c: 3f c5:       lss (3r)        r11, r3, r11
             0x0001020e: e8 72:       bt (ru6)        r11, 0x28 <.label11>
             0x00010210: 0a 5d:       ldw (ru6)       r4, sp[0xa]
             0x00010212: 70 f9 ec 97: ashr (l2rus)    r11, r4, 0x20
             0x00010216: c0 56:       stw (ru6)       r11, sp[0x0]
             0x00010218: 40 6a:       ldc (ru6)       r9, 0x0
.label12     0x0001021a: 25 4d:       ldw (3r)        r10, r1[r9]
             0x0001021c: 09 4d:       ldw (3r)        r8, r2[r9]
             0x0001021e: 40 69:       ldc (ru6)       r5, 0x0
             0x00010220: b2 fe c9 0f: lsub (l5r)      r6, r11, r8, r10, r5
             0x00010224: 81 55:       stw (ru6)       r6, sp[0x1]
             0x00010226: 80 f0 80 69: ldc (lru6)      r6, 0x2000
             0x0001022a: 1c fc f6 07: maccu (l4r)     r5, r6, r11, r4
             0x0001022e: c0 5d:       ldw (ru6)       r7, sp[0x0]
             0x00010230: 7f fc ec 3f: mul (l3r)       r11, r11, r7
             0x00010234: f7 15:       add (3r)        r11, r5, r11
             0x00010236: d8 f9 ec 97: ashr (l2rus)    r5, r10, 0x20
             0x0001023a: 00 fa ec 97: ashr (l2rus)    r8, r8, 0x20
             0x0001023e: c1 5d:       ldw (ru6)       r7, sp[0x1]
             0x00010240: 11 fc cf 0f: lsub (l5r)      r7, r5, r8, r5, r7
             0x00010244: 54 fb ec 3f: mul (l3r)       r5, r5, r4
             0x00010248: 7d 14:       add (3r)        r11, r11, r5
             0x0001024a: 52 69:       ldc (ru6)       r5, 0x12
             0x0001024c: 7d 24:       shl (3r)        r11, r11, r5
             0x0001024e: 4e 69:       ldc (ru6)       r5, 0xe
             0x00010250: 59 2b:       shr (3r)        r5, r6, r5
             0x00010252: f7 45:       or (3r)         r11, r5, r11
             0x00010254: be 16:       add (3r)        r11, r11, r10
             0x00010256: 31 fd ec 07: stw (l3r)       r11, r0[r9]
             0x0001025a: 15 92:       add (2rus)      r9, r9, 0x1
             0x0001025c: 37 32:       eq (3r)         r11, r9, r3
             0x0001025e: e3 7e:       bf (ru6)        r11, -0x23 <.label12>
.label11     0x00010260: 82 5e:       ldw (ru6)       r10, sp[0x2]
             0x00010262: 43 5e:       ldw (ru6)       r9, sp[0x3]
             0x00010264: 04 5e:       ldw (ru6)       r8, sp[0x4]
             0x00010266: c5 5d:       ldw (ru6)       r7, sp[0x5]
             0x00010268: 86 5d:       ldw (ru6)       r6, sp[0x6]
             0x0001026a: 47 5d:       ldw (ru6)       r5, sp[0x7]
             0x0001026c: 08 5d:       ldw (ru6)       r4, sp[0x8]
             0x0001026e: c9 77:       retsp (u6)      0x9

<dsp_sdram_delay>:
             0x00010270: 01 f0 51 77: entsp (lu6)     0x51
             0x00010274: 01 f0 10 55: stw (lru6)      r4, sp[0x50]
             0x00010278: 01 f0 4f 55: stw (lru6)      r5, sp[0x4f]
             0x0001027c: 01 f0 8e 55: stw (lru6)      r6, sp[0x4e]
             0x00010280: 01 f0 cd 55: stw (lru6)      r7, sp[0x4d]
             0x00010284: 01 f0 0c 56: stw (lru6)      r8, sp[0x4c]
             0x00010288: 01 f0 4b 56: stw (lru6)      r9, sp[0x4b]
             0x0001028c: 01 f0 8a 56: stw (lru6)      r10, sp[0x4a]
             0x00010290: 40 90:       add (2rus)      r4, r0, 0x0
             0x00010292: 00 6a:       ldc (ru6)       r8, 0x0
             0x00010294: 24 56:       stw (ru6)       r8, sp[0x24]
             0x00010296: 25 56:       stw (ru6)       r8, sp[0x25]
             0x00010298: 01 f0 09 56: stw (lru6)      r8, sp[0x49]
             0x0001029c: 29 56:       stw (ru6)       r8, sp[0x29]
             0x0001029e: 2d 56:       stw (ru6)       r8, sp[0x2d]
             0x000102a0: 31 56:       stw (ru6)       r8, sp[0x31]
             0x000102a2: 35 56:       stw (ru6)       r8, sp[0x35]
             0x000102a4: 14 64:       ldaw (ru6)      r0, sp[0x14]
             0x000102a6: a0 68:       ldc (ru6)       r2, 0x20
             0x000102a8: 90 91:       add (2rus)      r1, r8, 0x0
             0x000102aa: 03 f0 a7 d0: bl (lu10)       0xca7 <memset>
             0x000102ae: 04 68:       ldc (ru6)       r0, 0x4
             0x000102b0: 11 54:       stw (ru6)       r0, sp[0x11]
             0x000102b2: ee f2 00 68: ldc (lru6)      r0, 0xbb80
             0x000102b6: 12 54:       stw (ru6)       r0, sp[0x12]
             0x000102b8: 13 56:       stw (ru6)       r8, sp[0x13]
             0x000102ba: 00 f0 09 6c: ldw (lru6)      r0, cp[0x9]
             0x000102be: 09 54:       stw (ru6)       r0, sp[0x9]
             0x000102c0: 00 f0 0a 6c: ldw (lru6)      r0, cp[0xa]
             0x000102c4: 0a 54:       stw (ru6)       r0, sp[0xa]
             0x000102c6: 00 f0 0b 6c: ldw (lru6)      r0, cp[0xb]
             0x000102ca: 0b 54:       stw (ru6)       r0, sp[0xb]
             0x000102cc: 00 f0 0c 6c: ldw (lru6)      r0, cp[0xc]
             0x000102d0: 0c 54:       stw (ru6)       r0, sp[0xc]
             0x000102d2: 05 56:       stw (ru6)       r8, sp[0x5]
             0x000102d4: 06 56:       stw (ru6)       r8, sp[0x6]
             0x000102d6: 09 64:       ldaw (ru6)      r0, sp[0x9]
             0x000102d8: 00 f0 c2 d4: bl (lu10)       -0xc2 <config_sdram_delay> <config_sdram_delay.coersed..f.7b0.7d.28p.28s.28.29.7b.7d.29.29>
             0x000102dc: a4 65:       ldaw (ru6)      r6, sp[0x24]
             0x000102de: c2 69:       ldc (ru6)       r7, 0x2
             0x000102e0: 47 66:       ldaw (ru6)      r9, sp[0x7]
             0x000102e2: ff f0 bf 6a: ldc (lru6)      r10, 0x3fff
             0x000102e6: d0 91:       add (2rus)      r5, r8, 0x0
             0x000102e8: 01 f0 0c 73: bu (lu6)        0x4c <.label13>
.label19     0x000102ec: 00 f0 0d 6c: ldw (lru6)      r0, cp[0xd]
             0x000102f0: 80 c4:       lss (3r)        r0, r0, r8
             0x000102f2: 47 5c:       ldw (ru6)       r1, sp[0x7]
             0x000102f4: 88 5c:       ldw (ru6)       r2, sp[0x8]
             0x000102f6: 86 54:       stw (ru6)       r2, sp[0x6]
             0x000102f8: 45 54:       stw (ru6)       r1, sp[0x5]
             0x000102fa: 40 69:       ldc (ru6)       r5, 0x0
             0x000102fc: 01 f0 02 78: bf (lru6)       r0, 0x42 <.label13>
             0x00010300: 15 a7:       mkmsk (rus)     r5, 0x1
             0x00010302: 00 6a:       ldc (ru6)       r8, 0x0
             0x00010304: 3f 73:       bu (u6)         0x3f <.label13>
.label20     0x00010306: c4 55:       stw (ru6)       r7, sp[0x4]
             0x00010308: c3 55:       stw (ru6)       r7, sp[0x3]
             0x0001030a: c2 55:       stw (ru6)       r7, sp[0x2]
             0x0001030c: 01 56:       stw (ru6)       r8, sp[0x1]
             0x0001030e: 05 64:       ldaw (ru6)      r0, sp[0x5]
             0x00010310: 94 91:       add (2rus)      r1, r9, 0x0
             0x00010312: e8 90:       add (2rus)      r2, r6, 0x0
             0x00010314: fc 90:       add (2rus)      r3, r7, 0x0
             0x00010316: 00 f0 90 d4: bl (lu10)       -0x90 <cross_fade_sample> <cross_fade_sample.coersed..f.7b0.7d.28p.28si.29.2cp.28si.29.2cp.28si.29.2csi.2csi.29>
             0x0001031a: 08 c6:       lss (3r)        r0, r10, r8
             0x0001031c: 15 a7:       mkmsk (rus)     r5, 0x1
             0x0001031e: 32 78:       bf (ru6)        r0, 0x32 <.label13>
             0x00010320: 01 f0 04 68: ldc (lru6)      r0, 0x44
             0x00010324: 03 f0 8f d0: bl (lu10)       0xc8f <printcharln>
             0x00010328: 42 69:       ldc (ru6)       r5, 0x2
             0x0001032a: 00 6a:       ldc (ru6)       r8, 0x0
             0x0001032c: 2b 73:       bu (u6)         0x2b <.label13>
.label17     0x0001032e: 00 f0 0d 6c: ldw (lru6)      r0, cp[0xd]
             0x00010332: 80 c4:       lss (3r)        r0, r0, r8
             0x00010334: d8 08:       ldw (2rus)      r1, r6[0x0]
             0x00010336: e9 08:       ldw (2rus)      r2, r6[0x1]
             0x00010338: 86 54:       stw (ru6)       r2, sp[0x6]
             0x0001033a: 45 54:       stw (ru6)       r1, sp[0x5]
             0x0001033c: 1c 91:       add (2rus)      r5, r7, 0x0
             0x0001033e: 22 78:       bf (ru6)        r0, 0x22 <.label13>
             0x00010340: 16 a7:       mkmsk (rus)     r5, 0x2
             0x00010342: 00 6a:       ldc (ru6)       r8, 0x0
             0x00010344: 1f 73:       bu (u6)         0x1f <.label13>
.label18     0x00010346: c4 55:       stw (ru6)       r7, sp[0x4]
             0x00010348: c3 55:       stw (ru6)       r7, sp[0x3]
             0x0001034a: c2 55:       stw (ru6)       r7, sp[0x2]
             0x0001034c: 01 56:       stw (ru6)       r8, sp[0x1]
             0x0001034e: 05 64:       ldaw (ru6)      r0, sp[0x5]
             0x00010350: d8 90:       add (2rus)      r1, r6, 0x0
             0x00010352: a4 91:       add (2rus)      r2, r9, 0x0
             0x00010354: fc 90:       add (2rus)      r3, r7, 0x0
             0x00010356: 00 f0 b0 d4: bl (lu10)       -0xb0 <cross_fade_sample> <cross_fade_sample.coersed..f.7b0.7d.28p.28si.29.2cp.28si.29.2cp.28si.29.2csi.2csi.29>
             0x0001035a: 08 c6:       lss (3r)        r0, r10, r8
             0x0001035c: 16 a7:       mkmsk (rus)     r5, 0x2
             0x0001035e: 12 78:       bf (ru6)        r0, 0x12 <.label13>
             0x00010360: 01 f0 05 68: ldc (lru6)      r0, 0x45
             0x00010364: 03 f0 6f d0: bl (lu10)       0xc6f <printcharln>
             0x00010368: 00 6a:       ldc (ru6)       r8, 0x0
             0x0001036a: d0 91:       add (2rus)      r5, r8, 0x0
             0x0001036c: 0b 73:       bu (u6)         0xb <.label13>
.label14     0x0001036e: d3 a6:       mkmsk (rus)     r0, 0x3
             0x00010370: 01 54:       stw (ru6)       r0, sp[0x1]
             0x00010372: 01 f0 01 60: ldaw (lru6)     r0, dp[0x41]
             0x00010376: 04 f0 54 68: ldc (lru6)      r1, 0x114
             0x0001037a: 01 f0 88 60: ldaw (lru6)     r2, dp[0x48]
             0x0001037e: da 68:       ldc (ru6)       r3, 0x1a
             0x00010380: 02 f0 b8 d3: bl (lu10)       0xbb8 <__assert> <__assert.coersed..f.7b0.7d.28p.28c.3auc.29.2csi.2cp.28c.3auc.29.29>
.label13     0x00010384: d2 a6:       mkmsk (rus)     r0, 0x2
             0x00010386: 41 ca:       lsu (3r)        r0, r0, r5
             0x00010388: 84 b7:       in (2r)         r1, res[r4]
             0x0001038a: d8 00:       stw (2rus)      r1, r6[0x0]
             0x0001038c: 85 5c:       ldw (ru6)       r2, sp[0x5]
             0x0001038e: 88 af:       out (r2r)       res[r4], r2
             0x00010390: 88 b7:       in (2r)         r2, res[r4]
             0x00010392: e5 64:       ldaw (ru6)      r3, sp[0x25]
             0x00010394: 2c 00:       stw (2rus)      r2, r3[0x0]
             0x00010396: 86 5c:       ldw (ru6)       r2, sp[0x6]
             0x00010398: 88 af:       out (r2r)       res[r4], r2
             0x0001039a: 47 54:       stw (ru6)       r1, sp[0x7]
             0x0001039c: 01 92:       add (2rus)      r8, r8, 0x1
             0x0001039e: 19 74:       bt (ru6)        r0, -0x19 <.label14>
             0x000103a0: e5 2f:       bru (1r)        r5
             0x000103a2: 03 73:       bu (u6)         0x3 <.label15>
             0x000103a4: 04 73:       bu (u6)         0x4 <.label16>
             0x000103a6: 3d 77:       bu (u6)         -0x3d <.label17>
             0x000103a8: 32 77:       bu (u6)         -0x32 <.label18>
.label15     0x000103aa: 01 f0 21 77: bu (lu6)        -0x61 <.label19>
.label16     0x000103ae: 01 f0 16 77: bu (lu6)        -0x56 <.label20>

<__main_xm_1>:
             0x000103b2: 41 77:       entsp (u6)      0x1
             0x000103b4: 20 90:       add (2rus)      r2, r0, 0x0
             0x000103b6: 04 90:       add (2rus)      r0, r1, 0x0
             0x000103b8: 18 90:       add (2rus)      r1, r2, 0x0
             0x000103ba: 00 f0 a7 d4: bl (lu10)       -0xa7 <dsp_sdram_delay>
             0x000103be: c1 77:       retsp (u6)      0x1

<__main_xm_2>:
             0x000103c0: 41 77:       entsp (u6)      0x1
             0x000103c2: 00 f0 01 d0: bl (lu10)       0x1 <sdram_io>
             0x000103c6: c1 77:       retsp (u6)      0x1

<sdram_io>:
             0x000103c8: 41 77:       entsp (u6)      0x1
             0x000103ca: 01 f0 4a 60: ldaw (lru6)     r1, dp[0x4a]
             0x000103ce: 00 f0 d1 d0: bl (lu10)       0xd1 <sdram_server_PINOUT_V1_IS42S16400F>
             0x000103d2: 00 68:       ldc (ru6)       r0, 0x0
             0x000103d4: c1 77:       retsp (u6)      0x1

<sdram_init_PINOUT_V1_IS42S16400F>:
             0x000103d6: 43 77:       entsp (u6)      0x3
             0x000103d8: 02 55:       stw (ru6)       r4, sp[0x2]
             0x000103da: 41 55:       stw (ru6)       r5, sp[0x1]
             0x000103dc: 80 55:       stw (ru6)       r6, sp[0x0]
             0x000103de: c5 86:       getr (rus)      r1, 0x1
             0x000103e0: 81 0a:       ldw (2rus)      r4, r0[0x5]
             0x000103e2: d9 a6:       mkmsk (rus)     r2, 0x1
             0x000103e4: 98 17:       setd (r2r)      res[r4], r2
             0x000103e6: 60 0a:       ldw (2rus)      r2, r0[0x4]
             0x000103e8: 12 ff ec 0f: setclk (lr2r)   res[r2], r4
             0x000103ec: 40 f1 8f e8: setc (lru6)     res[r2], 0x500f
             0x000103f0: b0 08:       ldw (2rus)      r11, r0[0x0]
             0x000103f2: 73 ff ec 0f: setclk (lr2r)   res[r11], r4
             0x000103f6: 31 08:       ldw (2rus)      r3, r0[0x1]
             0x000103f8: 13 ff ec 0f: setclk (lr2r)   res[r3], r4
             0x000103fc: 22 08:       ldw (2rus)      r2, r0[0x2]
             0x000103fe: 12 ff ec 0f: setclk (lr2r)   res[r2], r4
             0x00010402: 03 08:       ldw (2rus)      r0, r0[0x3]
             0x00010404: 10 ff ec 0f: setclk (lr2r)   res[r0], r4
             0x00010408: 00 f1 cf ea: setc (lru6)     res[r11], 0x400f
             0x0001040c: 0f e9:       setc (ru6)      res[r4], 0xf
             0x0001040e: 41 e8:       setc (ru6)      res[r1], 0x1
             0x00010410: 01 b7:       in (2r)         r4, res[r1]
             0x00010412: 9c f0 50 69: ldc (lru6)      r5, 0x2710
             0x00010416: 41 13:       add (3r)        r4, r4, r5
             0x00010418: 11 17:       setd (r2r)      res[r1], r4
             0x0001041a: 49 e8:       setc (ru6)      res[r1], 0x9
             0x0001041c: 01 b7:       in (2r)         r4, res[r1]
             0x0001041e: 00 f0 0e 6d: ldw (lru6)      r4, cp[0xe]
             0x00010422: 63 af:       out (r2r)       res[r11], r4
             0x00010424: fb 87:       syncr (1r)      res[r11]
             0x00010426: 67 3f:       getts (2r)      r5, res[r11]
             0x00010428: 3c 69:       ldc (ru6)       r4, 0x3c
             0x0001042a: 64 13:       add (3r)        r6, r5, r4
             0x0001042c: 1a 3f:       setpt (r2r)     res[r2], r6
             0x0001042e: 02 69:       ldc (ru6)       r4, 0x2
             0x00010430: 4a f8 ed 97: outpw (l2rus)   res[r2], r4, 0x2
             0x00010434: 18 3f:       setpt (r2r)     res[r0], r6
             0x00010436: 42 f8 ed 97: outpw (l2rus)   res[r0], r4, 0x2
             0x0001043a: 01 f0 84 69: ldc (lru6)      r6, 0x44
             0x0001043e: 66 13:       add (3r)        r6, r5, r6
             0x00010440: 1b 3f:       setpt (r2r)     res[r3], r6
             0x00010442: 4e f8 ed 97: outpw (l2rus)   res[r3], r4, 0x2
             0x00010446: 1a 3f:       setpt (r2r)     res[r2], r6
             0x00010448: 4a f8 ed 97: outpw (l2rus)   res[r2], r4, 0x2
             0x0001044c: 01 f0 8c 69: ldc (lru6)      r6, 0x4c
             0x00010450: 66 13:       add (3r)        r6, r5, r6
             0x00010452: 1b 3f:       setpt (r2r)     res[r3], r6
             0x00010454: 4e f8 ed 97: outpw (l2rus)   res[r3], r4, 0x2
             0x00010458: 1a 3f:       setpt (r2r)     res[r2], r6
             0x0001045a: 4a f8 ed 97: outpw (l2rus)   res[r2], r4, 0x2
             0x0001045e: 01 f0 94 69: ldc (lru6)      r6, 0x54
             0x00010462: 66 13:       add (3r)        r6, r5, r6
             0x00010464: 1b 3f:       setpt (r2r)     res[r3], r6
             0x00010466: 4e f8 ed 97: outpw (l2rus)   res[r3], r4, 0x2
             0x0001046a: 1a 3f:       setpt (r2r)     res[r2], r6
             0x0001046c: 4a f8 ed 97: outpw (l2rus)   res[r2], r4, 0x2
             0x00010470: 01 f0 9c 69: ldc (lru6)      r6, 0x5c
             0x00010474: 66 13:       add (3r)        r6, r5, r6
             0x00010476: 1b 3f:       setpt (r2r)     res[r3], r6
             0x00010478: 4e f8 ed 97: outpw (l2rus)   res[r3], r4, 0x2
             0x0001047c: 1a 3f:       setpt (r2r)     res[r2], r6
             0x0001047e: 4a f8 ed 97: outpw (l2rus)   res[r2], r4, 0x2
             0x00010482: 01 f0 a4 69: ldc (lru6)      r6, 0x64
             0x00010486: 66 13:       add (3r)        r6, r5, r6
             0x00010488: 7b 3f:       setpt (r2r)     res[r11], r6
             0x0001048a: 00 f0 8f 6d: ldw (lru6)      r6, cp[0xf]
             0x0001048e: 6b af:       out (r2r)       res[r11], r6
             0x00010490: 02 f0 d4 6a: ldc (lru6)      r11, 0x94
             0x00010494: f7 15:       add (3r)        r11, r5, r11
             0x00010496: 5f 3f:       setpt (r2r)     res[r3], r11
             0x00010498: 4e f8 ed 97: outpw (l2rus)   res[r3], r4, 0x2
             0x0001049c: 5e 3f:       setpt (r2r)     res[r2], r11
             0x0001049e: 4a f8 ed 97: outpw (l2rus)   res[r2], r4, 0x2
             0x000104a2: 5c 3f:       setpt (r2r)     res[r0], r11
             0x000104a4: 42 f8 ed 97: outpw (l2rus)   res[r0], r4, 0x2
             0x000104a8: e1 17:       freer (1r)      res[r1]
             0x000104aa: 80 5d:       ldw (ru6)       r6, sp[0x0]
             0x000104ac: 41 5d:       ldw (ru6)       r5, sp[0x1]
             0x000104ae: 02 5d:       ldw (ru6)       r4, sp[0x2]
             0x000104b0: c3 77:       retsp (u6)      0x3

<sdram_read_PINOUT_V1_IS42S16400F>:
             0x000104b2: 49 77:       entsp (u6)      0x9
             0x000104b4: 08 55:       stw (ru6)       r4, sp[0x8]
             0x000104b6: 47 55:       stw (ru6)       r5, sp[0x7]
             0x000104b8: 86 55:       stw (ru6)       r6, sp[0x6]
             0x000104ba: c5 55:       stw (ru6)       r7, sp[0x5]
             0x000104bc: 04 56:       stw (ru6)       r8, sp[0x4]
             0x000104be: 01 f0 d0 62: ldaw (lru6)     r11, dp[0x50]
             0x000104c2: ae 49:       ldw (3r)        r2, r11[r2]
             0x000104c4: 95 a4:       shl (2rus)      r1, r1, 0x10
             0x000104c6: 04 40:       or (3r)         r0, r1, r0
             0x000104c8: b2 40:       or (3r)         r11, r0, r2
             0x000104ca: 4a 5c:       ldw (ru6)       r1, sp[0xa]
             0x000104cc: d2 a6:       mkmsk (rus)     r0, 0x2
             0x000104ce: 01 c8:       lsu (3r)        r0, r0, r1
             0x000104d0: 0b 5d:       ldw (ru6)       r4, sp[0xb]
             0x000104d2: 21 70:       bt (ru6)        r0, 0x21 <.label21>
             0x000104d4: c2 08:       ldw (2rus)      r0, r4[0x2]
             0x000104d6: d9 a6:       mkmsk (rus)     r2, 0x1
             0x000104d8: 21 f8 ed 97: outpw (l2rus)   res[r0], r2, 0x1
             0x000104dc: f0 87:       syncr (1r)      res[r0]
             0x000104de: 04 3f:       getts (2r)      r5, res[r0]
             0x000104e0: a1 68:       ldc (ru6)       r2, 0x21
             0x000104e2: 26 11:       add (3r)        r6, r5, r2
             0x000104e4: e0 08:       ldw (2rus)      r2, r4[0x0]
             0x000104e6: 1a 3f:       setpt (r2r)     res[r2], r6
             0x000104e8: 4e af:       out (r2r)       res[r2], r11
             0x000104ea: 71 09:       ldw (2rus)      r11, r4[0x1]
             0x000104ec: 7b 3f:       setpt (r2r)     res[r11], r6
             0x000104ee: c5 69:       ldc (ru6)       r7, 0x5
             0x000104f0: ff f9 ed 97: outpw (l2rus)   res[r11], r7, 0x3
             0x000104f4: 18 3f:       setpt (r2r)     res[r0], r6
             0x000104f6: c6 6a:       ldc (ru6)       r11, 0x6
             0x000104f8: b3 f8 ed 97: outpw (l2rus)   res[r0], r11, 0x3
             0x000104fc: ed 6a:       ldc (ru6)       r11, 0x2d
             0x000104fe: a7 15:       add (3r)        r6, r5, r11
             0x00010500: 73 09:       ldw (2rus)      r11, r4[0x3]
             0x00010502: 81 55:       stw (ru6)       r6, sp[0x1]
             0x00010504: 03 54:       stw (ru6)       r0, sp[0x3]
             0x00010506: 45 fd ec 9f: ldaw (l2rus)    r0, r5[0x9]
             0x0001050a: 02 54:       stw (ru6)       r0, sp[0x2]
             0x0001050c: 0c 90:       add (2rus)      r0, r3, 0x0
             0x0001050e: bc 91:       add (2rus)      r3, r11, 0x0
             0x00010510: 02 f0 be d0: bl (lu10)       0x8be <sdram_short_block_read_PINOUT_V1_IS42S16400F>
             0x00010514: 29 73:       bu (u6)         0x29 <.label22>
.label21     0x00010516: 12 09:       ldw (2rus)      r5, r4[0x2]
             0x00010518: d1 a6:       mkmsk (rus)     r0, 0x1
             0x0001051a: c5 f8 ed 97: outpw (l2rus)   res[r5], r0, 0x1
             0x0001051e: 02 f0 00 68: ldc (lru6)      r0, 0x80
             0x00010522: 71 18:       sub (3r)        r7, r0, r1
             0x00010524: ce a0:       shl (2rus)      r0, r7, 0x2
             0x00010526: 03 f0 bc 68: ldc (lru6)      r2, 0xfc
             0x0001052a: 02 38:       and (3r)        r0, r0, r2
             0x0001052c: 0c 18:       sub (3r)        r0, r3, r0
             0x0001052e: f5 87:       syncr (1r)      res[r5]
             0x00010530: c9 3f:       getts (2r)      r6, res[r5]
             0x00010532: a1 68:       ldc (ru6)       r2, 0x21
             0x00010534: fa 10:       add (3r)        r3, r6, r2
             0x00010536: e0 08:       ldw (2rus)      r2, r4[0x0]
             0x00010538: de 3e:       setpt (r2r)     res[r2], r3
             0x0001053a: 4e af:       out (r2r)       res[r2], r11
             0x0001053c: 71 09:       ldw (2rus)      r11, r4[0x1]
             0x0001053e: 3f 3f:       setpt (r2r)     res[r11], r3
             0x00010540: 05 6a:       ldc (ru6)       r8, 0x5
             0x00010542: 0f fa ed 97: outpw (l2rus)   res[r11], r8, 0x3
             0x00010546: 9d 3f:       setpt (r2r)     res[r5], r3
             0x00010548: c6 6a:       ldc (ru6)       r11, 0x6
             0x0001054a: 77 f9 ed 97: outpw (l2rus)   res[r5], r11, 0x3
             0x0001054e: 7d a1:       shl (2rus)      r11, r7, 0x1
             0x00010550: 1d f8 ec 2f: lda16 (l3r)     r1, r3[r1]
             0x00010554: 54 92:       add (2rus)      r1, r1, 0x4
             0x00010556: f3 08:       ldw (2rus)      r3, r4[0x3]
             0x00010558: 41 54:       stw (ru6)       r1, sp[0x1]
             0x0001055a: 43 55:       stw (ru6)       r5, sp[0x3]
             0x0001055c: 59 fd ec 9f: ldaw (l2rus)    r1, r6[0x9]
             0x00010560: 42 54:       stw (ru6)       r1, sp[0x2]
             0x00010562: 9c 91:       add (2rus)      r1, r11, 0x0
             0x00010564: 01 f0 6a d3: bl (lu10)       0x76a <sdram_block_read_PINOUT_V1_IS42S16400F>
.label22     0x00010568: 04 5e:       ldw (ru6)       r8, sp[0x4]
             0x0001056a: c5 5d:       ldw (ru6)       r7, sp[0x5]
             0x0001056c: 86 5d:       ldw (ru6)       r6, sp[0x6]
             0x0001056e: 47 5d:       ldw (ru6)       r5, sp[0x7]
             0x00010570: 08 5d:       ldw (ru6)       r4, sp[0x8]
             0x00010572: c9 77:       retsp (u6)      0x9

<sdram_server_PINOUT_V1_IS42S16400F>:
             0x00010574: 52 77:       entsp (u6)      0x12
             0x00010576: 11 55:       stw (ru6)       r4, sp[0x11]
             0x00010578: 50 55:       stw (ru6)       r5, sp[0x10]
             0x0001057a: 8f 55:       stw (ru6)       r6, sp[0xf]
             0x0001057c: ce 55:       stw (ru6)       r7, sp[0xe]
             0x0001057e: 0d 56:       stw (ru6)       r8, sp[0xd]
             0x00010580: 4c 56:       stw (ru6)       r9, sp[0xc]
             0x00010582: 8b 56:       stw (ru6)       r10, sp[0xb]
             0x00010584: 44 90:       add (2rus)      r4, r1, 0x0
             0x00010586: a0 90:       add (2rus)      r10, r0, 0x0
             0x00010588: 88 56:       stw (ru6)       r10, sp[0x8]
             0x0001058a: c0 90:       add (2rus)      r0, r4, 0x0
             0x0001058c: dc d4:       bl (u10)        -0xdc <sdram_init_PINOUT_V1_IS42S16400F>
             0x0001058e: 4d 87:       getr (rus)      r11, 0x1
             0x00010590: c2 08:       ldw (2rus)      r0, r4[0x2]
             0x00010592: d1 08:       ldw (2rus)      r1, r4[0x1]
             0x00010594: d9 a6:       mkmsk (rus)     r2, 0x1
             0x00010596: 25 f8 ed 97: outpw (l2rus)   res[r1], r2, 0x1
             0x0001059a: f1 87:       syncr (1r)      res[r1]
             0x0001059c: c9 3e:       getts (2r)      r2, res[r1]
             0x0001059e: a8 94:       add (2rus)      r2, r2, 0x8
             0x000105a0: d9 3e:       setpt (r2r)     res[r1], r2
             0x000105a2: aa f2 aa 69: ldc (lru6)      r6, 0xaaaa
             0x000105a6: e5 fc ed 97: outpw (l2rus)   res[r1], r6, 0x10
             0x000105aa: d8 3e:       setpt (r2r)     res[r0], r2
             0x000105ac: e1 fc ed 97: outpw (l2rus)   res[r0], r6, 0x10
             0x000105b0: 88 68:       ldc (ru6)       r2, 0x8
             0x000105b2: 40 f0 40 69: ldc (lru6)      r5, 0x1000
.label23     0x000105b6: e5 fc ed 97: outpw (l2rus)   res[r1], r6, 0x10
             0x000105ba: e1 fc ed 97: outpw (l2rus)   res[r0], r6, 0x10
             0x000105be: a8 94:       add (2rus)      r2, r2, 0x8
             0x000105c0: 79 ca:       lsu (3r)        r3, r2, r5
             0x000105c2: c7 74:       bt (ru6)        r3, -0x7 <.label23>
             0x000105c4: c7 56:       stw (ru6)       r11, sp[0x7]
             0x000105c6: c1 ea:       setc (ru6)      res[r11], 0x1
             0x000105c8: 67 b7:       in (2r)         r5, res[r11]
             0x000105ca: 09 73:       bu (u6)         0x9 <.label24>
.label30     0x000105cc: c8 6a:       ldc (ru6)       r11, 0x8
.label25     0x000105ce: e9 fc ed 97: outpw (l2rus)   res[r2], r6, 0x10
             0x000105d2: e5 fc ed 97: outpw (l2rus)   res[r1], r6, 0x10
             0x000105d6: bc 96:       add (2rus)      r11, r11, 0x8
             0x000105d8: df c9:       lsu (3r)        r5, r11, r3
             0x000105da: 47 75:       bt (ru6)        r5, -0x7 <.label25>
             0x000105dc: 50 90:       add (2rus)      r5, r0, 0x0
.label24     0x000105de: 46 55:       stw (ru6)       r5, sp[0x6]
             0x000105e0: c3 f0 10 68: ldc (lru6)      r0, 0x30d0
             0x000105e4: c4 10:       add (3r)        r0, r5, r0
             0x000105e6: 05 54:       stw (ru6)       r0, sp[0x5]
             0x000105e8: 2f 73:       bu (u6)         0x2f <.label26>
.label36     0x000105ea: 59 cf:       chkct (rus)     res[r10], 0x1
             0x000105ec: 59 4f:       outct (rus)     res[r10], 0x1
             0x000105ee: 66 b7:       in (2r)         r5, res[r10]
             0x000105f0: 2e b7:       in (2r)         r3, res[r10]
             0x000105f2: 22 b7:       in (2r)         r0, res[r10]
             0x000105f4: 59 cf:       chkct (rus)     res[r10], 0x1
             0x000105f6: 59 4f:       outct (rus)     res[r10], 0x1
             0x000105f8: d2 08:       ldw (2rus)      r1, r4[0x2]
             0x000105fa: d9 a6:       mkmsk (rus)     r2, 0x1
             0x000105fc: 25 f8 ed 97: outpw (l2rus)   res[r1], r2, 0x1
             0x00010600: f1 87:       syncr (1r)      res[r1]
             0x00010602: 4d 3f:       getts (2r)      r11, res[r1]
             0x00010604: a1 68:       ldc (ru6)       r2, 0x21
             0x00010606: ee 11:       add (3r)        r6, r11, r2
             0x00010608: e0 08:       ldw (2rus)      r2, r4[0x0]
             0x0001060a: 1a 3f:       setpt (r2r)     res[r2], r6
             0x0001060c: 01 f0 d0 61: ldaw (lru6)     r7, dp[0x50]
             0x00010610: 5d 4b:       ldw (3r)        r5, r7[r5]
             0x00010612: f7 40:       or (3r)         r3, r5, r3
             0x00010614: ce ae:       out (r2r)       res[r2], r3
             0x00010616: f1 08:       ldw (2rus)      r3, r4[0x1]
             0x00010618: 1b 3f:       setpt (r2r)     res[r3], r6
             0x0001061a: 45 69:       ldc (ru6)       r5, 0x5
             0x0001061c: 5f f8 ed 97: outpw (l2rus)   res[r3], r5, 0x3
             0x00010620: 19 3f:       setpt (r2r)     res[r1], r6
             0x00010622: c6 68:       ldc (ru6)       r3, 0x6
             0x00010624: 37 f8 ed 97: outpw (l2rus)   res[r1], r3, 0x3
             0x00010628: 04 f0 e5 68: ldc (lru6)      r3, 0x125
             0x0001062c: df 11:       add (3r)        r5, r11, r3
             0x0001062e: f3 08:       ldw (2rus)      r3, r4[0x3]
             0x00010630: 41 55:       stw (ru6)       r5, sp[0x1]
             0x00010632: 43 54:       stw (ru6)       r1, sp[0x3]
             0x00010634: 1d fe ec 9f: ldaw (l2rus)    r1, r11[0x9]
             0x00010638: 42 54:       stw (ru6)       r1, sp[0x2]
             0x0001063a: 40 68:       ldc (ru6)       r1, 0x0
             0x0001063c: 01 f0 fe d2: bl (lu10)       0x6fe <sdram_block_read_PINOUT_V1_IS42S16400F>
.label31     0x00010640: 59 4f:       outct (rus)     res[r10], 0x1
             0x00010642: aa f2 aa 69: ldc (lru6)      r6, 0xaaaa
             0x00010646: 46 5d:       ldw (ru6)       r5, sp[0x6]
.label26     0x00010648: ed 07:       clre (0r)       
             0x0001064a: 07 5c:       ldw (ru6)       r0, sp[0x7]
             0x0001064c: 45 5c:       ldw (ru6)       r1, sp[0x5]
             0x0001064e: d4 16:       setd (r2r)      res[r0], r1
             0x00010650: 09 e8:       setc (ru6)      res[r0], 0x9
             0x00010652: 08 d8:       ldap (u10)      r11, 0x8 <.label27>
             0x00010654: f0 47:       setv (1r)       res[r0], r11
             0x00010656: 25 d8:       ldap (u10)      r11, 0x25 <.label28>
             0x00010658: fa 47:       setv (1r)       res[r10], r11
             0x0001065a: f0 07:       eeu (1r)        res[r0]
             0x0001065c: 41 7b:       setsr (u6)      0x1
             0x0001065e: 01 7b:       clrsr (u6)      0x1
             0x00010660: 04 f0 08 73: bu (lu6)        0x108 <.label29>
.label27     0x00010664: 07 5c:       ldw (ru6)       r0, sp[0x7]
             0x00010666: c0 b6:       in (2r)         r0, res[r0]
             0x00010668: d2 08:       ldw (2rus)      r1, r4[0x2]
             0x0001066a: e1 08:       ldw (2rus)      r2, r4[0x1]
             0x0001066c: dd a6:       mkmsk (rus)     r3, 0x1
             0x0001066e: 39 f8 ed 97: outpw (l2rus)   res[r2], r3, 0x1
             0x00010672: f2 87:       syncr (1r)      res[r2]
             0x00010674: ce 3e:       getts (2r)      r3, res[r2]
             0x00010676: bc 94:       add (2rus)      r3, r3, 0x8
             0x00010678: de 3e:       setpt (r2r)     res[r2], r3
             0x0001067a: e9 fc ed 97: outpw (l2rus)   res[r2], r6, 0x10
             0x0001067e: dd 3e:       setpt (r2r)     res[r1], r3
             0x00010680: e5 fc ed 97: outpw (l2rus)   res[r1], r6, 0x10
             0x00010684: 71 1a:       sub (3r)        r3, r0, r5
             0x00010686: c0 6a:       ldc (ru6)       r11, 0x0
             0x00010688: 00 f0 52 6d: ldw (lru6)      r5, cp[0x12]
             0x0001068c: 7d fa bf 06: lmul (l6r)      r3, r11, r3, r5, r11, r11
             0x00010690: 7f aa:       shr (2rus)      r3, r3, 0x7
             0x00010692: 3d 90:       add (2rus)      r3, r3, 0x1
             0x00010694: c9 6a:       ldc (ru6)       r11, 0x9
             0x00010696: 3f cd:       lsu (3r)        r11, r3, r11
             0x00010698: 50 90:       add (2rus)      r5, r0, 0x0
             0x0001069a: 01 f0 e0 76: bt (lru6)       r11, -0x60 <.label24>
             0x0001069e: 01 f0 2b 77: bu (lu6)        -0x6b <.label30>
.label28     0x000106a2: 59 cf:       chkct (rus)     res[r10], 0x1
             0x000106a4: 59 4f:       outct (rus)     res[r10], 0x1
             0x000106a6: 32 8f:       int (2r)        r0, res[r10]
             0x000106a8: d6 a6:       mkmsk (rus)     r1, 0x2
             0x000106aa: 14 c8:       lsu (3r)        r1, r1, r0
             0x000106ac: 59 cf:       chkct (rus)     res[r10], 0x1
             0x000106ae: 59 4f:       outct (rus)     res[r10], 0x1
             0x000106b0: 79 74:       bt (ru6)        r1, -0x39 <.label31>
             0x000106b2: e0 2f:       bru (1r)        r0
             0x000106b4: 07 73:       bu (u6)         0x7 <.label32>
             0x000106b6: 35 73:       bu (u6)         0x35 <.label33>
             0x000106b8: 01 73:       bu (u6)         0x1 <.label34>
             0x000106ba: 02 73:       bu (u6)         0x2 <.label35>
.label34     0x000106bc: 01 f0 2b 77: bu (lu6)        -0x6b <.label36>
.label35     0x000106c0: 02 f0 2b 73: bu (lu6)        0xab <.label37>
.label32     0x000106c4: 59 cf:       chkct (rus)     res[r10], 0x1
             0x000106c6: 59 4f:       outct (rus)     res[r10], 0x1
             0x000106c8: 6e b7:       in (2r)         r7, res[r10]
             0x000106ca: a6 b7:       in (2r)         r9, res[r10]
             0x000106cc: 26 b7:       in (2r)         r1, res[r10]
             0x000106ce: 6a b7:       in (2r)         r6, res[r10]
             0x000106d0: a2 b7:       in (2r)         r8, res[r10]
             0x000106d2: 59 cf:       chkct (rus)     res[r10], 0x1
             0x000106d4: 59 4f:       outct (rus)     res[r10], 0x1
             0x000106d6: 16 73:       bu (u6)         0x16 <.label38>
.label39     0x000106d8: 02 55:       stw (ru6)       r4, sp[0x2]
             0x000106da: 81 56:       stw (ru6)       r10, sp[0x1]
             0x000106dc: 84 91:       add (2rus)      r0, r9, 0x0
             0x000106de: ec 90:       add (2rus)      r2, r7, 0x0
             0x000106e0: b0 91:       add (2rus)      r3, r8, 0x0
             0x000106e2: 19 d5:       bl (u10)        -0x119 <sdram_read_PINOUT_V1_IS42S16400F>
             0x000106e4: aa 1d:       sub (3r)        r6, r6, r10
             0x000106e6: 15 92:       add (2rus)      r9, r9, 0x1
             0x000106e8: 40 f0 00 68: ldc (lru6)      r0, 0x1000
             0x000106ec: 84 31:       eq (3r)         r0, r9, r0
             0x000106ee: d5 a0:       shl (2rus)      r1, r5, 0x1
             0x000106f0: 00 f0 91 6c: ldw (lru6)      r2, cp[0x11]
             0x000106f4: 16 38:       and (3r)        r1, r1, r2
             0x000106f6: 04 15:       add (3r)        r8, r1, r8
             0x000106f8: 40 68:       ldc (ru6)       r1, 0x0
             0x000106fa: 04 78:       bf (ru6)        r0, 0x4 <.label38>
             0x000106fc: 3d 91:       add (2rus)      r7, r7, 0x1
             0x000106fe: 1e 47:       zext (rus)      r7, 0x2
             0x00010700: 40 68:       ldc (ru6)       r1, 0x0
             0x00010702: 94 90:       add (2rus)      r9, r1, 0x0
.label38     0x00010704: 04 f0 00 68: ldc (lru6)      r0, 0x100
             0x00010708: 51 18:       sub (3r)        r5, r0, r1
             0x0001070a: 65 a9:       shr (2rus)      r10, r5, 0x1
             0x0001070c: ca cb:       lsu (3r)        r0, r10, r6
             0x0001070e: 1c 74:       bt (ru6)        r0, -0x1c <.label39>
             0x00010710: 02 55:       stw (ru6)       r4, sp[0x2]
             0x00010712: 81 55:       stw (ru6)       r6, sp[0x1]
             0x00010714: 84 91:       add (2rus)      r0, r9, 0x0
             0x00010716: ec 90:       add (2rus)      r2, r7, 0x0
             0x00010718: b0 91:       add (2rus)      r3, r8, 0x0
             0x0001071a: 35 d5:       bl (u10)        -0x135 <sdram_read_PINOUT_V1_IS42S16400F>
             0x0001071c: 88 5e:       ldw (ru6)       r10, sp[0x8]
             0x0001071e: 01 f0 31 77: bu (lu6)        -0x71 <.label31>
.label33     0x00010722: 10 91:       add (2rus)      r5, r4, 0x0
             0x00010724: 59 cf:       chkct (rus)     res[r10], 0x1
             0x00010726: 59 4f:       outct (rus)     res[r10], 0x1
             0x00010728: 2a b7:       in (2r)         r2, res[r10]
             0x0001072a: 6a b7:       in (2r)         r6, res[r10]
             0x0001072c: 22 b7:       in (2r)         r0, res[r10]
             0x0001072e: 6e b7:       in (2r)         r7, res[r10]
             0x00010730: a2 b7:       in (2r)         r8, res[r10]
             0x00010732: 59 cf:       chkct (rus)     res[r10], 0x1
             0x00010734: 59 4f:       outct (rus)     res[r10], 0x1
             0x00010736: 38 73:       bu (u6)         0x38 <.label40>
.label42     0x00010738: f5 08:       ldw (2rus)      r3, r5[0x1]
             0x0001073a: d1 a6:       mkmsk (rus)     r0, 0x1
             0x0001073c: 0d f8 ed 97: outpw (l2rus)   res[r3], r0, 0x1
             0x00010740: f3 87:       syncr (1r)      res[r3]
             0x00010742: c3 3e:       getts (2r)      r0, res[r3]
             0x00010744: e4 08:       ldw (2rus)      r2, r5[0x0]
             0x00010746: 43 fa ec 9f: ldaw (l2rus)    r0, r0[0x7]
             0x0001074a: d2 3e:       setpt (r2r)     res[r2], r0
             0x0001074c: c6 ae:       out (r2r)       res[r2], r1
             0x0001074e: d3 3e:       setpt (r2r)     res[r3], r0
             0x00010750: 45 68:       ldc (ru6)       r1, 0x5
             0x00010752: 1f f8 ed 97: outpw (l2rus)   res[r3], r1, 0x3
             0x00010756: 76 09:       ldw (2rus)      r11, r5[0x2]
             0x00010758: 33 3f:       setpt (r2r)     res[r11], r0
             0x0001075a: c6 68:       ldc (ru6)       r3, 0x6
             0x0001075c: bf f9 ed 97: outpw (l2rus)   res[r11], r3, 0x3
             0x00010760: f7 08:       ldw (2rus)      r3, r5[0x3]
             0x00010762: d3 3e:       setpt (r2r)     res[r3], r0
             0x00010764: 1f f8 ed 97: outpw (l2rus)   res[r3], r1, 0x3
             0x00010768: 9a 91:       add (2rus)      r1, r10, 0x2
             0x0001076a: 00 f0 10 6d: ldw (lru6)      r4, cp[0x10]
             0x0001076e: 54 3a:       and (3r)        r1, r1, r4
             0x00010770: 01 10:       add (3r)        r0, r0, r1
             0x00010772: 02 54:       stw (ru6)       r0, sp[0x2]
             0x00010774: 02 f0 00 68: ldc (lru6)      r0, 0x80
             0x00010778: 91 1c:       sub (3r)        r1, r0, r9
             0x0001077a: 81 f9 ec 27: ldaw (l3r)      r0, r8[-r1]
             0x0001077e: 15 a0:       shl (2rus)      r1, r1, 0x1
             0x00010780: c1 56:       stw (ru6)       r11, sp[0x1]
             0x00010782: 01 f0 45 d1: bl (lu10)       0x545 <sdram_block_write_PINOUT_V1_IS42S16400F>
             0x00010786: bd 1d:       sub (3r)        r7, r7, r9
             0x00010788: 29 91:       add (2rus)      r6, r6, 0x1
             0x0001078a: 40 f0 00 68: ldc (lru6)      r0, 0x1000
             0x0001078e: d8 30:       eq (3r)         r1, r6, r0
             0x00010790: 89 a1:       shl (2rus)      r0, r10, 0x1
             0x00010792: 00 f0 91 6c: ldw (lru6)      r2, cp[0x11]
             0x00010796: 02 38:       and (3r)        r0, r0, r2
             0x00010798: 00 15:       add (3r)        r8, r0, r8
             0x0001079a: 00 68:       ldc (ru6)       r0, 0x0
             0x0001079c: 4a 78:       bf (ru6)        r1, 0xa <.label41>
             0x0001079e: 89 5c:       ldw (ru6)       r2, sp[0x9]
             0x000107a0: 29 90:       add (2rus)      r2, r2, 0x1
             0x000107a2: da 46:       zext (rus)      r2, 0x2
             0x000107a4: 00 68:       ldc (ru6)       r0, 0x0
             0x000107a6: 60 90:       add (2rus)      r6, r0, 0x0
.label40     0x000107a8: 89 54:       stw (ru6)       r2, sp[0x9]
             0x000107aa: 01 f0 50 60: ldaw (lru6)     r1, dp[0x50]
             0x000107ae: 16 48:       ldw (3r)        r1, r1[r2]
             0x000107b0: 4a 54:       stw (ru6)       r1, sp[0xa]
.label41     0x000107b2: 91 a4:       shl (2rus)      r1, r0, 0x10
             0x000107b4: 8a 5c:       ldw (ru6)       r2, sp[0xa]
             0x000107b6: 16 40:       or (3r)         r1, r1, r2
             0x000107b8: 56 42:       or (3r)         r1, r1, r6
             0x000107ba: 04 f0 80 68: ldc (lru6)      r2, 0x100
             0x000107be: a8 18:       sub (3r)        r10, r2, r0
             0x000107c0: 19 aa:       shr (2rus)      r9, r10, 0x1
             0x000107c2: c7 cb:       lsu (3r)        r0, r9, r7
             0x000107c4: 01 f0 08 74: bt (lru6)       r0, -0x48 <.label42>
             0x000107c8: 04 91:       add (2rus)      r4, r5, 0x0
             0x000107ca: f1 08:       ldw (2rus)      r3, r4[0x1]
             0x000107cc: d1 a6:       mkmsk (rus)     r0, 0x1
             0x000107ce: 0d f8 ed 97: outpw (l2rus)   res[r3], r0, 0x1
             0x000107d2: f3 87:       syncr (1r)      res[r3]
             0x000107d4: c3 3e:       getts (2r)      r0, res[r3]
             0x000107d6: e0 08:       ldw (2rus)      r2, r4[0x0]
             0x000107d8: 43 fa ec 9f: ldaw (l2rus)    r0, r0[0x7]
             0x000107dc: d2 3e:       setpt (r2r)     res[r2], r0
             0x000107de: c6 ae:       out (r2r)       res[r2], r1
             0x000107e0: d3 3e:       setpt (r2r)     res[r3], r0
             0x000107e2: 45 68:       ldc (ru6)       r1, 0x5
             0x000107e4: 1f f8 ed 97: outpw (l2rus)   res[r3], r1, 0x3
             0x000107e8: 72 09:       ldw (2rus)      r11, r4[0x2]
             0x000107ea: 33 3f:       setpt (r2r)     res[r11], r0
             0x000107ec: c6 68:       ldc (ru6)       r3, 0x6
             0x000107ee: bf f9 ed 97: outpw (l2rus)   res[r11], r3, 0x3
             0x000107f2: f3 08:       ldw (2rus)      r3, r4[0x3]
             0x000107f4: d3 3e:       setpt (r2r)     res[r3], r0
             0x000107f6: 1f f8 ed 97: outpw (l2rus)   res[r3], r1, 0x3
             0x000107fa: 43 fa ec 2f: lda16 (l3r)     r0, r0[r7]
             0x000107fe: 02 90:       add (2rus)      r0, r0, 0x2
             0x00010800: 02 54:       stw (ru6)       r0, sp[0x2]
             0x00010802: 02 f0 00 68: ldc (lru6)      r0, 0x80
             0x00010806: 53 1a:       sub (3r)        r1, r0, r7
             0x00010808: 81 f9 ec 27: ldaw (l3r)      r0, r8[-r1]
             0x0001080c: 15 a0:       shl (2rus)      r1, r1, 0x1
             0x0001080e: c1 56:       stw (ru6)       r11, sp[0x1]
             0x00010810: 01 f0 fe d0: bl (lu10)       0x4fe <sdram_block_write_PINOUT_V1_IS42S16400F>
             0x00010814: 88 5e:       ldw (ru6)       r10, sp[0x8]
             0x00010816: 03 f0 2d 77: bu (lu6)        -0xed <.label31>
.label37     0x0001081a: 59 cf:       chkct (rus)     res[r10], 0x1
             0x0001081c: 59 4f:       outct (rus)     res[r10], 0x1
             0x0001081e: ae b7:       in (2r)         r11, res[r10]
             0x00010820: 2e b7:       in (2r)         r3, res[r10]
             0x00010822: 22 b7:       in (2r)         r0, res[r10]
             0x00010824: 59 cf:       chkct (rus)     res[r10], 0x1
             0x00010826: 59 4f:       outct (rus)     res[r10], 0x1
             0x00010828: 21 09:       ldw (2rus)      r6, r4[0x1]
             0x0001082a: d5 a6:       mkmsk (rus)     r1, 0x1
             0x0001082c: d9 f8 ed 97: outpw (l2rus)   res[r6], r1, 0x1
             0x00010830: f6 87:       syncr (1r)      res[r6]
             0x00010832: 86 3f:       getts (2r)      r1, res[r6]
             0x00010834: e0 08:       ldw (2rus)      r2, r4[0x0]
             0x00010836: 97 fa ec 9f: ldaw (l2rus)    r5, r1[0x7]
             0x0001083a: 16 3f:       setpt (r2r)     res[r2], r5
             0x0001083c: 01 f0 d0 61: ldaw (lru6)     r7, dp[0x50]
             0x00010840: ff 4d:       ldw (3r)        r11, r7[r11]
             0x00010842: bf 41:       or (3r)         r3, r11, r3
             0x00010844: ce ae:       out (r2r)       res[r2], r3
             0x00010846: d6 3f:       setpt (r2r)     res[r6], r5
             0x00010848: c5 69:       ldc (ru6)       r7, 0x5
             0x0001084a: 3b f9 ed 97: outpw (l2rus)   res[r6], r7, 0x3
             0x0001084e: 72 09:       ldw (2rus)      r11, r4[0x2]
             0x00010850: 77 3f:       setpt (r2r)     res[r11], r5
             0x00010852: c6 68:       ldc (ru6)       r3, 0x6
             0x00010854: bf f9 ed 97: outpw (l2rus)   res[r11], r3, 0x3
             0x00010858: f3 08:       ldw (2rus)      r3, r4[0x3]
             0x0001085a: 17 3f:       setpt (r2r)     res[r3], r5
             0x0001085c: 7f f8 ed 97: outpw (l2rus)   res[r3], r7, 0x3
             0x00010860: 04 f0 5e 69: ldc (lru6)      r5, 0x11e
             0x00010864: 55 12:       add (3r)        r1, r1, r5
             0x00010866: 42 54:       stw (ru6)       r1, sp[0x2]
             0x00010868: c1 56:       stw (ru6)       r11, sp[0x1]
             0x0001086a: 40 68:       ldc (ru6)       r1, 0x0
             0x0001086c: 01 f0 d0 d0: bl (lu10)       0x4d0 <sdram_block_write_PINOUT_V1_IS42S16400F>
             0x00010870: 04 f0 1a 77: bu (lu6)        -0x11a <.label31>
.label29     0x00010874: fa 07:       eeu (1r)        res[r10]
             0x00010876: ec 07:       waiteu (0r)     

<sdram_block_write_PINOUT_V0>:
             0x00010878: 00 55:       stw (ru6)       r4, sp[0x0]
             0x0001087a: 10 a7:       mkmsk (rus)     r4, 0x20
             0x0001087c: 81 9d:       sub (2rus)      r4, r4, 0x9
             0x0001087e: 40 7f:       ldaw (u6)       r11, cp[0x0]
             0x00010880: f0 37:       set (1r)        cp, r0
             0x00010882: 8c 91:       add (2rus)      r0, r11, 0x0
             0x00010884: b4 90:       add (2rus)      r11, r1, 0x0
             0x00010886: 00 90:       add (2rus)      r0, r0, 0x0
             0x00010888: 42 5c:       ldw (ru6)       r1, sp[0x2]
             0x0001088a: eb 2f:       bru (1r)        r11
             0x0001088c: c0 6e:       ldw (ru6)       r11, cp[0x0]
             0x0001088e: 4e af:       out (r2r)       res[r2], r11
             0x00010890: c1 6e:       ldw (ru6)       r11, cp[0x1]
             0x00010892: 4e af:       out (r2r)       res[r2], r11
             0x00010894: c2 6e:       ldw (ru6)       r11, cp[0x2]
             0x00010896: 4e af:       out (r2r)       res[r2], r11
             0x00010898: c3 6e:       ldw (ru6)       r11, cp[0x3]
             0x0001089a: 4e af:       out (r2r)       res[r2], r11
             0x0001089c: c4 6e:       ldw (ru6)       r11, cp[0x4]
             0x0001089e: 4e af:       out (r2r)       res[r2], r11
             0x000108a0: c5 6e:       ldw (ru6)       r11, cp[0x5]
             0x000108a2: 4e af:       out (r2r)       res[r2], r11
             0x000108a4: c6 6e:       ldw (ru6)       r11, cp[0x6]
             0x000108a6: 4e af:       out (r2r)       res[r2], r11
             0x000108a8: c7 6e:       ldw (ru6)       r11, cp[0x7]
             0x000108aa: 4e af:       out (r2r)       res[r2], r11
             0x000108ac: c8 6e:       ldw (ru6)       r11, cp[0x8]
             0x000108ae: 4e af:       out (r2r)       res[r2], r11
             0x000108b0: c9 6e:       ldw (ru6)       r11, cp[0x9]
             0x000108b2: 4e af:       out (r2r)       res[r2], r11
             0x000108b4: ca 6e:       ldw (ru6)       r11, cp[0xa]
             0x000108b6: 4e af:       out (r2r)       res[r2], r11
             0x000108b8: cb 6e:       ldw (ru6)       r11, cp[0xb]
             0x000108ba: 4e af:       out (r2r)       res[r2], r11
             0x000108bc: cc 6e:       ldw (ru6)       r11, cp[0xc]
             0x000108be: 4e af:       out (r2r)       res[r2], r11
             0x000108c0: cd 6e:       ldw (ru6)       r11, cp[0xd]
             0x000108c2: 4e af:       out (r2r)       res[r2], r11
             0x000108c4: ce 6e:       ldw (ru6)       r11, cp[0xe]
             0x000108c6: 4e af:       out (r2r)       res[r2], r11
             0x000108c8: cf 6e:       ldw (ru6)       r11, cp[0xf]
             0x000108ca: 4e af:       out (r2r)       res[r2], r11
             0x000108cc: d0 6e:       ldw (ru6)       r11, cp[0x10]
             0x000108ce: 4e af:       out (r2r)       res[r2], r11
             0x000108d0: d1 6e:       ldw (ru6)       r11, cp[0x11]
             0x000108d2: 4e af:       out (r2r)       res[r2], r11
             0x000108d4: d2 6e:       ldw (ru6)       r11, cp[0x12]
             0x000108d6: 4e af:       out (r2r)       res[r2], r11
             0x000108d8: d3 6e:       ldw (ru6)       r11, cp[0x13]
             0x000108da: 4e af:       out (r2r)       res[r2], r11
             0x000108dc: d4 6e:       ldw (ru6)       r11, cp[0x14]
             0x000108de: 4e af:       out (r2r)       res[r2], r11
             0x000108e0: d5 6e:       ldw (ru6)       r11, cp[0x15]
             0x000108e2: 4e af:       out (r2r)       res[r2], r11
             0x000108e4: d6 6e:       ldw (ru6)       r11, cp[0x16]
             0x000108e6: 4e af:       out (r2r)       res[r2], r11
             0x000108e8: d7 6e:       ldw (ru6)       r11, cp[0x17]
             0x000108ea: 4e af:       out (r2r)       res[r2], r11
             0x000108ec: d8 6e:       ldw (ru6)       r11, cp[0x18]
             0x000108ee: 4e af:       out (r2r)       res[r2], r11
             0x000108f0: d9 6e:       ldw (ru6)       r11, cp[0x19]
             0x000108f2: 4e af:       out (r2r)       res[r2], r11
             0x000108f4: da 6e:       ldw (ru6)       r11, cp[0x1a]
             0x000108f6: 4e af:       out (r2r)       res[r2], r11
             0x000108f8: db 6e:       ldw (ru6)       r11, cp[0x1b]
             0x000108fa: 4e af:       out (r2r)       res[r2], r11
             0x000108fc: dc 6e:       ldw (ru6)       r11, cp[0x1c]
             0x000108fe: 4e af:       out (r2r)       res[r2], r11
             0x00010900: dd 6e:       ldw (ru6)       r11, cp[0x1d]
             0x00010902: 4e af:       out (r2r)       res[r2], r11
             0x00010904: de 6e:       ldw (ru6)       r11, cp[0x1e]
             0x00010906: 4e af:       out (r2r)       res[r2], r11
             0x00010908: df 6e:       ldw (ru6)       r11, cp[0x1f]
             0x0001090a: 4e af:       out (r2r)       res[r2], r11
             0x0001090c: e0 6e:       ldw (ru6)       r11, cp[0x20]
             0x0001090e: 4e af:       out (r2r)       res[r2], r11
             0x00010910: e1 6e:       ldw (ru6)       r11, cp[0x21]
             0x00010912: 4e af:       out (r2r)       res[r2], r11
             0x00010914: e2 6e:       ldw (ru6)       r11, cp[0x22]
             0x00010916: 4e af:       out (r2r)       res[r2], r11
             0x00010918: e3 6e:       ldw (ru6)       r11, cp[0x23]
             0x0001091a: 4e af:       out (r2r)       res[r2], r11
             0x0001091c: e4 6e:       ldw (ru6)       r11, cp[0x24]
             0x0001091e: 4e af:       out (r2r)       res[r2], r11
             0x00010920: e5 6e:       ldw (ru6)       r11, cp[0x25]
             0x00010922: 4e af:       out (r2r)       res[r2], r11
             0x00010924: e6 6e:       ldw (ru6)       r11, cp[0x26]
             0x00010926: 4e af:       out (r2r)       res[r2], r11
             0x00010928: e7 6e:       ldw (ru6)       r11, cp[0x27]
             0x0001092a: 4e af:       out (r2r)       res[r2], r11
             0x0001092c: e8 6e:       ldw (ru6)       r11, cp[0x28]
             0x0001092e: 4e af:       out (r2r)       res[r2], r11
             0x00010930: e9 6e:       ldw (ru6)       r11, cp[0x29]
             0x00010932: 4e af:       out (r2r)       res[r2], r11
             0x00010934: ea 6e:       ldw (ru6)       r11, cp[0x2a]
             0x00010936: 4e af:       out (r2r)       res[r2], r11
             0x00010938: eb 6e:       ldw (ru6)       r11, cp[0x2b]
             0x0001093a: 4e af:       out (r2r)       res[r2], r11
             0x0001093c: ec 6e:       ldw (ru6)       r11, cp[0x2c]
             0x0001093e: 4e af:       out (r2r)       res[r2], r11
             0x00010940: ed 6e:       ldw (ru6)       r11, cp[0x2d]
             0x00010942: 4e af:       out (r2r)       res[r2], r11
             0x00010944: ee 6e:       ldw (ru6)       r11, cp[0x2e]
             0x00010946: 4e af:       out (r2r)       res[r2], r11
             0x00010948: ef 6e:       ldw (ru6)       r11, cp[0x2f]
             0x0001094a: 4e af:       out (r2r)       res[r2], r11
             0x0001094c: f0 6e:       ldw (ru6)       r11, cp[0x30]
             0x0001094e: 4e af:       out (r2r)       res[r2], r11
             0x00010950: f1 6e:       ldw (ru6)       r11, cp[0x31]
             0x00010952: 4e af:       out (r2r)       res[r2], r11
             0x00010954: f2 6e:       ldw (ru6)       r11, cp[0x32]
             0x00010956: 4e af:       out (r2r)       res[r2], r11
             0x00010958: f3 6e:       ldw (ru6)       r11, cp[0x33]
             0x0001095a: 4e af:       out (r2r)       res[r2], r11
             0x0001095c: f4 6e:       ldw (ru6)       r11, cp[0x34]
             0x0001095e: 4e af:       out (r2r)       res[r2], r11
             0x00010960: f5 6e:       ldw (ru6)       r11, cp[0x35]
             0x00010962: 4e af:       out (r2r)       res[r2], r11
             0x00010964: f6 6e:       ldw (ru6)       r11, cp[0x36]
             0x00010966: 4e af:       out (r2r)       res[r2], r11
             0x00010968: f7 6e:       ldw (ru6)       r11, cp[0x37]
             0x0001096a: 4e af:       out (r2r)       res[r2], r11
             0x0001096c: f8 6e:       ldw (ru6)       r11, cp[0x38]
             0x0001096e: 4e af:       out (r2r)       res[r2], r11
             0x00010970: f9 6e:       ldw (ru6)       r11, cp[0x39]
             0x00010972: 4e af:       out (r2r)       res[r2], r11
             0x00010974: fa 6e:       ldw (ru6)       r11, cp[0x3a]
             0x00010976: 4e af:       out (r2r)       res[r2], r11
             0x00010978: fb 6e:       ldw (ru6)       r11, cp[0x3b]
             0x0001097a: 4e af:       out (r2r)       res[r2], r11
             0x0001097c: fc 6e:       ldw (ru6)       r11, cp[0x3c]
             0x0001097e: 4e af:       out (r2r)       res[r2], r11
             0x00010980: fd 6e:       ldw (ru6)       r11, cp[0x3d]
             0x00010982: 4e af:       out (r2r)       res[r2], r11
             0x00010984: fe 6e:       ldw (ru6)       r11, cp[0x3e]
             0x00010986: 4e af:       out (r2r)       res[r2], r11
             0x00010988: ff 6e:       ldw (ru6)       r11, cp[0x3f]
             0x0001098a: 4e af:       out (r2r)       res[r2], r11
             0x0001098c: 40 e4:       ldw (u10)       r11, cp[0x40]
             0x0001098e: 4e af:       out (r2r)       res[r2], r11
             0x00010990: 41 e4:       ldw (u10)       r11, cp[0x41]
             0x00010992: 4e af:       out (r2r)       res[r2], r11
             0x00010994: 42 e4:       ldw (u10)       r11, cp[0x42]
             0x00010996: 4e af:       out (r2r)       res[r2], r11
             0x00010998: 43 e4:       ldw (u10)       r11, cp[0x43]
             0x0001099a: 4e af:       out (r2r)       res[r2], r11
             0x0001099c: 44 e4:       ldw (u10)       r11, cp[0x44]
             0x0001099e: 4e af:       out (r2r)       res[r2], r11
             0x000109a0: 45 e4:       ldw (u10)       r11, cp[0x45]
             0x000109a2: 4e af:       out (r2r)       res[r2], r11
             0x000109a4: 46 e4:       ldw (u10)       r11, cp[0x46]
             0x000109a6: 4e af:       out (r2r)       res[r2], r11
             0x000109a8: 47 e4:       ldw (u10)       r11, cp[0x47]
             0x000109aa: 4e af:       out (r2r)       res[r2], r11
             0x000109ac: 48 e4:       ldw (u10)       r11, cp[0x48]
             0x000109ae: 4e af:       out (r2r)       res[r2], r11
             0x000109b0: 49 e4:       ldw (u10)       r11, cp[0x49]
             0x000109b2: 4e af:       out (r2r)       res[r2], r11
             0x000109b4: 4a e4:       ldw (u10)       r11, cp[0x4a]
             0x000109b6: 4e af:       out (r2r)       res[r2], r11
             0x000109b8: 4b e4:       ldw (u10)       r11, cp[0x4b]
             0x000109ba: 4e af:       out (r2r)       res[r2], r11
             0x000109bc: 4c e4:       ldw (u10)       r11, cp[0x4c]
             0x000109be: 4e af:       out (r2r)       res[r2], r11
             0x000109c0: 4d e4:       ldw (u10)       r11, cp[0x4d]
             0x000109c2: 4e af:       out (r2r)       res[r2], r11
             0x000109c4: 4e e4:       ldw (u10)       r11, cp[0x4e]
             0x000109c6: 4e af:       out (r2r)       res[r2], r11
             0x000109c8: 4f e4:       ldw (u10)       r11, cp[0x4f]
             0x000109ca: 4e af:       out (r2r)       res[r2], r11
             0x000109cc: 50 e4:       ldw (u10)       r11, cp[0x50]
             0x000109ce: 4e af:       out (r2r)       res[r2], r11
             0x000109d0: 51 e4:       ldw (u10)       r11, cp[0x51]
             0x000109d2: 4e af:       out (r2r)       res[r2], r11
             0x000109d4: 52 e4:       ldw (u10)       r11, cp[0x52]
             0x000109d6: 4e af:       out (r2r)       res[r2], r11
             0x000109d8: 53 e4:       ldw (u10)       r11, cp[0x53]
             0x000109da: 4e af:       out (r2r)       res[r2], r11
             0x000109dc: 54 e4:       ldw (u10)       r11, cp[0x54]
             0x000109de: 4e af:       out (r2r)       res[r2], r11
             0x000109e0: 55 e4:       ldw (u10)       r11, cp[0x55]
             0x000109e2: 4e af:       out (r2r)       res[r2], r11
             0x000109e4: 56 e4:       ldw (u10)       r11, cp[0x56]
             0x000109e6: 4e af:       out (r2r)       res[r2], r11
             0x000109e8: 57 e4:       ldw (u10)       r11, cp[0x57]
             0x000109ea: 4e af:       out (r2r)       res[r2], r11
             0x000109ec: 58 e4:       ldw (u10)       r11, cp[0x58]
             0x000109ee: 4e af:       out (r2r)       res[r2], r11
             0x000109f0: 59 e4:       ldw (u10)       r11, cp[0x59]
             0x000109f2: 4e af:       out (r2r)       res[r2], r11
             0x000109f4: 5a e4:       ldw (u10)       r11, cp[0x5a]
             0x000109f6: 4e af:       out (r2r)       res[r2], r11
             0x000109f8: 5b e4:       ldw (u10)       r11, cp[0x5b]
             0x000109fa: 4e af:       out (r2r)       res[r2], r11
             0x000109fc: 5c e4:       ldw (u10)       r11, cp[0x5c]
             0x000109fe: 4e af:       out (r2r)       res[r2], r11
             0x00010a00: 5d e4:       ldw (u10)       r11, cp[0x5d]
             0x00010a02: 4e af:       out (r2r)       res[r2], r11
             0x00010a04: 5e e4:       ldw (u10)       r11, cp[0x5e]
             0x00010a06: 4e af:       out (r2r)       res[r2], r11
             0x00010a08: 5f e4:       ldw (u10)       r11, cp[0x5f]
             0x00010a0a: 4e af:       out (r2r)       res[r2], r11
             0x00010a0c: 60 e4:       ldw (u10)       r11, cp[0x60]
             0x00010a0e: 4e af:       out (r2r)       res[r2], r11
             0x00010a10: 61 e4:       ldw (u10)       r11, cp[0x61]
             0x00010a12: 4e af:       out (r2r)       res[r2], r11
             0x00010a14: 62 e4:       ldw (u10)       r11, cp[0x62]
             0x00010a16: 4e af:       out (r2r)       res[r2], r11
             0x00010a18: 63 e4:       ldw (u10)       r11, cp[0x63]
             0x00010a1a: 4e af:       out (r2r)       res[r2], r11
             0x00010a1c: 64 e4:       ldw (u10)       r11, cp[0x64]
             0x00010a1e: 4e af:       out (r2r)       res[r2], r11
             0x00010a20: 65 e4:       ldw (u10)       r11, cp[0x65]
             0x00010a22: 4e af:       out (r2r)       res[r2], r11
             0x00010a24: 66 e4:       ldw (u10)       r11, cp[0x66]
             0x00010a26: 4e af:       out (r2r)       res[r2], r11
             0x00010a28: 67 e4:       ldw (u10)       r11, cp[0x67]
             0x00010a2a: 4e af:       out (r2r)       res[r2], r11
             0x00010a2c: 68 e4:       ldw (u10)       r11, cp[0x68]
             0x00010a2e: 4e af:       out (r2r)       res[r2], r11
             0x00010a30: 69 e4:       ldw (u10)       r11, cp[0x69]
             0x00010a32: 4e af:       out (r2r)       res[r2], r11
             0x00010a34: 6a e4:       ldw (u10)       r11, cp[0x6a]
             0x00010a36: 4e af:       out (r2r)       res[r2], r11
             0x00010a38: 6b e4:       ldw (u10)       r11, cp[0x6b]
             0x00010a3a: 4e af:       out (r2r)       res[r2], r11
             0x00010a3c: 6c e4:       ldw (u10)       r11, cp[0x6c]
             0x00010a3e: 4e af:       out (r2r)       res[r2], r11
             0x00010a40: 6d e4:       ldw (u10)       r11, cp[0x6d]
             0x00010a42: 4e af:       out (r2r)       res[r2], r11
             0x00010a44: 6e e4:       ldw (u10)       r11, cp[0x6e]
             0x00010a46: 4e af:       out (r2r)       res[r2], r11
             0x00010a48: 6f e4:       ldw (u10)       r11, cp[0x6f]
             0x00010a4a: 4e af:       out (r2r)       res[r2], r11
             0x00010a4c: 70 e4:       ldw (u10)       r11, cp[0x70]
             0x00010a4e: 4e af:       out (r2r)       res[r2], r11
             0x00010a50: 71 e4:       ldw (u10)       r11, cp[0x71]
             0x00010a52: 4e af:       out (r2r)       res[r2], r11
             0x00010a54: 72 e4:       ldw (u10)       r11, cp[0x72]
             0x00010a56: 4e af:       out (r2r)       res[r2], r11
             0x00010a58: 73 e4:       ldw (u10)       r11, cp[0x73]
             0x00010a5a: 4e af:       out (r2r)       res[r2], r11
             0x00010a5c: 74 e4:       ldw (u10)       r11, cp[0x74]
             0x00010a5e: 4e af:       out (r2r)       res[r2], r11
             0x00010a60: 75 e4:       ldw (u10)       r11, cp[0x75]
             0x00010a62: 4e af:       out (r2r)       res[r2], r11
             0x00010a64: 76 e4:       ldw (u10)       r11, cp[0x76]
             0x00010a66: 4e af:       out (r2r)       res[r2], r11
             0x00010a68: 77 e4:       ldw (u10)       r11, cp[0x77]
             0x00010a6a: 4e af:       out (r2r)       res[r2], r11
             0x00010a6c: 78 e4:       ldw (u10)       r11, cp[0x78]
             0x00010a6e: 4e af:       out (r2r)       res[r2], r11
             0x00010a70: 79 e4:       ldw (u10)       r11, cp[0x79]
             0x00010a72: 4e af:       out (r2r)       res[r2], r11
             0x00010a74: 7a e4:       ldw (u10)       r11, cp[0x7a]
             0x00010a76: 4e af:       out (r2r)       res[r2], r11
             0x00010a78: 7b e4:       ldw (u10)       r11, cp[0x7b]
             0x00010a7a: 4e af:       out (r2r)       res[r2], r11
             0x00010a7c: 7c e4:       ldw (u10)       r11, cp[0x7c]
             0x00010a7e: 4e af:       out (r2r)       res[r2], r11
             0x00010a80: 7d e4:       ldw (u10)       r11, cp[0x7d]
             0x00010a82: 4e af:       out (r2r)       res[r2], r11
             0x00010a84: 7e e4:       ldw (u10)       r11, cp[0x7e]
             0x00010a86: 4e af:       out (r2r)       res[r2], r11
             0x00010a88: 7f e4:       ldw (u10)       r11, cp[0x7f]
             0x00010a8a: 4e af:       out (r2r)       res[r2], r11
             0x00010a8c: d7 3e:       setpt (r2r)     res[r3], r1
             0x00010a8e: 8d fa ed 97: outpw (l2rus)   res[r3], r4, 0x5
             0x00010a92: 02 af:       out (r2r)       res[r2], r4
             0x00010a94: 17 90:       add (2rus)      r1, r1, 0x3
             0x00010a96: c1 5c:       ldw (ru6)       r3, sp[0x1]
             0x00010a98: d7 3e:       setpt (r2r)     res[r3], r1
             0x00010a9a: 4e f8 ed 97: outpw (l2rus)   res[r3], r4, 0x2
             0x00010a9e: f0 37:       set (1r)        cp, r0
             0x00010aa0: 00 5d:       ldw (ru6)       r4, sp[0x0]
             0x00010aa2: c0 77:       retsp (u6)      0x0

<sdram_block_read_PINOUT_V0>:
             0x00010aa4: 45 77:       entsp (u6)      0x5
             0x00010aa6: 00 55:       stw (ru6)       r4, sp[0x0]
             0x00010aa8: 41 55:       stw (ru6)       r5, sp[0x1]
             0x00010aaa: 82 55:       stw (ru6)       r6, sp[0x2]
             0x00010aac: c3 55:       stw (ru6)       r7, sp[0x3]
             0x00010aae: 04 56:       stw (ru6)       r8, sp[0x4]
             0x00010ab0: 74 90:       add (2rus)      r7, r1, 0x0
             0x00010ab2: 06 5d:       ldw (ru6)       r4, sp[0x6]
             0x00010ab4: 81 93:       add (2rus)      r8, r4, 0x5
             0x00010ab6: 40 60:       ldaw (ru6)      r1, dp[0x0]
             0x00010ab8: e0 37:       set (1r)        dp, r0
             0x00010aba: 7f 61:       ldaw (ru6)      r5, dp[0x3f]
             0x00010abc: 54 93:       add (2rus)      r5, r5, 0x4
             0x00010abe: 01 f0 1e 68: ldc (lru6)      r0, 0x5e
             0x00010ac2: c7 5e:       ldw (ru6)       r11, sp[0x7]
             0x00010ac4: 5e 3f:       setpt (r2r)     res[r2], r11
             0x00010ac6: 00 90:       add (2rus)      r0, r0, 0x0
             0x00010ac8: 4e b7:       in (2r)         r11, res[r2]
             0x00010aca: e7 2f:       bru (1r)        r7
             0x00010acc: 4e b7:       in (2r)         r11, res[r2]
             0x00010ace: c0 52:       stw (ru6)       r11, dp[0x0]
             0x00010ad0: 4e b7:       in (2r)         r11, res[r2]
             0x00010ad2: c1 52:       stw (ru6)       r11, dp[0x1]
             0x00010ad4: 4e b7:       in (2r)         r11, res[r2]
             0x00010ad6: c2 52:       stw (ru6)       r11, dp[0x2]
             0x00010ad8: 4e b7:       in (2r)         r11, res[r2]
             0x00010ada: c3 52:       stw (ru6)       r11, dp[0x3]
             0x00010adc: 4e b7:       in (2r)         r11, res[r2]
             0x00010ade: c4 52:       stw (ru6)       r11, dp[0x4]
             0x00010ae0: 4e b7:       in (2r)         r11, res[r2]
             0x00010ae2: c5 52:       stw (ru6)       r11, dp[0x5]
             0x00010ae4: 4e b7:       in (2r)         r11, res[r2]
             0x00010ae6: c6 52:       stw (ru6)       r11, dp[0x6]
             0x00010ae8: 4e b7:       in (2r)         r11, res[r2]
             0x00010aea: c7 52:       stw (ru6)       r11, dp[0x7]
             0x00010aec: 4e b7:       in (2r)         r11, res[r2]
             0x00010aee: c8 52:       stw (ru6)       r11, dp[0x8]
             0x00010af0: 4e b7:       in (2r)         r11, res[r2]
             0x00010af2: c9 52:       stw (ru6)       r11, dp[0x9]
             0x00010af4: 4e b7:       in (2r)         r11, res[r2]
             0x00010af6: ca 52:       stw (ru6)       r11, dp[0xa]
             0x00010af8: 4e b7:       in (2r)         r11, res[r2]
             0x00010afa: cb 52:       stw (ru6)       r11, dp[0xb]
             0x00010afc: 4e b7:       in (2r)         r11, res[r2]
             0x00010afe: cc 52:       stw (ru6)       r11, dp[0xc]
             0x00010b00: 4e b7:       in (2r)         r11, res[r2]
             0x00010b02: cd 52:       stw (ru6)       r11, dp[0xd]
             0x00010b04: 4e b7:       in (2r)         r11, res[r2]
             0x00010b06: ce 52:       stw (ru6)       r11, dp[0xe]
             0x00010b08: 4e b7:       in (2r)         r11, res[r2]
             0x00010b0a: cf 52:       stw (ru6)       r11, dp[0xf]
             0x00010b0c: 4e b7:       in (2r)         r11, res[r2]
             0x00010b0e: d0 52:       stw (ru6)       r11, dp[0x10]
             0x00010b10: 4e b7:       in (2r)         r11, res[r2]
             0x00010b12: d1 52:       stw (ru6)       r11, dp[0x11]
             0x00010b14: 4e b7:       in (2r)         r11, res[r2]
             0x00010b16: d2 52:       stw (ru6)       r11, dp[0x12]
             0x00010b18: 4e b7:       in (2r)         r11, res[r2]
             0x00010b1a: d3 52:       stw (ru6)       r11, dp[0x13]
             0x00010b1c: 4e b7:       in (2r)         r11, res[r2]
             0x00010b1e: d4 52:       stw (ru6)       r11, dp[0x14]
             0x00010b20: 4e b7:       in (2r)         r11, res[r2]
             0x00010b22: d5 52:       stw (ru6)       r11, dp[0x15]
             0x00010b24: 4e b7:       in (2r)         r11, res[r2]
             0x00010b26: d6 52:       stw (ru6)       r11, dp[0x16]
             0x00010b28: 4e b7:       in (2r)         r11, res[r2]
             0x00010b2a: d7 52:       stw (ru6)       r11, dp[0x17]
             0x00010b2c: 4e b7:       in (2r)         r11, res[r2]
             0x00010b2e: d8 52:       stw (ru6)       r11, dp[0x18]
             0x00010b30: 4e b7:       in (2r)         r11, res[r2]
             0x00010b32: d9 52:       stw (ru6)       r11, dp[0x19]
             0x00010b34: 4e b7:       in (2r)         r11, res[r2]
             0x00010b36: da 52:       stw (ru6)       r11, dp[0x1a]
             0x00010b38: 4e b7:       in (2r)         r11, res[r2]
             0x00010b3a: db 52:       stw (ru6)       r11, dp[0x1b]
             0x00010b3c: 4e b7:       in (2r)         r11, res[r2]
             0x00010b3e: dc 52:       stw (ru6)       r11, dp[0x1c]
             0x00010b40: 4e b7:       in (2r)         r11, res[r2]
             0x00010b42: dd 52:       stw (ru6)       r11, dp[0x1d]
             0x00010b44: 4e b7:       in (2r)         r11, res[r2]
             0x00010b46: de 52:       stw (ru6)       r11, dp[0x1e]
             0x00010b48: 4e b7:       in (2r)         r11, res[r2]
             0x00010b4a: df 52:       stw (ru6)       r11, dp[0x1f]
             0x00010b4c: 4e b7:       in (2r)         r11, res[r2]
             0x00010b4e: e0 52:       stw (ru6)       r11, dp[0x20]
             0x00010b50: 4e b7:       in (2r)         r11, res[r2]
             0x00010b52: e1 52:       stw (ru6)       r11, dp[0x21]
             0x00010b54: 4e b7:       in (2r)         r11, res[r2]
             0x00010b56: e2 52:       stw (ru6)       r11, dp[0x22]
             0x00010b58: 4e b7:       in (2r)         r11, res[r2]
             0x00010b5a: e3 52:       stw (ru6)       r11, dp[0x23]
             0x00010b5c: 4e b7:       in (2r)         r11, res[r2]
             0x00010b5e: e4 52:       stw (ru6)       r11, dp[0x24]
             0x00010b60: 4e b7:       in (2r)         r11, res[r2]
             0x00010b62: e5 52:       stw (ru6)       r11, dp[0x25]
             0x00010b64: 4e b7:       in (2r)         r11, res[r2]
             0x00010b66: e6 52:       stw (ru6)       r11, dp[0x26]
             0x00010b68: 4e b7:       in (2r)         r11, res[r2]
             0x00010b6a: e7 52:       stw (ru6)       r11, dp[0x27]
             0x00010b6c: 4e b7:       in (2r)         r11, res[r2]
             0x00010b6e: e8 52:       stw (ru6)       r11, dp[0x28]
             0x00010b70: 4e b7:       in (2r)         r11, res[r2]
             0x00010b72: e9 52:       stw (ru6)       r11, dp[0x29]
             0x00010b74: 4e b7:       in (2r)         r11, res[r2]
             0x00010b76: ea 52:       stw (ru6)       r11, dp[0x2a]
             0x00010b78: 4e b7:       in (2r)         r11, res[r2]
             0x00010b7a: eb 52:       stw (ru6)       r11, dp[0x2b]
             0x00010b7c: 4e b7:       in (2r)         r11, res[r2]
             0x00010b7e: ec 52:       stw (ru6)       r11, dp[0x2c]
             0x00010b80: 4e b7:       in (2r)         r11, res[r2]
             0x00010b82: ed 52:       stw (ru6)       r11, dp[0x2d]
             0x00010b84: 4e b7:       in (2r)         r11, res[r2]
             0x00010b86: ee 52:       stw (ru6)       r11, dp[0x2e]
             0x00010b88: 4e b7:       in (2r)         r11, res[r2]
             0x00010b8a: ef 52:       stw (ru6)       r11, dp[0x2f]
             0x00010b8c: 4e b7:       in (2r)         r11, res[r2]
             0x00010b8e: f0 52:       stw (ru6)       r11, dp[0x30]
             0x00010b90: 4e b7:       in (2r)         r11, res[r2]
             0x00010b92: f1 52:       stw (ru6)       r11, dp[0x31]
             0x00010b94: 4e b7:       in (2r)         r11, res[r2]
             0x00010b96: f2 52:       stw (ru6)       r11, dp[0x32]
             0x00010b98: 4e b7:       in (2r)         r11, res[r2]
             0x00010b9a: f3 52:       stw (ru6)       r11, dp[0x33]
             0x00010b9c: 4e b7:       in (2r)         r11, res[r2]
             0x00010b9e: f4 52:       stw (ru6)       r11, dp[0x34]
             0x00010ba0: 4e b7:       in (2r)         r11, res[r2]
             0x00010ba2: f5 52:       stw (ru6)       r11, dp[0x35]
             0x00010ba4: 4e b7:       in (2r)         r11, res[r2]
             0x00010ba6: f6 52:       stw (ru6)       r11, dp[0x36]
             0x00010ba8: 4e b7:       in (2r)         r11, res[r2]
             0x00010baa: f7 52:       stw (ru6)       r11, dp[0x37]
             0x00010bac: 4e b7:       in (2r)         r11, res[r2]
             0x00010bae: f8 52:       stw (ru6)       r11, dp[0x38]
             0x00010bb0: 4e b7:       in (2r)         r11, res[r2]
             0x00010bb2: f9 52:       stw (ru6)       r11, dp[0x39]
             0x00010bb4: 4e b7:       in (2r)         r11, res[r2]
             0x00010bb6: fa 52:       stw (ru6)       r11, dp[0x3a]
             0x00010bb8: 4e b7:       in (2r)         r11, res[r2]
             0x00010bba: fb 52:       stw (ru6)       r11, dp[0x3b]
             0x00010bbc: 4e b7:       in (2r)         r11, res[r2]
             0x00010bbe: fc 52:       stw (ru6)       r11, dp[0x3c]
             0x00010bc0: 4e b7:       in (2r)         r11, res[r2]
             0x00010bc2: fd 52:       stw (ru6)       r11, dp[0x3d]
             0x00010bc4: 4e b7:       in (2r)         r11, res[r2]
             0x00010bc6: fe 52:       stw (ru6)       r11, dp[0x3e]
             0x00010bc8: 0a b7:       in (2r)         r6, res[r2]
             0x00010bca: e5 37:       set (1r)        dp, r5
             0x00010bcc: 4e b7:       in (2r)         r11, res[r2]
             0x00010bce: c0 52:       stw (ru6)       r11, dp[0x0]
             0x00010bd0: 4e b7:       in (2r)         r11, res[r2]
             0x00010bd2: c1 52:       stw (ru6)       r11, dp[0x1]
             0x00010bd4: 4e b7:       in (2r)         r11, res[r2]
             0x00010bd6: c2 52:       stw (ru6)       r11, dp[0x2]
             0x00010bd8: 4e b7:       in (2r)         r11, res[r2]
             0x00010bda: c3 52:       stw (ru6)       r11, dp[0x3]
             0x00010bdc: 4e b7:       in (2r)         r11, res[r2]
             0x00010bde: c4 52:       stw (ru6)       r11, dp[0x4]
             0x00010be0: 4e b7:       in (2r)         r11, res[r2]
             0x00010be2: c5 52:       stw (ru6)       r11, dp[0x5]
             0x00010be4: 4e b7:       in (2r)         r11, res[r2]
             0x00010be6: c6 52:       stw (ru6)       r11, dp[0x6]
             0x00010be8: 4e b7:       in (2r)         r11, res[r2]
             0x00010bea: c7 52:       stw (ru6)       r11, dp[0x7]
             0x00010bec: 4e b7:       in (2r)         r11, res[r2]
             0x00010bee: c8 52:       stw (ru6)       r11, dp[0x8]
             0x00010bf0: 4e b7:       in (2r)         r11, res[r2]
             0x00010bf2: c9 52:       stw (ru6)       r11, dp[0x9]
             0x00010bf4: 4e b7:       in (2r)         r11, res[r2]
             0x00010bf6: ca 52:       stw (ru6)       r11, dp[0xa]
             0x00010bf8: 4e b7:       in (2r)         r11, res[r2]
             0x00010bfa: cb 52:       stw (ru6)       r11, dp[0xb]
             0x00010bfc: 4e b7:       in (2r)         r11, res[r2]
             0x00010bfe: cc 52:       stw (ru6)       r11, dp[0xc]
             0x00010c00: 4e b7:       in (2r)         r11, res[r2]
             0x00010c02: cd 52:       stw (ru6)       r11, dp[0xd]
             0x00010c04: 4e b7:       in (2r)         r11, res[r2]
             0x00010c06: ce 52:       stw (ru6)       r11, dp[0xe]
             0x00010c08: 4e b7:       in (2r)         r11, res[r2]
             0x00010c0a: cf 52:       stw (ru6)       r11, dp[0xf]
             0x00010c0c: 4e b7:       in (2r)         r11, res[r2]
             0x00010c0e: d0 52:       stw (ru6)       r11, dp[0x10]
             0x00010c10: 4e b7:       in (2r)         r11, res[r2]
             0x00010c12: d1 52:       stw (ru6)       r11, dp[0x11]
             0x00010c14: 4e b7:       in (2r)         r11, res[r2]
             0x00010c16: d2 52:       stw (ru6)       r11, dp[0x12]
             0x00010c18: 4e b7:       in (2r)         r11, res[r2]
             0x00010c1a: d3 52:       stw (ru6)       r11, dp[0x13]
             0x00010c1c: 4e b7:       in (2r)         r11, res[r2]
             0x00010c1e: d4 52:       stw (ru6)       r11, dp[0x14]
             0x00010c20: 4e b7:       in (2r)         r11, res[r2]
             0x00010c22: d5 52:       stw (ru6)       r11, dp[0x15]
             0x00010c24: 4e b7:       in (2r)         r11, res[r2]
             0x00010c26: d6 52:       stw (ru6)       r11, dp[0x16]
             0x00010c28: 4e b7:       in (2r)         r11, res[r2]
             0x00010c2a: d7 52:       stw (ru6)       r11, dp[0x17]
             0x00010c2c: 4e b7:       in (2r)         r11, res[r2]
             0x00010c2e: d8 52:       stw (ru6)       r11, dp[0x18]
             0x00010c30: 4e b7:       in (2r)         r11, res[r2]
             0x00010c32: d9 52:       stw (ru6)       r11, dp[0x19]
             0x00010c34: 4e b7:       in (2r)         r11, res[r2]
             0x00010c36: da 52:       stw (ru6)       r11, dp[0x1a]
             0x00010c38: 4e b7:       in (2r)         r11, res[r2]
             0x00010c3a: db 52:       stw (ru6)       r11, dp[0x1b]
             0x00010c3c: 4e b7:       in (2r)         r11, res[r2]
             0x00010c3e: dc 52:       stw (ru6)       r11, dp[0x1c]
             0x00010c40: 4e b7:       in (2r)         r11, res[r2]
             0x00010c42: dd 52:       stw (ru6)       r11, dp[0x1d]
             0x00010c44: 4e b7:       in (2r)         r11, res[r2]
             0x00010c46: de 52:       stw (ru6)       r11, dp[0x1e]
             0x00010c48: 4e b7:       in (2r)         r11, res[r2]
             0x00010c4a: df 52:       stw (ru6)       r11, dp[0x1f]
             0x00010c4c: 4e b7:       in (2r)         r11, res[r2]
             0x00010c4e: e0 52:       stw (ru6)       r11, dp[0x20]
             0x00010c50: 4e b7:       in (2r)         r11, res[r2]
             0x00010c52: e1 52:       stw (ru6)       r11, dp[0x21]
             0x00010c54: 4e b7:       in (2r)         r11, res[r2]
             0x00010c56: e2 52:       stw (ru6)       r11, dp[0x22]
             0x00010c58: 4e b7:       in (2r)         r11, res[r2]
             0x00010c5a: e3 52:       stw (ru6)       r11, dp[0x23]
             0x00010c5c: 4e b7:       in (2r)         r11, res[r2]
             0x00010c5e: e4 52:       stw (ru6)       r11, dp[0x24]
             0x00010c60: 4e b7:       in (2r)         r11, res[r2]
             0x00010c62: e5 52:       stw (ru6)       r11, dp[0x25]
             0x00010c64: 4e b7:       in (2r)         r11, res[r2]
             0x00010c66: e6 52:       stw (ru6)       r11, dp[0x26]
             0x00010c68: 4e b7:       in (2r)         r11, res[r2]
             0x00010c6a: e7 52:       stw (ru6)       r11, dp[0x27]
             0x00010c6c: 4e b7:       in (2r)         r11, res[r2]
             0x00010c6e: e8 52:       stw (ru6)       r11, dp[0x28]
             0x00010c70: 4e b7:       in (2r)         r11, res[r2]
             0x00010c72: e9 52:       stw (ru6)       r11, dp[0x29]
             0x00010c74: 4e b7:       in (2r)         r11, res[r2]
             0x00010c76: ea 52:       stw (ru6)       r11, dp[0x2a]
             0x00010c78: 4e b7:       in (2r)         r11, res[r2]
             0x00010c7a: eb 52:       stw (ru6)       r11, dp[0x2b]
             0x00010c7c: 4e b7:       in (2r)         r11, res[r2]
             0x00010c7e: ec 52:       stw (ru6)       r11, dp[0x2c]
             0x00010c80: 4e b7:       in (2r)         r11, res[r2]
             0x00010c82: ed 52:       stw (ru6)       r11, dp[0x2d]
             0x00010c84: 4e b7:       in (2r)         r11, res[r2]
             0x00010c86: ee 52:       stw (ru6)       r11, dp[0x2e]
             0x00010c88: 4e b7:       in (2r)         r11, res[r2]
             0x00010c8a: ef 52:       stw (ru6)       r11, dp[0x2f]
             0x00010c8c: 4e b7:       in (2r)         r11, res[r2]
             0x00010c8e: f0 52:       stw (ru6)       r11, dp[0x30]
             0x00010c90: 4e b7:       in (2r)         r11, res[r2]
             0x00010c92: f1 52:       stw (ru6)       r11, dp[0x31]
             0x00010c94: 4e b7:       in (2r)         r11, res[r2]
             0x00010c96: f2 52:       stw (ru6)       r11, dp[0x32]
             0x00010c98: 4e b7:       in (2r)         r11, res[r2]
             0x00010c9a: f3 52:       stw (ru6)       r11, dp[0x33]
             0x00010c9c: 4e b7:       in (2r)         r11, res[r2]
             0x00010c9e: f4 52:       stw (ru6)       r11, dp[0x34]
             0x00010ca0: 4e b7:       in (2r)         r11, res[r2]
             0x00010ca2: f5 52:       stw (ru6)       r11, dp[0x35]
             0x00010ca4: 4e b7:       in (2r)         r11, res[r2]
             0x00010ca6: f6 52:       stw (ru6)       r11, dp[0x36]
             0x00010ca8: 4e b7:       in (2r)         r11, res[r2]
             0x00010caa: f7 52:       stw (ru6)       r11, dp[0x37]
             0x00010cac: 4e b7:       in (2r)         r11, res[r2]
             0x00010cae: f8 52:       stw (ru6)       r11, dp[0x38]
             0x00010cb0: 4e b7:       in (2r)         r11, res[r2]
             0x00010cb2: f9 52:       stw (ru6)       r11, dp[0x39]
             0x00010cb4: 4e b7:       in (2r)         r11, res[r2]
             0x00010cb6: fa 52:       stw (ru6)       r11, dp[0x3a]
             0x00010cb8: 4e b7:       in (2r)         r11, res[r2]
             0x00010cba: fb 52:       stw (ru6)       r11, dp[0x3b]
             0x00010cbc: 4e b7:       in (2r)         r11, res[r2]
             0x00010cbe: 13 3f:       setpt (r2r)     res[r3], r4
             0x00010cc0: 02 b7:       in (2r)         r4, res[r2]
             0x00010cc2: 4f fa ed 97: outpw (l2rus)   res[r3], r0, 0x7
             0x00010cc6: ce b6:       in (2r)         r3, res[r2]
             0x00010cc8: 08 5c:       ldw (ru6)       r0, sp[0x8]
             0x00010cca: 0e b7:       in (2r)         r7, res[r2]
             0x00010ccc: 50 3f:       setpt (r2r)     res[r0], r8
             0x00010cce: 02 6a:       ldc (ru6)       r8, 0x2
             0x00010cd0: 82 f8 ed 97: outpw (l2rus)   res[r0], r8, 0x2
             0x00010cd4: d0 a6:       mkmsk (rus)     r0, 0x20
             0x00010cd6: c2 ae:       out (r2r)       res[r2], r0
             0x00010cd8: fc 52:       stw (ru6)       r11, dp[0x3c]
             0x00010cda: 3d 51:       stw (ru6)       r4, dp[0x3d]
             0x00010cdc: fe 50:       stw (ru6)       r3, dp[0x3e]
             0x00010cde: ff 51:       stw (ru6)       r7, dp[0x3f]
             0x00010ce0: c0 62:       ldaw (ru6)      r11, dp[0x0]
             0x00010ce2: 1d 34:       eq (3r)         r5, r11, r5
             0x00010ce4: 42 79:       bf (ru6)        r5, 0x2 <jump>
             0x00010ce6: 81 73:       extdp (u6)      0x1
             0x00010ce8: 80 51:       stw (ru6)       r6, dp[0x0]

<jump>:
             0x00010cea: e1 37:       set (1r)        dp, r1
             0x00010cec: 04 5e:       ldw (ru6)       r8, sp[0x4]
             0x00010cee: c3 5d:       ldw (ru6)       r7, sp[0x3]
             0x00010cf0: 82 5d:       ldw (ru6)       r6, sp[0x2]
             0x00010cf2: 41 5d:       ldw (ru6)       r5, sp[0x1]
             0x00010cf4: 00 5d:       ldw (ru6)       r4, sp[0x0]
             0x00010cf6: c5 77:       retsp (u6)      0x5

<sdram_short_block_read_PINOUT_V0>:
             0x00010cf8: 44 77:       entsp (u6)      0x4
             0x00010cfa: 00 55:       stw (ru6)       r4, sp[0x0]
             0x00010cfc: 41 55:       stw (ru6)       r5, sp[0x1]
             0x00010cfe: 82 55:       stw (ru6)       r6, sp[0x2]
             0x00010d00: c3 55:       stw (ru6)       r7, sp[0x3]
             0x00010d02: 05 5d:       ldw (ru6)       r4, sp[0x5]
             0x00010d04: 72 93:       add (2rus)      r7, r4, 0x6
             0x00010d06: 02 f0 7e 69: ldc (lru6)      r5, 0xbe
             0x00010d0a: c6 5e:       ldw (ru6)       r11, sp[0x6]
             0x00010d0c: 5e 3f:       setpt (r2r)     res[r2], r11
             0x00010d0e: 4e b7:       in (2r)         r11, res[r2]
             0x00010d10: 4e b7:       in (2r)         r11, res[r2]
             0x00010d12: 13 3f:       setpt (r2r)     res[r3], r4
             0x00010d14: 02 b7:       in (2r)         r4, res[r2]
             0x00010d16: dc fc ed 97: outpw (l2rus)   res[r3], r5, 0x8
             0x00010d1a: 06 b7:       in (2r)         r5, res[r2]
             0x00010d1c: dc a6:       mkmsk (rus)     r3, 0x20
             0x00010d1e: 0a b7:       in (2r)         r6, res[r2]
             0x00010d20: ce ae:       out (r2r)       res[r2], r3
             0x00010d22: c7 5c:       ldw (ru6)       r3, sp[0x7]
             0x00010d24: 1f 3f:       setpt (r2r)     res[r3], r7
             0x00010d26: 82 68:       ldc (ru6)       r2, 0x2
             0x00010d28: 2e f8 ed 97: outpw (l2rus)   res[r3], r2, 0x2
             0x00010d2c: 84 68:       ldc (ru6)       r2, 0x4
             0x00010d2e: 19 18:       sub (3r)        r1, r2, r1
             0x00010d30: e1 2f:       bru (1r)        r1
             0x00010d32: 63 00:       stw (2rus)      r6, r0[0x3]
             0x00010d34: 52 00:       stw (2rus)      r5, r0[0x2]
             0x00010d36: 41 00:       stw (2rus)      r4, r0[0x1]
             0x00010d38: b0 00:       stw (2rus)      r11, r0[0x0]
             0x00010d3a: c3 5d:       ldw (ru6)       r7, sp[0x3]
             0x00010d3c: 82 5d:       ldw (ru6)       r6, sp[0x2]
             0x00010d3e: 41 5d:       ldw (ru6)       r5, sp[0x1]
             0x00010d40: 00 5d:       ldw (ru6)       r4, sp[0x0]
             0x00010d42: c4 77:       retsp (u6)      0x4

<sdram_block_write_PINOUT_V1_IS42S16160D>:
             0x00010d44: 00 55:       stw (ru6)       r4, sp[0x0]
             0x00010d46: 10 a7:       mkmsk (rus)     r4, 0x20
             0x00010d48: 81 9d:       sub (2rus)      r4, r4, 0x9
             0x00010d4a: 40 7f:       ldaw (u6)       r11, cp[0x0]
             0x00010d4c: f0 37:       set (1r)        cp, r0
             0x00010d4e: 8c 91:       add (2rus)      r0, r11, 0x0
             0x00010d50: b4 90:       add (2rus)      r11, r1, 0x0
             0x00010d52: 00 90:       add (2rus)      r0, r0, 0x0
             0x00010d54: 42 5c:       ldw (ru6)       r1, sp[0x2]
             0x00010d56: eb 2f:       bru (1r)        r11
             0x00010d58: c0 6e:       ldw (ru6)       r11, cp[0x0]
             0x00010d5a: 4e af:       out (r2r)       res[r2], r11
             0x00010d5c: c1 6e:       ldw (ru6)       r11, cp[0x1]
             0x00010d5e: 4e af:       out (r2r)       res[r2], r11
             0x00010d60: c2 6e:       ldw (ru6)       r11, cp[0x2]
             0x00010d62: 4e af:       out (r2r)       res[r2], r11
             0x00010d64: c3 6e:       ldw (ru6)       r11, cp[0x3]
             0x00010d66: 4e af:       out (r2r)       res[r2], r11
             0x00010d68: c4 6e:       ldw (ru6)       r11, cp[0x4]
             0x00010d6a: 4e af:       out (r2r)       res[r2], r11
             0x00010d6c: c5 6e:       ldw (ru6)       r11, cp[0x5]
             0x00010d6e: 4e af:       out (r2r)       res[r2], r11
             0x00010d70: c6 6e:       ldw (ru6)       r11, cp[0x6]
             0x00010d72: 4e af:       out (r2r)       res[r2], r11
             0x00010d74: c7 6e:       ldw (ru6)       r11, cp[0x7]
             0x00010d76: 4e af:       out (r2r)       res[r2], r11
             0x00010d78: c8 6e:       ldw (ru6)       r11, cp[0x8]
             0x00010d7a: 4e af:       out (r2r)       res[r2], r11
             0x00010d7c: c9 6e:       ldw (ru6)       r11, cp[0x9]
             0x00010d7e: 4e af:       out (r2r)       res[r2], r11
             0x00010d80: ca 6e:       ldw (ru6)       r11, cp[0xa]
             0x00010d82: 4e af:       out (r2r)       res[r2], r11
             0x00010d84: cb 6e:       ldw (ru6)       r11, cp[0xb]
             0x00010d86: 4e af:       out (r2r)       res[r2], r11
             0x00010d88: cc 6e:       ldw (ru6)       r11, cp[0xc]
             0x00010d8a: 4e af:       out (r2r)       res[r2], r11
             0x00010d8c: cd 6e:       ldw (ru6)       r11, cp[0xd]
             0x00010d8e: 4e af:       out (r2r)       res[r2], r11
             0x00010d90: ce 6e:       ldw (ru6)       r11, cp[0xe]
             0x00010d92: 4e af:       out (r2r)       res[r2], r11
             0x00010d94: cf 6e:       ldw (ru6)       r11, cp[0xf]
             0x00010d96: 4e af:       out (r2r)       res[r2], r11
             0x00010d98: d0 6e:       ldw (ru6)       r11, cp[0x10]
             0x00010d9a: 4e af:       out (r2r)       res[r2], r11
             0x00010d9c: d1 6e:       ldw (ru6)       r11, cp[0x11]
             0x00010d9e: 4e af:       out (r2r)       res[r2], r11
             0x00010da0: d2 6e:       ldw (ru6)       r11, cp[0x12]
             0x00010da2: 4e af:       out (r2r)       res[r2], r11
             0x00010da4: d3 6e:       ldw (ru6)       r11, cp[0x13]
             0x00010da6: 4e af:       out (r2r)       res[r2], r11
             0x00010da8: d4 6e:       ldw (ru6)       r11, cp[0x14]
             0x00010daa: 4e af:       out (r2r)       res[r2], r11
             0x00010dac: d5 6e:       ldw (ru6)       r11, cp[0x15]
             0x00010dae: 4e af:       out (r2r)       res[r2], r11
             0x00010db0: d6 6e:       ldw (ru6)       r11, cp[0x16]
             0x00010db2: 4e af:       out (r2r)       res[r2], r11
             0x00010db4: d7 6e:       ldw (ru6)       r11, cp[0x17]
             0x00010db6: 4e af:       out (r2r)       res[r2], r11
             0x00010db8: d8 6e:       ldw (ru6)       r11, cp[0x18]
             0x00010dba: 4e af:       out (r2r)       res[r2], r11
             0x00010dbc: d9 6e:       ldw (ru6)       r11, cp[0x19]
             0x00010dbe: 4e af:       out (r2r)       res[r2], r11
             0x00010dc0: da 6e:       ldw (ru6)       r11, cp[0x1a]
             0x00010dc2: 4e af:       out (r2r)       res[r2], r11
             0x00010dc4: db 6e:       ldw (ru6)       r11, cp[0x1b]
             0x00010dc6: 4e af:       out (r2r)       res[r2], r11
             0x00010dc8: dc 6e:       ldw (ru6)       r11, cp[0x1c]
             0x00010dca: 4e af:       out (r2r)       res[r2], r11
             0x00010dcc: dd 6e:       ldw (ru6)       r11, cp[0x1d]
             0x00010dce: 4e af:       out (r2r)       res[r2], r11
             0x00010dd0: de 6e:       ldw (ru6)       r11, cp[0x1e]
             0x00010dd2: 4e af:       out (r2r)       res[r2], r11
             0x00010dd4: df 6e:       ldw (ru6)       r11, cp[0x1f]
             0x00010dd6: 4e af:       out (r2r)       res[r2], r11
             0x00010dd8: e0 6e:       ldw (ru6)       r11, cp[0x20]
             0x00010dda: 4e af:       out (r2r)       res[r2], r11
             0x00010ddc: e1 6e:       ldw (ru6)       r11, cp[0x21]
             0x00010dde: 4e af:       out (r2r)       res[r2], r11
             0x00010de0: e2 6e:       ldw (ru6)       r11, cp[0x22]
             0x00010de2: 4e af:       out (r2r)       res[r2], r11
             0x00010de4: e3 6e:       ldw (ru6)       r11, cp[0x23]
             0x00010de6: 4e af:       out (r2r)       res[r2], r11
             0x00010de8: e4 6e:       ldw (ru6)       r11, cp[0x24]
             0x00010dea: 4e af:       out (r2r)       res[r2], r11
             0x00010dec: e5 6e:       ldw (ru6)       r11, cp[0x25]
             0x00010dee: 4e af:       out (r2r)       res[r2], r11
             0x00010df0: e6 6e:       ldw (ru6)       r11, cp[0x26]
             0x00010df2: 4e af:       out (r2r)       res[r2], r11
             0x00010df4: e7 6e:       ldw (ru6)       r11, cp[0x27]
             0x00010df6: 4e af:       out (r2r)       res[r2], r11
             0x00010df8: e8 6e:       ldw (ru6)       r11, cp[0x28]
             0x00010dfa: 4e af:       out (r2r)       res[r2], r11
             0x00010dfc: e9 6e:       ldw (ru6)       r11, cp[0x29]
             0x00010dfe: 4e af:       out (r2r)       res[r2], r11
             0x00010e00: ea 6e:       ldw (ru6)       r11, cp[0x2a]
             0x00010e02: 4e af:       out (r2r)       res[r2], r11
             0x00010e04: eb 6e:       ldw (ru6)       r11, cp[0x2b]
             0x00010e06: 4e af:       out (r2r)       res[r2], r11
             0x00010e08: ec 6e:       ldw (ru6)       r11, cp[0x2c]
             0x00010e0a: 4e af:       out (r2r)       res[r2], r11
             0x00010e0c: ed 6e:       ldw (ru6)       r11, cp[0x2d]
             0x00010e0e: 4e af:       out (r2r)       res[r2], r11
             0x00010e10: ee 6e:       ldw (ru6)       r11, cp[0x2e]
             0x00010e12: 4e af:       out (r2r)       res[r2], r11
             0x00010e14: ef 6e:       ldw (ru6)       r11, cp[0x2f]
             0x00010e16: 4e af:       out (r2r)       res[r2], r11
             0x00010e18: f0 6e:       ldw (ru6)       r11, cp[0x30]
             0x00010e1a: 4e af:       out (r2r)       res[r2], r11
             0x00010e1c: f1 6e:       ldw (ru6)       r11, cp[0x31]
             0x00010e1e: 4e af:       out (r2r)       res[r2], r11
             0x00010e20: f2 6e:       ldw (ru6)       r11, cp[0x32]
             0x00010e22: 4e af:       out (r2r)       res[r2], r11
             0x00010e24: f3 6e:       ldw (ru6)       r11, cp[0x33]
             0x00010e26: 4e af:       out (r2r)       res[r2], r11
             0x00010e28: f4 6e:       ldw (ru6)       r11, cp[0x34]
             0x00010e2a: 4e af:       out (r2r)       res[r2], r11
             0x00010e2c: f5 6e:       ldw (ru6)       r11, cp[0x35]
             0x00010e2e: 4e af:       out (r2r)       res[r2], r11
             0x00010e30: f6 6e:       ldw (ru6)       r11, cp[0x36]
             0x00010e32: 4e af:       out (r2r)       res[r2], r11
             0x00010e34: f7 6e:       ldw (ru6)       r11, cp[0x37]
             0x00010e36: 4e af:       out (r2r)       res[r2], r11
             0x00010e38: f8 6e:       ldw (ru6)       r11, cp[0x38]
             0x00010e3a: 4e af:       out (r2r)       res[r2], r11
             0x00010e3c: f9 6e:       ldw (ru6)       r11, cp[0x39]
             0x00010e3e: 4e af:       out (r2r)       res[r2], r11
             0x00010e40: fa 6e:       ldw (ru6)       r11, cp[0x3a]
             0x00010e42: 4e af:       out (r2r)       res[r2], r11
             0x00010e44: fb 6e:       ldw (ru6)       r11, cp[0x3b]
             0x00010e46: 4e af:       out (r2r)       res[r2], r11
             0x00010e48: fc 6e:       ldw (ru6)       r11, cp[0x3c]
             0x00010e4a: 4e af:       out (r2r)       res[r2], r11
             0x00010e4c: fd 6e:       ldw (ru6)       r11, cp[0x3d]
             0x00010e4e: 4e af:       out (r2r)       res[r2], r11
             0x00010e50: fe 6e:       ldw (ru6)       r11, cp[0x3e]
             0x00010e52: 4e af:       out (r2r)       res[r2], r11
             0x00010e54: ff 6e:       ldw (ru6)       r11, cp[0x3f]
             0x00010e56: 4e af:       out (r2r)       res[r2], r11
             0x00010e58: 40 e4:       ldw (u10)       r11, cp[0x40]
             0x00010e5a: 4e af:       out (r2r)       res[r2], r11
             0x00010e5c: 41 e4:       ldw (u10)       r11, cp[0x41]
             0x00010e5e: 4e af:       out (r2r)       res[r2], r11
             0x00010e60: 42 e4:       ldw (u10)       r11, cp[0x42]
             0x00010e62: 4e af:       out (r2r)       res[r2], r11
             0x00010e64: 43 e4:       ldw (u10)       r11, cp[0x43]
             0x00010e66: 4e af:       out (r2r)       res[r2], r11
             0x00010e68: 44 e4:       ldw (u10)       r11, cp[0x44]
             0x00010e6a: 4e af:       out (r2r)       res[r2], r11
             0x00010e6c: 45 e4:       ldw (u10)       r11, cp[0x45]
             0x00010e6e: 4e af:       out (r2r)       res[r2], r11
             0x00010e70: 46 e4:       ldw (u10)       r11, cp[0x46]
             0x00010e72: 4e af:       out (r2r)       res[r2], r11
             0x00010e74: 47 e4:       ldw (u10)       r11, cp[0x47]
             0x00010e76: 4e af:       out (r2r)       res[r2], r11
             0x00010e78: 48 e4:       ldw (u10)       r11, cp[0x48]
             0x00010e7a: 4e af:       out (r2r)       res[r2], r11
             0x00010e7c: 49 e4:       ldw (u10)       r11, cp[0x49]
             0x00010e7e: 4e af:       out (r2r)       res[r2], r11
             0x00010e80: 4a e4:       ldw (u10)       r11, cp[0x4a]
             0x00010e82: 4e af:       out (r2r)       res[r2], r11
             0x00010e84: 4b e4:       ldw (u10)       r11, cp[0x4b]
             0x00010e86: 4e af:       out (r2r)       res[r2], r11
             0x00010e88: 4c e4:       ldw (u10)       r11, cp[0x4c]
             0x00010e8a: 4e af:       out (r2r)       res[r2], r11
             0x00010e8c: 4d e4:       ldw (u10)       r11, cp[0x4d]
             0x00010e8e: 4e af:       out (r2r)       res[r2], r11
             0x00010e90: 4e e4:       ldw (u10)       r11, cp[0x4e]
             0x00010e92: 4e af:       out (r2r)       res[r2], r11
             0x00010e94: 4f e4:       ldw (u10)       r11, cp[0x4f]
             0x00010e96: 4e af:       out (r2r)       res[r2], r11
             0x00010e98: 50 e4:       ldw (u10)       r11, cp[0x50]
             0x00010e9a: 4e af:       out (r2r)       res[r2], r11
             0x00010e9c: 51 e4:       ldw (u10)       r11, cp[0x51]
             0x00010e9e: 4e af:       out (r2r)       res[r2], r11
             0x00010ea0: 52 e4:       ldw (u10)       r11, cp[0x52]
             0x00010ea2: 4e af:       out (r2r)       res[r2], r11
             0x00010ea4: 53 e4:       ldw (u10)       r11, cp[0x53]
             0x00010ea6: 4e af:       out (r2r)       res[r2], r11
             0x00010ea8: 54 e4:       ldw (u10)       r11, cp[0x54]
             0x00010eaa: 4e af:       out (r2r)       res[r2], r11
             0x00010eac: 55 e4:       ldw (u10)       r11, cp[0x55]
             0x00010eae: 4e af:       out (r2r)       res[r2], r11
             0x00010eb0: 56 e4:       ldw (u10)       r11, cp[0x56]
             0x00010eb2: 4e af:       out (r2r)       res[r2], r11
             0x00010eb4: 57 e4:       ldw (u10)       r11, cp[0x57]
             0x00010eb6: 4e af:       out (r2r)       res[r2], r11
             0x00010eb8: 58 e4:       ldw (u10)       r11, cp[0x58]
             0x00010eba: 4e af:       out (r2r)       res[r2], r11
             0x00010ebc: 59 e4:       ldw (u10)       r11, cp[0x59]
             0x00010ebe: 4e af:       out (r2r)       res[r2], r11
             0x00010ec0: 5a e4:       ldw (u10)       r11, cp[0x5a]
             0x00010ec2: 4e af:       out (r2r)       res[r2], r11
             0x00010ec4: 5b e4:       ldw (u10)       r11, cp[0x5b]
             0x00010ec6: 4e af:       out (r2r)       res[r2], r11
             0x00010ec8: 5c e4:       ldw (u10)       r11, cp[0x5c]
             0x00010eca: 4e af:       out (r2r)       res[r2], r11
             0x00010ecc: 5d e4:       ldw (u10)       r11, cp[0x5d]
             0x00010ece: 4e af:       out (r2r)       res[r2], r11
             0x00010ed0: 5e e4:       ldw (u10)       r11, cp[0x5e]
             0x00010ed2: 4e af:       out (r2r)       res[r2], r11
             0x00010ed4: 5f e4:       ldw (u10)       r11, cp[0x5f]
             0x00010ed6: 4e af:       out (r2r)       res[r2], r11
             0x00010ed8: 60 e4:       ldw (u10)       r11, cp[0x60]
             0x00010eda: 4e af:       out (r2r)       res[r2], r11
             0x00010edc: 61 e4:       ldw (u10)       r11, cp[0x61]
             0x00010ede: 4e af:       out (r2r)       res[r2], r11
             0x00010ee0: 62 e4:       ldw (u10)       r11, cp[0x62]
             0x00010ee2: 4e af:       out (r2r)       res[r2], r11
             0x00010ee4: 63 e4:       ldw (u10)       r11, cp[0x63]
             0x00010ee6: 4e af:       out (r2r)       res[r2], r11
             0x00010ee8: 64 e4:       ldw (u10)       r11, cp[0x64]
             0x00010eea: 4e af:       out (r2r)       res[r2], r11
             0x00010eec: 65 e4:       ldw (u10)       r11, cp[0x65]
             0x00010eee: 4e af:       out (r2r)       res[r2], r11
             0x00010ef0: 66 e4:       ldw (u10)       r11, cp[0x66]
             0x00010ef2: 4e af:       out (r2r)       res[r2], r11
             0x00010ef4: 67 e4:       ldw (u10)       r11, cp[0x67]
             0x00010ef6: 4e af:       out (r2r)       res[r2], r11
             0x00010ef8: 68 e4:       ldw (u10)       r11, cp[0x68]
             0x00010efa: 4e af:       out (r2r)       res[r2], r11
             0x00010efc: 69 e4:       ldw (u10)       r11, cp[0x69]
             0x00010efe: 4e af:       out (r2r)       res[r2], r11
             0x00010f00: 6a e4:       ldw (u10)       r11, cp[0x6a]
             0x00010f02: 4e af:       out (r2r)       res[r2], r11
             0x00010f04: 6b e4:       ldw (u10)       r11, cp[0x6b]
             0x00010f06: 4e af:       out (r2r)       res[r2], r11
             0x00010f08: 6c e4:       ldw (u10)       r11, cp[0x6c]
             0x00010f0a: 4e af:       out (r2r)       res[r2], r11
             0x00010f0c: 6d e4:       ldw (u10)       r11, cp[0x6d]
             0x00010f0e: 4e af:       out (r2r)       res[r2], r11
             0x00010f10: 6e e4:       ldw (u10)       r11, cp[0x6e]
             0x00010f12: 4e af:       out (r2r)       res[r2], r11
             0x00010f14: 6f e4:       ldw (u10)       r11, cp[0x6f]
             0x00010f16: 4e af:       out (r2r)       res[r2], r11
             0x00010f18: 70 e4:       ldw (u10)       r11, cp[0x70]
             0x00010f1a: 4e af:       out (r2r)       res[r2], r11
             0x00010f1c: 71 e4:       ldw (u10)       r11, cp[0x71]
             0x00010f1e: 4e af:       out (r2r)       res[r2], r11
             0x00010f20: 72 e4:       ldw (u10)       r11, cp[0x72]
             0x00010f22: 4e af:       out (r2r)       res[r2], r11
             0x00010f24: 73 e4:       ldw (u10)       r11, cp[0x73]
             0x00010f26: 4e af:       out (r2r)       res[r2], r11
             0x00010f28: 74 e4:       ldw (u10)       r11, cp[0x74]
             0x00010f2a: 4e af:       out (r2r)       res[r2], r11
             0x00010f2c: 75 e4:       ldw (u10)       r11, cp[0x75]
             0x00010f2e: 4e af:       out (r2r)       res[r2], r11
             0x00010f30: 76 e4:       ldw (u10)       r11, cp[0x76]
             0x00010f32: 4e af:       out (r2r)       res[r2], r11
             0x00010f34: 77 e4:       ldw (u10)       r11, cp[0x77]
             0x00010f36: 4e af:       out (r2r)       res[r2], r11
             0x00010f38: 78 e4:       ldw (u10)       r11, cp[0x78]
             0x00010f3a: 4e af:       out (r2r)       res[r2], r11
             0x00010f3c: 79 e4:       ldw (u10)       r11, cp[0x79]
             0x00010f3e: 4e af:       out (r2r)       res[r2], r11
             0x00010f40: 7a e4:       ldw (u10)       r11, cp[0x7a]
             0x00010f42: 4e af:       out (r2r)       res[r2], r11
             0x00010f44: 7b e4:       ldw (u10)       r11, cp[0x7b]
             0x00010f46: 4e af:       out (r2r)       res[r2], r11
             0x00010f48: 7c e4:       ldw (u10)       r11, cp[0x7c]
             0x00010f4a: 4e af:       out (r2r)       res[r2], r11
             0x00010f4c: 7d e4:       ldw (u10)       r11, cp[0x7d]
             0x00010f4e: 4e af:       out (r2r)       res[r2], r11
             0x00010f50: 7e e4:       ldw (u10)       r11, cp[0x7e]
             0x00010f52: 4e af:       out (r2r)       res[r2], r11
             0x00010f54: 7f e4:       ldw (u10)       r11, cp[0x7f]
             0x00010f56: 4e af:       out (r2r)       res[r2], r11
             0x00010f58: d7 3e:       setpt (r2r)     res[r3], r1
             0x00010f5a: 8d fa ed 97: outpw (l2rus)   res[r3], r4, 0x5
             0x00010f5e: 02 af:       out (r2r)       res[r2], r4
             0x00010f60: 17 90:       add (2rus)      r1, r1, 0x3
             0x00010f62: c1 5c:       ldw (ru6)       r3, sp[0x1]
             0x00010f64: d7 3e:       setpt (r2r)     res[r3], r1
             0x00010f66: 4e f8 ed 97: outpw (l2rus)   res[r3], r4, 0x2
             0x00010f6a: f0 37:       set (1r)        cp, r0
             0x00010f6c: 00 5d:       ldw (ru6)       r4, sp[0x0]
             0x00010f6e: c0 77:       retsp (u6)      0x0

<sdram_block_read_PINOUT_V1_IS42S16160D>:
             0x00010f70: 45 77:       entsp (u6)      0x5
             0x00010f72: 00 55:       stw (ru6)       r4, sp[0x0]
             0x00010f74: 41 55:       stw (ru6)       r5, sp[0x1]
             0x00010f76: 82 55:       stw (ru6)       r6, sp[0x2]
             0x00010f78: c3 55:       stw (ru6)       r7, sp[0x3]
             0x00010f7a: 04 56:       stw (ru6)       r8, sp[0x4]
             0x00010f7c: 74 90:       add (2rus)      r7, r1, 0x0
             0x00010f7e: 06 5d:       ldw (ru6)       r4, sp[0x6]
             0x00010f80: 81 93:       add (2rus)      r8, r4, 0x5
             0x00010f82: 40 60:       ldaw (ru6)      r1, dp[0x0]
             0x00010f84: e0 37:       set (1r)        dp, r0
             0x00010f86: 7f 61:       ldaw (ru6)      r5, dp[0x3f]
             0x00010f88: 54 93:       add (2rus)      r5, r5, 0x4
             0x00010f8a: 01 f0 1e 68: ldc (lru6)      r0, 0x5e
             0x00010f8e: c7 5e:       ldw (ru6)       r11, sp[0x7]
             0x00010f90: 5e 3f:       setpt (r2r)     res[r2], r11
             0x00010f92: 00 90:       add (2rus)      r0, r0, 0x0
             0x00010f94: 4e b7:       in (2r)         r11, res[r2]
             0x00010f96: e7 2f:       bru (1r)        r7
             0x00010f98: 4e b7:       in (2r)         r11, res[r2]
             0x00010f9a: c0 52:       stw (ru6)       r11, dp[0x0]
             0x00010f9c: 4e b7:       in (2r)         r11, res[r2]
             0x00010f9e: c1 52:       stw (ru6)       r11, dp[0x1]
             0x00010fa0: 4e b7:       in (2r)         r11, res[r2]
             0x00010fa2: c2 52:       stw (ru6)       r11, dp[0x2]
             0x00010fa4: 4e b7:       in (2r)         r11, res[r2]
             0x00010fa6: c3 52:       stw (ru6)       r11, dp[0x3]
             0x00010fa8: 4e b7:       in (2r)         r11, res[r2]
             0x00010faa: c4 52:       stw (ru6)       r11, dp[0x4]
             0x00010fac: 4e b7:       in (2r)         r11, res[r2]
             0x00010fae: c5 52:       stw (ru6)       r11, dp[0x5]
             0x00010fb0: 4e b7:       in (2r)         r11, res[r2]
             0x00010fb2: c6 52:       stw (ru6)       r11, dp[0x6]
             0x00010fb4: 4e b7:       in (2r)         r11, res[r2]
             0x00010fb6: c7 52:       stw (ru6)       r11, dp[0x7]
             0x00010fb8: 4e b7:       in (2r)         r11, res[r2]
             0x00010fba: c8 52:       stw (ru6)       r11, dp[0x8]
             0x00010fbc: 4e b7:       in (2r)         r11, res[r2]
             0x00010fbe: c9 52:       stw (ru6)       r11, dp[0x9]
             0x00010fc0: 4e b7:       in (2r)         r11, res[r2]
             0x00010fc2: ca 52:       stw (ru6)       r11, dp[0xa]
             0x00010fc4: 4e b7:       in (2r)         r11, res[r2]
             0x00010fc6: cb 52:       stw (ru6)       r11, dp[0xb]
             0x00010fc8: 4e b7:       in (2r)         r11, res[r2]
             0x00010fca: cc 52:       stw (ru6)       r11, dp[0xc]
             0x00010fcc: 4e b7:       in (2r)         r11, res[r2]
             0x00010fce: cd 52:       stw (ru6)       r11, dp[0xd]
             0x00010fd0: 4e b7:       in (2r)         r11, res[r2]
             0x00010fd2: ce 52:       stw (ru6)       r11, dp[0xe]
             0x00010fd4: 4e b7:       in (2r)         r11, res[r2]
             0x00010fd6: cf 52:       stw (ru6)       r11, dp[0xf]
             0x00010fd8: 4e b7:       in (2r)         r11, res[r2]
             0x00010fda: d0 52:       stw (ru6)       r11, dp[0x10]
             0x00010fdc: 4e b7:       in (2r)         r11, res[r2]
             0x00010fde: d1 52:       stw (ru6)       r11, dp[0x11]
             0x00010fe0: 4e b7:       in (2r)         r11, res[r2]
             0x00010fe2: d2 52:       stw (ru6)       r11, dp[0x12]
             0x00010fe4: 4e b7:       in (2r)         r11, res[r2]
             0x00010fe6: d3 52:       stw (ru6)       r11, dp[0x13]
             0x00010fe8: 4e b7:       in (2r)         r11, res[r2]
             0x00010fea: d4 52:       stw (ru6)       r11, dp[0x14]
             0x00010fec: 4e b7:       in (2r)         r11, res[r2]
             0x00010fee: d5 52:       stw (ru6)       r11, dp[0x15]
             0x00010ff0: 4e b7:       in (2r)         r11, res[r2]
             0x00010ff2: d6 52:       stw (ru6)       r11, dp[0x16]
             0x00010ff4: 4e b7:       in (2r)         r11, res[r2]
             0x00010ff6: d7 52:       stw (ru6)       r11, dp[0x17]
             0x00010ff8: 4e b7:       in (2r)         r11, res[r2]
             0x00010ffa: d8 52:       stw (ru6)       r11, dp[0x18]
             0x00010ffc: 4e b7:       in (2r)         r11, res[r2]
             0x00010ffe: d9 52:       stw (ru6)       r11, dp[0x19]
             0x00011000: 4e b7:       in (2r)         r11, res[r2]
             0x00011002: da 52:       stw (ru6)       r11, dp[0x1a]
             0x00011004: 4e b7:       in (2r)         r11, res[r2]
             0x00011006: db 52:       stw (ru6)       r11, dp[0x1b]
             0x00011008: 4e b7:       in (2r)         r11, res[r2]
             0x0001100a: dc 52:       stw (ru6)       r11, dp[0x1c]
             0x0001100c: 4e b7:       in (2r)         r11, res[r2]
             0x0001100e: dd 52:       stw (ru6)       r11, dp[0x1d]
             0x00011010: 4e b7:       in (2r)         r11, res[r2]
             0x00011012: de 52:       stw (ru6)       r11, dp[0x1e]
             0x00011014: 4e b7:       in (2r)         r11, res[r2]
             0x00011016: df 52:       stw (ru6)       r11, dp[0x1f]
             0x00011018: 4e b7:       in (2r)         r11, res[r2]
             0x0001101a: e0 52:       stw (ru6)       r11, dp[0x20]
             0x0001101c: 4e b7:       in (2r)         r11, res[r2]
             0x0001101e: e1 52:       stw (ru6)       r11, dp[0x21]
             0x00011020: 4e b7:       in (2r)         r11, res[r2]
             0x00011022: e2 52:       stw (ru6)       r11, dp[0x22]
             0x00011024: 4e b7:       in (2r)         r11, res[r2]
             0x00011026: e3 52:       stw (ru6)       r11, dp[0x23]
             0x00011028: 4e b7:       in (2r)         r11, res[r2]
             0x0001102a: e4 52:       stw (ru6)       r11, dp[0x24]
             0x0001102c: 4e b7:       in (2r)         r11, res[r2]
             0x0001102e: e5 52:       stw (ru6)       r11, dp[0x25]
             0x00011030: 4e b7:       in (2r)         r11, res[r2]
             0x00011032: e6 52:       stw (ru6)       r11, dp[0x26]
             0x00011034: 4e b7:       in (2r)         r11, res[r2]
             0x00011036: e7 52:       stw (ru6)       r11, dp[0x27]
             0x00011038: 4e b7:       in (2r)         r11, res[r2]
             0x0001103a: e8 52:       stw (ru6)       r11, dp[0x28]
             0x0001103c: 4e b7:       in (2r)         r11, res[r2]
             0x0001103e: e9 52:       stw (ru6)       r11, dp[0x29]
             0x00011040: 4e b7:       in (2r)         r11, res[r2]
             0x00011042: ea 52:       stw (ru6)       r11, dp[0x2a]
             0x00011044: 4e b7:       in (2r)         r11, res[r2]
             0x00011046: eb 52:       stw (ru6)       r11, dp[0x2b]
             0x00011048: 4e b7:       in (2r)         r11, res[r2]
             0x0001104a: ec 52:       stw (ru6)       r11, dp[0x2c]
             0x0001104c: 4e b7:       in (2r)         r11, res[r2]
             0x0001104e: ed 52:       stw (ru6)       r11, dp[0x2d]
             0x00011050: 4e b7:       in (2r)         r11, res[r2]
             0x00011052: ee 52:       stw (ru6)       r11, dp[0x2e]
             0x00011054: 4e b7:       in (2r)         r11, res[r2]
             0x00011056: ef 52:       stw (ru6)       r11, dp[0x2f]
             0x00011058: 4e b7:       in (2r)         r11, res[r2]
             0x0001105a: f0 52:       stw (ru6)       r11, dp[0x30]
             0x0001105c: 4e b7:       in (2r)         r11, res[r2]
             0x0001105e: f1 52:       stw (ru6)       r11, dp[0x31]
             0x00011060: 4e b7:       in (2r)         r11, res[r2]
             0x00011062: f2 52:       stw (ru6)       r11, dp[0x32]
             0x00011064: 4e b7:       in (2r)         r11, res[r2]
             0x00011066: f3 52:       stw (ru6)       r11, dp[0x33]
             0x00011068: 4e b7:       in (2r)         r11, res[r2]
             0x0001106a: f4 52:       stw (ru6)       r11, dp[0x34]
             0x0001106c: 4e b7:       in (2r)         r11, res[r2]
             0x0001106e: f5 52:       stw (ru6)       r11, dp[0x35]
             0x00011070: 4e b7:       in (2r)         r11, res[r2]
             0x00011072: f6 52:       stw (ru6)       r11, dp[0x36]
             0x00011074: 4e b7:       in (2r)         r11, res[r2]
             0x00011076: f7 52:       stw (ru6)       r11, dp[0x37]
             0x00011078: 4e b7:       in (2r)         r11, res[r2]
             0x0001107a: f8 52:       stw (ru6)       r11, dp[0x38]
             0x0001107c: 4e b7:       in (2r)         r11, res[r2]
             0x0001107e: f9 52:       stw (ru6)       r11, dp[0x39]
             0x00011080: 4e b7:       in (2r)         r11, res[r2]
             0x00011082: fa 52:       stw (ru6)       r11, dp[0x3a]
             0x00011084: 4e b7:       in (2r)         r11, res[r2]
             0x00011086: fb 52:       stw (ru6)       r11, dp[0x3b]
             0x00011088: 4e b7:       in (2r)         r11, res[r2]
             0x0001108a: fc 52:       stw (ru6)       r11, dp[0x3c]
             0x0001108c: 4e b7:       in (2r)         r11, res[r2]
             0x0001108e: fd 52:       stw (ru6)       r11, dp[0x3d]
             0x00011090: 4e b7:       in (2r)         r11, res[r2]
             0x00011092: fe 52:       stw (ru6)       r11, dp[0x3e]
             0x00011094: 0a b7:       in (2r)         r6, res[r2]
             0x00011096: e5 37:       set (1r)        dp, r5
             0x00011098: 4e b7:       in (2r)         r11, res[r2]
             0x0001109a: c0 52:       stw (ru6)       r11, dp[0x0]
             0x0001109c: 4e b7:       in (2r)         r11, res[r2]
             0x0001109e: c1 52:       stw (ru6)       r11, dp[0x1]
             0x000110a0: 4e b7:       in (2r)         r11, res[r2]
             0x000110a2: c2 52:       stw (ru6)       r11, dp[0x2]
             0x000110a4: 4e b7:       in (2r)         r11, res[r2]
             0x000110a6: c3 52:       stw (ru6)       r11, dp[0x3]
             0x000110a8: 4e b7:       in (2r)         r11, res[r2]
             0x000110aa: c4 52:       stw (ru6)       r11, dp[0x4]
             0x000110ac: 4e b7:       in (2r)         r11, res[r2]
             0x000110ae: c5 52:       stw (ru6)       r11, dp[0x5]
             0x000110b0: 4e b7:       in (2r)         r11, res[r2]
             0x000110b2: c6 52:       stw (ru6)       r11, dp[0x6]
             0x000110b4: 4e b7:       in (2r)         r11, res[r2]
             0x000110b6: c7 52:       stw (ru6)       r11, dp[0x7]
             0x000110b8: 4e b7:       in (2r)         r11, res[r2]
             0x000110ba: c8 52:       stw (ru6)       r11, dp[0x8]
             0x000110bc: 4e b7:       in (2r)         r11, res[r2]
             0x000110be: c9 52:       stw (ru6)       r11, dp[0x9]
             0x000110c0: 4e b7:       in (2r)         r11, res[r2]
             0x000110c2: ca 52:       stw (ru6)       r11, dp[0xa]
             0x000110c4: 4e b7:       in (2r)         r11, res[r2]
             0x000110c6: cb 52:       stw (ru6)       r11, dp[0xb]
             0x000110c8: 4e b7:       in (2r)         r11, res[r2]
             0x000110ca: cc 52:       stw (ru6)       r11, dp[0xc]
             0x000110cc: 4e b7:       in (2r)         r11, res[r2]
             0x000110ce: cd 52:       stw (ru6)       r11, dp[0xd]
             0x000110d0: 4e b7:       in (2r)         r11, res[r2]
             0x000110d2: ce 52:       stw (ru6)       r11, dp[0xe]
             0x000110d4: 4e b7:       in (2r)         r11, res[r2]
             0x000110d6: cf 52:       stw (ru6)       r11, dp[0xf]
             0x000110d8: 4e b7:       in (2r)         r11, res[r2]
             0x000110da: d0 52:       stw (ru6)       r11, dp[0x10]
             0x000110dc: 4e b7:       in (2r)         r11, res[r2]
             0x000110de: d1 52:       stw (ru6)       r11, dp[0x11]
             0x000110e0: 4e b7:       in (2r)         r11, res[r2]
             0x000110e2: d2 52:       stw (ru6)       r11, dp[0x12]
             0x000110e4: 4e b7:       in (2r)         r11, res[r2]
             0x000110e6: d3 52:       stw (ru6)       r11, dp[0x13]
             0x000110e8: 4e b7:       in (2r)         r11, res[r2]
             0x000110ea: d4 52:       stw (ru6)       r11, dp[0x14]
             0x000110ec: 4e b7:       in (2r)         r11, res[r2]
             0x000110ee: d5 52:       stw (ru6)       r11, dp[0x15]
             0x000110f0: 4e b7:       in (2r)         r11, res[r2]
             0x000110f2: d6 52:       stw (ru6)       r11, dp[0x16]
             0x000110f4: 4e b7:       in (2r)         r11, res[r2]
             0x000110f6: d7 52:       stw (ru6)       r11, dp[0x17]
             0x000110f8: 4e b7:       in (2r)         r11, res[r2]
             0x000110fa: d8 52:       stw (ru6)       r11, dp[0x18]
             0x000110fc: 4e b7:       in (2r)         r11, res[r2]
             0x000110fe: d9 52:       stw (ru6)       r11, dp[0x19]
             0x00011100: 4e b7:       in (2r)         r11, res[r2]
             0x00011102: da 52:       stw (ru6)       r11, dp[0x1a]
             0x00011104: 4e b7:       in (2r)         r11, res[r2]
             0x00011106: db 52:       stw (ru6)       r11, dp[0x1b]
             0x00011108: 4e b7:       in (2r)         r11, res[r2]
             0x0001110a: dc 52:       stw (ru6)       r11, dp[0x1c]
             0x0001110c: 4e b7:       in (2r)         r11, res[r2]
             0x0001110e: dd 52:       stw (ru6)       r11, dp[0x1d]
             0x00011110: 4e b7:       in (2r)         r11, res[r2]
             0x00011112: de 52:       stw (ru6)       r11, dp[0x1e]
             0x00011114: 4e b7:       in (2r)         r11, res[r2]
             0x00011116: df 52:       stw (ru6)       r11, dp[0x1f]
             0x00011118: 4e b7:       in (2r)         r11, res[r2]
             0x0001111a: e0 52:       stw (ru6)       r11, dp[0x20]
             0x0001111c: 4e b7:       in (2r)         r11, res[r2]
             0x0001111e: e1 52:       stw (ru6)       r11, dp[0x21]
             0x00011120: 4e b7:       in (2r)         r11, res[r2]
             0x00011122: e2 52:       stw (ru6)       r11, dp[0x22]
             0x00011124: 4e b7:       in (2r)         r11, res[r2]
             0x00011126: e3 52:       stw (ru6)       r11, dp[0x23]
             0x00011128: 4e b7:       in (2r)         r11, res[r2]
             0x0001112a: e4 52:       stw (ru6)       r11, dp[0x24]
             0x0001112c: 4e b7:       in (2r)         r11, res[r2]
             0x0001112e: e5 52:       stw (ru6)       r11, dp[0x25]
             0x00011130: 4e b7:       in (2r)         r11, res[r2]
             0x00011132: e6 52:       stw (ru6)       r11, dp[0x26]
             0x00011134: 4e b7:       in (2r)         r11, res[r2]
             0x00011136: e7 52:       stw (ru6)       r11, dp[0x27]
             0x00011138: 4e b7:       in (2r)         r11, res[r2]
             0x0001113a: e8 52:       stw (ru6)       r11, dp[0x28]
             0x0001113c: 4e b7:       in (2r)         r11, res[r2]
             0x0001113e: e9 52:       stw (ru6)       r11, dp[0x29]
             0x00011140: 4e b7:       in (2r)         r11, res[r2]
             0x00011142: ea 52:       stw (ru6)       r11, dp[0x2a]
             0x00011144: 4e b7:       in (2r)         r11, res[r2]
             0x00011146: eb 52:       stw (ru6)       r11, dp[0x2b]
             0x00011148: 4e b7:       in (2r)         r11, res[r2]
             0x0001114a: ec 52:       stw (ru6)       r11, dp[0x2c]
             0x0001114c: 4e b7:       in (2r)         r11, res[r2]
             0x0001114e: ed 52:       stw (ru6)       r11, dp[0x2d]
             0x00011150: 4e b7:       in (2r)         r11, res[r2]
             0x00011152: ee 52:       stw (ru6)       r11, dp[0x2e]
             0x00011154: 4e b7:       in (2r)         r11, res[r2]
             0x00011156: ef 52:       stw (ru6)       r11, dp[0x2f]
             0x00011158: 4e b7:       in (2r)         r11, res[r2]
             0x0001115a: f0 52:       stw (ru6)       r11, dp[0x30]
             0x0001115c: 4e b7:       in (2r)         r11, res[r2]
             0x0001115e: f1 52:       stw (ru6)       r11, dp[0x31]
             0x00011160: 4e b7:       in (2r)         r11, res[r2]
             0x00011162: f2 52:       stw (ru6)       r11, dp[0x32]
             0x00011164: 4e b7:       in (2r)         r11, res[r2]
             0x00011166: f3 52:       stw (ru6)       r11, dp[0x33]
             0x00011168: 4e b7:       in (2r)         r11, res[r2]
             0x0001116a: f4 52:       stw (ru6)       r11, dp[0x34]
             0x0001116c: 4e b7:       in (2r)         r11, res[r2]
             0x0001116e: f5 52:       stw (ru6)       r11, dp[0x35]
             0x00011170: 4e b7:       in (2r)         r11, res[r2]
             0x00011172: f6 52:       stw (ru6)       r11, dp[0x36]
             0x00011174: 4e b7:       in (2r)         r11, res[r2]
             0x00011176: f7 52:       stw (ru6)       r11, dp[0x37]
             0x00011178: 4e b7:       in (2r)         r11, res[r2]
             0x0001117a: f8 52:       stw (ru6)       r11, dp[0x38]
             0x0001117c: 4e b7:       in (2r)         r11, res[r2]
             0x0001117e: f9 52:       stw (ru6)       r11, dp[0x39]
             0x00011180: 4e b7:       in (2r)         r11, res[r2]
             0x00011182: fa 52:       stw (ru6)       r11, dp[0x3a]
             0x00011184: 4e b7:       in (2r)         r11, res[r2]
             0x00011186: fb 52:       stw (ru6)       r11, dp[0x3b]
             0x00011188: 4e b7:       in (2r)         r11, res[r2]
             0x0001118a: 13 3f:       setpt (r2r)     res[r3], r4
             0x0001118c: 02 b7:       in (2r)         r4, res[r2]
             0x0001118e: 4f fa ed 97: outpw (l2rus)   res[r3], r0, 0x7
             0x00011192: ce b6:       in (2r)         r3, res[r2]
             0x00011194: 08 5c:       ldw (ru6)       r0, sp[0x8]
             0x00011196: 0e b7:       in (2r)         r7, res[r2]
             0x00011198: 50 3f:       setpt (r2r)     res[r0], r8
             0x0001119a: 02 6a:       ldc (ru6)       r8, 0x2
             0x0001119c: 82 f8 ed 97: outpw (l2rus)   res[r0], r8, 0x2
             0x000111a0: d0 a6:       mkmsk (rus)     r0, 0x20
             0x000111a2: c2 ae:       out (r2r)       res[r2], r0
             0x000111a4: fc 52:       stw (ru6)       r11, dp[0x3c]
             0x000111a6: 3d 51:       stw (ru6)       r4, dp[0x3d]
             0x000111a8: fe 50:       stw (ru6)       r3, dp[0x3e]
             0x000111aa: ff 51:       stw (ru6)       r7, dp[0x3f]
             0x000111ac: c0 62:       ldaw (ru6)      r11, dp[0x0]
             0x000111ae: 1d 34:       eq (3r)         r5, r11, r5
             0x000111b0: 42 79:       bf (ru6)        r5, 0x2 <jump>
             0x000111b2: 81 73:       extdp (u6)      0x1
             0x000111b4: 80 51:       stw (ru6)       r6, dp[0x0]

<jump>:
             0x000111b6: e1 37:       set (1r)        dp, r1
             0x000111b8: 04 5e:       ldw (ru6)       r8, sp[0x4]
             0x000111ba: c3 5d:       ldw (ru6)       r7, sp[0x3]
             0x000111bc: 82 5d:       ldw (ru6)       r6, sp[0x2]
             0x000111be: 41 5d:       ldw (ru6)       r5, sp[0x1]
             0x000111c0: 00 5d:       ldw (ru6)       r4, sp[0x0]
             0x000111c2: c5 77:       retsp (u6)      0x5

<sdram_short_block_read_PINOUT_V1_IS42S16160D>:
             0x000111c4: 44 77:       entsp (u6)      0x4
             0x000111c6: 00 55:       stw (ru6)       r4, sp[0x0]
             0x000111c8: 41 55:       stw (ru6)       r5, sp[0x1]
             0x000111ca: 82 55:       stw (ru6)       r6, sp[0x2]
             0x000111cc: c3 55:       stw (ru6)       r7, sp[0x3]
             0x000111ce: 05 5d:       ldw (ru6)       r4, sp[0x5]
             0x000111d0: 72 93:       add (2rus)      r7, r4, 0x6
             0x000111d2: 02 f0 7e 69: ldc (lru6)      r5, 0xbe
             0x000111d6: c6 5e:       ldw (ru6)       r11, sp[0x6]
             0x000111d8: 5e 3f:       setpt (r2r)     res[r2], r11
             0x000111da: 4e b7:       in (2r)         r11, res[r2]
             0x000111dc: 4e b7:       in (2r)         r11, res[r2]
             0x000111de: 13 3f:       setpt (r2r)     res[r3], r4
             0x000111e0: 02 b7:       in (2r)         r4, res[r2]
             0x000111e2: dc fc ed 97: outpw (l2rus)   res[r3], r5, 0x8
             0x000111e6: 06 b7:       in (2r)         r5, res[r2]
             0x000111e8: dc a6:       mkmsk (rus)     r3, 0x20
             0x000111ea: 0a b7:       in (2r)         r6, res[r2]
             0x000111ec: ce ae:       out (r2r)       res[r2], r3
             0x000111ee: c7 5c:       ldw (ru6)       r3, sp[0x7]
             0x000111f0: 1f 3f:       setpt (r2r)     res[r3], r7
             0x000111f2: 82 68:       ldc (ru6)       r2, 0x2
             0x000111f4: 2e f8 ed 97: outpw (l2rus)   res[r3], r2, 0x2
             0x000111f8: 84 68:       ldc (ru6)       r2, 0x4
             0x000111fa: 19 18:       sub (3r)        r1, r2, r1
             0x000111fc: e1 2f:       bru (1r)        r1
             0x000111fe: 63 00:       stw (2rus)      r6, r0[0x3]
             0x00011200: 52 00:       stw (2rus)      r5, r0[0x2]
             0x00011202: 41 00:       stw (2rus)      r4, r0[0x1]
             0x00011204: b0 00:       stw (2rus)      r11, r0[0x0]
             0x00011206: c3 5d:       ldw (ru6)       r7, sp[0x3]
             0x00011208: 82 5d:       ldw (ru6)       r6, sp[0x2]
             0x0001120a: 41 5d:       ldw (ru6)       r5, sp[0x1]
             0x0001120c: 00 5d:       ldw (ru6)       r4, sp[0x0]
             0x0001120e: c4 77:       retsp (u6)      0x4

<sdram_block_write_PINOUT_V1_IS42S16400F>:
             0x00011210: 00 55:       stw (ru6)       r4, sp[0x0]
             0x00011212: 10 a7:       mkmsk (rus)     r4, 0x20
             0x00011214: 81 9d:       sub (2rus)      r4, r4, 0x9
             0x00011216: 40 7f:       ldaw (u6)       r11, cp[0x0]
             0x00011218: f0 37:       set (1r)        cp, r0
             0x0001121a: 8c 91:       add (2rus)      r0, r11, 0x0
             0x0001121c: b4 90:       add (2rus)      r11, r1, 0x0
             0x0001121e: 00 90:       add (2rus)      r0, r0, 0x0
             0x00011220: 42 5c:       ldw (ru6)       r1, sp[0x2]
             0x00011222: eb 2f:       bru (1r)        r11
             0x00011224: c0 6e:       ldw (ru6)       r11, cp[0x0]
             0x00011226: 4e af:       out (r2r)       res[r2], r11
             0x00011228: c1 6e:       ldw (ru6)       r11, cp[0x1]
             0x0001122a: 4e af:       out (r2r)       res[r2], r11
             0x0001122c: c2 6e:       ldw (ru6)       r11, cp[0x2]
             0x0001122e: 4e af:       out (r2r)       res[r2], r11
             0x00011230: c3 6e:       ldw (ru6)       r11, cp[0x3]
             0x00011232: 4e af:       out (r2r)       res[r2], r11
             0x00011234: c4 6e:       ldw (ru6)       r11, cp[0x4]
             0x00011236: 4e af:       out (r2r)       res[r2], r11
             0x00011238: c5 6e:       ldw (ru6)       r11, cp[0x5]
             0x0001123a: 4e af:       out (r2r)       res[r2], r11
             0x0001123c: c6 6e:       ldw (ru6)       r11, cp[0x6]
             0x0001123e: 4e af:       out (r2r)       res[r2], r11
             0x00011240: c7 6e:       ldw (ru6)       r11, cp[0x7]
             0x00011242: 4e af:       out (r2r)       res[r2], r11
             0x00011244: c8 6e:       ldw (ru6)       r11, cp[0x8]
             0x00011246: 4e af:       out (r2r)       res[r2], r11
             0x00011248: c9 6e:       ldw (ru6)       r11, cp[0x9]
             0x0001124a: 4e af:       out (r2r)       res[r2], r11
             0x0001124c: ca 6e:       ldw (ru6)       r11, cp[0xa]
             0x0001124e: 4e af:       out (r2r)       res[r2], r11
             0x00011250: cb 6e:       ldw (ru6)       r11, cp[0xb]
             0x00011252: 4e af:       out (r2r)       res[r2], r11
             0x00011254: cc 6e:       ldw (ru6)       r11, cp[0xc]
             0x00011256: 4e af:       out (r2r)       res[r2], r11
             0x00011258: cd 6e:       ldw (ru6)       r11, cp[0xd]
             0x0001125a: 4e af:       out (r2r)       res[r2], r11
             0x0001125c: ce 6e:       ldw (ru6)       r11, cp[0xe]
             0x0001125e: 4e af:       out (r2r)       res[r2], r11
             0x00011260: cf 6e:       ldw (ru6)       r11, cp[0xf]
             0x00011262: 4e af:       out (r2r)       res[r2], r11
             0x00011264: d0 6e:       ldw (ru6)       r11, cp[0x10]
             0x00011266: 4e af:       out (r2r)       res[r2], r11
             0x00011268: d1 6e:       ldw (ru6)       r11, cp[0x11]
             0x0001126a: 4e af:       out (r2r)       res[r2], r11
             0x0001126c: d2 6e:       ldw (ru6)       r11, cp[0x12]
             0x0001126e: 4e af:       out (r2r)       res[r2], r11
             0x00011270: d3 6e:       ldw (ru6)       r11, cp[0x13]
             0x00011272: 4e af:       out (r2r)       res[r2], r11
             0x00011274: d4 6e:       ldw (ru6)       r11, cp[0x14]
             0x00011276: 4e af:       out (r2r)       res[r2], r11
             0x00011278: d5 6e:       ldw (ru6)       r11, cp[0x15]
             0x0001127a: 4e af:       out (r2r)       res[r2], r11
             0x0001127c: d6 6e:       ldw (ru6)       r11, cp[0x16]
             0x0001127e: 4e af:       out (r2r)       res[r2], r11
             0x00011280: d7 6e:       ldw (ru6)       r11, cp[0x17]
             0x00011282: 4e af:       out (r2r)       res[r2], r11
             0x00011284: d8 6e:       ldw (ru6)       r11, cp[0x18]
             0x00011286: 4e af:       out (r2r)       res[r2], r11
             0x00011288: d9 6e:       ldw (ru6)       r11, cp[0x19]
             0x0001128a: 4e af:       out (r2r)       res[r2], r11
             0x0001128c: da 6e:       ldw (ru6)       r11, cp[0x1a]
             0x0001128e: 4e af:       out (r2r)       res[r2], r11
             0x00011290: db 6e:       ldw (ru6)       r11, cp[0x1b]
             0x00011292: 4e af:       out (r2r)       res[r2], r11
             0x00011294: dc 6e:       ldw (ru6)       r11, cp[0x1c]
             0x00011296: 4e af:       out (r2r)       res[r2], r11
             0x00011298: dd 6e:       ldw (ru6)       r11, cp[0x1d]
             0x0001129a: 4e af:       out (r2r)       res[r2], r11
             0x0001129c: de 6e:       ldw (ru6)       r11, cp[0x1e]
             0x0001129e: 4e af:       out (r2r)       res[r2], r11
             0x000112a0: df 6e:       ldw (ru6)       r11, cp[0x1f]
             0x000112a2: 4e af:       out (r2r)       res[r2], r11
             0x000112a4: e0 6e:       ldw (ru6)       r11, cp[0x20]
             0x000112a6: 4e af:       out (r2r)       res[r2], r11
             0x000112a8: e1 6e:       ldw (ru6)       r11, cp[0x21]
             0x000112aa: 4e af:       out (r2r)       res[r2], r11
             0x000112ac: e2 6e:       ldw (ru6)       r11, cp[0x22]
             0x000112ae: 4e af:       out (r2r)       res[r2], r11
             0x000112b0: e3 6e:       ldw (ru6)       r11, cp[0x23]
             0x000112b2: 4e af:       out (r2r)       res[r2], r11
             0x000112b4: e4 6e:       ldw (ru6)       r11, cp[0x24]
             0x000112b6: 4e af:       out (r2r)       res[r2], r11
             0x000112b8: e5 6e:       ldw (ru6)       r11, cp[0x25]
             0x000112ba: 4e af:       out (r2r)       res[r2], r11
             0x000112bc: e6 6e:       ldw (ru6)       r11, cp[0x26]
             0x000112be: 4e af:       out (r2r)       res[r2], r11
             0x000112c0: e7 6e:       ldw (ru6)       r11, cp[0x27]
             0x000112c2: 4e af:       out (r2r)       res[r2], r11
             0x000112c4: e8 6e:       ldw (ru6)       r11, cp[0x28]
             0x000112c6: 4e af:       out (r2r)       res[r2], r11
             0x000112c8: e9 6e:       ldw (ru6)       r11, cp[0x29]
             0x000112ca: 4e af:       out (r2r)       res[r2], r11
             0x000112cc: ea 6e:       ldw (ru6)       r11, cp[0x2a]
             0x000112ce: 4e af:       out (r2r)       res[r2], r11
             0x000112d0: eb 6e:       ldw (ru6)       r11, cp[0x2b]
             0x000112d2: 4e af:       out (r2r)       res[r2], r11
             0x000112d4: ec 6e:       ldw (ru6)       r11, cp[0x2c]
             0x000112d6: 4e af:       out (r2r)       res[r2], r11
             0x000112d8: ed 6e:       ldw (ru6)       r11, cp[0x2d]
             0x000112da: 4e af:       out (r2r)       res[r2], r11
             0x000112dc: ee 6e:       ldw (ru6)       r11, cp[0x2e]
             0x000112de: 4e af:       out (r2r)       res[r2], r11
             0x000112e0: ef 6e:       ldw (ru6)       r11, cp[0x2f]
             0x000112e2: 4e af:       out (r2r)       res[r2], r11
             0x000112e4: f0 6e:       ldw (ru6)       r11, cp[0x30]
             0x000112e6: 4e af:       out (r2r)       res[r2], r11
             0x000112e8: f1 6e:       ldw (ru6)       r11, cp[0x31]
             0x000112ea: 4e af:       out (r2r)       res[r2], r11
             0x000112ec: f2 6e:       ldw (ru6)       r11, cp[0x32]
             0x000112ee: 4e af:       out (r2r)       res[r2], r11
             0x000112f0: f3 6e:       ldw (ru6)       r11, cp[0x33]
             0x000112f2: 4e af:       out (r2r)       res[r2], r11
             0x000112f4: f4 6e:       ldw (ru6)       r11, cp[0x34]
             0x000112f6: 4e af:       out (r2r)       res[r2], r11
             0x000112f8: f5 6e:       ldw (ru6)       r11, cp[0x35]
             0x000112fa: 4e af:       out (r2r)       res[r2], r11
             0x000112fc: f6 6e:       ldw (ru6)       r11, cp[0x36]
             0x000112fe: 4e af:       out (r2r)       res[r2], r11
             0x00011300: f7 6e:       ldw (ru6)       r11, cp[0x37]
             0x00011302: 4e af:       out (r2r)       res[r2], r11
             0x00011304: f8 6e:       ldw (ru6)       r11, cp[0x38]
             0x00011306: 4e af:       out (r2r)       res[r2], r11
             0x00011308: f9 6e:       ldw (ru6)       r11, cp[0x39]
             0x0001130a: 4e af:       out (r2r)       res[r2], r11
             0x0001130c: fa 6e:       ldw (ru6)       r11, cp[0x3a]
             0x0001130e: 4e af:       out (r2r)       res[r2], r11
             0x00011310: fb 6e:       ldw (ru6)       r11, cp[0x3b]
             0x00011312: 4e af:       out (r2r)       res[r2], r11
             0x00011314: fc 6e:       ldw (ru6)       r11, cp[0x3c]
             0x00011316: 4e af:       out (r2r)       res[r2], r11
             0x00011318: fd 6e:       ldw (ru6)       r11, cp[0x3d]
             0x0001131a: 4e af:       out (r2r)       res[r2], r11
             0x0001131c: fe 6e:       ldw (ru6)       r11, cp[0x3e]
             0x0001131e: 4e af:       out (r2r)       res[r2], r11
             0x00011320: ff 6e:       ldw (ru6)       r11, cp[0x3f]
             0x00011322: 4e af:       out (r2r)       res[r2], r11
             0x00011324: 40 e4:       ldw (u10)       r11, cp[0x40]
             0x00011326: 4e af:       out (r2r)       res[r2], r11
             0x00011328: 41 e4:       ldw (u10)       r11, cp[0x41]
             0x0001132a: 4e af:       out (r2r)       res[r2], r11
             0x0001132c: 42 e4:       ldw (u10)       r11, cp[0x42]
             0x0001132e: 4e af:       out (r2r)       res[r2], r11
             0x00011330: 43 e4:       ldw (u10)       r11, cp[0x43]
             0x00011332: 4e af:       out (r2r)       res[r2], r11
             0x00011334: 44 e4:       ldw (u10)       r11, cp[0x44]
             0x00011336: 4e af:       out (r2r)       res[r2], r11
             0x00011338: 45 e4:       ldw (u10)       r11, cp[0x45]
             0x0001133a: 4e af:       out (r2r)       res[r2], r11
             0x0001133c: 46 e4:       ldw (u10)       r11, cp[0x46]
             0x0001133e: 4e af:       out (r2r)       res[r2], r11
             0x00011340: 47 e4:       ldw (u10)       r11, cp[0x47]
             0x00011342: 4e af:       out (r2r)       res[r2], r11
             0x00011344: 48 e4:       ldw (u10)       r11, cp[0x48]
             0x00011346: 4e af:       out (r2r)       res[r2], r11
             0x00011348: 49 e4:       ldw (u10)       r11, cp[0x49]
             0x0001134a: 4e af:       out (r2r)       res[r2], r11
             0x0001134c: 4a e4:       ldw (u10)       r11, cp[0x4a]
             0x0001134e: 4e af:       out (r2r)       res[r2], r11
             0x00011350: 4b e4:       ldw (u10)       r11, cp[0x4b]
             0x00011352: 4e af:       out (r2r)       res[r2], r11
             0x00011354: 4c e4:       ldw (u10)       r11, cp[0x4c]
             0x00011356: 4e af:       out (r2r)       res[r2], r11
             0x00011358: 4d e4:       ldw (u10)       r11, cp[0x4d]
             0x0001135a: 4e af:       out (r2r)       res[r2], r11
             0x0001135c: 4e e4:       ldw (u10)       r11, cp[0x4e]
             0x0001135e: 4e af:       out (r2r)       res[r2], r11
             0x00011360: 4f e4:       ldw (u10)       r11, cp[0x4f]
             0x00011362: 4e af:       out (r2r)       res[r2], r11
             0x00011364: 50 e4:       ldw (u10)       r11, cp[0x50]
             0x00011366: 4e af:       out (r2r)       res[r2], r11
             0x00011368: 51 e4:       ldw (u10)       r11, cp[0x51]
             0x0001136a: 4e af:       out (r2r)       res[r2], r11
             0x0001136c: 52 e4:       ldw (u10)       r11, cp[0x52]
             0x0001136e: 4e af:       out (r2r)       res[r2], r11
             0x00011370: 53 e4:       ldw (u10)       r11, cp[0x53]
             0x00011372: 4e af:       out (r2r)       res[r2], r11
             0x00011374: 54 e4:       ldw (u10)       r11, cp[0x54]
             0x00011376: 4e af:       out (r2r)       res[r2], r11
             0x00011378: 55 e4:       ldw (u10)       r11, cp[0x55]
             0x0001137a: 4e af:       out (r2r)       res[r2], r11
             0x0001137c: 56 e4:       ldw (u10)       r11, cp[0x56]
             0x0001137e: 4e af:       out (r2r)       res[r2], r11
             0x00011380: 57 e4:       ldw (u10)       r11, cp[0x57]
             0x00011382: 4e af:       out (r2r)       res[r2], r11
             0x00011384: 58 e4:       ldw (u10)       r11, cp[0x58]
             0x00011386: 4e af:       out (r2r)       res[r2], r11
             0x00011388: 59 e4:       ldw (u10)       r11, cp[0x59]
             0x0001138a: 4e af:       out (r2r)       res[r2], r11
             0x0001138c: 5a e4:       ldw (u10)       r11, cp[0x5a]
             0x0001138e: 4e af:       out (r2r)       res[r2], r11
             0x00011390: 5b e4:       ldw (u10)       r11, cp[0x5b]
             0x00011392: 4e af:       out (r2r)       res[r2], r11
             0x00011394: 5c e4:       ldw (u10)       r11, cp[0x5c]
             0x00011396: 4e af:       out (r2r)       res[r2], r11
             0x00011398: 5d e4:       ldw (u10)       r11, cp[0x5d]
             0x0001139a: 4e af:       out (r2r)       res[r2], r11
             0x0001139c: 5e e4:       ldw (u10)       r11, cp[0x5e]
             0x0001139e: 4e af:       out (r2r)       res[r2], r11
             0x000113a0: 5f e4:       ldw (u10)       r11, cp[0x5f]
             0x000113a2: 4e af:       out (r2r)       res[r2], r11
             0x000113a4: 60 e4:       ldw (u10)       r11, cp[0x60]
             0x000113a6: 4e af:       out (r2r)       res[r2], r11
             0x000113a8: 61 e4:       ldw (u10)       r11, cp[0x61]
             0x000113aa: 4e af:       out (r2r)       res[r2], r11
             0x000113ac: 62 e4:       ldw (u10)       r11, cp[0x62]
             0x000113ae: 4e af:       out (r2r)       res[r2], r11
             0x000113b0: 63 e4:       ldw (u10)       r11, cp[0x63]
             0x000113b2: 4e af:       out (r2r)       res[r2], r11
             0x000113b4: 64 e4:       ldw (u10)       r11, cp[0x64]
             0x000113b6: 4e af:       out (r2r)       res[r2], r11
             0x000113b8: 65 e4:       ldw (u10)       r11, cp[0x65]
             0x000113ba: 4e af:       out (r2r)       res[r2], r11
             0x000113bc: 66 e4:       ldw (u10)       r11, cp[0x66]
             0x000113be: 4e af:       out (r2r)       res[r2], r11
             0x000113c0: 67 e4:       ldw (u10)       r11, cp[0x67]
             0x000113c2: 4e af:       out (r2r)       res[r2], r11
             0x000113c4: 68 e4:       ldw (u10)       r11, cp[0x68]
             0x000113c6: 4e af:       out (r2r)       res[r2], r11
             0x000113c8: 69 e4:       ldw (u10)       r11, cp[0x69]
             0x000113ca: 4e af:       out (r2r)       res[r2], r11
             0x000113cc: 6a e4:       ldw (u10)       r11, cp[0x6a]
             0x000113ce: 4e af:       out (r2r)       res[r2], r11
             0x000113d0: 6b e4:       ldw (u10)       r11, cp[0x6b]
             0x000113d2: 4e af:       out (r2r)       res[r2], r11
             0x000113d4: 6c e4:       ldw (u10)       r11, cp[0x6c]
             0x000113d6: 4e af:       out (r2r)       res[r2], r11
             0x000113d8: 6d e4:       ldw (u10)       r11, cp[0x6d]
             0x000113da: 4e af:       out (r2r)       res[r2], r11
             0x000113dc: 6e e4:       ldw (u10)       r11, cp[0x6e]
             0x000113de: 4e af:       out (r2r)       res[r2], r11
             0x000113e0: 6f e4:       ldw (u10)       r11, cp[0x6f]
             0x000113e2: 4e af:       out (r2r)       res[r2], r11
             0x000113e4: 70 e4:       ldw (u10)       r11, cp[0x70]
             0x000113e6: 4e af:       out (r2r)       res[r2], r11
             0x000113e8: 71 e4:       ldw (u10)       r11, cp[0x71]
             0x000113ea: 4e af:       out (r2r)       res[r2], r11
             0x000113ec: 72 e4:       ldw (u10)       r11, cp[0x72]
             0x000113ee: 4e af:       out (r2r)       res[r2], r11
             0x000113f0: 73 e4:       ldw (u10)       r11, cp[0x73]
             0x000113f2: 4e af:       out (r2r)       res[r2], r11
             0x000113f4: 74 e4:       ldw (u10)       r11, cp[0x74]
             0x000113f6: 4e af:       out (r2r)       res[r2], r11
             0x000113f8: 75 e4:       ldw (u10)       r11, cp[0x75]
             0x000113fa: 4e af:       out (r2r)       res[r2], r11
             0x000113fc: 76 e4:       ldw (u10)       r11, cp[0x76]
             0x000113fe: 4e af:       out (r2r)       res[r2], r11
             0x00011400: 77 e4:       ldw (u10)       r11, cp[0x77]
             0x00011402: 4e af:       out (r2r)       res[r2], r11
             0x00011404: 78 e4:       ldw (u10)       r11, cp[0x78]
             0x00011406: 4e af:       out (r2r)       res[r2], r11
             0x00011408: 79 e4:       ldw (u10)       r11, cp[0x79]
             0x0001140a: 4e af:       out (r2r)       res[r2], r11
             0x0001140c: 7a e4:       ldw (u10)       r11, cp[0x7a]
             0x0001140e: 4e af:       out (r2r)       res[r2], r11
             0x00011410: 7b e4:       ldw (u10)       r11, cp[0x7b]
             0x00011412: 4e af:       out (r2r)       res[r2], r11
             0x00011414: 7c e4:       ldw (u10)       r11, cp[0x7c]
             0x00011416: 4e af:       out (r2r)       res[r2], r11
             0x00011418: 7d e4:       ldw (u10)       r11, cp[0x7d]
             0x0001141a: 4e af:       out (r2r)       res[r2], r11
             0x0001141c: 7e e4:       ldw (u10)       r11, cp[0x7e]
             0x0001141e: 4e af:       out (r2r)       res[r2], r11
             0x00011420: 7f e4:       ldw (u10)       r11, cp[0x7f]
             0x00011422: 4e af:       out (r2r)       res[r2], r11
             0x00011424: d7 3e:       setpt (r2r)     res[r3], r1
             0x00011426: 8d fa ed 97: outpw (l2rus)   res[r3], r4, 0x5
             0x0001142a: 02 af:       out (r2r)       res[r2], r4
             0x0001142c: 17 90:       add (2rus)      r1, r1, 0x3
             0x0001142e: c1 5c:       ldw (ru6)       r3, sp[0x1]
             0x00011430: d7 3e:       setpt (r2r)     res[r3], r1
             0x00011432: 4e f8 ed 97: outpw (l2rus)   res[r3], r4, 0x2
             0x00011436: f0 37:       set (1r)        cp, r0
             0x00011438: 00 5d:       ldw (ru6)       r4, sp[0x0]
             0x0001143a: c0 77:       retsp (u6)      0x0

<sdram_block_read_PINOUT_V1_IS42S16400F>:
             0x0001143c: 45 77:       entsp (u6)      0x5
             0x0001143e: 00 55:       stw (ru6)       r4, sp[0x0]
             0x00011440: 41 55:       stw (ru6)       r5, sp[0x1]
             0x00011442: 82 55:       stw (ru6)       r6, sp[0x2]
             0x00011444: c3 55:       stw (ru6)       r7, sp[0x3]
             0x00011446: 04 56:       stw (ru6)       r8, sp[0x4]
             0x00011448: 74 90:       add (2rus)      r7, r1, 0x0
             0x0001144a: 06 5d:       ldw (ru6)       r4, sp[0x6]
             0x0001144c: 81 93:       add (2rus)      r8, r4, 0x5
             0x0001144e: 40 60:       ldaw (ru6)      r1, dp[0x0]
             0x00011450: e0 37:       set (1r)        dp, r0
             0x00011452: 7f 61:       ldaw (ru6)      r5, dp[0x3f]
             0x00011454: 54 93:       add (2rus)      r5, r5, 0x4
             0x00011456: 01 f0 1e 68: ldc (lru6)      r0, 0x5e
             0x0001145a: c7 5e:       ldw (ru6)       r11, sp[0x7]
             0x0001145c: 5e 3f:       setpt (r2r)     res[r2], r11
             0x0001145e: 00 90:       add (2rus)      r0, r0, 0x0
             0x00011460: 4e b7:       in (2r)         r11, res[r2]
             0x00011462: e7 2f:       bru (1r)        r7
             0x00011464: 4e b7:       in (2r)         r11, res[r2]
             0x00011466: c0 52:       stw (ru6)       r11, dp[0x0]
             0x00011468: 4e b7:       in (2r)         r11, res[r2]
             0x0001146a: c1 52:       stw (ru6)       r11, dp[0x1]
             0x0001146c: 4e b7:       in (2r)         r11, res[r2]
             0x0001146e: c2 52:       stw (ru6)       r11, dp[0x2]
             0x00011470: 4e b7:       in (2r)         r11, res[r2]
             0x00011472: c3 52:       stw (ru6)       r11, dp[0x3]
             0x00011474: 4e b7:       in (2r)         r11, res[r2]
             0x00011476: c4 52:       stw (ru6)       r11, dp[0x4]
             0x00011478: 4e b7:       in (2r)         r11, res[r2]
             0x0001147a: c5 52:       stw (ru6)       r11, dp[0x5]
             0x0001147c: 4e b7:       in (2r)         r11, res[r2]
             0x0001147e: c6 52:       stw (ru6)       r11, dp[0x6]
             0x00011480: 4e b7:       in (2r)         r11, res[r2]
             0x00011482: c7 52:       stw (ru6)       r11, dp[0x7]
             0x00011484: 4e b7:       in (2r)         r11, res[r2]
             0x00011486: c8 52:       stw (ru6)       r11, dp[0x8]
             0x00011488: 4e b7:       in (2r)         r11, res[r2]
             0x0001148a: c9 52:       stw (ru6)       r11, dp[0x9]
             0x0001148c: 4e b7:       in (2r)         r11, res[r2]
             0x0001148e: ca 52:       stw (ru6)       r11, dp[0xa]
             0x00011490: 4e b7:       in (2r)         r11, res[r2]
             0x00011492: cb 52:       stw (ru6)       r11, dp[0xb]
             0x00011494: 4e b7:       in (2r)         r11, res[r2]
             0x00011496: cc 52:       stw (ru6)       r11, dp[0xc]
             0x00011498: 4e b7:       in (2r)         r11, res[r2]
             0x0001149a: cd 52:       stw (ru6)       r11, dp[0xd]
             0x0001149c: 4e b7:       in (2r)         r11, res[r2]
             0x0001149e: ce 52:       stw (ru6)       r11, dp[0xe]
             0x000114a0: 4e b7:       in (2r)         r11, res[r2]
             0x000114a2: cf 52:       stw (ru6)       r11, dp[0xf]
             0x000114a4: 4e b7:       in (2r)         r11, res[r2]
             0x000114a6: d0 52:       stw (ru6)       r11, dp[0x10]
             0x000114a8: 4e b7:       in (2r)         r11, res[r2]
             0x000114aa: d1 52:       stw (ru6)       r11, dp[0x11]
             0x000114ac: 4e b7:       in (2r)         r11, res[r2]
             0x000114ae: d2 52:       stw (ru6)       r11, dp[0x12]
             0x000114b0: 4e b7:       in (2r)         r11, res[r2]
             0x000114b2: d3 52:       stw (ru6)       r11, dp[0x13]
             0x000114b4: 4e b7:       in (2r)         r11, res[r2]
             0x000114b6: d4 52:       stw (ru6)       r11, dp[0x14]
             0x000114b8: 4e b7:       in (2r)         r11, res[r2]
             0x000114ba: d5 52:       stw (ru6)       r11, dp[0x15]
             0x000114bc: 4e b7:       in (2r)         r11, res[r2]
             0x000114be: d6 52:       stw (ru6)       r11, dp[0x16]
             0x000114c0: 4e b7:       in (2r)         r11, res[r2]
             0x000114c2: d7 52:       stw (ru6)       r11, dp[0x17]
             0x000114c4: 4e b7:       in (2r)         r11, res[r2]
             0x000114c6: d8 52:       stw (ru6)       r11, dp[0x18]
             0x000114c8: 4e b7:       in (2r)         r11, res[r2]
             0x000114ca: d9 52:       stw (ru6)       r11, dp[0x19]
             0x000114cc: 4e b7:       in (2r)         r11, res[r2]
             0x000114ce: da 52:       stw (ru6)       r11, dp[0x1a]
             0x000114d0: 4e b7:       in (2r)         r11, res[r2]
             0x000114d2: db 52:       stw (ru6)       r11, dp[0x1b]
             0x000114d4: 4e b7:       in (2r)         r11, res[r2]
             0x000114d6: dc 52:       stw (ru6)       r11, dp[0x1c]
             0x000114d8: 4e b7:       in (2r)         r11, res[r2]
             0x000114da: dd 52:       stw (ru6)       r11, dp[0x1d]
             0x000114dc: 4e b7:       in (2r)         r11, res[r2]
             0x000114de: de 52:       stw (ru6)       r11, dp[0x1e]
             0x000114e0: 4e b7:       in (2r)         r11, res[r2]
             0x000114e2: df 52:       stw (ru6)       r11, dp[0x1f]
             0x000114e4: 4e b7:       in (2r)         r11, res[r2]
             0x000114e6: e0 52:       stw (ru6)       r11, dp[0x20]
             0x000114e8: 4e b7:       in (2r)         r11, res[r2]
             0x000114ea: e1 52:       stw (ru6)       r11, dp[0x21]
             0x000114ec: 4e b7:       in (2r)         r11, res[r2]
             0x000114ee: e2 52:       stw (ru6)       r11, dp[0x22]
             0x000114f0: 4e b7:       in (2r)         r11, res[r2]
             0x000114f2: e3 52:       stw (ru6)       r11, dp[0x23]
             0x000114f4: 4e b7:       in (2r)         r11, res[r2]
             0x000114f6: e4 52:       stw (ru6)       r11, dp[0x24]
             0x000114f8: 4e b7:       in (2r)         r11, res[r2]
             0x000114fa: e5 52:       stw (ru6)       r11, dp[0x25]
             0x000114fc: 4e b7:       in (2r)         r11, res[r2]
             0x000114fe: e6 52:       stw (ru6)       r11, dp[0x26]
             0x00011500: 4e b7:       in (2r)         r11, res[r2]
             0x00011502: e7 52:       stw (ru6)       r11, dp[0x27]
             0x00011504: 4e b7:       in (2r)         r11, res[r2]
             0x00011506: e8 52:       stw (ru6)       r11, dp[0x28]
             0x00011508: 4e b7:       in (2r)         r11, res[r2]
             0x0001150a: e9 52:       stw (ru6)       r11, dp[0x29]
             0x0001150c: 4e b7:       in (2r)         r11, res[r2]
             0x0001150e: ea 52:       stw (ru6)       r11, dp[0x2a]
             0x00011510: 4e b7:       in (2r)         r11, res[r2]
             0x00011512: eb 52:       stw (ru6)       r11, dp[0x2b]
             0x00011514: 4e b7:       in (2r)         r11, res[r2]
             0x00011516: ec 52:       stw (ru6)       r11, dp[0x2c]
             0x00011518: 4e b7:       in (2r)         r11, res[r2]
             0x0001151a: ed 52:       stw (ru6)       r11, dp[0x2d]
             0x0001151c: 4e b7:       in (2r)         r11, res[r2]
             0x0001151e: ee 52:       stw (ru6)       r11, dp[0x2e]
             0x00011520: 4e b7:       in (2r)         r11, res[r2]
             0x00011522: ef 52:       stw (ru6)       r11, dp[0x2f]
             0x00011524: 4e b7:       in (2r)         r11, res[r2]
             0x00011526: f0 52:       stw (ru6)       r11, dp[0x30]
             0x00011528: 4e b7:       in (2r)         r11, res[r2]
             0x0001152a: f1 52:       stw (ru6)       r11, dp[0x31]
             0x0001152c: 4e b7:       in (2r)         r11, res[r2]
             0x0001152e: f2 52:       stw (ru6)       r11, dp[0x32]
             0x00011530: 4e b7:       in (2r)         r11, res[r2]
             0x00011532: f3 52:       stw (ru6)       r11, dp[0x33]
             0x00011534: 4e b7:       in (2r)         r11, res[r2]
             0x00011536: f4 52:       stw (ru6)       r11, dp[0x34]
             0x00011538: 4e b7:       in (2r)         r11, res[r2]
             0x0001153a: f5 52:       stw (ru6)       r11, dp[0x35]
             0x0001153c: 4e b7:       in (2r)         r11, res[r2]
             0x0001153e: f6 52:       stw (ru6)       r11, dp[0x36]
             0x00011540: 4e b7:       in (2r)         r11, res[r2]
             0x00011542: f7 52:       stw (ru6)       r11, dp[0x37]
             0x00011544: 4e b7:       in (2r)         r11, res[r2]
             0x00011546: f8 52:       stw (ru6)       r11, dp[0x38]
             0x00011548: 4e b7:       in (2r)         r11, res[r2]
             0x0001154a: f9 52:       stw (ru6)       r11, dp[0x39]
             0x0001154c: 4e b7:       in (2r)         r11, res[r2]
             0x0001154e: fa 52:       stw (ru6)       r11, dp[0x3a]
             0x00011550: 4e b7:       in (2r)         r11, res[r2]
             0x00011552: fb 52:       stw (ru6)       r11, dp[0x3b]
             0x00011554: 4e b7:       in (2r)         r11, res[r2]
             0x00011556: fc 52:       stw (ru6)       r11, dp[0x3c]
             0x00011558: 4e b7:       in (2r)         r11, res[r2]
             0x0001155a: fd 52:       stw (ru6)       r11, dp[0x3d]
             0x0001155c: 4e b7:       in (2r)         r11, res[r2]
             0x0001155e: fe 52:       stw (ru6)       r11, dp[0x3e]
             0x00011560: 0a b7:       in (2r)         r6, res[r2]
             0x00011562: e5 37:       set (1r)        dp, r5
             0x00011564: 4e b7:       in (2r)         r11, res[r2]
             0x00011566: c0 52:       stw (ru6)       r11, dp[0x0]
             0x00011568: 4e b7:       in (2r)         r11, res[r2]
             0x0001156a: c1 52:       stw (ru6)       r11, dp[0x1]
             0x0001156c: 4e b7:       in (2r)         r11, res[r2]
             0x0001156e: c2 52:       stw (ru6)       r11, dp[0x2]
             0x00011570: 4e b7:       in (2r)         r11, res[r2]
             0x00011572: c3 52:       stw (ru6)       r11, dp[0x3]
             0x00011574: 4e b7:       in (2r)         r11, res[r2]
             0x00011576: c4 52:       stw (ru6)       r11, dp[0x4]
             0x00011578: 4e b7:       in (2r)         r11, res[r2]
             0x0001157a: c5 52:       stw (ru6)       r11, dp[0x5]
             0x0001157c: 4e b7:       in (2r)         r11, res[r2]
             0x0001157e: c6 52:       stw (ru6)       r11, dp[0x6]
             0x00011580: 4e b7:       in (2r)         r11, res[r2]
             0x00011582: c7 52:       stw (ru6)       r11, dp[0x7]
             0x00011584: 4e b7:       in (2r)         r11, res[r2]
             0x00011586: c8 52:       stw (ru6)       r11, dp[0x8]
             0x00011588: 4e b7:       in (2r)         r11, res[r2]
             0x0001158a: c9 52:       stw (ru6)       r11, dp[0x9]
             0x0001158c: 4e b7:       in (2r)         r11, res[r2]
             0x0001158e: ca 52:       stw (ru6)       r11, dp[0xa]
             0x00011590: 4e b7:       in (2r)         r11, res[r2]
             0x00011592: cb 52:       stw (ru6)       r11, dp[0xb]
             0x00011594: 4e b7:       in (2r)         r11, res[r2]
             0x00011596: cc 52:       stw (ru6)       r11, dp[0xc]
             0x00011598: 4e b7:       in (2r)         r11, res[r2]
             0x0001159a: cd 52:       stw (ru6)       r11, dp[0xd]
             0x0001159c: 4e b7:       in (2r)         r11, res[r2]
             0x0001159e: ce 52:       stw (ru6)       r11, dp[0xe]
             0x000115a0: 4e b7:       in (2r)         r11, res[r2]
             0x000115a2: cf 52:       stw (ru6)       r11, dp[0xf]
             0x000115a4: 4e b7:       in (2r)         r11, res[r2]
             0x000115a6: d0 52:       stw (ru6)       r11, dp[0x10]
             0x000115a8: 4e b7:       in (2r)         r11, res[r2]
             0x000115aa: d1 52:       stw (ru6)       r11, dp[0x11]
             0x000115ac: 4e b7:       in (2r)         r11, res[r2]
             0x000115ae: d2 52:       stw (ru6)       r11, dp[0x12]
             0x000115b0: 4e b7:       in (2r)         r11, res[r2]
             0x000115b2: d3 52:       stw (ru6)       r11, dp[0x13]
             0x000115b4: 4e b7:       in (2r)         r11, res[r2]
             0x000115b6: d4 52:       stw (ru6)       r11, dp[0x14]
             0x000115b8: 4e b7:       in (2r)         r11, res[r2]
             0x000115ba: d5 52:       stw (ru6)       r11, dp[0x15]
             0x000115bc: 4e b7:       in (2r)         r11, res[r2]
             0x000115be: d6 52:       stw (ru6)       r11, dp[0x16]
             0x000115c0: 4e b7:       in (2r)         r11, res[r2]
             0x000115c2: d7 52:       stw (ru6)       r11, dp[0x17]
             0x000115c4: 4e b7:       in (2r)         r11, res[r2]
             0x000115c6: d8 52:       stw (ru6)       r11, dp[0x18]
             0x000115c8: 4e b7:       in (2r)         r11, res[r2]
             0x000115ca: d9 52:       stw (ru6)       r11, dp[0x19]
             0x000115cc: 4e b7:       in (2r)         r11, res[r2]
             0x000115ce: da 52:       stw (ru6)       r11, dp[0x1a]
             0x000115d0: 4e b7:       in (2r)         r11, res[r2]
             0x000115d2: db 52:       stw (ru6)       r11, dp[0x1b]
             0x000115d4: 4e b7:       in (2r)         r11, res[r2]
             0x000115d6: dc 52:       stw (ru6)       r11, dp[0x1c]
             0x000115d8: 4e b7:       in (2r)         r11, res[r2]
             0x000115da: dd 52:       stw (ru6)       r11, dp[0x1d]
             0x000115dc: 4e b7:       in (2r)         r11, res[r2]
             0x000115de: de 52:       stw (ru6)       r11, dp[0x1e]
             0x000115e0: 4e b7:       in (2r)         r11, res[r2]
             0x000115e2: df 52:       stw (ru6)       r11, dp[0x1f]
             0x000115e4: 4e b7:       in (2r)         r11, res[r2]
             0x000115e6: e0 52:       stw (ru6)       r11, dp[0x20]
             0x000115e8: 4e b7:       in (2r)         r11, res[r2]
             0x000115ea: e1 52:       stw (ru6)       r11, dp[0x21]
             0x000115ec: 4e b7:       in (2r)         r11, res[r2]
             0x000115ee: e2 52:       stw (ru6)       r11, dp[0x22]
             0x000115f0: 4e b7:       in (2r)         r11, res[r2]
             0x000115f2: e3 52:       stw (ru6)       r11, dp[0x23]
             0x000115f4: 4e b7:       in (2r)         r11, res[r2]
             0x000115f6: e4 52:       stw (ru6)       r11, dp[0x24]
             0x000115f8: 4e b7:       in (2r)         r11, res[r2]
             0x000115fa: e5 52:       stw (ru6)       r11, dp[0x25]
             0x000115fc: 4e b7:       in (2r)         r11, res[r2]
             0x000115fe: e6 52:       stw (ru6)       r11, dp[0x26]
             0x00011600: 4e b7:       in (2r)         r11, res[r2]
             0x00011602: e7 52:       stw (ru6)       r11, dp[0x27]
             0x00011604: 4e b7:       in (2r)         r11, res[r2]
             0x00011606: e8 52:       stw (ru6)       r11, dp[0x28]
             0x00011608: 4e b7:       in (2r)         r11, res[r2]
             0x0001160a: e9 52:       stw (ru6)       r11, dp[0x29]
             0x0001160c: 4e b7:       in (2r)         r11, res[r2]
             0x0001160e: ea 52:       stw (ru6)       r11, dp[0x2a]
             0x00011610: 4e b7:       in (2r)         r11, res[r2]
             0x00011612: eb 52:       stw (ru6)       r11, dp[0x2b]
             0x00011614: 4e b7:       in (2r)         r11, res[r2]
             0x00011616: ec 52:       stw (ru6)       r11, dp[0x2c]
             0x00011618: 4e b7:       in (2r)         r11, res[r2]
             0x0001161a: ed 52:       stw (ru6)       r11, dp[0x2d]
             0x0001161c: 4e b7:       in (2r)         r11, res[r2]
             0x0001161e: ee 52:       stw (ru6)       r11, dp[0x2e]
             0x00011620: 4e b7:       in (2r)         r11, res[r2]
             0x00011622: ef 52:       stw (ru6)       r11, dp[0x2f]
             0x00011624: 4e b7:       in (2r)         r11, res[r2]
             0x00011626: f0 52:       stw (ru6)       r11, dp[0x30]
             0x00011628: 4e b7:       in (2r)         r11, res[r2]
             0x0001162a: f1 52:       stw (ru6)       r11, dp[0x31]
             0x0001162c: 4e b7:       in (2r)         r11, res[r2]
             0x0001162e: f2 52:       stw (ru6)       r11, dp[0x32]
             0x00011630: 4e b7:       in (2r)         r11, res[r2]
             0x00011632: f3 52:       stw (ru6)       r11, dp[0x33]
             0x00011634: 4e b7:       in (2r)         r11, res[r2]
             0x00011636: f4 52:       stw (ru6)       r11, dp[0x34]
             0x00011638: 4e b7:       in (2r)         r11, res[r2]
             0x0001163a: f5 52:       stw (ru6)       r11, dp[0x35]
             0x0001163c: 4e b7:       in (2r)         r11, res[r2]
             0x0001163e: f6 52:       stw (ru6)       r11, dp[0x36]
             0x00011640: 4e b7:       in (2r)         r11, res[r2]
             0x00011642: f7 52:       stw (ru6)       r11, dp[0x37]
             0x00011644: 4e b7:       in (2r)         r11, res[r2]
             0x00011646: f8 52:       stw (ru6)       r11, dp[0x38]
             0x00011648: 4e b7:       in (2r)         r11, res[r2]
             0x0001164a: f9 52:       stw (ru6)       r11, dp[0x39]
             0x0001164c: 4e b7:       in (2r)         r11, res[r2]
             0x0001164e: fa 52:       stw (ru6)       r11, dp[0x3a]
             0x00011650: 4e b7:       in (2r)         r11, res[r2]
             0x00011652: fb 52:       stw (ru6)       r11, dp[0x3b]
             0x00011654: 4e b7:       in (2r)         r11, res[r2]
             0x00011656: 13 3f:       setpt (r2r)     res[r3], r4
             0x00011658: 02 b7:       in (2r)         r4, res[r2]
             0x0001165a: 4f fa ed 97: outpw (l2rus)   res[r3], r0, 0x7
             0x0001165e: ce b6:       in (2r)         r3, res[r2]
             0x00011660: 08 5c:       ldw (ru6)       r0, sp[0x8]
             0x00011662: 0e b7:       in (2r)         r7, res[r2]
             0x00011664: 50 3f:       setpt (r2r)     res[r0], r8
             0x00011666: 02 6a:       ldc (ru6)       r8, 0x2
             0x00011668: 82 f8 ed 97: outpw (l2rus)   res[r0], r8, 0x2
             0x0001166c: d0 a6:       mkmsk (rus)     r0, 0x20
             0x0001166e: c2 ae:       out (r2r)       res[r2], r0
             0x00011670: fc 52:       stw (ru6)       r11, dp[0x3c]
             0x00011672: 3d 51:       stw (ru6)       r4, dp[0x3d]
             0x00011674: fe 50:       stw (ru6)       r3, dp[0x3e]
             0x00011676: ff 51:       stw (ru6)       r7, dp[0x3f]
             0x00011678: c0 62:       ldaw (ru6)      r11, dp[0x0]
             0x0001167a: 1d 34:       eq (3r)         r5, r11, r5
             0x0001167c: 42 79:       bf (ru6)        r5, 0x2 <jump>
             0x0001167e: 81 73:       extdp (u6)      0x1
             0x00011680: 80 51:       stw (ru6)       r6, dp[0x0]

<jump>:
             0x00011682: e1 37:       set (1r)        dp, r1
             0x00011684: 04 5e:       ldw (ru6)       r8, sp[0x4]
             0x00011686: c3 5d:       ldw (ru6)       r7, sp[0x3]
             0x00011688: 82 5d:       ldw (ru6)       r6, sp[0x2]
             0x0001168a: 41 5d:       ldw (ru6)       r5, sp[0x1]
             0x0001168c: 00 5d:       ldw (ru6)       r4, sp[0x0]
             0x0001168e: c5 77:       retsp (u6)      0x5

<sdram_short_block_read_PINOUT_V1_IS42S16400F>:
             0x00011690: 44 77:       entsp (u6)      0x4
             0x00011692: 00 55:       stw (ru6)       r4, sp[0x0]
             0x00011694: 41 55:       stw (ru6)       r5, sp[0x1]
             0x00011696: 82 55:       stw (ru6)       r6, sp[0x2]
             0x00011698: c3 55:       stw (ru6)       r7, sp[0x3]
             0x0001169a: 05 5d:       ldw (ru6)       r4, sp[0x5]
             0x0001169c: 72 93:       add (2rus)      r7, r4, 0x6
             0x0001169e: 02 f0 7e 69: ldc (lru6)      r5, 0xbe
             0x000116a2: c6 5e:       ldw (ru6)       r11, sp[0x6]
             0x000116a4: 5e 3f:       setpt (r2r)     res[r2], r11
             0x000116a6: 4e b7:       in (2r)         r11, res[r2]
             0x000116a8: 4e b7:       in (2r)         r11, res[r2]
             0x000116aa: 13 3f:       setpt (r2r)     res[r3], r4
             0x000116ac: 02 b7:       in (2r)         r4, res[r2]
             0x000116ae: dc fc ed 97: outpw (l2rus)   res[r3], r5, 0x8
             0x000116b2: 06 b7:       in (2r)         r5, res[r2]
             0x000116b4: dc a6:       mkmsk (rus)     r3, 0x20
             0x000116b6: 0a b7:       in (2r)         r6, res[r2]
             0x000116b8: ce ae:       out (r2r)       res[r2], r3
             0x000116ba: c7 5c:       ldw (ru6)       r3, sp[0x7]
             0x000116bc: 1f 3f:       setpt (r2r)     res[r3], r7
             0x000116be: 82 68:       ldc (ru6)       r2, 0x2
             0x000116c0: 2e f8 ed 97: outpw (l2rus)   res[r3], r2, 0x2
             0x000116c4: 84 68:       ldc (ru6)       r2, 0x4
             0x000116c6: 19 18:       sub (3r)        r1, r2, r1
             0x000116c8: e1 2f:       bru (1r)        r1
             0x000116ca: 63 00:       stw (2rus)      r6, r0[0x3]
             0x000116cc: 52 00:       stw (2rus)      r5, r0[0x2]
             0x000116ce: 41 00:       stw (2rus)      r4, r0[0x1]
             0x000116d0: b0 00:       stw (2rus)      r11, r0[0x0]
             0x000116d2: c3 5d:       ldw (ru6)       r7, sp[0x3]
             0x000116d4: 82 5d:       ldw (ru6)       r6, sp[0x2]
             0x000116d6: 41 5d:       ldw (ru6)       r5, sp[0x1]
             0x000116d8: 00 5d:       ldw (ru6)       r4, sp[0x0]
             0x000116da: c4 77:       retsp (u6)      0x4

<__localPortInitializer9.ctor>:
             0x000116dc: 01 f0 14 58: ldw (lru6)      r0, dp[0x54]
             0x000116e0: 08 e8:       setc (ru6)      res[r0], 0x8
             0x000116e2: 80 f0 0f e8: setc (lru6)     res[r0], 0x200f
             0x000116e6: 60 68:       ldc (ru6)       r1, 0x20
             0x000116e8: d4 fe ec 27: settw (lr2r)    res[r0], r1
             0x000116ec: 00 f0 46 68: ldc (lru6)      r1, 0x6
             0x000116f0: d4 fe ec 0f: setclk (lr2r)   res[r0], r1
             0x000116f4: c0 77:       retsp (u6)      0x0

<__localPortInitializer9.dtor>:
             0x000116f6: 01 f0 14 58: ldw (lru6)      r0, dp[0x54]
             0x000116fa: 00 e8:       setc (ru6)      res[r0], 0x0
             0x000116fc: c0 77:       retsp (u6)      0x0

<__localPortInitializer10.ctor>:
             0x000116fe: 01 f0 15 58: ldw (lru6)      r0, dp[0x55]
             0x00011702: 08 e8:       setc (ru6)      res[r0], 0x8
             0x00011704: 80 f0 0f e8: setc (lru6)     res[r0], 0x200f
             0x00011708: 60 68:       ldc (ru6)       r1, 0x20
             0x0001170a: d4 fe ec 27: settw (lr2r)    res[r0], r1
             0x0001170e: 00 f0 46 68: ldc (lru6)      r1, 0x6
             0x00011712: d4 fe ec 0f: setclk (lr2r)   res[r0], r1
             0x00011716: c0 77:       retsp (u6)      0x0

<__localPortInitializer10.dtor>:
             0x00011718: 01 f0 15 58: ldw (lru6)      r0, dp[0x55]
             0x0001171c: 00 e8:       setc (ru6)      res[r0], 0x0
             0x0001171e: c0 77:       retsp (u6)      0x0

<__localPortInitializer11.ctor>:
             0x00011720: 01 f0 16 58: ldw (lru6)      r0, dp[0x56]
             0x00011724: 08 e8:       setc (ru6)      res[r0], 0x8
             0x00011726: 80 f0 0f e8: setc (lru6)     res[r0], 0x200f
             0x0001172a: 60 68:       ldc (ru6)       r1, 0x20
             0x0001172c: d4 fe ec 27: settw (lr2r)    res[r0], r1
             0x00011730: 00 f0 46 68: ldc (lru6)      r1, 0x6
             0x00011734: d4 fe ec 0f: setclk (lr2r)   res[r0], r1
             0x00011738: c0 77:       retsp (u6)      0x0

<__localPortInitializer11.dtor>:
             0x0001173a: 01 f0 16 58: ldw (lru6)      r0, dp[0x56]
             0x0001173e: 00 e8:       setc (ru6)      res[r0], 0x0
             0x00011740: c0 77:       retsp (u6)      0x0

<__localPortInitializer12.ctor>:
             0x00011742: 01 f0 17 58: ldw (lru6)      r0, dp[0x57]
             0x00011746: 08 e8:       setc (ru6)      res[r0], 0x8
             0x00011748: 80 f0 0f e8: setc (lru6)     res[r0], 0x200f
             0x0001174c: 48 68:       ldc (ru6)       r1, 0x8
             0x0001174e: d4 fe ec 27: settw (lr2r)    res[r0], r1
             0x00011752: 00 f0 46 68: ldc (lru6)      r1, 0x6
             0x00011756: d4 fe ec 0f: setclk (lr2r)   res[r0], r1
             0x0001175a: c0 77:       retsp (u6)      0x0

<__localPortInitializer12.dtor>:
             0x0001175c: 01 f0 17 58: ldw (lru6)      r0, dp[0x57]
             0x00011760: 00 e8:       setc (ru6)      res[r0], 0x0
             0x00011762: c0 77:       retsp (u6)      0x0

<__localPortInitializer13.ctor>:
             0x00011764: 01 f0 18 58: ldw (lru6)      r0, dp[0x58]
             0x00011768: 08 e8:       setc (ru6)      res[r0], 0x8
             0x0001176a: 00 f0 46 68: ldc (lru6)      r1, 0x6
             0x0001176e: d4 fe ec 0f: setclk (lr2r)   res[r0], r1
             0x00011772: c0 77:       retsp (u6)      0x0

<__localPortInitializer13.dtor>:
             0x00011774: 01 f0 18 58: ldw (lru6)      r0, dp[0x58]
             0x00011778: 00 e8:       setc (ru6)      res[r0], 0x0
             0x0001177a: c0 77:       retsp (u6)      0x0

<__localPortInitializer14.ctor>:
             0x0001177c: 01 f0 19 58: ldw (lru6)      r0, dp[0x59]
             0x00011780: 08 e8:       setc (ru6)      res[r0], 0x8
             0x00011782: c0 77:       retsp (u6)      0x0

<__localPortInitializer14.dtor>:
             0x00011784: 01 f0 19 58: ldw (lru6)      r0, dp[0x59]
             0x00011788: 00 e8:       setc (ru6)      res[r0], 0x0
             0x0001178a: c0 77:       retsp (u6)      0x0

<__mcmain000000>:
             0x0001178c: 52 77:       entsp (u6)      0x12
             0x0001178e: 81 56:       stw (ru6)       r10, sp[0x1]
             0x00011790: 80 66:       ldaw (ru6)      r10, sp[0x0]
             0x00011792: d1 68:       ldc (ru6)       r3, 0x11
             0x00011794: cb f9 ec 07: stw (l3r)       r4, r10[r3]
             0x00011798: d0 68:       ldc (ru6)       r3, 0x10
             0x0001179a: db f9 ec 07: stw (l3r)       r5, r10[r3]
             0x0001179e: ce 68:       ldc (ru6)       r3, 0xe
             0x000117a0: 8b f9 ec 07: stw (l3r)       r0, r10[r3]
             0x000117a4: cd 68:       ldc (ru6)       r3, 0xd
             0x000117a6: 9b f9 ec 07: stw (l3r)       r1, r10[r3]
             0x000117aa: cc 68:       ldc (ru6)       r3, 0xc
             0x000117ac: ab f9 ec 07: stw (l3r)       r2, r10[r3]
             0x000117b0: db 03:       stw (2rus)      r1, r10[0x7]
             0x000117b2: ca 03:       stw (2rus)      r0, r10[0x6]
             0x000117b4: e9 03:       stw (2rus)      r2, r10[0x5]
             0x000117b6: c3 86:       getr (rus)      r0, 0x3
             0x000117b8: 1a fe ec 9f: ldaw (l2rus)    r1, r10[0xa]
             0x000117bc: 80 64:       ldaw (ru6)      r2, sp[0x0]
             0x000117be: cc 68:       ldc (ru6)       r3, 0xc
             0x000117c0: bb 49:       ldw (3r)        r3, r10[r3]
             0x000117c2: 3a 06:       stw (2rus)      r3, r10[0xa]
             0x000117c4: dc 06:       getst (2r)      r3, res[r0]
             0x000117c6: 00 f0 e7 6a: ldc (lru6)      r11, 0x27
             0x000117ca: cd 91:       add (2rus)      r4, r11, 0x1
             0x000117cc: 78 04:       stw (2rus)      r11, r10[0x4]
             0x000117ce: 3b d8:       ldap (u10)      r11, 0x3b <par_outlined.1>
             0x000117d0: 4f 07:       init (2r)       t[r3]:pc, r11
             0x000117d2: 00 f0 93 d9: ldap (lu10)     r11, 0x193 <__child_cleanup>
             0x000117d6: 4f ff ec 17: init (l2r)      t[r3]:lr, r11
             0x000117da: c0 66:       ldaw (ru6)      r11, sp[0x0]
             0x000117dc: 7c fc ec 27: ldaw (l3r)      r11, r11[-r4]
             0x000117e0: fb 2f:       set (1r)        sp, r11
             0x000117e2: 08 0c:       ldw (2rus)      r4, r10[0x4]
             0x000117e4: 7c fc ec 1f: ldaw (l3r)      r11, r11[r4]
             0x000117e8: 58 fe ec 9f: ldaw (l2rus)    r5, r10[0x8]
             0x000117ec: 4f 17:       init (2r)       t[r3]:sp, r11
             0x000117ee: 07 b8:       set (3r)        t[r3]:r0, r1
             0x000117f0: f0 1f:       msync (1r)      res[r0]
             0x000117f2: 4e 68:       ldc (ru6)       r1, 0xe
             0x000117f4: 99 49:       ldw (3r)        r1, r10[r1]
             0x000117f6: 18 06:       stw (2rus)      r1, r10[0x8]
             0x000117f8: 4d 68:       ldc (ru6)       r1, 0xd
             0x000117fa: 99 49:       ldw (3r)        r1, r10[r1]
             0x000117fc: 19 06:       stw (2rus)      r1, r10[0x9]
             0x000117fe: 81 77:       extsp (u6)      0x1
             0x00011800: 8b 01:       stw (2rus)      r0, r10[0x3]
             0x00011802: c4 90:       add (2rus)      r0, r5, 0x0
             0x00011804: aa 01:       stw (2rus)      r2, r10[0x2]
             0x00011806: 0e d0:       bl (u10)        0xe <par_outlined.0>
             0x00011808: 81 67:       ldaw (ru6)      sp, sp[0x1]
             0x0001180a: 8b 09:       ldw (2rus)      r0, r10[0x3]
             0x0001180c: f0 17:       mjoin (1r)      res[r0]
             0x0001180e: 9a 09:       ldw (2rus)      r1, r10[0x2]
             0x00011810: f1 2f:       set (1r)        sp, r1
             0x00011812: e0 17:       freer (1r)      res[r0]
             0x00011814: 0b 0e:       ldw (2rus)      r0, r10[0xb]
             0x00011816: 50 68:       ldc (ru6)       r1, 0x10
             0x00011818: d9 49:       ldw (3r)        r5, r10[r1]
             0x0001181a: 51 68:       ldc (ru6)       r1, 0x11
             0x0001181c: c9 49:       ldw (3r)        r4, r10[r1]
             0x0001181e: fa 2f:       set (1r)        sp, r10
             0x00011820: 81 5e:       ldw (ru6)       r10, sp[0x1]
             0x00011822: d2 77:       retsp (u6)      0x12

<par_outlined.0>:
             0x00011824: 48 77:       entsp (u6)      0x8
             0x00011826: 11 08:       ldw (2rus)      r1, r0[0x1]
             0x00011828: 46 54:       stw (ru6)       r1, sp[0x6]
             0x0001182a: 10 08:       ldw (2rus)      r1, r0[0x0]
             0x0001182c: 45 54:       stw (ru6)       r1, sp[0x5]
             0x0001182e: 02 54:       stw (ru6)       r0, sp[0x2]
             0x00011830: 05 5c:       ldw (ru6)       r0, sp[0x5]
             0x00011832: 04 54:       stw (ru6)       r0, sp[0x4]
             0x00011834: 06 5c:       ldw (ru6)       r0, sp[0x6]
             0x00011836: 03 54:       stw (ru6)       r0, sp[0x3]
             0x00011838: 44 5c:       ldw (ru6)       r1, sp[0x4]
             0x0001183a: 01 54:       stw (ru6)       r0, sp[0x1]
             0x0001183c: 04 90:       add (2rus)      r0, r1, 0x0
             0x0001183e: 41 5c:       ldw (ru6)       r1, sp[0x1]
             0x00011840: 02 f0 49 d6: bl (lu10)       -0xa49 <__main_xm_1>
             0x00011844: c8 77:       retsp (u6)      0x8

<par_outlined.1>:
             0x00011846: 45 77:       entsp (u6)      0x5
             0x00011848: 10 08:       ldw (2rus)      r1, r0[0x0]
             0x0001184a: 43 54:       stw (ru6)       r1, sp[0x3]
             0x0001184c: 01 54:       stw (ru6)       r0, sp[0x1]
             0x0001184e: 03 5c:       ldw (ru6)       r0, sp[0x3]
             0x00011850: 02 54:       stw (ru6)       r0, sp[0x2]
             0x00011852: 02 f0 4b d6: bl (lu10)       -0xa4b <__main_xm_2>
             0x00011856: c5 77:       retsp (u6)      0x5

<main>:
             0x00011858: 42 77:       entsp (u6)      0x2

<getAllChannels>:
             0x0001185a: c2 86:       getr (rus)      r0, 0x2
             0x0001185c: 02 74:       bt (ru6)        r0, -0x2 <getAllChannels>
             0x0001185e: 9f 68:       ldc (ru6)       r2, 0x1f
             0x00011860: c1 68:       ldc (ru6)       r3, 0x1
             0x00011862: 04 f0 40 68: ldc (lru6)      r1, 0x100
             0x00011866: 00 f0 02 6c: ldw (lru6)      r0, cp[0x2]
             0x0001186a: 01 10:       add (3r)        r0, r0, r1

<freeAllChannels>:
             0x0001186c: e0 17:       freer (1r)      res[r0]

<skipFree>:
             0x0001186e: 01 10:       add (3r)        r0, r0, r1
             0x00011870: 4e 30:       eq (3r)         r4, r3, r2
             0x00011872: 3d 90:       add (2rus)      r3, r3, 0x1
             0x00011874: 05 7d:       bf (ru6)        r4, -0x5 <freeAllChannels>
             0x00011876: 00 f0 83 6c: ldw (lru6)      r2, cp[0x3]
             0x0001187a: 26 f0 cc 62: ldaw (lru6)     r11, dp[0x98c]
             0x0001187e: 01 69:       ldc (ru6)       r4, 0x1
             0x00011880: 77 d0:       bl (u10)        0x77 <wakeCore>
             0x00011882: 26 f0 c9 62: ldaw (lru6)     r11, dp[0x989]
             0x00011886: 03 69:       ldc (ru6)       r4, 0x3
             0x00011888: fc f3 c0 69: ldc (lru6)      r7, 0xff00
             0x0001188c: 00 68:       ldc (ru6)       r0, 0x0

<allocLocalChanends>:
             0x0001188e: 90 32:       eq (3r)         r5, r0, r4
             0x00011890: 47 71:       bt (ru6)        r5, 0x7 <doneLocalChanendsAlloc>
             0x00011892: c6 86:       getr (rus)      r1, 0x2
             0x00011894: 9c f9 ec 07: stw (l3r)       r1, r11[r0]
             0x00011898: 67 42:       or (3r)         r2, r1, r7
             0x0001189a: d9 16:       setd (r2r)      res[r1], r2

<dontAllocOne>:
             0x0001189c: 01 90:       add (2rus)      r0, r0, 0x1
             0x0001189e: 09 77:       bu (u6)         -0x9 <allocLocalChanends>

<doneLocalChanendsAlloc>:
             0x000118a0: 81 77:       extsp (u6)      0x1
             0x000118a2: 00 f0 42 6c: ldw (lru6)      r1, cp[0x2]
             0x000118a6: 00 f0 c3 62: ldaw (lru6)     r11, dp[0x3]

<spreadToOneCore>:
             0x000118aa: 8c 09:       ldw (2rus)      r0, r11[0x0]
             0x000118ac: 3d fa ec 9f: ldaw (l2rus)    r11, r11[0x1]
             0x000118b0: 01 f0 03 78: bf (lru6)       r0, 0x43 <doneSpreading>
             0x000118b4: 40 6a:       ldc (ru6)       r9, 0x0
             0x000118b6: 81 b0:       eq (2rus)       r8, r0, 0x1
             0x000118b8: 02 72:       bt (ru6)        r8, 0x2 <localSpreadPrologue>

<remoteSpreadPrologue>:
             0x000118ba: d1 16:       setd (r2r)      res[r1], r0
             0x000118bc: 02 73:       bu (u6)         0x2 <doNextStore>

<localSpreadPrologue>:
             0x000118be: 26 f0 89 62: ldaw (lru6)     r10, dp[0x989]

<doNextStore>:
             0x000118c2: 37 d0:       bl (u10)        0x37 <alignR11>
             0x000118c4: ac 09:       ldw (2rus)      r2, r11[0x0]
             0x000118c6: 80 54:       stw (ru6)       r2, sp[0x0]
             0x000118c8: 3d fa ec 9f: ldaw (l2rus)    r11, r11[0x1]
             0x000118cc: 92 7c:       bf (ru6)        r2, -0x12 <spreadToOneCore>
             0x000118ce: 3d 86:       ld16s (3r)      r3, r11[r9]
             0x000118d0: 3e 92:       add (2rus)      r11, r11, 0x2

<doStoreEntry>:
             0x000118d2: c9 7c:       bf (ru6)        r3, -0x9 <doNextStore>
             0x000118d4: 01 72:       bt (ru6)        r8, 0x1 <doStoreEntryNoIdSend>
             0x000118d6: c5 ae:       out (r2r)       res[r1], r1

<doStoreEntryNoIdSend>:
             0x000118d8: 4d 86:       ld16s (3r)      r4, r11[r9]
             0x000118da: 3e 92:       add (2rus)      r11, r11, 0x2
             0x000118dc: 74 a7:       mkmsk (rus)     r5, 0x8
             0x000118de: a0 ad:       shr (2rus)      r6, r4, 0x8
             0x000118e0: 66 3b:       and (3r)        r6, r5, r6
             0x000118e2: 76 33:       eq (3r)         r7, r5, r6
             0x000118e4: c7 79:       bf (ru6)        r7, 0x7 <entryIsNotFixed>
             0x000118e6: 41 3b:       and (3r)        r4, r4, r5
             0x000118e8: 24 d0:       bl (u10)        0x24 <alignR11>
             0x000118ea: ec 09:       ldw (2rus)      r6, r11[0x0]
             0x000118ec: 7c 94:       add (2rus)      r11, r11, 0x4
             0x000118ee: 15 72:       bt (ru6)        r8, 0x15 <setLocalEntryValue>
             0x000118f0: 09 af:       out (r2r)       res[r1], r6
             0x000118f2: 0e 73:       bu (u6)         0xe <sendRemoteEntryValue>

<entryIsNotFixed>:
             0x000118f4: 01 72:       bt (ru6)        r8, 0x1 <skipRemoteSend>
             0x000118f6: 09 af:       out (r2r)       res[r1], r6

<skipRemoteSend>:
             0x000118f8: 61 3b:       and (3r)        r6, r4, r5
             0x000118fa: 79 33:       eq (3r)         r7, r6, r5
             0x000118fc: 80 ad:       shr (2rus)      r4, r4, 0x8
             0x000118fe: c5 79:       bf (ru6)        r7, 0x5 <isRealEnd>
             0x00011900: 18 d0:       bl (u10)        0x18 <alignR11>
             0x00011902: 7c 94:       add (2rus)      r11, r11, 0x4
             0x00011904: 14 72:       bt (ru6)        r8, 0x14 <sendLoopBottom>
             0x00011906: 80 69:       ldc (ru6)       r6, 0x0
             0x00011908: 03 73:       bu (u6)         0x3 <sendRemoteEntryValue>

<isRealEnd>:
             0x0001190a: 80 5c:       ldw (ru6)       r2, sp[0x0]
             0x0001190c: aa 4a:       ldw (3r)        r6, r2[r6]

<sendEndValue>:
             0x0001190e: 05 72:       bt (ru6)        r8, 0x5 <setLocalEntryValue>

<sendRemoteEntryValue>:
             0x00011910: 09 af:       out (r2r)       res[r1], r6
             0x00011912: d5 4e:       outct (rus)     res[r1], 0x1
             0x00011914: d7 ce:       chkct (rus)     res[r1], 0x3
             0x00011916: d5 ce:       chkct (rus)     res[r1], 0x1
             0x00011918: 0a 73:       bu (u6)         0xa <sendLoopBottom>

<setLocalEntryValue>:
             0x0001191a: 30 a7:       mkmsk (rus)     r0, 0x8
             0x0001191c: 40 32:       eq (3r)         r0, r0, r4
             0x0001191e: 04 78:       bf (ru6)        r0, 0x4 <setLocalEntryValueRead>
             0x00011920: 08 d0:       bl (u10)        0x8 <alignR11>
             0x00011922: 8c 09:       ldw (2rus)      r0, r11[0x0]
             0x00011924: 7c 94:       add (2rus)      r11, r11, 0x4
             0x00011926: 01 73:       bu (u6)         0x1 <setLocalEntryValueReady>

<setLocalEntryValueRead>:
             0x00011928: c8 4b:       ldw (3r)        r0, r10[r4]

<setLocalEntryValueReady>:
             0x0001192a: 81 79:       bf (ru6)        r6, 0x1 <sendLoopBottom>
             0x0001192c: 18 17:       setd (r2r)      res[r0], r6

<sendLoopBottom>:
             0x0001192e: 3d 98:       sub (2rus)      r3, r3, 0x1
             0x00011930: 30 77:       bu (u6)         -0x30 <doStoreEntry>

<alignR11>:
             0x00011932: 83 68:       ldc (ru6)       r2, 0x3
             0x00011934: 3f 92:       add (2rus)      r11, r11, 0x3
             0x00011936: 4e 2f:       andnot (2r)     r11, r2
             0x00011938: c0 77:       retsp (u6)      0x0

<doneSpreading>:
             0x0001193a: c1 66:       ldaw (ru6)      r11, sp[0x1]
             0x0001193c: fb 2f:       set (1r)        sp, r11
             0x0001193e: e1 17:       freer (1r)      res[r1]
             0x00011940: 26 f0 c9 62: ldaw (lru6)     r11, dp[0x989]
             0x00011944: c1 69:       ldc (ru6)       r7, 0x1
             0x00011946: fc f3 00 6a: ldc (lru6)      r8, 0xff00
             0x0001194a: 09 d0:       bl (u10)        0x9 <buildRegArg>
             0x0001194c: 0c 90:       add (2rus)      r0, r3, 0x0
             0x0001194e: 07 d0:       bl (u10)        0x7 <buildRegArg>
             0x00011950: 1c 90:       add (2rus)      r1, r3, 0x0
             0x00011952: 05 d0:       bl (u10)        0x5 <buildRegArg>
             0x00011954: 2c 90:       add (2rus)      r2, r3, 0x0
             0x00011956: 00 f0 e7 d4: bl (lu10)       -0xe7 <__mcmain000000>
             0x0001195a: 00 68:       ldc (ru6)       r0, 0x0
             0x0001195c: c2 77:       retsp (u6)      0x2

<buildRegArg>:
             0x0001195e: bc 09:       ldw (2rus)      r3, r11[0x0]
             0x00011960: 3d fa ec 9f: ldaw (l2rus)    r11, r11[0x1]
             0x00011964: df 3a:       and (3r)        r9, r3, r7
             0x00011966: 43 7a:       bf (ru6)        r9, 0x3 <hasEndReg>
             0x00011968: 8f 2f:       andnot (2r)     r3, r7
             0x0001196a: 2c 45:       or (3r)         r10, r3, r8
             0x0001196c: 5b 17:       setd (r2r)      res[r3], r10

<hasEndReg>:
             0x0001196e: c0 77:       retsp (u6)      0x0

<wakeCore>:
             0x00011970: 00 f0 42 6c: ldw (lru6)      r1, cp[0x2]
             0x00011974: bc 91:       add (2rus)      r3, r11, 0x0
             0x00011976: d9 16:       setd (r2r)      res[r1], r2
             0x00011978: c5 ae:       out (r2r)       res[r1], r1
             0x0001197a: d5 4e:       outct (rus)     res[r1], 0x1
             0x0001197c: c1 b6:       in (2r)         r0, res[r1]
             0x0001197e: d5 ce:       chkct (rus)     res[r1], 0x1
             0x00011980: 40 69:       ldc (ru6)       r5, 0x0
             0x00011982: 05 af:       out (r2r)       res[r1], r5
             0x00011984: d5 4e:       outct (rus)     res[r1], 0x1
             0x00011986: 26 f0 c9 62: ldaw (lru6)     r11, dp[0x989]

<readRemoteChanend>:
             0x0001198a: 01 33:       eq (3r)         r0, r4, r5
             0x0001198c: 05 70:       bt (ru6)        r0, 0x5 <doneRemoteChans>
             0x0001198e: c1 b6:       in (2r)         r0, res[r1]
             0x00011990: 4d fa ec 07: stw (l3r)       r0, r3[r5]
             0x00011994: 15 91:       add (2rus)      r5, r5, 0x1
             0x00011996: 07 77:       bu (u6)         -0x7 <readRemoteChanend>

<doneRemoteChans>:
             0x00011998: 01 71:       bt (ru6)        r4, 0x1 <doneRemoteChans_2>
             0x0001199a: c1 b6:       in (2r)         r0, res[r1]

<doneRemoteChans_2>:
             0x0001199c: d5 ce:       chkct (rus)     res[r1], 0x1
             0x0001199e: c0 77:       retsp (u6)      0x0

<endOfStartup>:
             0x000119a0: 00 f0 42 6c: ldw (lru6)      r1, cp[0x2]
             0x000119a4: e1 17:       freer (1r)      res[r1]

<_DoException>:
             0x000119a6: ed 07:       clre (0r)       
             0x000119a8: ec 07:       waiteu (0r)     
             0x000119aa: 00 00:       stw (2rus)      r0, r0[0x0]

<__assert_func>:
             0x000119ac: 4e 77:       entsp (u6)      0xe
             0x000119ae: 0d 55:       stw (ru6)       r4, sp[0xd]
             0x000119b0: 4c 55:       stw (ru6)       r5, sp[0xc]
             0x000119b2: 8b 55:       stw (ru6)       r6, sp[0xb]
             0x000119b4: ca 55:       stw (ru6)       r7, sp[0xa]
             0x000119b6: ca 69:       ldc (ru6)       r7, 0xa
             0x000119b8: 09 56:       stw (ru6)       r8, sp[0x9]
             0x000119ba: 48 56:       stw (ru6)       r9, sp[0x8]
             0x000119bc: 87 56:       stw (ru6)       r10, sp[0x7]
             0x000119be: 30 6a:       ldc (ru6)       r8, 0x30
             0x000119c0: c1 54:       stw (ru6)       r3, sp[0x1]
             0x000119c2: 49 6a:       ldc (ru6)       r9, 0x9
             0x000119c4: 83 54:       stw (ru6)       r2, sp[0x3]
             0x000119c6: 80 68:       ldc (ru6)       r2, 0x0
             0x000119c8: 38 90:       add (2rus)      r3, r2, 0x0
             0x000119ca: 02 54:       stw (ru6)       r0, sp[0x2]
             0x000119cc: 04 64:       ldaw (ru6)      r0, sp[0x4]
             0x000119ce: 00 f0 d3 6e: ldw (lru6)      r11, cp[0x13]
.label43     0x000119d2: 5c 90:       add (2rus)      r5, r3, 0x0
             0x000119d4: b7 fc 4a 00: lmul (l6r)      r3, r4, r1, r11, r2, r2
             0x000119d8: 4f a8:       shr (2rus)      r4, r3, 0x3
             0x000119da: e5 c9:       lsu (3r)        r6, r9, r1
             0x000119dc: 33 fb ec 3f: mul (l3r)       r3, r4, r7
             0x000119e0: 37 18:       sub (3r)        r3, r1, r3
             0x000119e2: d0 90:       add (2rus)      r1, r4, 0x0
             0x000119e4: 2c 45:       or (3r)         r10, r3, r8
             0x000119e6: e1 fa ec 8f: st8 (l3r)       r10, r0[r5]
             0x000119ea: f5 90:       add (2rus)      r3, r5, 0x1
             0x000119ec: 8e 75:       bt (ru6)        r6, -0xe <.label43>
             0x000119ee: 00 6a:       ldc (ru6)       r8, 0x0
             0x000119f0: 83 f8 ec 8f: st8 (l3r)       r8, r0[r3]
             0x000119f4: 03 5d:       ldw (ru6)       r4, sp[0x3]
             0x000119f6: 2c 91:       add (2rus)      r6, r7, 0x0
             0x000119f8: 54 79:       bf (ru6)        r5, 0x14 <.label44>
             0x000119fa: 90 8c:       ld8u (3r)       r1, r0[r8]
             0x000119fc: 82 68:       ldc (ru6)       r2, 0x2
             0x000119fe: 20 fd ec 8f: st8 (l3r)       r10, r0[r8]
             0x00011a02: 51 fa ec 8f: st8 (l3r)       r1, r0[r5]
             0x00011a06: d5 98:       sub (2rus)      r1, r5, 0x1
             0x00011a08: 26 c8:       lsu (3r)        r2, r1, r2
             0x00011a0a: 8b 70:       bt (ru6)        r2, 0xb <.label44>
             0x00011a0c: d9 a6:       mkmsk (rus)     r2, 0x1
.label45     0x00011a0e: 32 88:       ld8u (3r)       r3, r0[r2]
             0x00011a10: b1 88:       ld8u (3r)       r11, r0[r1]
             0x00011a12: b2 f8 ec 8f: st8 (l3r)       r11, r0[r2]
             0x00011a16: 29 90:       add (2rus)      r2, r2, 0x1
             0x00011a18: 31 f8 ec 8f: st8 (l3r)       r3, r0[r1]
             0x00011a1c: 15 98:       sub (2rus)      r1, r1, 0x1
             0x00011a1e: 39 c8:       lsu (3r)        r3, r2, r1
             0x00011a20: ca 74:       bt (ru6)        r3, -0xa <.label45>
.label44     0x00011a22: 00 f0 25 d1: bl (lu10)       0x125 <__getstderr>
             0x00011a26: 10 90:       add (2rus)      r1, r0, 0x0
             0x00011a28: 01 f0 1a 60: ldaw (lru6)     r0, dp[0x5a]
             0x00011a2c: 00 f0 20 d3: bl (lu10)       0x320 <fputs>
             0x00011a30: 00 f0 1e d1: bl (lu10)       0x11e <__getstderr>
             0x00011a34: 10 90:       add (2rus)      r1, r0, 0x0
             0x00011a36: 01 5c:       ldw (ru6)       r0, sp[0x1]
             0x00011a38: 00 f0 1a d3: bl (lu10)       0x31a <fputs>
             0x00011a3c: 00 f0 18 d1: bl (lu10)       0x118 <__getstderr>
             0x00011a40: 10 90:       add (2rus)      r1, r0, 0x0
             0x00011a42: 01 f0 1d 60: ldaw (lru6)     r0, dp[0x5d]
             0x00011a46: 00 f0 13 d3: bl (lu10)       0x313 <fputs>
             0x00011a4a: 00 f0 11 d1: bl (lu10)       0x111 <__getstderr>
             0x00011a4e: 10 90:       add (2rus)      r1, r0, 0x0
             0x00011a50: 02 5c:       ldw (ru6)       r0, sp[0x2]
             0x00011a52: 00 f0 0d d3: bl (lu10)       0x30d <fputs>
             0x00011a56: 00 f0 0b d1: bl (lu10)       0x10b <__getstderr>
             0x00011a5a: 10 90:       add (2rus)      r1, r0, 0x0
             0x00011a5c: 01 f0 22 60: ldaw (lru6)     r0, dp[0x62]
             0x00011a60: 00 f0 06 d3: bl (lu10)       0x306 <fputs>
             0x00011a64: 00 f0 04 d1: bl (lu10)       0x104 <__getstderr>
             0x00011a68: 10 90:       add (2rus)      r1, r0, 0x0
             0x00011a6a: 04 64:       ldaw (ru6)      r0, sp[0x4]
             0x00011a6c: 00 f0 00 d3: bl (lu10)       0x300 <fputs>
             0x00011a70: 0d 79:       bf (ru6)        r4, 0xd <.label46>
             0x00011a72: 00 f0 fd d0: bl (lu10)       0xfd <__getstderr>
             0x00011a76: 10 90:       add (2rus)      r1, r0, 0x0
             0x00011a78: 01 f0 25 60: ldaw (lru6)     r0, dp[0x65]
             0x00011a7c: 00 f0 f8 d2: bl (lu10)       0x2f8 <fputs>
             0x00011a80: 00 f0 f6 d0: bl (lu10)       0xf6 <__getstderr>
             0x00011a84: 10 90:       add (2rus)      r1, r0, 0x0
             0x00011a86: c0 90:       add (2rus)      r0, r4, 0x0
             0x00011a88: 00 f0 f2 d2: bl (lu10)       0x2f2 <fputs>
.label46     0x00011a8c: 00 f0 f0 d0: bl (lu10)       0xf0 <__getstderr>
             0x00011a90: 12 08:       ldw (2rus)      r1, r0[0x2]
             0x00011a92: 15 98:       sub (2rus)      r1, r1, 0x1
             0x00011a94: 44 f8 ec 97: ashr (l2rus)    r4, r1, 0x20
             0x00011a98: 12 00:       stw (2rus)      r1, r0[0x2]
             0x00011a9a: 00 f0 e9 d0: bl (lu10)       0xe9 <__getstderr>
             0x00011a9e: 1f 79:       bf (ru6)        r4, 0x1f <.label47>
             0x00011aa0: 42 08:       ldw (2rus)      r4, r0[0x2]
             0x00011aa2: 00 f0 e5 d0: bl (lu10)       0xe5 <__getstderr>
             0x00011aa6: 42 0a:       ldw (2rus)      r0, r0[0x6]
             0x00011aa8: 00 c1:       lss (3r)        r4, r4, r0
             0x00011aaa: 00 f0 e1 d0: bl (lu10)       0xe1 <__getstderr>
             0x00011aae: 10 90:       add (2rus)      r1, r0, 0x0
             0x00011ab0: 11 71:       bt (ru6)        r4, 0x11 <.label48>
             0x00011ab2: 04 08:       ldw (2rus)      r0, r1[0x0]
             0x00011ab4: e0 fc ec 8f: st8 (l3r)       r6, r0[r8]
             0x00011ab8: 00 f0 da d0: bl (lu10)       0xda <__getstderr>
             0x00011abc: 00 08:       ldw (2rus)      r0, r0[0x0]
             0x00011abe: 80 8c:       ld8u (3r)       r0, r0[r8]
             0x00011ac0: c2 b4:       eq (2rus)       r4, r0, 0xa
             0x00011ac2: 00 f0 d5 d0: bl (lu10)       0xd5 <__getstderr>
             0x00011ac6: 10 90:       add (2rus)      r1, r0, 0x0
             0x00011ac8: 05 71:       bt (ru6)        r4, 0x5 <.label48>
             0x00011aca: 04 08:       ldw (2rus)      r0, r1[0x0]
             0x00011acc: 01 90:       add (2rus)      r0, r0, 0x1
             0x00011ace: 04 00:       stw (2rus)      r0, r1[0x0]
             0x00011ad0: 00 f0 92 d2: bl (lu10)       0x292 <abort>
.label48     0x00011ad4: 0a 68:       ldc (ru6)       r0, 0xa
             0x00011ad6: 00 f0 03 d2: bl (lu10)       0x203 <__swbuf>
             0x00011ada: 00 f0 8d d2: bl (lu10)       0x28d <abort>
.label47     0x00011ade: 00 08:       ldw (2rus)      r0, r0[0x0]
             0x00011ae0: e0 fc ec 8f: st8 (l3r)       r6, r0[r8]
             0x00011ae4: 00 f0 c4 d0: bl (lu10)       0xc4 <__getstderr>
             0x00011ae8: 10 08:       ldw (2rus)      r1, r0[0x0]
             0x00011aea: 15 90:       add (2rus)      r1, r1, 0x1
             0x00011aec: 10 00:       stw (2rus)      r1, r0[0x0]
             0x00011aee: 00 f0 83 d2: bl (lu10)       0x283 <abort>
             0x00011af2: 00 90:       add (2rus)      r0, r0, 0x0

<__assert>:
<__assert.coersed..f.7b0.7d.28p.28c.3auc.29.2csi.2cp.28c.3auc.29.29>:
             0x00011af4: 41 77:       entsp (u6)      0x1
             0x00011af6: 38 90:       add (2rus)      r3, r2, 0x0
             0x00011af8: 80 68:       ldc (ru6)       r2, 0x0
             0x00011afa: a8 d4:       bl (u10)        -0xa8 <__assert_func>

<__child_cleanup>:
             0x00011afc: ee 07:       ssync (0r)      
             0x00011afe: 00 00:       stw (2rus)      r0, r0[0x0]

<__divdi3>:
             0x00011b00: b4 f8 ec 97: ashr (l2rus)    r11, r1, 0x20
             0x00011b04: 44 77:       entsp (u6)      0x4
             0x00011b06: 03 55:       stw (ru6)       r4, sp[0x3]
             0x00011b08: 42 55:       stw (ru6)       r5, sp[0x2]
             0x00011b0a: 81 55:       stw (ru6)       r6, sp[0x1]
             0x00011b0c: c0 55:       stw (ru6)       r7, sp[0x0]
             0x00011b0e: c2 72:       bt (ru6)        r11, 0x2 <.label49>
             0x00011b10: c0 6a:       ldc (ru6)       r11, 0x0
             0x00011b12: 06 73:       bu (u6)         0x6 <.label50>
.label49     0x00011b14: c0 6a:       ldc (ru6)       r11, 0x0
             0x00011b16: 8c f9 63 0f: lsub (l5r)      r4, r0, r11, r0, r11
             0x00011b1a: 9d f9 ec 0e: lsub (l5r)      r11, r1, r11, r1, r4
             0x00011b1e: 5c a7:       mkmsk (rus)     r11, 0x20
.label50     0x00011b20: 4c f8 ec 97: ashr (l2rus)    r4, r3, 0x20
             0x00011b24: 06 79:       bf (ru6)        r4, 0x6 <.label51>
             0x00011b26: 00 69:       ldc (ru6)       r4, 0x0
             0x00011b28: e2 f8 c4 0f: lsub (l5r)      r5, r2, r4, r2, r4
             0x00011b2c: f3 f8 c1 0f: lsub (l5r)      r4, r3, r4, r3, r5
             0x00011b30: af 8f:       not (2r)        r11, r11
.label51     0x00011b32: cb 70:       bt (ru6)        r3, 0xb <.label52>
             0x00011b34: 36 c8:       lsu (3r)        r3, r1, r2
             0x00011b36: c3 78:       bf (ru6)        r3, 0x3 <.label53>
             0x00011b38: 12 f8 c1 06: ldivu (l5r)     r1, r0, r1, r0, r2
             0x00011b3c: 2e 73:       bu (u6)         0x2e <.label54>
.label53     0x00011b3e: c0 68:       ldc (ru6)       r3, 0x0
             0x00011b40: 46 f8 c7 06: ldivu (l5r)     r4, r1, r3, r1, r2
             0x00011b44: 12 f8 c1 06: ldivu (l5r)     r1, r0, r1, r0, r2
             0x00011b48: 2a 73:       bu (u6)         0x2a <.label55>
.label52     0x00011b4a: 47 c8:       lsu (3r)        r4, r1, r3
             0x00011b4c: 04 79:       bf (ru6)        r4, 0x4 <.label56>
             0x00011b4e: 40 68:       ldc (ru6)       r1, 0x0
             0x00011b50: 44 90:       add (2rus)      r4, r1, 0x0
             0x00011b52: 34 90:       add (2rus)      r3, r1, 0x0
             0x00011b54: 24 73:       bu (u6)         0x24 <.label55>
.label56     0x00011b56: 03 ff ec 0f: clz (l2r)       r4, r3
             0x00011b5a: 08 71:       bt (ru6)        r4, 0x8 <.label57>
             0x00011b5c: 1d c8:       lsu (3r)        r1, r3, r1
             0x00011b5e: 14 b0:       eq (2rus)       r1, r1, 0x0
             0x00011b60: 02 c8:       lsu (3r)        r0, r0, r2
             0x00011b62: 04 38:       and (3r)        r0, r1, r0
             0x00011b64: d5 a6:       mkmsk (rus)     r1, 0x1
             0x00011b66: 11 f8 ec 0f: xor (l3r)       r1, r0, r1
             0x00011b6a: 17 73:       bu (u6)         0x17 <.label54>
.label57     0x00011b6c: a4 22:       shl (3r)        r6, r1, r4
             0x00011b6e: 60 69:       ldc (ru6)       r5, 0x20
             0x00011b70: 54 1b:       sub (3r)        r5, r5, r4
             0x00011b72: b1 2a:       shr (3r)        r7, r0, r5
             0x00011b74: 6e 43:       or (3r)         r6, r7, r6
             0x00011b76: 7c 22:       shl (3r)        r3, r3, r4
             0x00011b78: b9 2a:       shr (3r)        r7, r2, r5
             0x00011b7a: ff 40:       or (3r)         r3, r7, r3
             0x00011b7c: 68 22:       shl (3r)        r2, r2, r4
             0x00011b7e: 55 2a:       shr (3r)        r1, r1, r5
             0x00011b80: db f8 05 07: ldivu (l5r)     r1, r5, r1, r6, r3
             0x00011b84: c0 68:       ldc (ru6)       r3, 0x0
             0x00011b86: 66 f8 2f 00: lmul (l6r)      r6, r2, r1, r2, r3, r3
             0x00011b8a: 76 cb:       lsu (3r)        r7, r5, r6
             0x00011b8c: c5 71:       bt (ru6)        r7, 0x5 <.label58>
             0x00011b8e: 59 33:       eq (3r)         r5, r6, r5
             0x00011b90: 45 79:       bf (ru6)        r5, 0x5 <.label59>
             0x00011b92: 40 22:       shl (3r)        r0, r0, r4
             0x00011b94: 02 c8:       lsu (3r)        r0, r0, r2
             0x00011b96: 02 78:       bf (ru6)        r0, 0x2 <.label59>
.label58     0x00011b98: 15 98:       sub (2rus)      r1, r1, 0x1
.label54     0x00011b9a: c0 68:       ldc (ru6)       r3, 0x0
.label59     0x00011b9c: 4c 90:       add (2rus)      r4, r3, 0x0
.label55     0x00011b9e: 3d 40:       or (3r)         r3, r3, r1
             0x00011ba0: 40 68:       ldc (ru6)       r1, 0x0
             0x00011ba2: 07 f8 c9 0e: lsub (l5r)      r2, r0, r1, r3, r1
             0x00011ba6: c1 72:       bt (ru6)        r11, 0x1 <.label60>
             0x00011ba8: 0c 90:       add (2rus)      r0, r3, 0x0
.label60     0x00011baa: 54 fa ca 0e: lsub (l5r)      r2, r1, r1, r4, r2
             0x00011bae: c1 72:       bt (ru6)        r11, 0x1 <.label61>
             0x00011bb0: d0 90:       add (2rus)      r1, r4, 0x0
.label61     0x00011bb2: c0 5d:       ldw (ru6)       r7, sp[0x0]
             0x00011bb4: 81 5d:       ldw (ru6)       r6, sp[0x1]
             0x00011bb6: 42 5d:       ldw (ru6)       r5, sp[0x2]
             0x00011bb8: 03 5d:       ldw (ru6)       r4, sp[0x3]
             0x00011bba: c4 77:       retsp (u6)      0x4

<__libc_done>:
             0x00011bbc: 40 68:       ldc (ru6)       r1, 0x0
             0x00011bbe: 41 77:       entsp (u6)      0x1
             0x00011bc0: 04 90:       add (2rus)      r0, r1, 0x0
             0x00011bc2: 00 f0 51 d0: bl (lu10)       0x51 <__call_exitprocs>
             0x00011bc6: 00 f0 91 d1: bl (lu10)       0x191 <_cleanup>
             0x00011bca: 02 f0 0a d0: bl (lu10)       0x80a <.label62>
             0x00011bce: 00 f0 91 d1: bl (lu10)       0x191 <_done>
             0x00011bd2: 00 00:       stw (2rus)      r0, r0[0x0]

<_exit>:
             0x00011bd4: 10 90:       add (2rus)      r1, r0, 0x0
             0x00011bd6: 00 68:       ldc (ru6)       r0, 0x0
             0x00011bd8: 00 f0 44 d0: bl (lu10)       0x44 <_DoSyscall>
             0x00011bdc: ed 07:       clre (0r)       
             0x00011bde: ec 07:       waiteu (0r)     

<_exit_unlocked>:
             0x00011be0: 40 68:       ldc (ru6)       r1, 0x0
             0x00011be2: 42 77:       entsp (u6)      0x2
             0x00011be4: 01 55:       stw (ru6)       r4, sp[0x1]
             0x00011be6: 40 90:       add (2rus)      r4, r0, 0x0
             0x00011be8: c0 90:       add (2rus)      r0, r4, 0x0
             0x00011bea: 00 f0 3d d0: bl (lu10)       0x3d <__call_exitprocs>
             0x00011bee: 00 f0 7d d1: bl (lu10)       0x17d <_cleanup>
             0x00011bf2: 01 f0 f6 d3: bl (lu10)       0x7f6 <.label62>
             0x00011bf6: c0 90:       add (2rus)      r0, r4, 0x0
             0x00011bf8: 00 f0 14 d4: bl (lu10)       -0x14 <_exit>

<memset>:
.label241    0x00011bfc: bb a8:       shr (2rus)      r11, r2, 0x3
             0x00011bfe: dd 7a:       bf (ru6)        r11, 0x1d <.label63>
             0x00011c00: 34 47:       zext (rus)      r1, 0x8
             0x00011c02: 34 a5:       shl (2rus)      r11, r1, 0x8
             0x00011c04: 97 44:       or (3r)         r1, r1, r11
             0x00011c06: 35 a5:       shl (2rus)      r11, r1, 0x10
             0x00011c08: 97 44:       or (3r)         r1, r1, r11
             0x00011c0a: 33 90:       add (2rus)      r3, r0, 0x3
             0x00011c0c: c3 6a:       ldc (ru6)       r11, 0x3
             0x00011c0e: 2f 2f:       andnot (2r)     r3, r11
             0x00011c10: bc 18:       sub (3r)        r11, r3, r0
             0x00011c12: c5 7a:       bf (ru6)        r11, 0x5 <.label64>
             0x00011c14: ab 1c:       sub (3r)        r2, r2, r11
.label65     0x00011c16: 3d 9a:       sub (2rus)      r11, r11, 0x1
             0x00011c18: 93 fc ec 8f: st8 (l3r)       r1, r0[r11]
             0x00011c1c: c4 76:       bt (ru6)        r11, -0x4 <.label65>
.label64     0x00011c1e: ba a8:       shr (2rus)      r11, r2, 0x2
.label66     0x00011c20: 3d 9a:       sub (2rus)      r11, r11, 0x1
             0x00011c22: 9f fc ec 07: stw (l3r)       r1, r3[r11]
             0x00011c26: c4 76:       bt (ru6)        r11, -0x4 <.label66>
             0x00011c28: 3e 10:       add (3r)        r3, r3, r2
             0x00011c2a: da 46:       zext (rus)      r2, 0x2
             0x00011c2c: 85 78:       bf (ru6)        r2, 0x5 <.label67>
             0x00011c2e: 3e 18:       sub (3r)        r3, r3, r2
.label68     0x00011c30: 29 98:       sub (2rus)      r2, r2, 0x1
             0x00011c32: 1e f8 ec 8f: st8 (l3r)       r1, r3[r2]
             0x00011c36: 84 74:       bt (ru6)        r2, -0x4 <.label68>
.label67     0x00011c38: c0 77:       retsp (u6)      0x0
.label63     0x00011c3a: 84 78:       bf (ru6)        r2, 0x4 <.label69>
.label70     0x00011c3c: 29 98:       sub (2rus)      r2, r2, 0x1
             0x00011c3e: 12 f8 ec 8f: st8 (l3r)       r1, r0[r2]
             0x00011c42: 84 74:       bt (ru6)        r2, -0x4 <.label70>
.label69     0x00011c44: c0 77:       retsp (u6)      0x0

<printcharln>:
             0x00011c46: 42 77:       entsp (u6)      0x2
             0x00011c48: 80 68:       ldc (ru6)       r2, 0x0
             0x00011c4a: 41 64:       ldaw (ru6)      r1, sp[0x1]
             0x00011c4c: 06 f8 ec 8f: st8 (l3r)       r0, r1[r2]
             0x00011c50: d1 a6:       mkmsk (rus)     r0, 0x1
             0x00011c52: 34 40:       or (3r)         r3, r1, r0
             0x00011c54: ca 6a:       ldc (ru6)       r11, 0xa
             0x00011c56: be f8 ec 8f: st8 (l3r)       r11, r3[r2]
             0x00011c5a: c2 68:       ldc (ru6)       r3, 0x2
             0x00011c5c: 2c 90:       add (2rus)      r2, r3, 0x0
             0x00011c5e: 00 f0 a0 d1: bl (lu10)       0x1a0 <_write> <_write.coersed..f.7bsi.7d.28si.2cp.28c.3auc.29.2cui.29>
             0x00011c62: c2 77:       retsp (u6)      0x2

<_DoSyscall>:
             0x00011c64: d0 a6:       mkmsk (rus)     r0, 0x20
             0x00011c66: c0 77:       retsp (u6)      0x0

<__call_exitprocs>:
             0x00011c68: 41 77:       entsp (u6)      0x1
             0x00011c6a: 01 f0 d7 d3: bl (lu10)       0x7d7 <.label71>
             0x00011c6e: c1 77:       retsp (u6)      0x1

<__getstderr>:
             0x00011c70: 00 f0 15 58: ldw (lru6)      r0, dp[0x15]
             0x00011c74: c0 77:       retsp (u6)      0x0
             0x00011c76: 00 00:       stw (2rus)      r0, r0[0x0]

<__alloc_libc_hwlock>:
.label244    0x00011c78: 81 87:       getr (rus)      r0, 0x5
             0x00011c7a: 26 f0 0d 50: stw (lru6)      r0, dp[0x98d]
             0x00011c7e: c0 77:       retsp (u6)      0x0

<__spin_lock_acquire>:
             0x00011c80: d5 a6:       mkmsk (rus)     r1, 0x1
.label72     0x00011c82: 26 f0 8d 58: ldw (lru6)      r2, dp[0x98d]
             0x00011c86: ca b6:       in (2r)         r2, res[r2]
             0x00011c88: 20 08:       ldw (2rus)      r2, r0[0x0]
             0x00011c8a: 10 00:       stw (2rus)      r1, r0[0x0]
             0x00011c8c: 26 f0 cd 58: ldw (lru6)      r3, dp[0x98d]
             0x00011c90: cf ae:       out (r2r)       res[r3], r3
             0x00011c92: 89 74:       bt (ru6)        r2, -0x9 <.label72>
             0x00011c94: c0 77:       retsp (u6)      0x0
             0x00011c96: 00 90:       add (2rus)      r0, r0, 0x0

<__spin_lock_release>:
             0x00011c98: 26 f0 4d 58: ldw (lru6)      r1, dp[0x98d]
             0x00011c9c: c5 b6:       in (2r)         r1, res[r1]
             0x00011c9e: 40 68:       ldc (ru6)       r1, 0x0
             0x00011ca0: 10 00:       stw (2rus)      r1, r0[0x0]
             0x00011ca2: 26 f0 0d 58: ldw (lru6)      r0, dp[0x98d]
             0x00011ca6: c0 ae:       out (r2r)       res[r0], r0
             0x00011ca8: c0 77:       retsp (u6)      0x0
             0x00011caa: 00 90:       add (2rus)      r0, r0, 0x0

<__spin_lock_init_recursive>:
             0x00011cac: d4 a6:       mkmsk (rus)     r1, 0x20
             0x00011cae: 10 00:       stw (2rus)      r1, r0[0x0]
             0x00011cb0: 40 68:       ldc (ru6)       r1, 0x0
             0x00011cb2: 11 00:       stw (2rus)      r1, r0[0x1]
             0x00011cb4: c0 77:       retsp (u6)      0x0
             0x00011cb6: 00 90:       add (2rus)      r0, r0, 0x0

<__spin_lock_release_recursive>:
             0x00011cb8: 11 08:       ldw (2rus)      r1, r0[0x1]
             0x00011cba: 15 98:       sub (2rus)      r1, r1, 0x1
             0x00011cbc: 11 00:       stw (2rus)      r1, r0[0x1]
             0x00011cbe: 11 08:       ldw (2rus)      r1, r0[0x1]
             0x00011cc0: 48 70:       bt (ru6)        r1, 0x8 <.label73>
             0x00011cc2: 26 f0 4d 58: ldw (lru6)      r1, dp[0x98d]
             0x00011cc6: c5 b6:       in (2r)         r1, res[r1]
             0x00011cc8: d4 a6:       mkmsk (rus)     r1, 0x20
             0x00011cca: 10 00:       stw (2rus)      r1, r0[0x0]
             0x00011ccc: 26 f0 0d 58: ldw (lru6)      r0, dp[0x98d]
             0x00011cd0: c0 ae:       out (r2r)       res[r0], r0
.label73     0x00011cd2: c0 77:       retsp (u6)      0x0

<__spin_lock_acquire_recursive>:
             0x00011cd4: 10 08:       ldw (2rus)      r1, r0[0x0]
             0x00011cd6: ee 17:       get (0r)        r11, id
             0x00011cd8: 97 34:       eq (3r)         r1, r1, r11
             0x00011cda: 53 70:       bt (ru6)        r1, 0x13 <.label74>
             0x00011cdc: 26 f0 4d 58: ldw (lru6)      r1, dp[0x98d]
             0x00011ce0: c5 b6:       in (2r)         r1, res[r1]
             0x00011ce2: 20 08:       ldw (2rus)      r2, r0[0x0]
             0x00011ce4: d4 a6:       mkmsk (rus)     r1, 0x20
             0x00011ce6: 07 73:       bu (u6)         0x7 <.label75>
.label76     0x00011ce8: 26 f0 8d 58: ldw (lru6)      r2, dp[0x98d]
             0x00011cec: ca ae:       out (r2r)       res[r2], r2
             0x00011cee: 26 f0 8d 58: ldw (lru6)      r2, dp[0x98d]
             0x00011cf2: ca b6:       in (2r)         r2, res[r2]
             0x00011cf4: 20 08:       ldw (2rus)      r2, r0[0x0]
.label75     0x00011cf6: 29 30:       eq (3r)         r2, r2, r1
             0x00011cf8: 89 7c:       bf (ru6)        r2, -0x9 <.label76>
             0x00011cfa: b0 00:       stw (2rus)      r11, r0[0x0]
             0x00011cfc: 26 f0 4d 58: ldw (lru6)      r1, dp[0x98d]
             0x00011d00: c5 ae:       out (r2r)       res[r1], r1
.label74     0x00011d02: 11 08:       ldw (2rus)      r1, r0[0x1]
             0x00011d04: 15 90:       add (2rus)      r1, r1, 0x1
             0x00011d06: 11 00:       stw (2rus)      r1, r0[0x1]
             0x00011d08: c0 77:       retsp (u6)      0x0
             0x00011d0a: 00 00:       stw (2rus)      r0, r0[0x0]

<__sfp_lock_release>:
             0x00011d0c: 00 f0 11 60: ldaw (lru6)     r0, dp[0x11]
             0x00011d10: 41 77:       entsp (u6)      0x1
             0x00011d12: 00 f0 2f d4: bl (lu10)       -0x2f <__spin_lock_release_recursive>
             0x00011d16: c1 77:       retsp (u6)      0x1

<__sfp_lock_acquire>:
             0x00011d18: 00 f0 11 60: ldaw (lru6)     r0, dp[0x11]
             0x00011d1c: 41 77:       entsp (u6)      0x1
             0x00011d1e: 00 f0 27 d4: bl (lu10)       -0x27 <__spin_lock_acquire_recursive>
             0x00011d22: c1 77:       retsp (u6)      0x1

<_cleanup_impl>:
             0x00011d24: 01 f0 da d8: ldap (lu10)     r11, 0x4da <fflush>
             0x00011d28: 41 77:       entsp (u6)      0x1
             0x00011d2a: 8c 91:       add (2rus)      r0, r11, 0x0
             0x00011d2c: 01 f0 e0 d0: bl (lu10)       0x4e0 <_fwalk>
             0x00011d30: c1 77:       retsp (u6)      0x1
             0x00011d32: 00 90:       add (2rus)      r0, r0, 0x0

<__sinit>:
             0x00011d34: 48 77:       entsp (u6)      0x8
             0x00011d36: 07 55:       stw (ru6)       r4, sp[0x7]
             0x00011d38: 46 55:       stw (ru6)       r5, sp[0x6]
             0x00011d3a: 85 55:       stw (ru6)       r6, sp[0x5]
             0x00011d3c: c4 55:       stw (ru6)       r7, sp[0x4]
             0x00011d3e: 03 56:       stw (ru6)       r8, sp[0x3]
             0x00011d40: 42 56:       stw (ru6)       r9, sp[0x2]
             0x00011d42: 81 56:       stw (ru6)       r10, sp[0x1]
             0x00011d44: 00 f0 0f 60: ldaw (lru6)     r0, dp[0xf]
             0x00011d48: 00 f0 3c d4: bl (lu10)       -0x3c <__spin_lock_acquire_recursive>
             0x00011d4c: 26 f0 0e 58: ldw (lru6)      r0, dp[0x98e]
             0x00011d50: 01 f0 27 70: bt (lru6)       r0, 0x67 <.label77>
             0x00011d54: 00 6a:       ldc (ru6)       r8, 0x0
             0x00011d56: 26 f0 0f 52: stw (lru6)      r8, dp[0x98f]
             0x00011d5a: 84 68:       ldc (ru6)       r2, 0x4
             0x00011d5c: d2 a6:       mkmsk (rus)     r0, 0x2
             0x00011d5e: 26 f0 10 50: stw (lru6)      r0, dp[0x990]
             0x00011d62: 8e 6a:       ldc (ru6)       r10, 0xe
             0x00011d64: 26 f0 12 60: ldaw (lru6)     r0, dp[0x992]
             0x00011d68: 00 f0 8e d9: ldap (lu10)     r11, 0x18e <__sread>
             0x00011d6c: 18 92:       add (2rus)      r9, r10, 0x0
             0x00011d6e: 26 f0 11 50: stw (lru6)      r0, dp[0x991]
             0x00011d72: cc 91:       add (2rus)      r4, r11, 0x0
             0x00011d74: 00 f0 d6 d9: ldap (lu10)     r11, 0x1d6 <__swrite>
             0x00011d78: 00 f0 13 58: ldw (lru6)      r0, dp[0x13]
             0x00011d7c: 13 f8 ec 9f: ldaw (l2rus)    r1, r0[0x3]
             0x00011d80: 80 00:       stw (2rus)      r8, r0[0x0]
             0x00011d82: dc 91:       add (2rus)      r5, r11, 0x0
             0x00011d84: 00 f0 aa d9: ldap (lu10)     r11, 0x1aa <__sseek>
             0x00011d88: 81 00:       stw (2rus)      r8, r0[0x1]
             0x00011d8a: 82 00:       stw (2rus)      r8, r0[0x2]
             0x00011d8c: ec 91:       add (2rus)      r6, r11, 0x0
             0x00011d8e: a4 fc ec 87: st16 (l3r)      r2, r1[r8]
             0x00011d92: 92 14:       add (3r)        r1, r0, r10
             0x00011d94: 00 f0 9a d9: ldap (lu10)     r11, 0x19a <__sclose>
             0x00011d98: fc 91:       add (2rus)      r7, r11, 0x0
             0x00011d9a: 04 fd ec 87: st16 (l3r)      r8, r1[r8]
             0x00011d9e: c0 02:       stw (2rus)      r8, r0[0x4]
             0x00011da0: c1 02:       stw (2rus)      r8, r0[0x5]
             0x00011da2: c2 02:       stw (2rus)      r8, r0[0x6]
             0x00011da4: 01 f0 94 6a: ldc (lru6)      r10, 0x54
             0x00011da8: 43 02:       stw (2rus)      r0, r0[0x7]
             0x00011daa: c0 04:       stw (2rus)      r4, r0[0x8]
             0x00011dac: d1 04:       stw (2rus)      r5, r0[0x9]
             0x00011dae: e2 04:       stw (2rus)      r6, r0[0xa]
             0x00011db0: f3 04:       stw (2rus)      r7, r0[0xb]
             0x00011db2: 82 14:       add (3r)        r0, r0, r10
             0x00011db4: 00 f0 86 d4: bl (lu10)       -0x86 <__spin_lock_init_recursive>
             0x00011db8: 00 f0 14 58: ldw (lru6)      r0, dp[0x14]
             0x00011dbc: 80 00:       stw (2rus)      r8, r0[0x0]
             0x00011dbe: 81 00:       stw (2rus)      r8, r0[0x1]
             0x00011dc0: 82 00:       stw (2rus)      r8, r0[0x2]
             0x00011dc2: 89 68:       ldc (ru6)       r2, 0x9
             0x00011dc4: 13 f8 ec 9f: ldaw (l2rus)    r1, r0[0x3]
             0x00011dc8: a4 fc ec 87: st16 (l3r)      r2, r1[r8]
             0x00011dcc: 91 14:       add (3r)        r1, r0, r9
             0x00011dce: 55 a7:       mkmsk (rus)     r9, 0x1
             0x00011dd0: 14 fd ec 87: st16 (l3r)      r9, r1[r8]
             0x00011dd4: c0 02:       stw (2rus)      r8, r0[0x4]
             0x00011dd6: c1 02:       stw (2rus)      r8, r0[0x5]
             0x00011dd8: c2 02:       stw (2rus)      r8, r0[0x6]
             0x00011dda: 43 02:       stw (2rus)      r0, r0[0x7]
             0x00011ddc: c0 04:       stw (2rus)      r4, r0[0x8]
             0x00011dde: d1 04:       stw (2rus)      r5, r0[0x9]
             0x00011de0: e2 04:       stw (2rus)      r6, r0[0xa]
             0x00011de2: f3 04:       stw (2rus)      r7, r0[0xb]
             0x00011de4: 82 14:       add (3r)        r0, r0, r10
             0x00011de6: 00 f0 9f d4: bl (lu10)       -0x9f <__spin_lock_init_recursive>
             0x00011dea: 00 f0 15 58: ldw (lru6)      r0, dp[0x15]
             0x00011dee: 80 00:       stw (2rus)      r8, r0[0x0]
             0x00011df0: 92 68:       ldc (ru6)       r2, 0x12
             0x00011df2: 81 00:       stw (2rus)      r8, r0[0x1]
             0x00011df4: 13 f8 ec 9f: ldaw (l2rus)    r1, r0[0x3]
             0x00011df8: 82 00:       stw (2rus)      r8, r0[0x2]
             0x00011dfa: a4 fc ec 87: st16 (l3r)      r2, r1[r8]
             0x00011dfe: 4e 68:       ldc (ru6)       r1, 0xe
             0x00011e00: 82 68:       ldc (ru6)       r2, 0x2
             0x00011e02: 11 10:       add (3r)        r1, r0, r1
             0x00011e04: a4 fc ec 87: st16 (l3r)      r2, r1[r8]
             0x00011e08: c0 02:       stw (2rus)      r8, r0[0x4]
             0x00011e0a: c1 02:       stw (2rus)      r8, r0[0x5]
             0x00011e0c: c2 02:       stw (2rus)      r8, r0[0x6]
             0x00011e0e: 43 02:       stw (2rus)      r0, r0[0x7]
             0x00011e10: c0 04:       stw (2rus)      r4, r0[0x8]
             0x00011e12: d1 04:       stw (2rus)      r5, r0[0x9]
             0x00011e14: e2 04:       stw (2rus)      r6, r0[0xa]
             0x00011e16: f3 04:       stw (2rus)      r7, r0[0xb]
             0x00011e18: 82 14:       add (3r)        r0, r0, r10
             0x00011e1a: 00 f0 b9 d4: bl (lu10)       -0xb9 <__spin_lock_init_recursive>
             0x00011e1e: 26 f0 4e 52: stw (lru6)      r9, dp[0x98e]
.label77     0x00011e22: 00 f0 0f 60: ldaw (lru6)     r0, dp[0xf]
             0x00011e26: 00 f0 b9 d4: bl (lu10)       -0xb9 <__spin_lock_release_recursive>
             0x00011e2a: 81 5e:       ldw (ru6)       r10, sp[0x1]
             0x00011e2c: 42 5e:       ldw (ru6)       r9, sp[0x2]
             0x00011e2e: 03 5e:       ldw (ru6)       r8, sp[0x3]
             0x00011e30: c4 5d:       ldw (ru6)       r7, sp[0x4]
             0x00011e32: 85 5d:       ldw (ru6)       r6, sp[0x5]
             0x00011e34: 46 5d:       ldw (ru6)       r5, sp[0x6]
             0x00011e36: 07 5d:       ldw (ru6)       r4, sp[0x7]
             0x00011e38: c8 77:       retsp (u6)      0x8
             0x00011e3a: 00 00:       stw (2rus)      r0, r0[0x0]

<__swbuf_r>:
             0x00011e3c: 44 77:       entsp (u6)      0x4
             0x00011e3e: 03 55:       stw (ru6)       r4, sp[0x3]
             0x00011e40: 42 55:       stw (ru6)       r5, sp[0x2]
             0x00011e42: 48 90:       add (2rus)      r4, r2, 0x0
             0x00011e44: 81 55:       stw (ru6)       r6, sp[0x1]
             0x00011e46: 26 f0 0e 58: ldw (lru6)      r0, dp[0x98e]
             0x00011e4a: 54 90:       add (2rus)      r5, r1, 0x0
             0x00011e4c: 02 70:       bt (ru6)        r0, 0x2 <.label78>
             0x00011e4e: 00 f0 8f d4: bl (lu10)       -0x8f <__sinit>
.label78     0x00011e52: 02 0b:       ldw (2rus)      r0, r4[0x6]
             0x00011e54: c2 00:       stw (2rus)      r0, r4[0x2]
             0x00011e56: 0c 68:       ldc (ru6)       r0, 0xc
             0x00011e58: c0 88:       ld8u (3r)       r0, r4[r0]
             0x00011e5a: 48 68:       ldc (ru6)       r1, 0x8
             0x00011e5c: 01 38:       and (3r)        r0, r0, r1
             0x00011e5e: 02 78:       bf (ru6)        r0, 0x2 <.label79>
             0x00011e60: 10 0b:       ldw (2rus)      r1, r4[0x4]
             0x00011e62: 45 70:       bt (ru6)        r1, 0x5 <.label80>
.label79     0x00011e64: c0 90:       add (2rus)      r0, r4, 0x0
             0x00011e66: 00 f0 ed d2: bl (lu10)       0x2ed <__swsetup>
             0x00011e6a: 2c 70:       bt (ru6)        r0, 0x2c <.label81>
             0x00011e6c: 10 0b:       ldw (2rus)      r1, r4[0x4]
.label80     0x00011e6e: 24 91:       add (2rus)      r6, r5, 0x0
             0x00011e70: c0 08:       ldw (2rus)      r0, r4[0x0]
             0x00011e72: 11 18:       sub (3r)        r1, r0, r1
             0x00011e74: 21 0b:       ldw (2rus)      r2, r4[0x5]
             0x00011e76: 26 c0:       lss (3r)        r2, r1, r2
             0x00011e78: 78 47:       zext (rus)      r6, 0x8
             0x00011e7a: 82 78:       bf (ru6)        r2, 0x2 <.label82>
             0x00011e7c: 15 90:       add (2rus)      r1, r1, 0x1
             0x00011e7e: 06 73:       bu (u6)         0x6 <.label83>
.label82     0x00011e80: c0 90:       add (2rus)      r0, r4, 0x0
             0x00011e82: 00 f0 41 d3: bl (lu10)       0x341 <_fflush>
             0x00011e86: 18 70:       bt (ru6)        r0, 0x18 <.label84>
             0x00011e88: d5 a6:       mkmsk (rus)     r1, 0x1
             0x00011e8a: c0 08:       ldw (2rus)      r0, r4[0x0]
.label83     0x00011e8c: e2 08:       ldw (2rus)      r2, r4[0x2]
             0x00011e8e: 29 98:       sub (2rus)      r2, r2, 0x1
             0x00011e90: e2 00:       stw (2rus)      r2, r4[0x2]
             0x00011e92: 80 68:       ldc (ru6)       r2, 0x0
             0x00011e94: 52 f8 ec 8f: st8 (l3r)       r5, r0[r2]
             0x00011e98: 01 90:       add (2rus)      r0, r0, 0x1
             0x00011e9a: c0 00:       stw (2rus)      r0, r4[0x0]
             0x00011e9c: 01 0b:       ldw (2rus)      r0, r4[0x5]
             0x00011e9e: 04 30:       eq (3r)         r0, r1, r0
             0x00011ea0: 07 70:       bt (ru6)        r0, 0x7 <.label85>
             0x00011ea2: c3 f8 ec 9f: ldaw (l2rus)    r0, r4[0x3]
             0x00011ea6: 02 80:       ld16s (3r)      r0, r0[r2]
             0x00011ea8: d1 46:       zext (rus)      r0, 0x1
             0x00011eaa: 07 78:       bf (ru6)        r0, 0x7 <.label86>
             0x00011eac: 4a b5:       eq (2rus)       r0, r6, 0xa
             0x00011eae: 05 78:       bf (ru6)        r0, 0x5 <.label86>
.label85     0x00011eb0: c0 90:       add (2rus)      r0, r4, 0x0
             0x00011eb2: 00 f0 29 d3: bl (lu10)       0x329 <_fflush>
             0x00011eb6: 01 78:       bf (ru6)        r0, 0x1 <.label86>
.label84     0x00011eb8: 18 a7:       mkmsk (rus)     r6, 0x20
.label86     0x00011eba: c8 90:       add (2rus)      r0, r6, 0x0
             0x00011ebc: 81 5d:       ldw (ru6)       r6, sp[0x1]
             0x00011ebe: 42 5d:       ldw (ru6)       r5, sp[0x2]
             0x00011ec0: 03 5d:       ldw (ru6)       r4, sp[0x3]
             0x00011ec2: c4 77:       retsp (u6)      0x4
.label81     0x00011ec4: 01 f0 c0 68: ldc (lru6)      r3, 0x40
             0x00011ec8: c3 f8 ec 9f: ldaw (l2rus)    r0, r4[0x3]
             0x00011ecc: 40 68:       ldc (ru6)       r1, 0x0
             0x00011ece: 21 80:       ld16s (3r)      r2, r0[r1]
             0x00011ed0: 2b 40:       or (3r)         r2, r2, r3
             0x00011ed2: 21 f8 ec 87: st16 (l3r)      r2, r0[r1]
             0x00011ed6: 00 f0 d1 d0: bl (lu10)       0xd1 <__errno>
             0x00011eda: 49 68:       ldc (ru6)       r1, 0x9
             0x00011edc: 10 00:       stw (2rus)      r1, r0[0x0]
             0x00011ede: 14 77:       bu (u6)         -0x14 <.label84>

<__swbuf>:
             0x00011ee0: 41 77:       entsp (u6)      0x1
             0x00011ee2: 24 90:       add (2rus)      r2, r1, 0x0
             0x00011ee4: 10 90:       add (2rus)      r1, r0, 0x0
             0x00011ee6: 56 d4:       bl (u10)        -0x56 <__swbuf_r>
             0x00011ee8: c1 77:       retsp (u6)      0x1
             0x00011eea: 00 00:       stw (2rus)      r0, r0[0x0]

<_cleanup>:
             0x00011eec: 41 77:       entsp (u6)      0x1
             0x00011eee: 00 f0 e7 d4: bl (lu10)       -0xe7 <_cleanup_impl>
             0x00011ef2: c1 77:       retsp (u6)      0x1

<_done>:
             0x00011ef4: 07 68:       ldc (ru6)       r0, 0x7
             0x00011ef6: 00 f0 4b d5: bl (lu10)       -0x14b <_DoSyscall>
             0x00011efa: ed 07:       clre (0r)       
             0x00011efc: ec 07:       waiteu (0r)     

<xscope_output_data>:
             0x00011efe: 45 77:       entsp (u6)      0x5
             0x00011f00: 04 55:       stw (ru6)       r4, sp[0x4]
             0x00011f02: 43 55:       stw (ru6)       r5, sp[0x3]
             0x00011f04: 82 55:       stw (ru6)       r6, sp[0x2]
             0x00011f06: c1 55:       stw (ru6)       r7, sp[0x1]
             0x00011f08: 44 90:       add (2rus)      r4, r1, 0x0
             0x00011f0a: 50 90:       add (2rus)      r5, r0, 0x0
             0x00011f0c: 27 f0 58 58: ldw (lru6)      r1, dp[0x9d8]
             0x00011f10: 41 70:       bt (ru6)        r1, 0x1 <.label87>
             0x00011f12: 85 87:       getr (rus)      r1, 0x5
.label87     0x00011f14: c9 b6:       in (2r)         r2, res[r1]
             0x00011f16: 27 f0 58 50: stw (lru6)      r1, dp[0x9d8]
             0x00011f1a: 01 f0 f2 d0: bl (lu10)       0x4f2 <xscope_gettime>
             0x00011f1e: 60 90:       add (2rus)      r6, r0, 0x0
             0x00011f20: 27 f0 19 58: ldw (lru6)      r0, dp[0x9d9]
             0x00011f24: 02 b0:       eq (2rus)       r0, r0, 0x2
             0x00011f26: 06 78:       bf (ru6)        r0, 0x6 <.label88>
             0x00011f28: 02 93:       add (2rus)      r0, r4, 0x6
             0x00011f2a: 30 47:       zext (rus)      r0, 0x8
             0x00011f2c: 01 f0 f4 d0: bl (lu10)       0x4f4 <xscope_xlink_put_ch>
             0x00011f30: 29 68:       ldc (ru6)       r0, 0x29
             0x00011f32: 05 73:       bu (u6)         0x5 <.label89>
.label88     0x00011f34: c2 90:       add (2rus)      r0, r4, 0x2
             0x00011f36: 30 47:       zext (rus)      r0, 0x8
             0x00011f38: 01 f0 ee d0: bl (lu10)       0x4ee <xscope_xlink_put_ch>
             0x00011f3c: 28 68:       ldc (ru6)       r0, 0x28
.label89     0x00011f3e: 01 f0 eb d0: bl (lu10)       0x4eb <xscope_xlink_put_ch>
             0x00011f42: 27 f0 19 58: ldw (lru6)      r0, dp[0x9d9]
             0x00011f46: 02 b0:       eq (2rus)       r0, r0, 0x2
             0x00011f48: 10 78:       bf (ru6)        r0, 0x10 <.label90>
             0x00011f4a: b8 ad:       shr (2rus)      r7, r6, 0x8
             0x00011f4c: c8 90:       add (2rus)      r0, r6, 0x0
             0x00011f4e: 30 47:       zext (rus)      r0, 0x8
             0x00011f50: 01 f0 e2 d0: bl (lu10)       0x4e2 <xscope_xlink_put_ch>
             0x00011f54: 7c 47:       zext (rus)      r7, 0x8
             0x00011f56: cc 90:       add (2rus)      r0, r7, 0x0
             0x00011f58: 01 f0 de d0: bl (lu10)       0x4de <xscope_xlink_put_ch>
             0x00011f5c: 49 ad:       shr (2rus)      r0, r6, 0x10
             0x00011f5e: 30 47:       zext (rus)      r0, 0x8
             0x00011f60: 01 f0 da d0: bl (lu10)       0x4da <xscope_xlink_put_ch>
             0x00011f64: 4a ad:       shr (2rus)      r0, r6, 0x18
             0x00011f66: 01 f0 d7 d0: bl (lu10)       0x4d7 <xscope_xlink_put_ch>
.label90     0x00011f6a: fc f3 00 68: ldc (lru6)      r0, 0xff00
             0x00011f6e: 20 39:       and (3r)        r6, r4, r0
             0x00011f70: c0 90:       add (2rus)      r0, r4, 0x0
             0x00011f72: 30 47:       zext (rus)      r0, 0x8
             0x00011f74: 01 f0 d0 d0: bl (lu10)       0x4d0 <xscope_xlink_put_ch>
             0x00011f78: 48 ad:       shr (2rus)      r0, r6, 0x8
             0x00011f7a: 01 f0 cd d0: bl (lu10)       0x4cd <xscope_xlink_put_ch>
             0x00011f7e: 07 79:       bf (ru6)        r4, 0x7 <.label91>
             0x00011f80: 80 69:       ldc (ru6)       r6, 0x0
.label92     0x00011f82: 06 8b:       ld8u (3r)       r0, r5[r6]
             0x00011f84: 01 f0 c8 d0: bl (lu10)       0x4c8 <xscope_xlink_put_ch>
             0x00011f88: 29 91:       add (2rus)      r6, r6, 0x1
             0x00011f8a: 08 33:       eq (3r)         r0, r6, r4
             0x00011f8c: 06 7c:       bf (ru6)        r0, -0x6 <.label92>
.label91     0x00011f8e: 01 f0 d2 d0: bl (lu10)       0x4d2 <xscope_xlink_put_ct>
             0x00011f92: 27 f0 18 58: ldw (lru6)      r0, dp[0x9d8]
             0x00011f96: c0 ae:       out (r2r)       res[r0], r0
             0x00011f98: c1 5d:       ldw (ru6)       r7, sp[0x1]
             0x00011f9a: 82 5d:       ldw (ru6)       r6, sp[0x2]
             0x00011f9c: 43 5d:       ldw (ru6)       r5, sp[0x3]
             0x00011f9e: 04 5d:       ldw (ru6)       r4, sp[0x4]
             0x00011fa0: c5 77:       retsp (u6)      0x5

<_write>:
<_write.coersed..f.7bsi.7d.28si.2cp.28c.3auc.29.2cui.29>:
             0x00011fa2: 42 77:       entsp (u6)      0x2
             0x00011fa4: 01 55:       stw (ru6)       r4, sp[0x1]
             0x00011fa6: 48 90:       add (2rus)      r4, r2, 0x0
             0x00011fa8: 27 f0 99 58: ldw (lru6)      r2, dp[0x9d9]
             0x00011fac: 84 78:       bf (ru6)        r2, 0x4 <.label93>
             0x00011fae: 04 90:       add (2rus)      r0, r1, 0x0
             0x00011fb0: d0 90:       add (2rus)      r1, r4, 0x0
             0x00011fb2: 5b d4:       bl (u10)        -0x5b <xscope_output_data>
             0x00011fb4: 04 73:       bu (u6)         0x4 <.label94>
.label93     0x00011fb6: e0 90:       add (2rus)      r2, r4, 0x0
             0x00011fb8: 01 f0 a8 d0: bl (lu10)       0x4a8 <xscope_syscall_write>
             0x00011fbc: 40 90:       add (2rus)      r4, r0, 0x0
.label94     0x00011fbe: c0 90:       add (2rus)      r0, r4, 0x0
             0x00011fc0: 01 5d:       ldw (ru6)       r4, sp[0x1]
             0x00011fc2: c2 77:       retsp (u6)      0x2

<xscope_lock_init>:
             0x00011fc4: 41 77:       entsp (u6)      0x1
             0x00011fc6: 81 87:       getr (rus)      r0, 0x5
             0x00011fc8: 27 f0 18 50: stw (lru6)      r0, dp[0x9d8]
             0x00011fcc: 23 f0 e8 df: ldap (lu10)     r11, -0x8fe8 <.label95>
             0x00011fd0: d1 7a:       bf (ru6)        r11, 0x11 <.label96>
             0x00011fd2: 23 f0 eb d7: bl (lu10)       -0x8feb <.label95>
             0x00011fd6: 00 f0 1a 58: ldw (lru6)      r0, dp[0x1a]
             0x00011fda: 0c 78:       bf (ru6)        r0, 0xc <.label96>
             0x00011fdc: 00 f0 fe d3: bl (lu10)       0x3fe <get_local_tile_id>
             0x00011fe0: 67 68:       ldc (ru6)       r1, 0x27
             0x00011fe2: 00 f0 94 6c: ldw (lru6)      r2, cp[0x14]
             0x00011fe6: 00 f0 ce d3: bl (lu10)       0x3ce <write_pswitch_reg>
             0x00011fea: 9c f0 0b 68: ldc (lru6)      r0, 0x270b
.label97     0x00011fee: d4 fe ec 17: get (l2r)       r1, ps[r0]
             0x00011ff2: 43 74:       bt (ru6)        r1, -0x3 <.label97>
.label96     0x00011ff4: c1 77:       retsp (u6)      0x1
             0x00011ff6: 00 00:       stw (2rus)      r0, r0[0x0]

<abort>:
             0x00011ff8: 42 77:       entsp (u6)      0x2
             0x00011ffa: 01 55:       stw (ru6)       r4, sp[0x1]
             0x00011ffc: 11 a7:       mkmsk (rus)     r4, 0x1
             0x00011ffe: c0 90:       add (2rus)      r0, r4, 0x0
             0x00012000: 01 f0 5e d0: bl (lu10)       0x45e <raise>
             0x00012004: c0 90:       add (2rus)      r0, r4, 0x0
             0x00012006: 00 f0 1b d6: bl (lu10)       -0x21b <_exit>
             0x0001200a: 00 00:       stw (2rus)      r0, r0[0x0]

<_fputs_r>:
             0x0001200c: 4a 77:       entsp (u6)      0xa
             0x0001200e: 09 55:       stw (ru6)       r4, sp[0x9]
             0x00012010: 48 55:       stw (ru6)       r5, sp[0x8]
             0x00012012: 87 55:       stw (ru6)       r6, sp[0x7]
             0x00012014: c6 55:       stw (ru6)       r7, sp[0x6]
             0x00012016: 04 90:       add (2rus)      r0, r1, 0x0
             0x00012018: 41 54:       stw (ru6)       r1, sp[0x1]
             0x0001201a: 48 90:       add (2rus)      r4, r2, 0x0
             0x0001201c: 01 f0 5e d0: bl (lu10)       0x45e <strlen>
             0x00012020: 05 54:       stw (ru6)       r0, sp[0x5]
             0x00012022: 02 54:       stw (ru6)       r0, sp[0x2]
             0x00012024: 01 64:       ldaw (ru6)      r0, sp[0x1]
             0x00012026: 03 54:       stw (ru6)       r0, sp[0x3]
             0x00012028: d1 a6:       mkmsk (rus)     r0, 0x1
             0x0001202a: 04 54:       stw (ru6)       r0, sp[0x4]
             0x0001202c: 26 f0 0e 58: ldw (lru6)      r0, dp[0x98e]
             0x00012030: 02 70:       bt (ru6)        r0, 0x2 <.label98>
             0x00012032: 00 f0 81 d5: bl (lu10)       -0x181 <__sinit>
.label98     0x00012036: 8d 69:       ldc (ru6)       r6, 0xd
             0x00012038: 02 8b:       ld8u (3r)       r0, r4[r6]
             0x0001203a: c2 69:       ldc (ru6)       r7, 0x2
             0x0001203c: 43 3a:       and (3r)        r0, r0, r7
             0x0001203e: 05 70:       bt (ru6)        r0, 0x5 <.label99>
             0x00012040: 01 f0 14 68: ldc (lru6)      r0, 0x54
             0x00012044: c0 10:       add (3r)        r0, r4, r0
             0x00012046: 00 f0 bb d5: bl (lu10)       -0x1bb <__spin_lock_acquire_recursive>
.label99     0x0001204a: c0 90:       add (2rus)      r0, r4, 0x0
             0x0001204c: 43 64:       ldaw (ru6)      r1, sp[0x3]
             0x0001204e: 00 f0 8f d0: bl (lu10)       0x8f <__sfvwrite>
             0x00012052: 50 90:       add (2rus)      r5, r0, 0x0
             0x00012054: 02 8b:       ld8u (3r)       r0, r4[r6]
             0x00012056: 43 3a:       and (3r)        r0, r0, r7
             0x00012058: 05 70:       bt (ru6)        r0, 0x5 <.label100>
             0x0001205a: 01 f0 14 68: ldc (lru6)      r0, 0x54
             0x0001205e: c0 10:       add (3r)        r0, r4, r0
             0x00012060: 00 f0 d6 d5: bl (lu10)       -0x1d6 <__spin_lock_release_recursive>
.label100    0x00012064: c6 5d:       ldw (ru6)       r7, sp[0x6]
             0x00012066: 87 5d:       ldw (ru6)       r6, sp[0x7]
             0x00012068: c4 90:       add (2rus)      r0, r5, 0x0
             0x0001206a: 48 5d:       ldw (ru6)       r5, sp[0x8]
             0x0001206c: 09 5d:       ldw (ru6)       r4, sp[0x9]
             0x0001206e: ca 77:       retsp (u6)      0xa

<fputs>:
             0x00012070: 41 77:       entsp (u6)      0x1
             0x00012072: 24 90:       add (2rus)      r2, r1, 0x0
             0x00012074: 10 90:       add (2rus)      r1, r0, 0x0
             0x00012076: 36 d4:       bl (u10)        -0x36 <_fputs_r>
             0x00012078: c1 77:       retsp (u6)      0x1
             0x0001207a: 00 00:       stw (2rus)      r0, r0[0x0]

<__errno>:
             0x0001207c: 27 f0 1a 60: ldaw (lru6)     r0, dp[0x9da]
             0x00012080: ee 17:       get (0r)        r11, id
             0x00012082: 83 fc ec 1f: ldaw (l3r)      r0, r0[r11]
             0x00012086: c0 77:       retsp (u6)      0x0

<__sread>:
             0x00012088: 43 77:       entsp (u6)      0x3
             0x0001208a: 0e 68:       ldc (ru6)       r0, 0xe
             0x0001208c: 02 55:       stw (ru6)       r4, sp[0x2]
             0x0001208e: 44 90:       add (2rus)      r4, r1, 0x0
             0x00012090: 41 55:       stw (ru6)       r5, sp[0x1]
             0x00012092: c0 10:       add (3r)        r0, r4, r0
             0x00012094: 18 90:       add (2rus)      r1, r2, 0x0
             0x00012096: 2c 90:       add (2rus)      r2, r3, 0x0
             0x00012098: 40 69:       ldc (ru6)       r5, 0x0
             0x0001209a: 41 82:       ld16s (3r)      r0, r0[r5]
             0x0001209c: 01 f0 ad d0: bl (lu10)       0x4ad <_read>
             0x000120a0: 10 f8 ec 97: ashr (l2rus)    r1, r0, 0x20
             0x000120a4: 47 70:       bt (ru6)        r1, 0x7 <.label101>
             0x000120a6: 01 f0 50 68: ldc (lru6)      r1, 0x50
             0x000120aa: d1 10:       add (3r)        r1, r4, r1
             0x000120ac: 24 08:       ldw (2rus)      r2, r1[0x0]
             0x000120ae: 28 10:       add (3r)        r2, r2, r0
             0x000120b0: 24 00:       stw (2rus)      r2, r1[0x0]
             0x000120b2: 08 73:       bu (u6)         0x8 <.label102>
.label101    0x000120b4: bf f3 ff 68: ldc (lru6)      r3, 0xefff
             0x000120b8: d3 f8 ec 9f: ldaw (l2rus)    r1, r4[0x3]
             0x000120bc: 65 82:       ld16s (3r)      r2, r1[r5]
             0x000120be: 2b 38:       and (3r)        r2, r2, r3
             0x000120c0: 65 fa ec 87: st16 (l3r)      r2, r1[r5]
.label102    0x000120c4: 41 5d:       ldw (ru6)       r5, sp[0x1]
             0x000120c6: 02 5d:       ldw (ru6)       r4, sp[0x2]
             0x000120c8: c3 77:       retsp (u6)      0x3
             0x000120ca: 00 90:       add (2rus)      r0, r0, 0x0

<__sclose>:
             0x000120cc: 0e 68:       ldc (ru6)       r0, 0xe
             0x000120ce: 04 10:       add (3r)        r0, r1, r0
             0x000120d0: 40 68:       ldc (ru6)       r1, 0x0
             0x000120d2: 41 77:       entsp (u6)      0x1
             0x000120d4: 01 80:       ld16s (3r)      r0, r0[r1]
             0x000120d6: 01 f0 86 d0: bl (lu10)       0x486 <_close>
             0x000120da: c1 77:       retsp (u6)      0x1

<__sseek>:
             0x000120dc: 43 77:       entsp (u6)      0x3
             0x000120de: 0e 68:       ldc (ru6)       r0, 0xe
             0x000120e0: 02 55:       stw (ru6)       r4, sp[0x2]
             0x000120e2: 44 90:       add (2rus)      r4, r1, 0x0
             0x000120e4: 41 55:       stw (ru6)       r5, sp[0x1]
             0x000120e6: c0 10:       add (3r)        r0, r4, r0
             0x000120e8: 40 69:       ldc (ru6)       r5, 0x0
             0x000120ea: 41 82:       ld16s (3r)      r0, r0[r5]
             0x000120ec: 18 90:       add (2rus)      r1, r2, 0x0
             0x000120ee: 2c 90:       add (2rus)      r2, r3, 0x0
             0x000120f0: 01 f0 7d d0: bl (lu10)       0x47d <_lseek>
             0x000120f4: d3 f8 ec 9f: ldaw (l2rus)    r1, r4[0x3]
             0x000120f8: 65 82:       ld16s (3r)      r2, r1[r5]
             0x000120fa: dc a6:       mkmsk (rus)     r3, 0x20
             0x000120fc: 33 30:       eq (3r)         r3, r0, r3
             0x000120fe: c6 78:       bf (ru6)        r3, 0x6 <.label103>
             0x00012100: bf f3 ff 68: ldc (lru6)      r3, 0xefff
             0x00012104: 2b 38:       and (3r)        r2, r2, r3
             0x00012106: 65 fa ec 87: st16 (l3r)      r2, r1[r5]
             0x0001210a: 09 73:       bu (u6)         0x9 <.label104>
.label103    0x0001210c: 40 f0 c0 68: ldc (lru6)      r3, 0x1000
             0x00012110: 2b 40:       or (3r)         r2, r2, r3
             0x00012112: 65 fa ec 87: st16 (l3r)      r2, r1[r5]
             0x00012116: 01 f0 50 68: ldc (lru6)      r1, 0x50
             0x0001211a: d1 10:       add (3r)        r1, r4, r1
             0x0001211c: 04 00:       stw (2rus)      r0, r1[0x0]
.label104    0x0001211e: 41 5d:       ldw (ru6)       r5, sp[0x1]
             0x00012120: 02 5d:       ldw (ru6)       r4, sp[0x2]
             0x00012122: c3 77:       retsp (u6)      0x3

<__swrite>:
             0x00012124: 44 77:       entsp (u6)      0x4
             0x00012126: 03 55:       stw (ru6)       r4, sp[0x3]
             0x00012128: 42 55:       stw (ru6)       r5, sp[0x2]
             0x0001212a: 4c 90:       add (2rus)      r4, r3, 0x0
             0x0001212c: 81 55:       stw (ru6)       r6, sp[0x1]
             0x0001212e: 58 90:       add (2rus)      r5, r2, 0x0
             0x00012130: 04 f0 00 68: ldc (lru6)      r0, 0x100
             0x00012134: 64 90:       add (2rus)      r6, r1, 0x0
             0x00012136: db 08:       ldw (2rus)      r1, r6[0x3]
             0x00012138: 24 38:       and (3r)        r2, r1, r0
             0x0001213a: 85 ac:       shr (2rus)      r0, r1, 0x10
             0x0001213c: 87 78:       bf (ru6)        r2, 0x7 <.label105>
             0x0001213e: 82 68:       ldc (ru6)       r2, 0x2
             0x00012140: 40 68:       ldc (ru6)       r1, 0x0
             0x00012142: 31 37:       sext (rus)      r0, 0x10
             0x00012144: 01 f0 53 d0: bl (lu10)       0x453 <_lseek>
             0x00012148: db 08:       ldw (2rus)      r1, r6[0x3]
             0x0001214a: 85 ac:       shr (2rus)      r0, r1, 0x10
.label105    0x0001214c: bf f3 bf 68: ldc (lru6)      r2, 0xefff
             0x00012150: 16 38:       and (3r)        r1, r1, r2
             0x00012152: eb f8 ec 9f: ldaw (l2rus)    r2, r6[0x3]
             0x00012156: 31 37:       sext (rus)      r0, 0x10
             0x00012158: c0 68:       ldc (ru6)       r3, 0x0
             0x0001215a: 1b f8 ec 87: st16 (l3r)      r1, r2[r3]
             0x0001215e: e0 90:       add (2rus)      r2, r4, 0x0
             0x00012160: d4 90:       add (2rus)      r1, r5, 0x0
             0x00012162: 00 f0 e2 d4: bl (lu10)       -0xe2 <_write> <_write.coersed..f.7bsi.7d.28si.2cp.28c.3auc.29.2cui.29>
             0x00012166: 81 5d:       ldw (ru6)       r6, sp[0x1]
             0x00012168: 42 5d:       ldw (ru6)       r5, sp[0x2]
             0x0001216a: 03 5d:       ldw (ru6)       r4, sp[0x3]
             0x0001216c: c4 77:       retsp (u6)      0x4
             0x0001216e: 00 00:       stw (2rus)      r0, r0[0x0]

<__sfvwrite>:
             0x00012170: 4c 77:       entsp (u6)      0xc
             0x00012172: 0b 55:       stw (ru6)       r4, sp[0xb]
             0x00012174: 4a 55:       stw (ru6)       r5, sp[0xa]
             0x00012176: 89 55:       stw (ru6)       r6, sp[0x9]
             0x00012178: c8 55:       stw (ru6)       r7, sp[0x8]
             0x0001217a: 07 56:       stw (ru6)       r8, sp[0x7]
             0x0001217c: 40 90:       add (2rus)      r4, r0, 0x0
             0x0001217e: 46 56:       stw (ru6)       r9, sp[0x6]
             0x00012180: 85 56:       stw (ru6)       r10, sp[0x5]
             0x00012182: 44 54:       stw (ru6)       r1, sp[0x4]
             0x00012184: 06 08:       ldw (2rus)      r0, r1[0x2]
             0x00012186: 04 f0 3e 78: bf (lru6)       r0, 0x13e <.label106>
             0x0001218a: 80 69:       ldc (ru6)       r6, 0x0
             0x0001218c: c3 f8 ec 9f: ldaw (l2rus)    r0, r4[0x3]
             0x00012190: 03 54:       stw (ru6)       r0, sp[0x3]
             0x00012192: 52 82:       ld16s (3r)      r1, r0[r6]
             0x00012194: 08 68:       ldc (ru6)       r0, 0x8
             0x00012196: 04 38:       and (3r)        r0, r1, r0
             0x00012198: 04 78:       bf (ru6)        r0, 0x4 <.label107>
             0x0001219a: 00 0b:       ldw (2rus)      r0, r4[0x4]
             0x0001219c: 02 78:       bf (ru6)        r0, 0x2 <.label107>
             0x0001219e: 35 47:       zext (rus)      r1, 0x10
             0x000121a0: 09 73:       bu (u6)         0x9 <.label108>
.label107    0x000121a2: c0 90:       add (2rus)      r0, r4, 0x0
             0x000121a4: 00 f0 4e d1: bl (lu10)       0x14e <__swsetup>
             0x000121a8: 80 68:       ldc (ru6)       r2, 0x0
             0x000121aa: c3 5c:       ldw (ru6)       r3, sp[0x3]
             0x000121ac: 1e 80:       ld16s (3r)      r1, r3[r2]
             0x000121ae: 04 f0 3d 70: bt (lru6)       r0, 0x13d <.label109>
             0x000121b2: c3 54:       stw (ru6)       r3, sp[0x3]
.label108    0x000121b4: 84 5c:       ldw (ru6)       r2, sp[0x4]
             0x000121b6: 02 68:       ldc (ru6)       r0, 0x2
             0x000121b8: 28 08:       ldw (2rus)      r2, r2[0x0]
             0x000121ba: 04 38:       and (3r)        r0, r1, r0
             0x000121bc: 82 54:       stw (ru6)       r2, sp[0x2]
             0x000121be: 21 78:       bf (ru6)        r0, 0x21 <.label110>
             0x000121c0: 38 91:       add (2rus)      r7, r6, 0x0
             0x000121c2: 15 a7:       mkmsk (rus)     r5, 0x1
             0x000121c4: 48 91:       add (2rus)      r8, r6, 0x0
             0x000121c6: 05 73:       bu (u6)         0x5 <.label111>
.label112    0x000121c8: 42 5c:       ldw (ru6)       r1, sp[0x2]
             0x000121ca: 85 08:       ldw (2rus)      r8, r1[0x1]
             0x000121cc: 74 08:       ldw (2rus)      r7, r1[0x0]
             0x000121ce: 84 94:       add (2rus)      r0, r1, 0x8
             0x000121d0: 02 54:       stw (ru6)       r0, sp[0x2]
.label111    0x000121d2: 06 7e:       bf (ru6)        r8, -0x6 <.label112>
             0x000121d4: 01 f0 c0 68: ldc (lru6)      r3, 0x40
             0x000121d8: 8c cc:       lsu (3r)        r0, r3, r8
             0x000121da: 01 70:       bt (ru6)        r0, 0x1 <.label113>
             0x000121dc: b0 91:       add (2rus)      r3, r8, 0x0
.label113    0x000121de: c8 90:       add (2rus)      r0, r6, 0x0
             0x000121e0: 13 0b:       ldw (2rus)      r1, r4[0x7]
             0x000121e2: ec 90:       add (2rus)      r2, r7, 0x0
             0x000121e4: f1 0d:       ldw (2rus)      r11, r4[0x9]
             0x000121e6: eb 27:       bla (1r)        r11
             0x000121e8: 51 c2:       lss (3r)        r1, r0, r5
             0x000121ea: 04 f0 55 70: bt (lru6)       r1, 0x115 <.label114>
             0x000121ee: 00 1a:       sub (3r)        r8, r8, r0
             0x000121f0: c4 5c:       ldw (ru6)       r3, sp[0x4]
             0x000121f2: 3c 11:       add (3r)        r7, r7, r0
             0x000121f4: 1e 08:       ldw (2rus)      r1, r3[0x2]
             0x000121f6: 24 18:       sub (3r)        r2, r1, r0
             0x000121f8: 2e 00:       stw (2rus)      r2, r3[0x2]
             0x000121fa: 04 30:       eq (3r)         r0, r1, r0
             0x000121fc: 16 7c:       bf (ru6)        r0, -0x16 <.label111>
             0x000121fe: 04 f0 02 73: bu (lu6)        0x102 <.label106>
.label110    0x00012202: d5 46:       zext (rus)      r1, 0x1
             0x00012204: 45 70:       bt (ru6)        r1, 0x5 <.label115>
             0x00012206: c0 69:       ldc (ru6)       r7, 0x0
             0x00012208: 43 5c:       ldw (ru6)       r1, sp[0x3]
             0x0001220a: 4c 91:       add (2rus)      r8, r7, 0x0
             0x0001220c: 01 f0 30 73: bu (lu6)        0x70 <.label116>
.label115    0x00012210: 00 68:       ldc (ru6)       r0, 0x0
             0x00012212: 60 90:       add (2rus)      r6, r0, 0x0
             0x00012214: 80 90:       add (2rus)      r8, r0, 0x0
             0x00012216: 90 90:       add (2rus)      r9, r0, 0x0
             0x00012218: 02 f0 26 73: bu (lu6)        0xa6 <.label117>
.label129    0x0001221c: c8 90:       add (2rus)      r0, r6, 0x0
             0x0001221e: 98 91:       add (2rus)      r1, r10, 0x0
             0x00012220: 01 f0 52 d0: bl (lu10)       0x452 <realloc>
             0x00012224: 50 90:       add (2rus)      r5, r0, 0x0
             0x00012226: 52 71:       bt (ru6)        r5, 0x12 <.label118>
             0x00012228: 02 f0 15 73: bu (lu6)        0x95 <.label119>
.label130    0x0001222c: c4 90:       add (2rus)      r0, r5, 0x0
             0x0001222e: d8 90:       add (2rus)      r1, r6, 0x0
             0x00012230: a4 91:       add (2rus)      r2, r9, 0x0
             0x00012232: 01 f0 23 d0: bl (lu10)       0x423 <memcpy>
             0x00012236: 43 5c:       ldw (ru6)       r1, sp[0x3]
             0x00012238: ed f3 ff 68: ldc (lru6)      r3, 0xfb7f
             0x0001223c: 80 68:       ldc (ru6)       r2, 0x0
             0x0001223e: 06 80:       ld16s (3r)      r0, r1[r2]
             0x00012240: 03 38:       and (3r)        r0, r0, r3
             0x00012242: 02 f0 c0 68: ldc (lru6)      r3, 0x80
             0x00012246: 03 40:       or (3r)         r0, r0, r3
             0x00012248: 06 f8 ec 87: st16 (l3r)      r0, r1[r2]
.label118    0x0001224c: 50 03:       stw (2rus)      r5, r4[0x4]
             0x0001224e: 55 15:       add (3r)        r1, r5, r9
             0x00012250: d0 00:       stw (2rus)      r1, r4[0x0]
             0x00012252: 09 1e:       sub (3r)        r0, r10, r9
             0x00012254: a1 03:       stw (2rus)      r10, r4[0x5]
             0x00012256: 5c 91:       add (2rus)      r9, r7, 0x0
             0x00012258: c2 00:       stw (2rus)      r0, r4[0x2]
.label127    0x0001225a: 4d cd:       lsu (3r)        r0, r7, r9
             0x0001225c: 1c 91:       add (2rus)      r5, r7, 0x0
             0x0001225e: 01 70:       bt (ru6)        r0, 0x1 <.label120>
             0x00012260: d4 91:       add (2rus)      r5, r9, 0x0
.label120    0x00012262: e4 90:       add (2rus)      r2, r5, 0x0
             0x00012264: c0 08:       ldw (2rus)      r0, r4[0x0]
             0x00012266: 90 91:       add (2rus)      r1, r8, 0x0
             0x00012268: 01 f0 1e d0: bl (lu10)       0x41e <memmove>
             0x0001226c: c2 08:       ldw (2rus)      r0, r4[0x2]
             0x0001226e: 41 1a:       sub (3r)        r0, r0, r5
             0x00012270: c2 00:       stw (2rus)      r0, r4[0x2]
             0x00012272: c0 08:       ldw (2rus)      r0, r4[0x0]
             0x00012274: 41 12:       add (3r)        r0, r0, r5
             0x00012276: 2a 73:       bu (u6)         0x2a <.label121>
.label126    0x00012278: c0 08:       ldw (2rus)      r0, r4[0x0]
             0x0001227a: 10 0b:       ldw (2rus)      r1, r4[0x4]
             0x0001227c: 14 c8:       lsu (3r)        r1, r1, r0
             0x0001227e: 4f 78:       bf (ru6)        r1, 0xf <.label122>
             0x00012280: d7 cb:       lsu (3r)        r1, r9, r7
             0x00012282: 4d 78:       bf (ru6)        r1, 0xd <.label122>
             0x00012284: a4 91:       add (2rus)      r2, r9, 0x0
             0x00012286: 90 91:       add (2rus)      r1, r8, 0x0
             0x00012288: 01 f0 0e d0: bl (lu10)       0x40e <memmove>
             0x0001228c: c0 08:       ldw (2rus)      r0, r4[0x0]
             0x0001228e: 81 14:       add (3r)        r0, r0, r9
             0x00012290: c0 00:       stw (2rus)      r0, r4[0x0]
             0x00012292: c0 90:       add (2rus)      r0, r4, 0x0
             0x00012294: 00 f0 38 d1: bl (lu10)       0x138 <_fflush>
             0x00012298: 1b 78:       bf (ru6)        r0, 0x1b <.label123>
             0x0001229a: 02 f0 3d 73: bu (lu6)        0xbd <.label114>
.label122    0x0001229e: 31 0b:       ldw (2rus)      r3, r4[0x5]
             0x000122a0: df c8:       lsu (3r)        r1, r7, r3
             0x000122a2: 4b 70:       bt (ru6)        r1, 0xb <.label124>
             0x000122a4: 00 68:       ldc (ru6)       r0, 0x0
             0x000122a6: 13 0b:       ldw (2rus)      r1, r4[0x7]
             0x000122a8: a0 91:       add (2rus)      r2, r8, 0x0
             0x000122aa: f1 0d:       ldw (2rus)      r11, r4[0x9]
             0x000122ac: eb 27:       bla (1r)        r11
             0x000122ae: 90 90:       add (2rus)      r9, r0, 0x0
             0x000122b0: d1 a6:       mkmsk (rus)     r0, 0x1
             0x000122b2: 84 c1:       lss (3r)        r0, r9, r0
             0x000122b4: 0d 78:       bf (ru6)        r0, 0xd <.label123>
             0x000122b6: 02 f0 2f 73: bu (lu6)        0xaf <.label114>
.label124    0x000122ba: ec 90:       add (2rus)      r2, r7, 0x0
             0x000122bc: 90 91:       add (2rus)      r1, r8, 0x0
             0x000122be: 00 f0 f3 d3: bl (lu10)       0x3f3 <memmove>
             0x000122c2: c2 08:       ldw (2rus)      r0, r4[0x2]
             0x000122c4: 43 1a:       sub (3r)        r0, r0, r7
             0x000122c6: c2 00:       stw (2rus)      r0, r4[0x2]
             0x000122c8: c0 08:       ldw (2rus)      r0, r4[0x0]
             0x000122ca: 43 12:       add (3r)        r0, r0, r7
.label121    0x000122cc: 5c 91:       add (2rus)      r9, r7, 0x0
             0x000122ce: c0 00:       stw (2rus)      r0, r4[0x0]
.label123    0x000122d0: 84 5c:       ldw (ru6)       r2, sp[0x4]
             0x000122d2: bd 1d:       sub (3r)        r7, r7, r9
             0x000122d4: 0a 08:       ldw (2rus)      r0, r2[0x2]
             0x000122d6: 91 1c:       sub (3r)        r1, r0, r9
             0x000122d8: 1a 00:       stw (2rus)      r1, r2[0x2]
             0x000122da: 81 16:       add (3r)        r8, r8, r9
             0x000122dc: 43 5c:       ldw (ru6)       r1, sp[0x3]
             0x000122de: 81 34:       eq (3r)         r0, r0, r9
             0x000122e0: 07 78:       bf (ru6)        r0, 0x7 <.label116>
             0x000122e2: 02 f0 10 73: bu (lu6)        0x90 <.label106>
.label125    0x000122e6: 82 5c:       ldw (ru6)       r2, sp[0x2]
             0x000122e8: 79 08:       ldw (2rus)      r7, r2[0x1]
             0x000122ea: 88 08:       ldw (2rus)      r8, r2[0x0]
             0x000122ec: 88 94:       add (2rus)      r0, r2, 0x8
             0x000122ee: 02 54:       stw (ru6)       r0, sp[0x2]
.label116    0x000122f0: c6 7d:       bf (ru6)        r7, -0x6 <.label125>
             0x000122f2: 00 68:       ldc (ru6)       r0, 0x0
             0x000122f4: 04 80:       ld16s (3r)      r0, r1[r0]
             0x000122f6: 52 09:       ldw (2rus)      r9, r4[0x2]
             0x000122f8: 08 f0 40 68: ldc (lru6)      r1, 0x200
             0x000122fc: 11 38:       and (3r)        r1, r0, r1
             0x000122fe: 01 f0 45 7c: bf (lru6)       r1, -0x45 <.label126>
             0x00012302: 5d cd:       lsu (3r)        r1, r7, r9
             0x00012304: 01 f0 57 74: bt (lru6)       r1, -0x57 <.label127>
             0x00012308: 12 f0 40 68: ldc (lru6)      r1, 0x480
             0x0001230c: 31 47:       zext (rus)      r0, 0x10
             0x0001230e: 11 38:       and (3r)        r1, r0, r1
             0x00012310: 01 f0 5d 7c: bf (lru6)       r1, -0x5d <.label127>
             0x00012314: 60 0b:       ldw (2rus)      r6, r4[0x4]
             0x00012316: d0 08:       ldw (2rus)      r1, r4[0x0]
             0x00012318: d6 1a:       sub (3r)        r9, r1, r6
             0x0001231a: 5d 15:       add (3r)        r1, r7, r9
             0x0001231c: a5 90:       add (2rus)      r10, r1, 0x1
             0x0001231e: 11 0b:       ldw (2rus)      r1, r4[0x5]
             0x00012320: 99 a7:       mkmsk (rus)     r2, 0x5
             0x00012322: 15 f8 ec 2f: lda16 (l3r)     r1, r1[r1]
             0x00012326: 26 28:       shr (3r)        r2, r1, r2
             0x00012328: 16 10:       add (3r)        r1, r1, r2
             0x0001232a: 15 f8 ec 97: ashr (l2rus)    r1, r1, 0x1
             0x0001232e: a6 cc:       lsu (3r)        r2, r1, r10
             0x00012330: 81 70:       bt (ru6)        r2, 0x1 <.label128>
             0x00012332: a4 90:       add (2rus)      r10, r1, 0x0
.label128    0x00012334: 10 f0 40 68: ldc (lru6)      r1, 0x400
             0x00012338: 01 38:       and (3r)        r0, r0, r1
             0x0001233a: 02 f0 11 7c: bf (lru6)       r0, -0x91 <.label129>
             0x0001233e: 88 91:       add (2rus)      r0, r10, 0x0
             0x00012340: 00 f0 a2 d2: bl (lu10)       0x2a2 <malloc>
             0x00012344: 50 90:       add (2rus)      r5, r0, 0x0
             0x00012346: 02 f0 4f 75: bt (lru6)       r5, -0x8f <.label130>
.label131    0x0001234a: 00 f0 69 d5: bl (lu10)       -0x169 <__errno>
             0x0001234e: 4c 68:       ldc (ru6)       r1, 0xc
             0x00012350: 10 00:       stw (2rus)      r1, r0[0x0]
             0x00012352: 01 f0 21 73: bu (lu6)        0x61 <.label114>
.label119    0x00012356: 00 0b:       ldw (2rus)      r0, r4[0x4]
             0x00012358: 00 f0 84 d3: bl (lu10)       0x384 <free>
             0x0001235c: 0a 77:       bu (u6)         -0xa <.label131>
.label132    0x0001235e: 42 5c:       ldw (ru6)       r1, sp[0x2]
             0x00012360: 85 08:       ldw (2rus)      r8, r1[0x1]
             0x00012362: 94 08:       ldw (2rus)      r9, r1[0x0]
             0x00012364: 84 94:       add (2rus)      r0, r1, 0x8
             0x00012366: 02 54:       stw (ru6)       r0, sp[0x2]
.label117    0x00012368: 40 69:       ldc (ru6)       r5, 0x0
.label141    0x0001236a: 07 7e:       bf (ru6)        r8, -0x7 <.label132>
             0x0001236c: 4b 71:       bt (ru6)        r5, 0xb <.label133>
             0x0001236e: a0 91:       add (2rus)      r2, r8, 0x0
             0x00012370: 4a 68:       ldc (ru6)       r1, 0xa
             0x00012372: 84 91:       add (2rus)      r0, r9, 0x0
             0x00012374: 00 f0 96 d2: bl (lu10)       0x296 <memchr>
             0x00012378: 03 78:       bf (ru6)        r0, 0x3 <.label134>
             0x0001237a: 01 90:       add (2rus)      r0, r0, 0x1
             0x0001237c: e1 1c:       sub (3r)        r6, r0, r9
             0x0001237e: 01 73:       bu (u6)         0x1 <.label135>
.label134    0x00012380: e1 91:       add (2rus)      r6, r8, 0x1
.label135    0x00012382: 15 a7:       mkmsk (rus)     r5, 0x1
.label133    0x00012384: f0 91:       add (2rus)      r7, r8, 0x0
             0x00012386: c2 cb:       lsu (3r)        r0, r8, r6
             0x00012388: 01 70:       bt (ru6)        r0, 0x1 <.label136>
             0x0001238a: 38 91:       add (2rus)      r7, r6, 0x0
.label136    0x0001238c: 31 0b:       ldw (2rus)      r3, r4[0x5]
             0x0001238e: c0 08:       ldw (2rus)      r0, r4[0x0]
             0x00012390: 10 0b:       ldw (2rus)      r1, r4[0x4]
             0x00012392: 14 c8:       lsu (3r)        r1, r1, r0
             0x00012394: 50 78:       bf (ru6)        r1, 0x10 <.label137>
             0x00012396: d2 08:       ldw (2rus)      r1, r4[0x2]
             0x00012398: ad 10:       add (3r)        r10, r3, r1
             0x0001239a: db c3:       lss (3r)        r1, r10, r7
             0x0001239c: 4c 78:       bf (ru6)        r1, 0xc <.label137>
             0x0001239e: a8 91:       add (2rus)      r2, r10, 0x0
             0x000123a0: 94 91:       add (2rus)      r1, r9, 0x0
             0x000123a2: 00 f0 81 d3: bl (lu10)       0x381 <memmove>
             0x000123a6: c0 08:       ldw (2rus)      r0, r4[0x0]
             0x000123a8: 82 14:       add (3r)        r0, r0, r10
             0x000123aa: c0 00:       stw (2rus)      r0, r4[0x0]
             0x000123ac: c0 90:       add (2rus)      r0, r4, 0x0
             0x000123ae: 00 f0 ab d0: bl (lu10)       0xab <_fflush>
             0x000123b2: 32 70:       bt (ru6)        r0, 0x32 <.label114>
             0x000123b4: 17 73:       bu (u6)         0x17 <.label138>
.label137    0x000123b6: df c0:       lss (3r)        r1, r7, r3
             0x000123b8: 4a 70:       bt (ru6)        r1, 0xa <.label139>
             0x000123ba: 00 68:       ldc (ru6)       r0, 0x0
             0x000123bc: 13 0b:       ldw (2rus)      r1, r4[0x7]
             0x000123be: a4 91:       add (2rus)      r2, r9, 0x0
             0x000123c0: f1 0d:       ldw (2rus)      r11, r4[0x9]
             0x000123c2: eb 27:       bla (1r)        r11
             0x000123c4: a0 90:       add (2rus)      r10, r0, 0x0
             0x000123c6: d1 a6:       mkmsk (rus)     r0, 0x1
             0x000123c8: 88 c1:       lss (3r)        r0, r10, r0
             0x000123ca: 0c 78:       bf (ru6)        r0, 0xc <.label138>
             0x000123cc: 25 73:       bu (u6)         0x25 <.label114>
.label139    0x000123ce: 94 91:       add (2rus)      r1, r9, 0x0
             0x000123d0: ec 90:       add (2rus)      r2, r7, 0x0
             0x000123d2: 00 f0 69 d3: bl (lu10)       0x369 <memmove>
             0x000123d6: c2 08:       ldw (2rus)      r0, r4[0x2]
             0x000123d8: 43 1a:       sub (3r)        r0, r0, r7
             0x000123da: c2 00:       stw (2rus)      r0, r4[0x2]
             0x000123dc: 6c 91:       add (2rus)      r10, r7, 0x0
             0x000123de: c0 08:       ldw (2rus)      r0, r4[0x0]
             0x000123e0: 43 12:       add (3r)        r0, r0, r7
             0x000123e2: c0 00:       stw (2rus)      r0, r4[0x0]
.label138    0x000123e4: 4a 35:       eq (3r)         r0, r6, r10
             0x000123e6: 05 78:       bf (ru6)        r0, 0x5 <.label140>
             0x000123e8: c0 90:       add (2rus)      r0, r4, 0x0
             0x000123ea: 00 f0 8d d0: bl (lu10)       0x8d <_fflush>
             0x000123ee: 14 70:       bt (ru6)        r0, 0x14 <.label114>
             0x000123f0: 40 69:       ldc (ru6)       r5, 0x0
.label140    0x000123f2: aa 1d:       sub (3r)        r6, r6, r10
             0x000123f4: 84 5c:       ldw (ru6)       r2, sp[0x4]
             0x000123f6: 82 1e:       sub (3r)        r8, r8, r10
             0x000123f8: 0a 08:       ldw (2rus)      r0, r2[0x2]
             0x000123fa: 92 1c:       sub (3r)        r1, r0, r10
             0x000123fc: 1a 00:       stw (2rus)      r1, r2[0x2]
             0x000123fe: 96 16:       add (3r)        r9, r9, r10
             0x00012400: 82 34:       eq (3r)         r0, r0, r10
             0x00012402: 01 f0 0e 7c: bf (lru6)       r0, -0x4e <.label141>
.label106    0x00012406: 00 68:       ldc (ru6)       r0, 0x0
.label142    0x00012408: 85 5e:       ldw (ru6)       r10, sp[0x5]
             0x0001240a: 46 5e:       ldw (ru6)       r9, sp[0x6]
             0x0001240c: 07 5e:       ldw (ru6)       r8, sp[0x7]
             0x0001240e: c8 5d:       ldw (ru6)       r7, sp[0x8]
             0x00012410: 89 5d:       ldw (ru6)       r6, sp[0x9]
             0x00012412: 4a 5d:       ldw (ru6)       r5, sp[0xa]
             0x00012414: 0b 5d:       ldw (ru6)       r4, sp[0xb]
             0x00012416: cc 77:       retsp (u6)      0xc
.label114    0x00012418: 01 f0 80 68: ldc (lru6)      r2, 0x40
             0x0001241c: c3 5c:       ldw (ru6)       r3, sp[0x3]
             0x0001241e: 00 68:       ldc (ru6)       r0, 0x0
             0x00012420: 1c 80:       ld16s (3r)      r1, r3[r0]
             0x00012422: 16 40:       or (3r)         r1, r1, r2
             0x00012424: 1c f8 ec 87: st16 (l3r)      r1, r3[r0]
             0x00012428: d0 a6:       mkmsk (rus)     r0, 0x20
             0x0001242a: 12 77:       bu (u6)         -0x12 <.label142>
.label109    0x0001242c: 01 f0 00 68: ldc (lru6)      r0, 0x40
             0x00012430: 04 40:       or (3r)         r0, r1, r0
             0x00012432: 0e f8 ec 87: st16 (l3r)      r0, r3[r2]
             0x00012436: 00 f0 df d5: bl (lu10)       -0x1df <__errno>
             0x0001243a: 49 68:       ldc (ru6)       r1, 0x9
             0x0001243c: 10 00:       stw (2rus)      r1, r0[0x0]
             0x0001243e: d0 a6:       mkmsk (rus)     r0, 0x20
             0x00012440: 1d 77:       bu (u6)         -0x1d <.label142>
             0x00012442: 00 00:       stw (2rus)      r0, r0[0x0]

<__swsetup>:
             0x00012444: 46 77:       entsp (u6)      0x6
             0x00012446: 05 55:       stw (ru6)       r4, sp[0x5]
             0x00012448: 44 55:       stw (ru6)       r5, sp[0x4]
             0x0001244a: 83 55:       stw (ru6)       r6, sp[0x3]
             0x0001244c: c2 55:       stw (ru6)       r7, sp[0x2]
             0x0001244e: 01 56:       stw (ru6)       r8, sp[0x1]
             0x00012450: 50 90:       add (2rus)      r5, r0, 0x0
             0x00012452: 26 f0 0e 58: ldw (lru6)      r0, dp[0x98e]
             0x00012456: 02 70:       bt (ru6)        r0, 0x2 <.label143>
             0x00012458: 00 f0 94 d7: bl (lu10)       -0x394 <__sinit>
.label143    0x0001245c: 27 f9 ec 9f: ldaw (l2rus)    r6, r5[0x3]
             0x00012460: 00 69:       ldc (ru6)       r4, 0x0
             0x00012462: 18 83:       ld16s (3r)      r1, r6[r4]
             0x00012464: c8 69:       ldc (ru6)       r7, 0x8
             0x00012466: 47 3a:       and (3r)        r0, r1, r7
             0x00012468: 35 47:       zext (rus)      r1, 0x10
             0x0001246a: 23 70:       bt (ru6)        r0, 0x23 <.label144>
             0x0001246c: 10 68:       ldc (ru6)       r0, 0x10
             0x0001246e: 04 38:       and (3r)        r0, r1, r0
             0x00012470: 01 f0 02 78: bf (lru6)       r0, 0x42 <.label145>
             0x00012474: 04 68:       ldc (ru6)       r0, 0x4
             0x00012476: 04 38:       and (3r)        r0, r1, r0
             0x00012478: 18 78:       bf (ru6)        r0, 0x18 <.label146>
             0x0001247a: 30 68:       ldc (ru6)       r0, 0x30
             0x0001247c: 44 11:       add (3r)        r8, r5, r0
             0x0001247e: 80 09:       ldw (2rus)      r0, r8[0x0]
             0x00012480: 0b 78:       bf (ru6)        r0, 0xb <.label147>
             0x00012482: 01 f0 80 68: ldc (lru6)      r2, 0x40
             0x00012486: e6 10:       add (3r)        r2, r5, r2
             0x00012488: 22 30:       eq (3r)         r2, r0, r2
             0x0001248a: 84 70:       bt (ru6)        r2, 0x4 <.label148>
             0x0001248c: 00 f0 ea d2: bl (lu10)       0x2ea <free>
             0x00012490: 00 68:       ldc (ru6)       r0, 0x0
             0x00012492: d8 80:       ld16s (3r)      r1, r6[r0]
.label148    0x00012494: 00 68:       ldc (ru6)       r0, 0x0
             0x00012496: 80 01:       stw (2rus)      r0, r8[0x0]
.label147    0x00012498: ff f3 1b 68: ldc (lru6)      r0, 0xffdb
             0x0001249c: 14 38:       and (3r)        r1, r1, r0
             0x0001249e: 00 68:       ldc (ru6)       r0, 0x0
             0x000124a0: d8 f8 ec 87: st16 (l3r)      r1, r6[r0]
             0x000124a4: c5 00:       stw (2rus)      r0, r5[0x1]
             0x000124a6: 04 0b:       ldw (2rus)      r0, r5[0x4]
             0x000124a8: c4 00:       stw (2rus)      r0, r5[0x0]
.label146    0x000124aa: 00 68:       ldc (ru6)       r0, 0x0
             0x000124ac: 57 42:       or (3r)         r1, r1, r7
             0x000124ae: d8 f8 ec 87: st16 (l3r)      r1, r6[r0]
.label144    0x000124b2: 04 0b:       ldw (2rus)      r0, r5[0x4]
             0x000124b4: 0c 70:       bt (ru6)        r0, 0xc <.label149>
             0x000124b6: 0a f0 00 68: ldc (lru6)      r0, 0x280
             0x000124ba: 04 38:       and (3r)        r0, r1, r0
             0x000124bc: 08 f0 80 68: ldc (lru6)      r2, 0x200
             0x000124c0: 02 30:       eq (3r)         r0, r0, r2
             0x000124c2: 05 70:       bt (ru6)        r0, 0x5 <.label149>
             0x000124c4: c4 90:       add (2rus)      r0, r5, 0x0
             0x000124c6: 00 f0 59 d2: bl (lu10)       0x259 <__smakebuf>
             0x000124ca: 00 68:       ldc (ru6)       r0, 0x0
             0x000124cc: d8 80:       ld16s (3r)      r1, r6[r0]
.label149    0x000124ce: 04 90:       add (2rus)      r0, r1, 0x0
             0x000124d0: d1 46:       zext (rus)      r0, 0x1
             0x000124d2: 05 78:       bf (ru6)        r0, 0x5 <.label150>
             0x000124d4: 06 01:       stw (2rus)      r4, r5[0x2]
             0x000124d6: 05 0b:       ldw (2rus)      r0, r5[0x5]
             0x000124d8: c0 96:       neg (2r)        r0, r0
             0x000124da: 06 03:       stw (2rus)      r0, r5[0x6]
             0x000124dc: 07 73:       bu (u6)         0x7 <.label151>
.label150    0x000124de: 02 68:       ldc (ru6)       r0, 0x2
             0x000124e0: 04 38:       and (3r)        r0, r1, r0
             0x000124e2: 02 78:       bf (ru6)        r0, 0x2 <.label152>
             0x000124e4: 00 68:       ldc (ru6)       r0, 0x0
             0x000124e6: 01 73:       bu (u6)         0x1 <.label153>
.label152    0x000124e8: 05 0b:       ldw (2rus)      r0, r5[0x5]
.label153    0x000124ea: c6 00:       stw (2rus)      r0, r5[0x2]
.label151    0x000124ec: 04 0b:       ldw (2rus)      r0, r5[0x4]
             0x000124ee: 05 70:       bt (ru6)        r0, 0x5 <.label154>
             0x000124f0: 02 f0 00 68: ldc (lru6)      r0, 0x80
             0x000124f4: 04 38:       and (3r)        r0, r1, r0
             0x000124f6: 01 78:       bf (ru6)        r0, 0x1 <.label154>
.label145    0x000124f8: 10 a7:       mkmsk (rus)     r4, 0x20
.label154    0x000124fa: 01 5e:       ldw (ru6)       r8, sp[0x1]
             0x000124fc: c2 5d:       ldw (ru6)       r7, sp[0x2]
             0x000124fe: 83 5d:       ldw (ru6)       r6, sp[0x3]
             0x00012500: c0 90:       add (2rus)      r0, r4, 0x0
             0x00012502: 44 5d:       ldw (ru6)       r5, sp[0x4]
             0x00012504: 05 5d:       ldw (ru6)       r4, sp[0x5]
             0x00012506: c6 77:       retsp (u6)      0x6

<_fflush>:
             0x00012508: 48 77:       entsp (u6)      0x8
             0x0001250a: 07 55:       stw (ru6)       r4, sp[0x7]
             0x0001250c: 46 55:       stw (ru6)       r5, sp[0x6]
             0x0001250e: 85 55:       stw (ru6)       r6, sp[0x5]
             0x00012510: c4 55:       stw (ru6)       r7, sp[0x4]
             0x00012512: 03 56:       stw (ru6)       r8, sp[0x3]
             0x00012514: 42 56:       stw (ru6)       r9, sp[0x2]
             0x00012516: 81 56:       stw (ru6)       r10, sp[0x1]
             0x00012518: 40 90:       add (2rus)      r4, r0, 0x0
             0x0001251a: 26 f0 0e 58: ldw (lru6)      r0, dp[0x98e]
             0x0001251e: 02 70:       bt (ru6)        r0, 0x2 <.label155>
             0x00012520: 00 f0 f8 d7: bl (lu10)       -0x3f8 <__sinit>
.label155    0x00012524: 08 f0 80 6a: ldc (lru6)      r10, 0x200
             0x00012528: 53 f9 ec 9f: ldaw (l2rus)    r9, r4[0x3]
             0x0001252c: 40 69:       ldc (ru6)       r5, 0x0
             0x0001252e: c5 83:       ld16s (3r)      r0, r9[r5]
             0x00012530: 92 3c:       and (3r)        r1, r0, r10
             0x00012532: 42 78:       bf (ru6)        r1, 0x2 <.label156>
             0x00012534: 31 47:       zext (rus)      r0, 0x10
             0x00012536: 07 73:       bu (u6)         0x7 <.label157>
.label156    0x00012538: 01 f0 14 68: ldc (lru6)      r0, 0x54
             0x0001253c: c0 10:       add (3r)        r0, r4, r0
             0x0001253e: 01 f0 37 d4: bl (lu10)       -0x437 <__spin_lock_acquire_recursive>
             0x00012542: 00 68:       ldc (ru6)       r0, 0x0
             0x00012544: 84 81:       ld16s (3r)      r0, r9[r0]
.label157    0x00012546: 10 90:       add (2rus)      r1, r0, 0x0
             0x00012548: 35 37:       sext (rus)      r1, 0x10
             0x0001254a: 88 68:       ldc (ru6)       r2, 0x8
             0x0001254c: 26 38:       and (3r)        r2, r1, r2
             0x0001254e: 02 f0 85 70: bt (lru6)       r2, 0x85 <.label158>
             0x00012552: 00 6a:       ldc (ru6)       r8, 0x0
             0x00012554: 20 f0 40 68: ldc (lru6)      r1, 0x800
             0x00012558: 11 40:       or (3r)         r1, r0, r1
             0x0001255a: 14 fe ec 87: st16 (l3r)      r1, r9[r8]
             0x0001255e: e1 08:       ldw (2rus)      r2, r4[0x1]
             0x00012560: a2 c1:       lss (3r)        r2, r8, r2
             0x00012562: 86 70:       bt (ru6)        r2, 0x6 <.label159>
             0x00012564: bc 68:       ldc (ru6)       r2, 0x3c
             0x00012566: e2 10:       add (3r)        r2, r4, r2
             0x00012568: 28 08:       ldw (2rus)      r2, r2[0x0]
             0x0001256a: dd a6:       mkmsk (rus)     r3, 0x1
             0x0001256c: 2b c0:       lss (3r)        r2, r2, r3
             0x0001256e: bf 70:       bt (ru6)        r2, 0x3f <.label160>
.label159    0x00012570: f2 0d:       ldw (2rus)      r11, r4[0xa]
             0x00012572: fd 7a:       bf (ru6)        r11, 0x3d <.label160>
             0x00012574: 40 f0 80 68: ldc (lru6)      r2, 0x1000
             0x00012578: 02 38:       and (3r)        r0, r0, r2
             0x0001257a: 3e 78:       bf (ru6)        r0, 0x3e <.label161>
             0x0001257c: 01 f0 10 68: ldc (lru6)      r0, 0x50
             0x00012580: c0 10:       add (3r)        r0, r4, r0
             0x00012582: 60 08:       ldw (2rus)      r6, r0[0x0]
.label169    0x00012584: 04 68:       ldc (ru6)       r0, 0x4
             0x00012586: 04 38:       and (3r)        r0, r1, r0
             0x00012588: 0a 78:       bf (ru6)        r0, 0xa <.label162>
             0x0001258a: c1 08:       ldw (2rus)      r0, r4[0x1]
             0x0001258c: 28 19:       sub (3r)        r6, r6, r0
             0x0001258e: 30 68:       ldc (ru6)       r0, 0x30
             0x00012590: c0 10:       add (3r)        r0, r4, r0
             0x00012592: 00 08:       ldw (2rus)      r0, r0[0x0]
             0x00012594: 04 78:       bf (ru6)        r0, 0x4 <.label162>
             0x00012596: 3c 68:       ldc (ru6)       r0, 0x3c
             0x00012598: c0 10:       add (3r)        r0, r4, r0
             0x0001259a: 00 08:       ldw (2rus)      r0, r0[0x0]
             0x0001259c: 28 19:       sub (3r)        r6, r6, r0
.label162    0x0001259e: c0 69:       ldc (ru6)       r7, 0x0
             0x000125a0: 13 0b:       ldw (2rus)      r1, r4[0x7]
             0x000125a2: cc 90:       add (2rus)      r0, r7, 0x0
             0x000125a4: f2 0d:       ldw (2rus)      r11, r4[0xa]
             0x000125a6: e8 90:       add (2rus)      r2, r6, 0x0
             0x000125a8: fc 90:       add (2rus)      r3, r7, 0x0
             0x000125aa: eb 27:       bla (1r)        r11
             0x000125ac: 52 32:       eq (3r)         r1, r0, r6
             0x000125ae: c7 83:       ld16s (3r)      r0, r9[r7]
             0x000125b0: 01 f0 4b 78: bf (lru6)       r1, 0x4b <.label163>
             0x000125b4: df f3 7f 68: ldc (lru6)      r1, 0xf7ff
             0x000125b8: 11 38:       and (3r)        r1, r0, r1
             0x000125ba: d7 fb ec 87: st16 (l3r)      r1, r9[r7]
             0x000125be: 31 01:       stw (2rus)      r7, r4[0x1]
             0x000125c0: 20 0b:       ldw (2rus)      r2, r4[0x4]
             0x000125c2: e0 00:       stw (2rus)      r2, r4[0x0]
             0x000125c4: 40 f0 80 68: ldc (lru6)      r2, 0x1000
             0x000125c8: 02 38:       and (3r)        r0, r0, r2
             0x000125ca: 04 78:       bf (ru6)        r0, 0x4 <.label164>
             0x000125cc: 01 f0 10 68: ldc (lru6)      r0, 0x50
             0x000125d0: c0 10:       add (3r)        r0, r4, r0
             0x000125d2: 60 00:       stw (2rus)      r6, r0[0x0]
.label164    0x000125d4: 30 68:       ldc (ru6)       r0, 0x30
             0x000125d6: 10 11:       add (3r)        r5, r4, r0
             0x000125d8: c4 08:       ldw (2rus)      r0, r5[0x0]
             0x000125da: 09 78:       bf (ru6)        r0, 0x9 <.label160>
             0x000125dc: 01 f0 80 68: ldc (lru6)      r2, 0x40
             0x000125e0: e2 10:       add (3r)        r2, r4, r2
             0x000125e2: 22 30:       eq (3r)         r2, r0, r2
             0x000125e4: 83 70:       bt (ru6)        r2, 0x3 <.label165>
             0x000125e6: 00 f0 3d d2: bl (lu10)       0x23d <free>
             0x000125ea: d7 83:       ld16s (3r)      r1, r9[r7]
.label165    0x000125ec: 34 01:       stw (2rus)      r7, r5[0x0]
.label160    0x000125ee: 86 3c:       and (3r)        r0, r1, r10
             0x000125f0: 01 f0 25 78: bf (lru6)       r0, 0x65 <.label166>
             0x000125f4: 01 f0 29 73: bu (lu6)        0x69 <.label167>
.label161    0x000125f8: 13 0b:       ldw (2rus)      r1, r4[0x7]
             0x000125fa: c0 69:       ldc (ru6)       r7, 0x0
             0x000125fc: dd a6:       mkmsk (rus)     r3, 0x1
             0x000125fe: cc 90:       add (2rus)      r0, r7, 0x0
             0x00012600: ec 90:       add (2rus)      r2, r7, 0x0
             0x00012602: eb 27:       bla (1r)        r11
             0x00012604: 60 90:       add (2rus)      r6, r0, 0x0
             0x00012606: 14 a7:       mkmsk (rus)     r5, 0x20
             0x00012608: 09 33:       eq (3r)         r0, r6, r5
             0x0001260a: 03 70:       bt (ru6)        r0, 0x3 <.label168>
             0x0001260c: d7 83:       ld16s (3r)      r1, r9[r7]
             0x0001260e: 01 f0 07 77: bu (lu6)        -0x47 <.label169>
.label168    0x00012612: 00 f0 cd d6: bl (lu10)       -0x2cd <__errno>
             0x00012616: 9d 68:       ldc (ru6)       r2, 0x1d
             0x00012618: d7 83:       ld16s (3r)      r1, r9[r7]
             0x0001261a: 00 08:       ldw (2rus)      r0, r0[0x0]
             0x0001261c: 02 30:       eq (3r)         r0, r0, r2
             0x0001261e: 02 78:       bf (ru6)        r0, 0x2 <.label170>
             0x00012620: 1c 91:       add (2rus)      r5, r7, 0x0
             0x00012622: 06 73:       bu (u6)         0x6 <.label171>
.label170    0x00012624: 01 f0 00 68: ldc (lru6)      r0, 0x40
             0x00012628: 14 40:       or (3r)         r1, r1, r0
             0x0001262a: 00 68:       ldc (ru6)       r0, 0x0
             0x0001262c: 94 f9 ec 87: st16 (l3r)      r1, r9[r0]
.label171    0x00012630: 86 3c:       and (3r)        r0, r1, r10
             0x00012632: 03 78:       bf (ru6)        r0, 0x3 <.label172>
             0x00012634: 44 91:       add (2rus)      r8, r5, 0x0
             0x00012636: 01 f0 08 73: bu (lu6)        0x48 <.label167>
.label172    0x0001263a: 01 f0 14 68: ldc (lru6)      r0, 0x54
             0x0001263e: c0 10:       add (3r)        r0, r4, r0
             0x00012640: 01 f0 c6 d4: bl (lu10)       -0x4c6 <__spin_lock_release_recursive>
             0x00012644: 44 91:       add (2rus)      r8, r5, 0x0
             0x00012646: 01 f0 00 73: bu (lu6)        0x40 <.label167>
.label163    0x0001264a: 01 f0 40 68: ldc (lru6)      r1, 0x40
             0x0001264e: 11 40:       or (3r)         r1, r0, r1
             0x00012650: 82 3c:       and (3r)        r0, r0, r10
             0x00012652: d7 fb ec 87: st16 (l3r)      r1, r9[r7]
             0x00012656: 1b 78:       bf (ru6)        r0, 0x1b <.label173>
             0x00012658: 50 a7:       mkmsk (rus)     r8, 0x20
             0x0001265a: 37 73:       bu (u6)         0x37 <.label167>
.label158    0x0001265c: 60 0b:       ldw (2rus)      r6, r4[0x4]
             0x0001265e: 83 71:       bt (ru6)        r6, 0x3 <.label174>
             0x00012660: 82 3c:       and (3r)        r0, r0, r10
             0x00012662: 2d 78:       bf (ru6)        r0, 0x2d <.label166>
             0x00012664: 31 73:       bu (u6)         0x31 <.label175>
.label174    0x00012666: e4 90:       add (2rus)      r2, r5, 0x0
             0x00012668: d6 46:       zext (rus)      r1, 0x2
             0x0001266a: c0 08:       ldw (2rus)      r0, r4[0x0]
             0x0001266c: 20 01:       stw (2rus)      r6, r4[0x0]
             0x0001266e: 41 70:       bt (ru6)        r1, 0x1 <.label176>
             0x00012670: 21 0b:       ldw (2rus)      r2, r4[0x5]
.label176    0x00012672: b2 1a:       sub (3r)        r7, r0, r6
             0x00012674: e2 00:       stw (2rus)      r2, r4[0x2]
             0x00012676: 1c 73:       bu (u6)         0x1c <.label177>
.label178    0x00012678: 01 f0 80 68: ldc (lru6)      r2, 0x40
             0x0001267c: 40 68:       ldc (ru6)       r1, 0x0
             0x0001267e: 85 81:       ld16s (3r)      r0, r9[r1]
             0x00012680: 22 40:       or (3r)         r2, r0, r2
             0x00012682: a5 f9 ec 87: st16 (l3r)      r2, r9[r1]
             0x00012686: 82 3c:       and (3r)        r0, r0, r10
             0x00012688: 02 78:       bf (ru6)        r0, 0x2 <.label173>
             0x0001268a: 50 a7:       mkmsk (rus)     r8, 0x20
             0x0001268c: 1e 73:       bu (u6)         0x1e <.label167>
.label173    0x0001268e: 01 f0 14 68: ldc (lru6)      r0, 0x54
             0x00012692: c0 10:       add (3r)        r0, r4, r0
             0x00012694: 01 f0 f0 d4: bl (lu10)       -0x4f0 <__spin_lock_release_recursive>
             0x00012698: 50 a7:       mkmsk (rus)     r8, 0x20
             0x0001269a: 17 73:       bu (u6)         0x17 <.label167>
.label179    0x0001269c: 13 0b:       ldw (2rus)      r1, r4[0x7]
             0x0001269e: c4 90:       add (2rus)      r0, r5, 0x0
             0x000126a0: f1 0d:       ldw (2rus)      r11, r4[0x9]
             0x000126a2: e8 90:       add (2rus)      r2, r6, 0x0
             0x000126a4: fc 90:       add (2rus)      r3, r7, 0x0
             0x000126a6: eb 27:       bla (1r)        r11
             0x000126a8: d4 c0:       lss (3r)        r1, r5, r0
             0x000126aa: 5a 7c:       bf (ru6)        r1, -0x1a <.label178>
             0x000126ac: 28 11:       add (3r)        r6, r6, r0
             0x000126ae: 3c 19:       sub (3r)        r7, r7, r0
.label177    0x000126b0: 07 c3:       lss (3r)        r0, r5, r7
             0x000126b2: 0c 74:       bt (ru6)        r0, -0xc <.label179>
             0x000126b4: 42 68:       ldc (ru6)       r1, 0x2
             0x000126b6: 0d 68:       ldc (ru6)       r0, 0xd
             0x000126b8: c0 88:       ld8u (3r)       r0, r4[r0]
             0x000126ba: 01 38:       and (3r)        r0, r0, r1
             0x000126bc: 05 70:       bt (ru6)        r0, 0x5 <.label175>
.label166    0x000126be: 01 f0 14 68: ldc (lru6)      r0, 0x54
             0x000126c2: c0 10:       add (3r)        r0, r4, r0
             0x000126c4: 01 f0 08 d5: bl (lu10)       -0x508 <__spin_lock_release_recursive>
.label175    0x000126c8: 00 6a:       ldc (ru6)       r8, 0x0
.label167    0x000126ca: 81 5e:       ldw (ru6)       r10, sp[0x1]
             0x000126cc: 42 5e:       ldw (ru6)       r9, sp[0x2]
             0x000126ce: 80 91:       add (2rus)      r0, r8, 0x0
             0x000126d0: 03 5e:       ldw (ru6)       r8, sp[0x3]
             0x000126d2: c4 5d:       ldw (ru6)       r7, sp[0x4]
             0x000126d4: 85 5d:       ldw (ru6)       r6, sp[0x5]
             0x000126d6: 46 5d:       ldw (ru6)       r5, sp[0x6]
             0x000126d8: 07 5d:       ldw (ru6)       r4, sp[0x7]
             0x000126da: c8 77:       retsp (u6)      0x8

<fflush>:
             0x000126dc: 41 77:       entsp (u6)      0x1
             0x000126de: 05 70:       bt (ru6)        r0, 0x5 <.label180>
             0x000126e0: 03 dc:       ldap (u10)      r11, -0x3 <fflush>
             0x000126e2: 8c 91:       add (2rus)      r0, r11, 0x0
             0x000126e4: 00 f0 04 d0: bl (lu10)       0x4 <_fwalk>
             0x000126e8: c1 77:       retsp (u6)      0x1
.label180    0x000126ea: f2 d4:       bl (u10)        -0xf2 <_fflush>
             0x000126ec: c1 77:       retsp (u6)      0x1
             0x000126ee: 00 00:       stw (2rus)      r0, r0[0x0]

<_fwalk>:
             0x000126f0: 49 77:       entsp (u6)      0x9
             0x000126f2: 08 55:       stw (ru6)       r4, sp[0x8]
             0x000126f4: 47 55:       stw (ru6)       r5, sp[0x7]
             0x000126f6: 86 55:       stw (ru6)       r6, sp[0x6]
             0x000126f8: c5 55:       stw (ru6)       r7, sp[0x5]
             0x000126fa: 04 56:       stw (ru6)       r8, sp[0x4]
             0x000126fc: 43 56:       stw (ru6)       r9, sp[0x3]
             0x000126fe: 82 56:       stw (ru6)       r10, sp[0x2]
             0x00012700: 01 54:       stw (ru6)       r0, sp[0x1]
             0x00012702: 01 f0 f7 d4: bl (lu10)       -0x4f7 <__sfp_lock_acquire>
             0x00012706: c0 69:       ldc (ru6)       r7, 0x0
             0x00012708: 08 f0 40 6a: ldc (lru6)      r9, 0x200
             0x0001270c: 01 f0 94 6a: ldc (lru6)      r10, 0x54
             0x00012710: 26 f0 0f 62: ldaw (lru6)     r8, dp[0x98f]
             0x00012714: 1c 91:       add (2rus)      r5, r7, 0x0
.label187    0x00012716: d1 a6:       mkmsk (rus)     r0, 0x1
             0x00012718: c1 09:       ldw (2rus)      r4, r8[0x1]
             0x0001271a: c0 c0:       lss (3r)        r0, r4, r0
             0x0001271c: 27 70:       bt (ru6)        r0, 0x27 <.label181>
             0x0001271e: e2 09:       ldw (2rus)      r6, r8[0x2]
.label186    0x00012720: db 08:       ldw (2rus)      r1, r6[0x3]
             0x00012722: 04 90:       add (2rus)      r0, r1, 0x0
             0x00012724: 31 47:       zext (rus)      r0, 0x10
             0x00012726: 1c 78:       bf (ru6)        r0, 0x1c <.label182>
             0x00012728: 04 90:       add (2rus)      r0, r1, 0x0
             0x0001272a: a5 3c:       and (3r)        r2, r1, r9
             0x0001272c: 88 70:       bt (ru6)        r2, 0x8 <.label183>
             0x0001272e: 4a 15:       add (3r)        r0, r6, r10
             0x00012730: 01 f0 30 d5: bl (lu10)       -0x530 <__spin_lock_acquire_recursive>
             0x00012734: db 08:       ldw (2rus)      r1, r6[0x3]
             0x00012736: 04 90:       add (2rus)      r0, r1, 0x0
             0x00012738: 24 90:       add (2rus)      r2, r1, 0x0
             0x0001273a: 39 47:       zext (rus)      r2, 0x10
             0x0001273c: 8e 78:       bf (ru6)        r2, 0xe <.label184>
.label183    0x0001273e: 00 f0 95 6c: ldw (lru6)      r2, cp[0x15]
             0x00012742: 02 38:       and (3r)        r0, r0, r2
             0x00012744: 02 30:       eq (3r)         r0, r0, r2
             0x00012746: 07 70:       bt (ru6)        r0, 0x7 <.label185>
             0x00012748: 41 5c:       ldw (ru6)       r1, sp[0x1]
             0x0001274a: c8 90:       add (2rus)      r0, r6, 0x0
             0x0001274c: e1 27:       bla (1r)        r1
             0x0001274e: 91 42:       or (3r)         r5, r0, r5
             0x00012750: db f8 ec 9f: ldaw (l2rus)    r1, r6[0x3]
             0x00012754: 57 82:       ld16s (3r)      r1, r1[r7]
.label185    0x00012756: 85 3c:       and (3r)        r0, r1, r9
             0x00012758: 03 70:       bt (ru6)        r0, 0x3 <.label182>
.label184    0x0001275a: 4a 15:       add (3r)        r0, r6, r10
             0x0001275c: 01 f0 54 d5: bl (lu10)       -0x554 <__spin_lock_release_recursive>
.label182    0x00012760: 01 99:       sub (2rus)      r4, r4, 0x1
             0x00012762: 01 f0 1c 68: ldc (lru6)      r0, 0x5c
             0x00012766: 28 11:       add (3r)        r6, r6, r0
             0x00012768: 0c c3:       lss (3r)        r0, r7, r4
             0x0001276a: 26 74:       bt (ru6)        r0, -0x26 <.label186>
.label181    0x0001276c: 00 0a:       ldw (2rus)      r8, r8[0x0]
             0x0001276e: 2d 76:       bt (ru6)        r8, -0x2d <.label187>
             0x00012770: 01 f0 34 d5: bl (lu10)       -0x534 <__sfp_lock_release>
             0x00012774: 82 5e:       ldw (ru6)       r10, sp[0x2]
             0x00012776: 43 5e:       ldw (ru6)       r9, sp[0x3]
             0x00012778: 04 5e:       ldw (ru6)       r8, sp[0x4]
             0x0001277a: c5 5d:       ldw (ru6)       r7, sp[0x5]
             0x0001277c: 86 5d:       ldw (ru6)       r6, sp[0x6]
             0x0001277e: c4 90:       add (2rus)      r0, r5, 0x0
             0x00012780: 47 5d:       ldw (ru6)       r5, sp[0x7]
             0x00012782: 08 5d:       ldw (ru6)       r4, sp[0x8]
             0x00012784: c9 77:       retsp (u6)      0x9

<write_pswitch_reg>:
             0x00012786: 08 f3 cc 68: ldc (lru6)      r3, 0xc20c
             0x0001278a: c1 6a:       ldc (ru6)       r11, 0x1
             0x0001278c: 00 73:       bu (u6)         0x0 <write_switch_reg>

<write_switch_reg>:
             0x0001278e: 00 55:       stw (ru6)       r4, sp[0x0]
             0x00012790: c1 ac:       shr (2rus)      r4, r0, 0x10
             0x00012792: 1e 71:       bt (ru6)        r4, 0x1e <write_switch_reg_return_0>
             0x00012794: c5 ac:       shr (2rus)      r4, r1, 0x10
             0x00012796: 1c 71:       bt (ru6)        r4, 0x1c <write_switch_reg_return_0>
             0x00012798: 81 a4:       shl (2rus)      r0, r0, 0x10
             0x0001279a: 03 40:       or (3r)         r0, r0, r3
             0x0001279c: 02 87:       getr (rus)      r4, 0x2
             0x0001279e: 90 17:       setd (r2r)      res[r4], r0
             0x000127a0: 03 f0 c0 68: ldc (lru6)      r3, 0xc0
             0x000127a4: 03 4f:       outct (2r)      res[r4], r3
             0x000127a6: c3 7a:       bf (ru6)        r11, 0x3 <build_return_no_ack>
             0x000127a8: 40 ad:       shr (2rus)      r0, r4, 0x8
             0x000127aa: 80 a4:       shl (2rus)      r0, r0, 0x8
             0x000127ac: 04 73:       bu (u6)         0x4 <write_switch_reg_send>

<build_return_no_ack>:
             0x000127ae: 80 ac:       shr (2rus)      r0, r0, 0x8
             0x000127b0: 3c a7:       mkmsk (rus)     r3, 0x8
             0x000127b2: 03 40:       or (3r)         r0, r0, r3
             0x000127b4: 80 a4:       shl (2rus)      r0, r0, 0x8

<write_switch_reg_send>:
             0x000127b6: b4 ac:       shr (2rus)      r3, r1, 0x8
             0x000127b8: 03 40:       or (3r)         r0, r0, r3
             0x000127ba: 80 af:       out (r2r)       res[r4], r0
             0x000127bc: 94 0f:       outt (r2r)      res[r4], r1
             0x000127be: 88 af:       out (r2r)       res[r4], r2
             0x000127c0: 11 4f:       outct (rus)     res[r4], 0x1
             0x000127c2: c9 7a:       bf (ru6)        r11, 0x9 <write_switch_reg_return_1>
             0x000127c4: 90 87:       inct (2r)       r0, res[r4]
             0x000127c6: 03 b0:       eq (2rus)       r0, r0, 0x3
             0x000127c8: 11 cf:       chkct (rus)     res[r4], 0x1
             0x000127ca: e4 17:       freer (1r)      res[r4]
             0x000127cc: 00 5d:       ldw (ru6)       r4, sp[0x0]
             0x000127ce: c0 77:       retsp (u6)      0x0

<write_switch_reg_return_0>:
             0x000127d0: 00 68:       ldc (ru6)       r0, 0x0
             0x000127d2: 00 5d:       ldw (ru6)       r4, sp[0x0]
             0x000127d4: c0 77:       retsp (u6)      0x0

<write_switch_reg_return_1>:
             0x000127d6: 01 68:       ldc (ru6)       r0, 0x1
             0x000127d8: 00 5d:       ldw (ru6)       r4, sp[0x0]
             0x000127da: c0 77:       retsp (u6)      0x0

<get_local_tile_id>:
             0x000127dc: c6 86:       getr (rus)      r1, 0x2
             0x000127de: 85 ac:       shr (2rus)      r0, r1, 0x10
             0x000127e0: e1 17:       freer (1r)      res[r1]
             0x000127e2: c0 77:       retsp (u6)      0x0

<__malloc>:
             0x000127e4: 44 68:       ldc (ru6)       r1, 0x4
             0x000127e6: 42 77:       entsp (u6)      0x2
             0x000127e8: 01 55:       stw (ru6)       r4, sp[0x1]
             0x000127ea: 11 c8:       lsu (3r)        r1, r0, r1
             0x000127ec: 40 55:       stw (ru6)       r5, sp[0x0]
             0x000127ee: 42 78:       bf (ru6)        r1, 0x2 <.label188>
             0x000127f0: 08 68:       ldc (ru6)       r0, 0x8
             0x000127f2: 04 73:       bu (u6)         0x4 <.label189>
.label188    0x000127f4: c4 96:       neg (2r)        r1, r0
             0x000127f6: d6 46:       zext (rus)      r1, 0x2
             0x000127f8: 01 10:       add (3r)        r0, r0, r1
             0x000127fa: 40 92:       add (2rus)      r0, r0, 0x4
.label189    0x000127fc: 27 f0 62 58: ldw (lru6)      r1, dp[0x9e2]
             0x00012800: 00 f0 d7 58: ldw (lru6)      r3, dp[0x17]
             0x00012804: 27 f0 a2 60: ldaw (lru6)     r2, dp[0x9e2]
             0x00012808: 2b 73:       bu (u6)         0x2b <.label190>
.label199    0x0001280a: b0 94:       add (2rus)      r3, r0, 0x8
             0x0001280c: bf c9:       lsu (3r)        r3, r11, r3
             0x0001280e: c3 78:       bf (ru6)        r3, 0x3 <.label191>
             0x00012810: 05 08:       ldw (2rus)      r0, r1[0x1]
             0x00012812: 08 00:       stw (2rus)      r0, r2[0x0]
             0x00012814: 34 73:       bu (u6)         0x34 <.label192>
.label191    0x00012816: 35 08:       ldw (2rus)      r3, r1[0x1]
             0x00012818: 44 10:       add (3r)        r4, r1, r0
             0x0001281a: 48 00:       stw (2rus)      r4, r2[0x0]
             0x0001281c: 3c 1a:       sub (3r)        r11, r11, r0
             0x0001281e: 70 01:       stw (2rus)      r11, r4[0x0]
             0x00012820: 28 08:       ldw (2rus)      r2, r2[0x0]
             0x00012822: 39 00:       stw (2rus)      r3, r2[0x1]
             0x00012824: 2b 73:       bu (u6)         0x2b <.label193>
.label197    0x00012826: 00 f0 16 6d: ldw (lru6)      r4, cp[0x16]
             0x0001282a: 33 1d:       sub (3r)        r11, r0, r11
             0x0001282c: f3 18:       sub (3r)        r3, r4, r3
             0x0001282e: 00 f0 16 59: ldw (lru6)      r4, dp[0x16]
             0x00012832: 7c 12:       add (3r)        r3, r3, r4
             0x00012834: bf cc:       lsu (3r)        r3, r3, r11
             0x00012836: c2 78:       bf (ru6)        r3, 0x2 <.label194>
             0x00012838: 00 68:       ldc (ru6)       r0, 0x0
             0x0001283a: 22 73:       bu (u6)         0x22 <.label195>
.label194    0x0001283c: c0 68:       ldc (ru6)       r3, 0x0
             0x0001283e: 38 00:       stw (2rus)      r3, r2[0x0]
             0x00012840: 24 10:       add (3r)        r2, r1, r0
             0x00012842: 00 f0 97 50: stw (lru6)      r2, dp[0x17]
             0x00012846: 1a 73:       bu (u6)         0x1a <.label193>
.label198    0x00012848: 45 08:       ldw (2rus)      r4, r1[0x1]
             0x0001284a: 08 71:       bt (ru6)        r4, 0x8 <.label196>
             0x0001284c: dd 11:       add (3r)        r5, r11, r1
             0x0001284e: 17 31:       eq (3r)         r5, r5, r3
             0x00012850: 56 75:       bt (ru6)        r5, -0x16 <.label197>
             0x00012852: 04 73:       bu (u6)         0x4 <.label196>
.label200    0x00012854: b4 08:       ldw (2rus)      r11, r1[0x0]
             0x00012856: cc c9:       lsu (3r)        r4, r11, r0
             0x00012858: 09 75:       bt (ru6)        r4, -0x9 <.label198>
             0x0001285a: 29 77:       bu (u6)         -0x29 <.label199>
.label196    0x0001285c: 64 92:       add (2rus)      r2, r1, 0x4
             0x0001285e: d0 90:       add (2rus)      r1, r4, 0x0
.label190    0x00012860: 47 74:       bt (ru6)        r1, -0x7 <.label200>
             0x00012862: 00 f0 56 58: ldw (lru6)      r1, dp[0x16]
             0x00012866: 94 fc ec a7: ldaw (l2rus)    r1, r1[-0x8]
             0x0001286a: 17 18:       sub (3r)        r1, r1, r3
             0x0001286c: 14 c8:       lsu (3r)        r1, r1, r0
             0x0001286e: 42 78:       bf (ru6)        r1, 0x2 <.label201>
             0x00012870: 00 68:       ldc (ru6)       r0, 0x0
             0x00012872: 06 73:       bu (u6)         0x6 <.label195>
.label201    0x00012874: 1c 10:       add (3r)        r1, r3, r0
             0x00012876: 00 f0 57 50: stw (lru6)      r1, dp[0x17]
             0x0001287a: 1c 90:       add (2rus)      r1, r3, 0x0
.label193    0x0001287c: 04 00:       stw (2rus)      r0, r1[0x0]
.label192    0x0001287e: 44 92:       add (2rus)      r0, r1, 0x4
.label195    0x00012880: 40 5d:       ldw (ru6)       r5, sp[0x0]
             0x00012882: 01 5d:       ldw (ru6)       r4, sp[0x1]
             0x00012884: c2 77:       retsp (u6)      0x2
             0x00012886: 00 90:       add (2rus)      r0, r0, 0x0

<malloc>:
             0x00012888: 42 77:       entsp (u6)      0x2
             0x0001288a: 01 55:       stw (ru6)       r4, sp[0x1]
             0x0001288c: 40 90:       add (2rus)      r4, r0, 0x0
             0x0001288e: 00 f0 69 d0: bl (lu10)       0x69 <__malloc_lock>
             0x00012892: c0 90:       add (2rus)      r0, r4, 0x0
             0x00012894: 59 d4:       bl (u10)        -0x59 <__malloc>
             0x00012896: 40 90:       add (2rus)      r4, r0, 0x0
             0x00012898: 00 f0 6a d0: bl (lu10)       0x6a <__malloc_unlock>
             0x0001289c: c0 90:       add (2rus)      r0, r4, 0x0
             0x0001289e: 01 5d:       ldw (ru6)       r4, sp[0x1]
             0x000128a0: c2 77:       retsp (u6)      0x2
             0x000128a2: 00 00:       stw (2rus)      r0, r0[0x0]

<memchr>:
             0x000128a4: 30 90:       add (2rus)      r3, r0, 0x0
             0x000128a6: 00 68:       ldc (ru6)       r0, 0x0
             0x000128a8: 34 47:       zext (rus)      r1, 0x8
             0x000128aa: 07 73:       bu (u6)         0x7 <.label202>
.label203    0x000128ac: 0c 90:       add (2rus)      r0, r3, 0x0
             0x000128ae: c0 77:       retsp (u6)      0x0
.label204    0x000128b0: bc 88:       ld8u (3r)       r11, r3[r0]
             0x000128b2: 3d 32:       eq (3r)         r11, r11, r1
             0x000128b4: c5 76:       bt (ru6)        r11, -0x5 <.label203>
             0x000128b6: 29 98:       sub (2rus)      r2, r2, 0x1
             0x000128b8: 3d 90:       add (2rus)      r3, r3, 0x1
.label202    0x000128ba: 86 74:       bt (ru6)        r2, -0x6 <.label204>
             0x000128bc: c0 77:       retsp (u6)      0x0
             0x000128be: 00 00:       stw (2rus)      r0, r0[0x0]

<raise>:
             0x000128c0: 86 68:       ldc (ru6)       r2, 0x6
             0x000128c2: 11 98:       sub (2rus)      r1, r0, 0x1
             0x000128c4: 16 c8:       lsu (3r)        r1, r1, r2
             0x000128c6: 41 77:       entsp (u6)      0x1
             0x000128c8: 46 70:       bt (ru6)        r1, 0x6 <.label205>
             0x000128ca: 01 f0 29 d4: bl (lu10)       -0x429 <__errno>
             0x000128ce: 56 68:       ldc (ru6)       r1, 0x16
             0x000128d0: 10 00:       stw (2rus)      r1, r0[0x0]
             0x000128d2: d0 a6:       mkmsk (rus)     r0, 0x20
             0x000128d4: c1 77:       retsp (u6)      0x1
.label205    0x000128d6: 00 f0 a3 d1: bl (lu10)       0x1a3 <.label206>
             0x000128da: c1 77:       retsp (u6)      0x1

<strlen>:
             0x000128dc: 40 68:       ldc (ru6)       r1, 0x0
             0x000128de: 21 88:       ld8u (3r)       r2, r0[r1]
             0x000128e0: 10 90:       add (2rus)      r1, r0, 0x0
             0x000128e2: 85 78:       bf (ru6)        r2, 0x5 <.label207>
             0x000128e4: 10 90:       add (2rus)      r1, r0, 0x0
             0x000128e6: d9 a6:       mkmsk (rus)     r2, 0x1
.label208    0x000128e8: 36 88:       ld8u (3r)       r3, r1[r2]
             0x000128ea: 15 90:       add (2rus)      r1, r1, 0x1
             0x000128ec: c3 74:       bt (ru6)        r3, -0x3 <.label208>
.label207    0x000128ee: 04 18:       sub (3r)        r0, r1, r0
             0x000128f0: c0 77:       retsp (u6)      0x0

<xscope_tmr.ctor>:
             0x000128f2: c1 86:       getr (rus)      r0, 0x1
             0x000128f4: 27 f0 23 50: stw (lru6)      r0, dp[0x9e3]
             0x000128f8: c0 77:       retsp (u6)      0x0

<xscope_tmr.dtor>:
             0x000128fa: 27 f0 23 58: ldw (lru6)      r0, dp[0x9e3]
             0x000128fe: e0 17:       freer (1r)      res[r0]
             0x00012900: c0 77:       retsp (u6)      0x0

<xscope_gettime>:
             0x00012902: 27 f0 23 58: ldw (lru6)      r0, dp[0x9e3]
             0x00012906: 01 e8:       setc (ru6)      res[r0], 0x1
             0x00012908: c0 b6:       in (2r)         r0, res[r0]
             0x0001290a: c0 77:       retsp (u6)      0x0

<xscope_syscall_write>:
             0x0001290c: 38 90:       add (2rus)      r3, r2, 0x0
             0x0001290e: 24 90:       add (2rus)      r2, r1, 0x0
             0x00012910: 10 90:       add (2rus)      r1, r0, 0x0
             0x00012912: 06 68:       ldc (ru6)       r0, 0x6
             0x00012914: 00 f0 17 73: bu (lu6)        0x17 <_DoSyscallErrno>

<xscope_xlink_put_ch>:
             0x00012918: 00 f0 5a 58: ldw (lru6)      r1, dp[0x1a]
             0x0001291c: 4b 78:       bf (ru6)        r1, 0xb <xscope_xlink_put_ch_ret>
             0x0001291e: 27 f0 97 58: ldw (lru6)      r2, dp[0x9d7]
             0x00012922: 87 70:       bt (ru6)        r2, 0x7 <xscope_xlink_outt>
             0x00012924: 00 f0 5b 58: ldw (lru6)      r1, dp[0x1b]
             0x00012928: 45 78:       bf (ru6)        r1, 0x5 <xscope_xlink_put_ch_ret>
             0x0001292a: ca 86:       getr (rus)      r2, 0x2
             0x0001292c: d6 16:       setd (r2r)      res[r2], r1
             0x0001292e: 27 f0 97 50: stw (lru6)      r2, dp[0x9d7]

<xscope_xlink_outt>:
             0x00012932: d2 0e:       outt (r2r)      res[r2], r0

<xscope_xlink_put_ch_ret>:
             0x00012934: c0 77:       retsp (u6)      0x0

<xscope_xlink_put_ct>:
             0x00012936: 00 f0 5a 58: ldw (lru6)      r1, dp[0x1a]
             0x0001293a: 44 78:       bf (ru6)        r1, 0x4 <xscope_xlink_put_ct_ret>
             0x0001293c: 27 f0 97 58: ldw (lru6)      r2, dp[0x9d7]
             0x00012940: 81 78:       bf (ru6)        r2, 0x1 <xscope_xlink_put_ct_ret>
             0x00012942: d9 4e:       outct (rus)     res[r2], 0x1

<xscope_xlink_put_ct_ret>:
             0x00012944: c0 77:       retsp (u6)      0x0

<_DoSyscallErrno>:
             0x00012946: 42 77:       entsp (u6)      0x2
             0x00012948: 01 f0 74 d6: bl (lu10)       -0x674 <_DoSyscall>
             0x0001294c: c4 8e:       not (2r)        r1, r0
             0x0001294e: 57 aa:       shr (2rus)      r1, r1, 0x7
             0x00012950: 41 78:       bf (ru6)        r1, 0x1 <.label209>
             0x00012952: c2 77:       retsp (u6)      0x2
.label209    0x00012954: c4 96:       neg (2r)        r1, r0
             0x00012956: 41 54:       stw (ru6)       r1, sp[0x1]
             0x00012958: 01 f0 70 d4: bl (lu10)       -0x470 <__errno>
             0x0001295c: 41 5c:       ldw (ru6)       r1, sp[0x1]
             0x0001295e: 10 00:       stw (2rus)      r1, r0[0x0]
             0x00012960: d0 a6:       mkmsk (rus)     r0, 0x20
             0x00012962: c2 77:       retsp (u6)      0x2

<__malloc_lock>:
             0x00012964: 27 f0 24 60: ldaw (lru6)     r0, dp[0x9e4]
             0x00012968: 41 77:       entsp (u6)      0x1
             0x0001296a: 01 f0 77 d6: bl (lu10)       -0x677 <__spin_lock_acquire>
             0x0001296e: c1 77:       retsp (u6)      0x1

<__malloc_unlock>:
             0x00012970: 27 f0 24 60: ldaw (lru6)     r0, dp[0x9e4]
             0x00012974: 41 77:       entsp (u6)      0x1
             0x00012976: 01 f0 71 d6: bl (lu10)       -0x671 <__spin_lock_release>
             0x0001297a: c1 77:       retsp (u6)      0x1

<__smakebuf>:
             0x0001297c: 47 77:       entsp (u6)      0x7
             0x0001297e: 06 55:       stw (ru6)       r4, sp[0x6]
             0x00012980: 45 55:       stw (ru6)       r5, sp[0x5]
             0x00012982: 84 55:       stw (ru6)       r6, sp[0x4]
             0x00012984: c3 55:       stw (ru6)       r7, sp[0x3]
             0x00012986: 40 90:       add (2rus)      r4, r0, 0x0
             0x00012988: 02 56:       stw (ru6)       r8, sp[0x2]
             0x0001298a: c0 69:       ldc (ru6)       r7, 0x0
             0x0001298c: 41 56:       stw (ru6)       r9, sp[0x1]
             0x0001298e: 42 6a:       ldc (ru6)       r9, 0x2
             0x00012990: 23 f9 ec 9f: ldaw (l2rus)    r6, r4[0x3]
             0x00012994: 8b 83:       ld16s (3r)      r8, r6[r7]
             0x00012996: 01 3e:       and (3r)        r0, r8, r9
             0x00012998: 08 78:       bf (ru6)        r0, 0x8 <.label210>
.label213    0x0001299a: 01 f0 03 68: ldc (lru6)      r0, 0x43
             0x0001299e: c0 10:       add (3r)        r0, r4, r0
             0x000129a0: c0 00:       stw (2rus)      r0, r4[0x0]
             0x000129a2: 00 03:       stw (2rus)      r0, r4[0x4]
             0x000129a4: d1 a6:       mkmsk (rus)     r0, 0x1
             0x000129a6: 01 03:       stw (2rus)      r0, r4[0x5]
             0x000129a8: 17 73:       bu (u6)         0x17 <.label211>
.label210    0x000129aa: b1 47:       zext (rus)      r8, 0x10
             0x000129ac: 01 f0 40 69: ldc (lru6)      r5, 0x40
             0x000129b0: c4 90:       add (2rus)      r0, r5, 0x0
             0x000129b2: 00 f0 97 d4: bl (lu10)       -0x97 <malloc>
             0x000129b6: 08 70:       bt (ru6)        r0, 0x8 <.label212>
             0x000129b8: 08 f0 00 68: ldc (lru6)      r0, 0x200
             0x000129bc: 80 39:       and (3r)        r0, r8, r0
             0x000129be: 0c 70:       bt (ru6)        r0, 0xc <.label211>
             0x000129c0: 01 46:       or (3r)         r0, r8, r9
             0x000129c2: 0b fb ec 87: st16 (l3r)      r0, r6[r7]
             0x000129c6: 17 77:       bu (u6)         -0x17 <.label213>
.label212    0x000129c8: 02 f0 40 68: ldc (lru6)      r1, 0x80
             0x000129cc: 91 41:       or (3r)         r1, r8, r1
             0x000129ce: 1b fb ec 87: st16 (l3r)      r1, r6[r7]
             0x000129d2: c0 00:       stw (2rus)      r0, r4[0x0]
             0x000129d4: 00 03:       stw (2rus)      r0, r4[0x4]
             0x000129d6: 51 03:       stw (2rus)      r5, r4[0x5]
.label211    0x000129d8: 41 5e:       ldw (ru6)       r9, sp[0x1]
             0x000129da: 02 5e:       ldw (ru6)       r8, sp[0x2]
             0x000129dc: c3 5d:       ldw (ru6)       r7, sp[0x3]
             0x000129de: 84 5d:       ldw (ru6)       r6, sp[0x4]
             0x000129e0: 45 5d:       ldw (ru6)       r5, sp[0x5]
             0x000129e2: 06 5d:       ldw (ru6)       r4, sp[0x6]
             0x000129e4: c7 77:       retsp (u6)      0x7

<_close>:
             0x000129e6: 10 90:       add (2rus)      r1, r0, 0x0
             0x000129e8: 04 68:       ldc (ru6)       r0, 0x4
             0x000129ea: 01 f0 14 77: bu (lu6)        -0x54 <_DoSyscallErrno>

<_lseek>:
             0x000129ee: 38 90:       add (2rus)      r3, r2, 0x0
             0x000129f0: 24 90:       add (2rus)      r2, r1, 0x0
             0x000129f2: 10 90:       add (2rus)      r1, r0, 0x0
             0x000129f4: 08 68:       ldc (ru6)       r0, 0x8
             0x000129f6: 01 f0 1a 77: bu (lu6)        -0x5a <_DoSyscallErrno>

<_read>:
             0x000129fa: 38 90:       add (2rus)      r3, r2, 0x0
             0x000129fc: 24 90:       add (2rus)      r2, r1, 0x0
             0x000129fe: 10 90:       add (2rus)      r1, r0, 0x0
             0x00012a00: 05 68:       ldc (ru6)       r0, 0x5
             0x00012a02: 01 f0 20 77: bu (lu6)        -0x60 <_DoSyscallErrno>
             0x00012a06: 00 00:       stw (2rus)      r0, r0[0x0]

<__free>:
             0x00012a08: 41 77:       entsp (u6)      0x1
             0x00012a0a: 00 55:       stw (ru6)       r4, sp[0x0]
             0x00012a0c: 28 78:       bf (ru6)        r0, 0x28 <.label214>
             0x00012a0e: 40 9a:       sub (2rus)      r0, r0, 0x4
             0x00012a10: 27 f0 a2 60: ldaw (lru6)     r2, dp[0x9e2]
             0x00012a14: 20 73:       bu (u6)         0x20 <.label215>
.label220    0x00012a16: bf 11:       add (3r)        r3, r11, r3
             0x00012a18: 34 00:       stw (2rus)      r3, r1[0x0]
             0x00012a1a: 25 08:       ldw (2rus)      r2, r1[0x1]
             0x00012a1c: a0 78:       bf (ru6)        r2, 0x20 <.label214>
             0x00012a1e: b0 08:       ldw (2rus)      r11, r0[0x0]
             0x00012a20: 8c 11:       add (3r)        r0, r11, r0
             0x00012a22: 02 30:       eq (3r)         r0, r0, r2
             0x00012a24: 1c 78:       bf (ru6)        r0, 0x1c <.label214>
             0x00012a26: 08 08:       ldw (2rus)      r0, r2[0x0]
             0x00012a28: 03 10:       add (3r)        r0, r0, r3
             0x00012a2a: 04 00:       stw (2rus)      r0, r1[0x0]
             0x00012a2c: 09 08:       ldw (2rus)      r0, r2[0x1]
             0x00012a2e: 05 00:       stw (2rus)      r0, r1[0x1]
             0x00012a30: 00 5d:       ldw (ru6)       r4, sp[0x0]
             0x00012a32: c1 77:       retsp (u6)      0x1
.label217    0x00012a34: bf 11:       add (3r)        r3, r11, r3
             0x00012a36: 30 00:       stw (2rus)      r3, r0[0x0]
             0x00012a38: 15 08:       ldw (2rus)      r1, r1[0x1]
             0x00012a3a: 0f 73:       bu (u6)         0xf <.label216>
.label219    0x00012a3c: cc 11:       add (3r)        r4, r11, r0
             0x00012a3e: 84 32:       eq (3r)         r4, r1, r4
             0x00012a40: 07 75:       bt (ru6)        r4, -0x7 <.label217>
             0x00012a42: 06 73:       bu (u6)         0x6 <.label218>
.label221    0x00012a44: 34 08:       ldw (2rus)      r3, r1[0x0]
             0x00012a46: bd 10:       add (3r)        r11, r3, r1
             0x00012a48: cc 31:       eq (3r)         r4, r11, r0
             0x00012a4a: b0 08:       ldw (2rus)      r11, r0[0x0]
             0x00012a4c: 09 7d:       bf (ru6)        r4, -0x9 <.label219>
             0x00012a4e: 1d 77:       bu (u6)         -0x1d <.label220>
.label218    0x00012a50: 31 c8:       lsu (3r)        r3, r0, r1
             0x00012a52: c3 70:       bt (ru6)        r3, 0x3 <.label216>
             0x00012a54: 64 92:       add (2rus)      r2, r1, 0x4
.label215    0x00012a56: 18 08:       ldw (2rus)      r1, r2[0x0]
             0x00012a58: 4b 74:       bt (ru6)        r1, -0xb <.label221>
.label216    0x00012a5a: 11 00:       stw (2rus)      r1, r0[0x1]
             0x00012a5c: 08 00:       stw (2rus)      r0, r2[0x0]
.label214    0x00012a5e: 00 5d:       ldw (ru6)       r4, sp[0x0]
             0x00012a60: c1 77:       retsp (u6)      0x1
             0x00012a62: 00 90:       add (2rus)      r0, r0, 0x0

<free>:
             0x00012a64: 42 77:       entsp (u6)      0x2
             0x00012a66: 01 55:       stw (ru6)       r4, sp[0x1]
             0x00012a68: 40 90:       add (2rus)      r4, r0, 0x0
             0x00012a6a: 00 f0 85 d4: bl (lu10)       -0x85 <__malloc_lock>
             0x00012a6e: c0 90:       add (2rus)      r0, r4, 0x0
             0x00012a70: 35 d4:       bl (u10)        -0x35 <__free>
             0x00012a72: 00 f0 83 d4: bl (lu10)       -0x83 <__malloc_unlock>
             0x00012a76: 01 5d:       ldw (ru6)       r4, sp[0x1]
             0x00012a78: c2 77:       retsp (u6)      0x2
             0x00012a7a: 00 00:       stw (2rus)      r0, r0[0x0]

<memcpy>:
             0x00012a7c: 31 40:       or (3r)         r3, r0, r1
             0x00012a7e: de 46:       zext (rus)      r3, 0x2
             0x00012a80: cc 70:       bt (ru6)        r3, 0xc <.label222>
             0x00012a82: 5e a7:       mkmsk (rus)     r11, 0x2
             0x00012a84: bb 3c:       and (3r)        r3, r2, r11
             0x00012a86: 01 f0 e1 78: bf (lru6)       r3, 0x61 <__memcpy_4>
.label223    0x00012a8a: 29 98:       sub (2rus)      r2, r2, 0x1
             0x00012a8c: 36 88:       ld8u (3r)       r3, r1[r2]
             0x00012a8e: 32 f8 ec 8f: st8 (l3r)       r3, r0[r2]
             0x00012a92: bb 3c:       and (3r)        r3, r2, r11
             0x00012a94: c6 74:       bt (ru6)        r3, -0x6 <.label223>
             0x00012a96: 01 f0 19 73: bu (lu6)        0x59 <__memcpy_4>
.label222    0x00012a9a: 85 78:       bf (ru6)        r2, 0x5 <.label224>
.label225    0x00012a9c: 29 98:       sub (2rus)      r2, r2, 0x1
             0x00012a9e: 36 88:       ld8u (3r)       r3, r1[r2]
             0x00012aa0: 32 f8 ec 8f: st8 (l3r)       r3, r0[r2]
             0x00012aa4: 85 74:       bt (ru6)        r2, -0x5 <.label225>
.label224    0x00012aa6: c0 77:       retsp (u6)      0x0

<memmove>:
             0x00012aa8: 31 c8:       lsu (3r)        r3, r0, r1
             0x00012aaa: 00 f0 d9 7c: bf (lru6)       r3, -0x19 <memcpy>
             0x00012aae: 32 10:       add (3r)        r3, r0, r2
             0x00012ab0: 33 c8:       lsu (3r)        r3, r0, r3
             0x00012ab2: 00 f0 dd 7c: bf (lru6)       r3, -0x1d <memcpy>
             0x00012ab6: 87 78:       bf (ru6)        r2, 0x7 <.label226>
             0x00012ab8: c0 68:       ldc (ru6)       r3, 0x0
.label227    0x00012aba: b7 88:       ld8u (3r)       r11, r1[r3]
             0x00012abc: b3 f8 ec 8f: st8 (l3r)       r11, r0[r3]
             0x00012ac0: 3d 90:       add (2rus)      r3, r3, 0x1
             0x00012ac2: be 30:       eq (3r)         r11, r3, r2
             0x00012ac4: c6 7e:       bf (ru6)        r11, -0x6 <.label227>
.label226    0x00012ac6: c0 77:       retsp (u6)      0x0

<realloc>:
             0x00012ac8: 45 77:       entsp (u6)      0x5
             0x00012aca: 04 55:       stw (ru6)       r4, sp[0x4]
             0x00012acc: 43 55:       stw (ru6)       r5, sp[0x3]
             0x00012ace: 54 90:       add (2rus)      r5, r1, 0x0
             0x00012ad0: 40 90:       add (2rus)      r4, r0, 0x0
             0x00012ad2: 82 55:       stw (ru6)       r6, sp[0x2]
             0x00012ad4: 04 68:       ldc (ru6)       r0, 0x4
             0x00012ad6: c1 55:       stw (ru6)       r7, sp[0x1]
             0x00012ad8: 24 c9:       lsu (3r)        r6, r5, r0
             0x00012ada: 00 f0 bd d4: bl (lu10)       -0xbd <__malloc_lock>
             0x00012ade: 00 9b:       sub (2rus)      r0, r4, 0x4
             0x00012ae0: 82 79:       bf (ru6)        r6, 0x2 <.label228>
             0x00012ae2: 48 68:       ldc (ru6)       r1, 0x8
             0x00012ae4: 04 73:       bu (u6)         0x4 <.label229>
.label228    0x00012ae6: 85 97:       neg (2r)        r1, r5
             0x00012ae8: d6 46:       zext (rus)      r1, 0x2
             0x00012aea: d5 10:       add (3r)        r1, r5, r1
             0x00012aec: 54 92:       add (2rus)      r1, r1, 0x4
.label229    0x00012aee: 05 71:       bt (ru6)        r4, 0x5 <.label230>
             0x00012af0: c4 90:       add (2rus)      r0, r5, 0x0
             0x00012af2: 00 f0 89 d5: bl (lu10)       -0x189 <__malloc>
             0x00012af6: 60 90:       add (2rus)      r6, r0, 0x0
             0x00012af8: 21 73:       bu (u6)         0x21 <.label231>
.label230    0x00012afa: 70 08:       ldw (2rus)      r7, r0[0x0]
             0x00012afc: ed c8:       lsu (3r)        r2, r7, r1
             0x00012afe: 93 78:       bf (ru6)        r2, 0x13 <.label232>
             0x00012b00: c4 90:       add (2rus)      r0, r5, 0x0
             0x00012b02: 00 f0 91 d5: bl (lu10)       -0x191 <__malloc>
             0x00012b06: 60 90:       add (2rus)      r6, r0, 0x0
             0x00012b08: 82 71:       bt (ru6)        r6, 0x2 <.label233>
             0x00012b0a: 80 69:       ldc (ru6)       r6, 0x0
             0x00012b0c: 17 73:       bu (u6)         0x17 <.label231>
.label233    0x00012b0e: 2c 9b:       sub (2rus)      r2, r7, 0x4
             0x00012b10: 49 ca:       lsu (3r)        r0, r2, r5
             0x00012b12: 01 70:       bt (ru6)        r0, 0x1 <.label234>
             0x00012b14: e4 90:       add (2rus)      r2, r5, 0x0
.label234    0x00012b16: d0 90:       add (2rus)      r1, r4, 0x0
             0x00012b18: c8 90:       add (2rus)      r0, r6, 0x0
             0x00012b1a: 00 f0 51 d4: bl (lu10)       -0x51 <memcpy>
             0x00012b1e: c0 90:       add (2rus)      r0, r4, 0x0
             0x00012b20: 00 f0 8e d4: bl (lu10)       -0x8e <__free>
             0x00012b24: 0b 73:       bu (u6)         0xb <.label231>
.label232    0x00012b26: c8 68:       ldc (ru6)       r3, 0x8
             0x00012b28: ed 18:       sub (3r)        r2, r7, r1
             0x00012b2a: 3b c8:       lsu (3r)        r3, r2, r3
             0x00012b2c: c6 70:       bt (ru6)        r3, 0x6 <.label235>
             0x00012b2e: 10 00:       stw (2rus)      r1, r0[0x0]
             0x00012b30: 04 10:       add (3r)        r0, r1, r0
             0x00012b32: 20 00:       stw (2rus)      r2, r0[0x0]
             0x00012b34: 40 92:       add (2rus)      r0, r0, 0x4
             0x00012b36: 00 f0 99 d4: bl (lu10)       -0x99 <__free>
.label235    0x00012b3a: 20 91:       add (2rus)      r6, r4, 0x0
.label231    0x00012b3c: 00 f0 e8 d4: bl (lu10)       -0xe8 <__malloc_unlock>
             0x00012b40: c1 5d:       ldw (ru6)       r7, sp[0x1]
             0x00012b42: c8 90:       add (2rus)      r0, r6, 0x0
             0x00012b44: 82 5d:       ldw (ru6)       r6, sp[0x2]
             0x00012b46: 43 5d:       ldw (ru6)       r5, sp[0x3]
             0x00012b48: 04 5d:       ldw (ru6)       r4, sp[0x4]
             0x00012b4a: c5 77:       retsp (u6)      0x5

<__memcpy_4>:
             0x00012b4c: 9b 78:       bf (ru6)        r2, 0x1b <.label236>
             0x00012b4e: 16 10:       add (3r)        r1, r1, r2
             0x00012b50: b2 10:       add (3r)        r11, r0, r2
             0x00012b52: 2a a8:       shr (2rus)      r2, r2, 0x2
             0x00012b54: da 46:       zext (rus)      r2, 0x2
             0x00012b56: 16 f8 ec 27: ldaw (l3r)      r1, r1[-r2]
             0x00012b5a: 3e fa ec 27: ldaw (l3r)      r11, r11[-r2]
             0x00012b5e: e2 2f:       bru (1r)        r2
             0x00012b60: 03 73:       bu (u6)         0x3 <.label237>
             0x00012b62: 0c 73:       bu (u6)         0xc <.label238>
             0x00012b64: 09 73:       bu (u6)         0x9 <.label239>
             0x00012b66: 06 73:       bu (u6)         0x6 <.label240>
.label237    0x00012b68: 54 fa ec a7: ldaw (l2rus)    r1, r1[-0x4]
             0x00012b6c: 7c fc ec a7: ldaw (l2rus)    r11, r11[-0x4]
             0x00012b70: 37 08:       ldw (2rus)      r3, r1[0x3]
             0x00012b72: bf 01:       stw (2rus)      r3, r11[0x3]
.label240    0x00012b74: 36 08:       ldw (2rus)      r3, r1[0x2]
             0x00012b76: be 01:       stw (2rus)      r3, r11[0x2]
.label239    0x00012b78: 35 08:       ldw (2rus)      r3, r1[0x1]
             0x00012b7a: bd 01:       stw (2rus)      r3, r11[0x1]
.label238    0x00012b7c: 34 08:       ldw (2rus)      r3, r1[0x0]
             0x00012b7e: bc 01:       stw (2rus)      r3, r11[0x0]
             0x00012b80: b3 34:       eq (3r)         r3, r0, r11
             0x00012b82: ce 7c:       bf (ru6)        r3, -0xe <.label237>
.label236    0x00012b84: c0 77:       retsp (u6)      0x0

Disassembly of section .init (size: 92)

<_init>:
.label3      0x00012b86: 41 77:       entsp (u6)      0x1
             0x00012b88: 00 f0 bc d8: ldap (lu10)     r11, 0xbc <.label1>
             0x00012b8c: 8c 91:       add (2rus)      r0, r11, 0x0
             0x00012b8e: 40 68:       ldc (ru6)       r1, 0x0
             0x00012b90: 00 f0 b8 d8: ldap (lu10)     r11, 0xb8 <.label1>
             0x00012b94: ac 19:       sub (3r)        r2, r11, r0
             0x00012b96: 01 f0 cf d7: bl (lu10)       -0x7cf <.label241>
             0x00012b9a: 00 f0 85 d9: ldap (lu10)     r11, 0x185 <.label242>
             0x00012b9e: 8c 91:       add (2rus)      r0, r11, 0x0
             0x00012ba0: 40 68:       ldc (ru6)       r1, 0x0
             0x00012ba2: 05 f0 87 d8: ldap (lu10)     r11, 0x1487 <.label243>
             0x00012ba6: ac 19:       sub (3r)        r2, r11, r0
             0x00012ba8: 01 f0 d8 d7: bl (lu10)       -0x7d8 <.label241>
             0x00012bac: 01 f0 9c d7: bl (lu10)       -0x79c <.label244>
             0x00012bb0: 00 f0 3a d8: ldap (lu10)     r11, 0x3a <.label245>
             0x00012bb4: 8c 91:       add (2rus)      r0, r11, 0x0
             0x00012bb6: 27 f0 65 60: ldaw (lru6)     r1, dp[0x9e5]
             0x00012bba: 80 68:       ldc (ru6)       r2, 0x0
             0x00012bbc: c0 68:       ldc (ru6)       r3, 0x0
             0x00012bbe: 05 f0 8c d5: bl (lu10)       -0x158c <.label246>
             0x00012bc2: 00 f0 19 59: ldw (lru6)      r4, dp[0x19]
             0x00012bc6: 02 a9:       shr (2rus)      r4, r4, 0x2
             0x00012bc8: 0b 79:       bf (ru6)        r4, 0xb <do_ctors_end>
             0x00012bca: 00 f0 7d d8: ldap (lu10)     r11, 0x7d <.label247>
             0x00012bce: dc 91:       add (2rus)      r5, r11, 0x0
             0x00012bd0: 00 f0 98 59: ldw (lru6)      r6, dp[0x18]
             0x00012bd4: 66 1b:       sub (3r)        r6, r5, r6

<do_ctors_loop>:
             0x00012bd6: 01 99:       sub (2rus)      r4, r4, 0x1
             0x00012bd8: 04 4b:       ldw (3r)        r0, r5[r4]
             0x00012bda: 42 12:       add (3r)        r0, r0, r6
             0x00012bdc: e0 27:       bla (1r)        r0
             0x00012bde: 05 75:       bt (ru6)        r4, -0x5 <do_ctors_loop>

<do_ctors_end>:
             0x00012be0: c1 77:       retsp (u6)      0x1

Disassembly of section .fini (size: 58)

<_fini>:
.label62     0x00012be2: 41 77:       entsp (u6)      0x1
             0x00012be4: 85 77:       extsp (u6)      0x5
             0x00012be6: 01 55:       stw (ru6)       r4, sp[0x1]
             0x00012be8: 42 55:       stw (ru6)       r5, sp[0x2]
             0x00012bea: 83 55:       stw (ru6)       r6, sp[0x3]
             0x00012bec: c4 55:       stw (ru6)       r7, sp[0x4]
             0x00012bee: 00 f0 c2 59: ldw (lru6)      r7, dp[0x2]
             0x00012bf2: 3e a9:       shr (2rus)      r7, r7, 0x2
             0x00012bf4: cd 79:       bf (ru6)        r7, 0xd <do_dtors_end>
             0x00012bf6: 00 69:       ldc (ru6)       r4, 0x0
             0x00012bf8: 00 f0 76 d8: ldap (lu10)     r11, 0x76 <.label248>
             0x00012bfc: dc 91:       add (2rus)      r5, r11, 0x0
             0x00012bfe: 00 f0 81 59: ldw (lru6)      r6, dp[0x1]
             0x00012c02: 66 1b:       sub (3r)        r6, r5, r6

<do_dtors_loop>:
             0x00012c04: 04 4b:       ldw (3r)        r0, r5[r4]
             0x00012c06: 42 12:       add (3r)        r0, r0, r6
             0x00012c08: e0 27:       bla (1r)        r0
             0x00012c0a: 01 91:       add (2rus)      r4, r4, 0x1
             0x00012c0c: b3 cb:       lsu (3r)        r11, r4, r7
             0x00012c0e: c6 76:       bt (ru6)        r11, -0x6 <do_dtors_loop>

<do_dtors_end>:
             0x00012c10: 01 5d:       ldw (ru6)       r4, sp[0x1]
             0x00012c12: 42 5d:       ldw (ru6)       r5, sp[0x2]
             0x00012c14: 83 5d:       ldw (ru6)       r6, sp[0x3]
             0x00012c16: c4 5d:       ldw (ru6)       r7, sp[0x4]
             0x00012c18: 85 67:       ldaw (ru6)      sp, sp[0x5]
             0x00012c1a: c1 77:       retsp (u6)      0x1

Disassembly of section .text.__call_exitprocs_impl (size: 2)

<__call_exitprocs_impl>:
.label71     0x00012c1c: c0 77:       retsp (u6)      0x0

Disassembly of section .text._raise (size: 4)

<_raise>:
.label206    0x00012c20: 00 68:       ldc (ru6)       r0, 0x0
             0x00012c22: e0 4f:       ecallf (1r)     r0

Loadable 2 for stdcore[1] (node "1", tile 0):

Disassembly of section .text (size: 8284)

<_start>:
             0x00010000: 4b 68:       ldc (ru6)       r1, 0xb
             0x00010002: d1 fe ec 17: get (l2r)       r0, ps[r1]
             0x00010006: 04 f0 8b 68: ldc (lru6)      r2, 0x10b
             0x0001000a: c2 fe ec 1f: set (lr2r)      ps[r2], r0
             0x0001000e: 4a d0:       bl (u10)        0x4a <_SetupTraps>
             0x00010010: 0f d0:       bl (u10)        0xf <_GetRamEnd>
             0x00010012: f0 2f:       set (1r)        sp, r0
             0x00010014: 01 f0 82 77: extsp (lu6)     0x42
             0x00010018: 04 f0 8a d8: ldap (lu10)     r11, 0x108a <.label0>
             0x0001001c: fb 37:       set (1r)        cp, r11
             0x0001001e: 04 f0 c9 d8: ldap (lu10)     r11, 0x10c9 <.label1>
             0x00010022: eb 37:       set (1r)        dp, r11
             0x00010024: c3 86:       getr (rus)      r0, 0x3

<_InitThreadLoop>:
             0x00010026: d4 06:       getst (2r)      r1, res[r0]
             0x00010028: b4 b0:       eq (2rus)       r11, r1, 0x0
             0x0001002a: cc 72:       bt (ru6)        r11, 0xc <_Join>
             0x0001002c: 1f d0:       bl (u10)        0x1f <_InitThread>
             0x0001002e: 05 77:       bu (u6)         -0x5 <_InitThreadLoop>

<_GetRamEnd>:
             0x00010030: cb 6a:       ldc (ru6)       r11, 0xb
             0x00010032: bb ff ec 17: get (l2r)       r10, ps[r11]
             0x00010036: 04 f0 5f d8: ldap (lu10)     r11, 0x105f <.label2>
             0x0001003a: 3c 0a:       ldw (2rus)      r11, r11[0x0]
             0x0001003c: 0b 16:       add (3r)        r0, r10, r11
             0x0001003e: c0 77:       retsp (u6)      0x0

<_ExitWithError>:
             0x00010040: 2d f0 3c 73: bu (lu6)        0xb7c <_exit>

<_Join>:
             0x00010044: f0 1f:       msync (1r)      res[r0]
             0x00010046: f0 17:       mjoin (1r)      res[r0]
             0x00010048: e0 17:       freer (1r)      res[r0]
             0x0001004a: 1f d0:       bl (u10)        0x1f <_TouchRegisters>
             0x0001004c: 04 f0 06 d0: bl (lu10)       0x1006 <.label3>
             0x00010050: 00 f0 c6 6a: ldc (lru6)      r11, 0x6
             0x00010054: c8 ea:       setc (ru6)      res[r11], 0x8
             0x00010056: cf ea:       setc (ru6)      res[r11], 0xf
             0x00010058: 00 68:       ldc (ru6)       r0, 0x0
             0x0001005a: 00 f0 40 60: ldaw (lru6)     r1, dp[0x0]
             0x0001005e: 02 f0 11 d3: bl (lu10)       0xb11 <main>
             0x00010062: 02 70:       bt (ru6)        r0, 0x2 <_NonZeroReturn>
             0x00010064: 2d f0 1e 73: bu (lu6)        0xb5e <__libc_done>

<_NonZeroReturn>:
             0x00010068: 2d f0 2e 73: bu (lu6)        0xb6e <_exit_unlocked>

<_InitThread>:
             0x0001006c: 04 f0 60 d8: ldap (lu10)     r11, 0x1060 <.label0>
             0x00010070: 4d 1f:       init (2r)       t[r1]:cp, r11
             0x00010072: 04 f0 9f d8: ldap (lu10)     r11, 0x109f <.label1>
             0x00010076: 4d 0f:       init (2r)       t[r1]:dp, r11
             0x00010078: 05 d8:       ldap (u10)      r11, 0x5 <_InitThreadRoutine>
             0x0001007a: 4d 07:       init (2r)       t[r1]:pc, r11
             0x0001007c: c0 77:       retsp (u6)      0x0
             0x0001007e: 00 90:       add (2rus)      r0, r0, 0x0

<_TrapHandler>:
             0x00010080: 2d f0 0e 73: bu (lu6)        0xb4e <_DoException> <endOfStartup>

<_InitThreadRoutine>:
             0x00010084: 02 d0:       bl (u10)        0x2 <_TouchRegisters>
             0x00010086: 0e d0:       bl (u10)        0xe <_SetupTraps>
             0x00010088: ee 07:       ssync (0r)      

<_TouchRegisters>:
             0x0001008a: 00 68:       ldc (ru6)       r0, 0x0
             0x0001008c: 40 68:       ldc (ru6)       r1, 0x0
             0x0001008e: 80 68:       ldc (ru6)       r2, 0x0
             0x00010090: c0 68:       ldc (ru6)       r3, 0x0
             0x00010092: 00 69:       ldc (ru6)       r4, 0x0
             0x00010094: 40 69:       ldc (ru6)       r5, 0x0
             0x00010096: 80 69:       ldc (ru6)       r6, 0x0
             0x00010098: c0 69:       ldc (ru6)       r7, 0x0
             0x0001009a: 00 6a:       ldc (ru6)       r8, 0x0
             0x0001009c: 40 6a:       ldc (ru6)       r9, 0x0
             0x0001009e: 80 6a:       ldc (ru6)       r10, 0x0
             0x000100a0: c0 6a:       ldc (ru6)       r11, 0x0
             0x000100a2: c0 77:       retsp (u6)      0x0

<_SetupTraps>:
             0x000100a4: 13 dc:       ldap (u10)      r11, -0x13 <_TrapHandler>
             0x000100a6: ff 07:       set (0r)        kep, r11
             0x000100a8: c0 77:       retsp (u6)      0x0

<__register_frame_info_bases>:
<__free_libc_hwlock>:
.label110    0x000100aa: c0 77:       retsp (u6)      0x0

<audio_io>:
             0x000100ac: 42 77:       entsp (u6)      0x2
             0x000100ae: 01 55:       stw (ru6)       r4, sp[0x1]
             0x000100b0: 40 90:       add (2rus)      r4, r0, 0x0
             0x000100b2: 00 f0 28 58: ldw (lru6)      r0, dp[0x28]
             0x000100b6: 00 f0 ef d1: bl (lu10)       0x1ef <i2c_master_init>
             0x000100ba: ee f2 00 68: ldc (lru6)      r0, 0xbb80
             0x000100be: 00 f0 44 6c: ldw (lru6)      r1, cp[0x4]
             0x000100c2: 00 f0 08 d0: bl (lu10)       0x8 <codec_config>
             0x000100c6: 00 f0 0e 60: ldaw (lru6)     r0, dp[0xe]
             0x000100ca: 88 68:       ldc (ru6)       r2, 0x8
             0x000100cc: d0 90:       add (2rus)      r1, r4, 0x0
             0x000100ce: 00 f0 0f d1: bl (lu10)       0x10f <i2s_master>
             0x000100d2: 01 5d:       ldw (ru6)       r4, sp[0x1]
             0x000100d4: c2 77:       retsp (u6)      0x2

<codec_config>:
             0x000100d6: 4c 77:       entsp (u6)      0xc
             0x000100d8: 0b 55:       stw (ru6)       r4, sp[0xb]
             0x000100da: 4a 55:       stw (ru6)       r5, sp[0xa]
             0x000100dc: 89 55:       stw (ru6)       r6, sp[0x9]
             0x000100de: c8 55:       stw (ru6)       r7, sp[0x8]
             0x000100e0: 07 56:       stw (ru6)       r8, sp[0x7]
             0x000100e2: 46 56:       stw (ru6)       r9, sp[0x6]
             0x000100e4: 85 56:       stw (ru6)       r10, sp[0x5]
             0x000100e6: 00 6a:       ldc (ru6)       r8, 0x0
             0x000100e8: 00 f0 45 6c: ldw (lru6)      r1, cp[0x5]
             0x000100ec: 11 f8 20 06: lmul (l6r)      r1, r2, r0, r1, r8, r8
             0x000100f0: 8e 68:       ldc (ru6)       r2, 0xe
             0x000100f2: 16 28:       shr (3r)        r1, r1, r2
             0x000100f4: 58 f1 a2 68: ldc (lru6)      r2, 0x5622
             0x000100f8: 16 f8 ec 3f: mul (l3r)       r1, r1, r2
             0x000100fc: 01 18:       sub (3r)        r0, r0, r1
             0x000100fe: 02 78:       bf (ru6)        r0, 0x2 <.label4>
             0x00010100: 06 68:       ldc (ru6)       r0, 0x6
             0x00010102: 01 73:       bu (u6)         0x1 <.label5>
.label4      0x00010104: 04 68:       ldc (ru6)       r0, 0x4
.label5      0x00010106: 4d 87:       getr (rus)      r11, 0x1
             0x00010108: c3 56:       stw (ru6)       r11, sp[0x3]
             0x0001010a: 00 f0 69 58: ldw (lru6)      r1, dp[0x29]
             0x0001010e: c1 ae:       out (r2r)       res[r1], r0
             0x00010110: c1 ea:       setc (ru6)      res[r11], 0x1
             0x00010112: 2b b7:       in (2r)         r2, res[r11]
             0x00010114: 00 f0 c6 6c: ldw (lru6)      r3, cp[0x6]
             0x00010118: 2b 10:       add (3r)        r2, r2, r3
             0x0001011a: 3b 17:       setd (r2r)      res[r11], r2
             0x0001011c: c9 ea:       setc (ru6)      res[r11], 0x9
             0x0001011e: 2b b7:       in (2r)         r2, res[r11]
             0x00010120: c1 ae:       out (r2r)       res[r1], r0
             0x00010122: 44 65:       ldaw (ru6)      r5, sp[0x4]
             0x00010124: 11 a7:       mkmsk (rus)     r4, 0x1
             0x00010126: 84 fd ec 8f: st8 (l3r)       r4, r5[r8]
             0x0001012a: 02 55:       stw (ru6)       r4, sp[0x2]
             0x0001012c: 00 f0 e8 59: ldw (lru6)      r7, dp[0x28]
             0x00010130: c1 55:       stw (ru6)       r7, sp[0x1]
             0x00010132: 02 f0 90 69: ldc (lru6)      r6, 0x90
             0x00010136: c8 90:       add (2rus)      r0, r6, 0x0
             0x00010138: d0 90:       add (2rus)      r1, r4, 0x0
             0x0001013a: e4 90:       add (2rus)      r2, r5, 0x0
             0x0001013c: f0 90:       add (2rus)      r3, r4, 0x0
             0x0001013e: 00 f0 f8 d1: bl (lu10)       0x1f8 <i2c_master_write_reg>
             0x00010142: 84 fd ec 8f: st8 (l3r)       r4, r5[r8]
             0x00010146: 02 55:       stw (ru6)       r4, sp[0x2]
             0x00010148: c1 55:       stw (ru6)       r7, sp[0x1]
             0x0001014a: 02 f0 12 68: ldc (lru6)      r0, 0x92
             0x0001014e: d0 90:       add (2rus)      r1, r4, 0x0
             0x00010150: e4 90:       add (2rus)      r2, r5, 0x0
             0x00010152: f0 90:       add (2rus)      r3, r4, 0x0
             0x00010154: 00 f0 ed d1: bl (lu10)       0x1ed <i2c_master_write_reg>
             0x00010158: 02 55:       stw (ru6)       r4, sp[0x2]
             0x0001015a: c1 55:       stw (ru6)       r7, sp[0x1]
             0x0001015c: c8 90:       add (2rus)      r0, r6, 0x0
             0x0001015e: d0 90:       add (2rus)      r1, r4, 0x0
             0x00010160: e4 90:       add (2rus)      r2, r5, 0x0
             0x00010162: f0 90:       add (2rus)      r3, r4, 0x0
             0x00010164: 00 f0 c6 d1: bl (lu10)       0x1c6 <i2c_master_read_reg>
             0x00010168: a4 8d:       ld8u (3r)       r6, r5[r8]
             0x0001016a: 03 f0 30 68: ldc (lru6)      r0, 0xf0
             0x0001016e: c8 38:       and (3r)        r0, r6, r0
             0x00010170: 03 f0 40 68: ldc (lru6)      r1, 0xc0
             0x00010174: 01 30:       eq (3r)         r0, r0, r1
             0x00010176: 08 70:       bt (ru6)        r0, 0x8 <.label6>
             0x00010178: 00 f0 15 60: ldaw (lru6)     r0, dp[0x15]
             0x0001017c: 6f 68:       ldc (ru6)       r1, 0x2f
             0x0001017e: 02 f0 25 d3: bl (lu10)       0xb25 <printstr>
             0x00010182: c8 90:       add (2rus)      r0, r6, 0x0
             0x00010184: 02 f0 1e d3: bl (lu10)       0xb1e <printhex>
.label6      0x00010188: 75 6a:       ldc (ru6)       r9, 0x35
             0x0001018a: d4 fd ec 8f: st8 (l3r)       r9, r5[r8]
             0x0001018e: 02 55:       stw (ru6)       r4, sp[0x2]
             0x00010190: c1 55:       stw (ru6)       r7, sp[0x1]
             0x00010192: 02 f0 50 68: ldc (lru6)      r1, 0x90
             0x00010196: e0 91:       add (2rus)      r6, r8, 0x0
             0x00010198: 52 a7:       mkmsk (rus)     r8, 0x2
             0x0001019a: 04 90:       add (2rus)      r0, r1, 0x0
             0x0001019c: a4 90:       add (2rus)      r10, r1, 0x0
             0x0001019e: 90 91:       add (2rus)      r1, r8, 0x0
             0x000101a0: e4 90:       add (2rus)      r2, r5, 0x0
             0x000101a2: f0 90:       add (2rus)      r3, r4, 0x0
             0x000101a4: 00 f0 c5 d1: bl (lu10)       0x1c5 <i2c_master_write_reg>
             0x000101a8: 96 fb ec 8f: st8 (l3r)       r9, r5[r6]
             0x000101ac: 02 55:       stw (ru6)       r4, sp[0x2]
             0x000101ae: c1 55:       stw (ru6)       r7, sp[0x1]
             0x000101b0: 02 f0 12 68: ldc (lru6)      r0, 0x92
             0x000101b4: 90 91:       add (2rus)      r1, r8, 0x0
             0x000101b6: e4 90:       add (2rus)      r2, r5, 0x0
             0x000101b8: f0 90:       add (2rus)      r3, r4, 0x0
             0x000101ba: 00 f0 ba d1: bl (lu10)       0x1ba <i2c_master_write_reg>
             0x000101be: 09 6a:       ldc (ru6)       r8, 0x9
             0x000101c0: 86 fb ec 8f: st8 (l3r)       r8, r5[r6]
             0x000101c4: 10 92:       add (2rus)      r9, r8, 0x0
             0x000101c6: 02 55:       stw (ru6)       r4, sp[0x2]
             0x000101c8: c1 55:       stw (ru6)       r7, sp[0x1]
             0x000101ca: 84 68:       ldc (ru6)       r2, 0x4
             0x000101cc: 88 91:       add (2rus)      r0, r10, 0x0
             0x000101ce: 18 90:       add (2rus)      r1, r2, 0x0
             0x000101d0: 88 90:       add (2rus)      r8, r2, 0x0
             0x000101d2: e4 90:       add (2rus)      r2, r5, 0x0
             0x000101d4: f0 90:       add (2rus)      r3, r4, 0x0
             0x000101d6: 00 f0 ac d1: bl (lu10)       0x1ac <i2c_master_write_reg>
             0x000101da: 96 fb ec 8f: st8 (l3r)       r9, r5[r6]
             0x000101de: 02 55:       stw (ru6)       r4, sp[0x2]
             0x000101e0: c1 55:       stw (ru6)       r7, sp[0x1]
             0x000101e2: 02 f0 52 6a: ldc (lru6)      r9, 0x92
             0x000101e6: 84 91:       add (2rus)      r0, r9, 0x0
             0x000101e8: 90 91:       add (2rus)      r1, r8, 0x0
             0x000101ea: e4 90:       add (2rus)      r2, r5, 0x0
             0x000101ec: f0 90:       add (2rus)      r3, r4, 0x0
             0x000101ee: 00 f0 a0 d1: bl (lu10)       0x1a0 <i2c_master_write_reg>
             0x000101f2: 01 f0 20 6a: ldc (lru6)      r8, 0x60
             0x000101f6: 86 fb ec 8f: st8 (l3r)       r8, r5[r6]
             0x000101fa: 02 55:       stw (ru6)       r4, sp[0x2]
             0x000101fc: c1 55:       stw (ru6)       r7, sp[0x1]
             0x000101fe: 85 68:       ldc (ru6)       r2, 0x5
             0x00010200: 88 91:       add (2rus)      r0, r10, 0x0
             0x00010202: 18 90:       add (2rus)      r1, r2, 0x0
             0x00010204: a8 90:       add (2rus)      r10, r2, 0x0
             0x00010206: e4 90:       add (2rus)      r2, r5, 0x0
             0x00010208: f0 90:       add (2rus)      r3, r4, 0x0
             0x0001020a: 00 f0 92 d1: bl (lu10)       0x192 <i2c_master_write_reg>
             0x0001020e: 86 fb ec 8f: st8 (l3r)       r8, r5[r6]
             0x00010212: 02 55:       stw (ru6)       r4, sp[0x2]
             0x00010214: c1 55:       stw (ru6)       r7, sp[0x1]
             0x00010216: 84 91:       add (2rus)      r0, r9, 0x0
             0x00010218: 98 91:       add (2rus)      r1, r10, 0x0
             0x0001021a: e4 90:       add (2rus)      r2, r5, 0x0
             0x0001021c: f0 90:       add (2rus)      r3, r4, 0x0
             0x0001021e: 00 f0 88 d1: bl (lu10)       0x188 <i2c_master_write_reg>
             0x00010222: 66 fb ec 8f: st8 (l3r)       r6, r5[r6]
             0x00010226: 02 55:       stw (ru6)       r4, sp[0x2]
             0x00010228: c1 55:       stw (ru6)       r7, sp[0x1]
             0x0001022a: 86 68:       ldc (ru6)       r2, 0x6
             0x0001022c: 02 f0 10 6a: ldc (lru6)      r8, 0x90
             0x00010230: 80 91:       add (2rus)      r0, r8, 0x0
             0x00010232: 18 90:       add (2rus)      r1, r2, 0x0
             0x00010234: a8 90:       add (2rus)      r10, r2, 0x0
             0x00010236: e4 90:       add (2rus)      r2, r5, 0x0
             0x00010238: f0 90:       add (2rus)      r3, r4, 0x0
             0x0001023a: 00 f0 7a d1: bl (lu10)       0x17a <i2c_master_write_reg>
             0x0001023e: 66 fb ec 8f: st8 (l3r)       r6, r5[r6]
             0x00010242: 02 55:       stw (ru6)       r4, sp[0x2]
             0x00010244: c1 55:       stw (ru6)       r7, sp[0x1]
             0x00010246: 84 91:       add (2rus)      r0, r9, 0x0
             0x00010248: 98 91:       add (2rus)      r1, r10, 0x0
             0x0001024a: e4 90:       add (2rus)      r2, r5, 0x0
             0x0001024c: f0 90:       add (2rus)      r3, r4, 0x0
             0x0001024e: 00 f0 70 d1: bl (lu10)       0x170 <i2c_master_write_reg>
             0x00010252: 66 fb ec 8f: st8 (l3r)       r6, r5[r6]
             0x00010256: 02 55:       stw (ru6)       r4, sp[0x2]
             0x00010258: c1 55:       stw (ru6)       r7, sp[0x1]
             0x0001025a: db a6:       mkmsk (rus)     r2, 0x3
             0x0001025c: 80 91:       add (2rus)      r0, r8, 0x0
             0x0001025e: 20 92:       add (2rus)      r10, r8, 0x0
             0x00010260: 18 90:       add (2rus)      r1, r2, 0x0
             0x00010262: 88 90:       add (2rus)      r8, r2, 0x0
             0x00010264: e4 90:       add (2rus)      r2, r5, 0x0
             0x00010266: f0 90:       add (2rus)      r3, r4, 0x0
             0x00010268: 00 f0 63 d1: bl (lu10)       0x163 <i2c_master_write_reg>
             0x0001026c: 66 fb ec 8f: st8 (l3r)       r6, r5[r6]
             0x00010270: 02 55:       stw (ru6)       r4, sp[0x2]
             0x00010272: c1 55:       stw (ru6)       r7, sp[0x1]
             0x00010274: 84 91:       add (2rus)      r0, r9, 0x0
             0x00010276: 90 91:       add (2rus)      r1, r8, 0x0
             0x00010278: e4 90:       add (2rus)      r2, r5, 0x0
             0x0001027a: f0 90:       add (2rus)      r3, r4, 0x0
             0x0001027c: 00 f0 59 d1: bl (lu10)       0x159 <i2c_master_write_reg>
             0x00010280: 66 fb ec 8f: st8 (l3r)       r6, r5[r6]
             0x00010284: 02 55:       stw (ru6)       r4, sp[0x2]
             0x00010286: c1 55:       stw (ru6)       r7, sp[0x1]
             0x00010288: 08 6a:       ldc (ru6)       r8, 0x8
             0x0001028a: 88 91:       add (2rus)      r0, r10, 0x0
             0x0001028c: 90 91:       add (2rus)      r1, r8, 0x0
             0x0001028e: e4 90:       add (2rus)      r2, r5, 0x0
             0x00010290: f0 90:       add (2rus)      r3, r4, 0x0
             0x00010292: 00 f0 4e d1: bl (lu10)       0x14e <i2c_master_write_reg>
             0x00010296: 66 fb ec 8f: st8 (l3r)       r6, r5[r6]
             0x0001029a: 02 55:       stw (ru6)       r4, sp[0x2]
             0x0001029c: c1 55:       stw (ru6)       r7, sp[0x1]
             0x0001029e: 84 91:       add (2rus)      r0, r9, 0x0
             0x000102a0: 90 91:       add (2rus)      r1, r8, 0x0
             0x000102a2: e4 90:       add (2rus)      r2, r5, 0x0
             0x000102a4: f0 90:       add (2rus)      r3, r4, 0x0
             0x000102a6: 00 f0 44 d1: bl (lu10)       0x144 <i2c_master_write_reg>
             0x000102aa: 66 fb ec 8f: st8 (l3r)       r6, r5[r6]
             0x000102ae: 02 55:       stw (ru6)       r4, sp[0x2]
             0x000102b0: c1 55:       stw (ru6)       r7, sp[0x1]
             0x000102b2: 02 6a:       ldc (ru6)       r8, 0x2
             0x000102b4: 88 91:       add (2rus)      r0, r10, 0x0
             0x000102b6: 90 91:       add (2rus)      r1, r8, 0x0
             0x000102b8: e4 90:       add (2rus)      r2, r5, 0x0
             0x000102ba: f0 90:       add (2rus)      r3, r4, 0x0
             0x000102bc: 00 f0 39 d1: bl (lu10)       0x139 <i2c_master_write_reg>
             0x000102c0: 66 fb ec 8f: st8 (l3r)       r6, r5[r6]
             0x000102c4: 02 55:       stw (ru6)       r4, sp[0x2]
             0x000102c6: c1 55:       stw (ru6)       r7, sp[0x1]
             0x000102c8: 84 91:       add (2rus)      r0, r9, 0x0
             0x000102ca: 90 91:       add (2rus)      r1, r8, 0x0
             0x000102cc: e4 90:       add (2rus)      r2, r5, 0x0
             0x000102ce: f0 90:       add (2rus)      r3, r4, 0x0
             0x000102d0: 00 f0 2f d1: bl (lu10)       0x12f <i2c_master_write_reg>
             0x000102d4: 03 5c:       ldw (ru6)       r0, sp[0x3]
             0x000102d6: e0 17:       freer (1r)      res[r0]
             0x000102d8: 85 5e:       ldw (ru6)       r10, sp[0x5]
             0x000102da: 46 5e:       ldw (ru6)       r9, sp[0x6]
             0x000102dc: 07 5e:       ldw (ru6)       r8, sp[0x7]
             0x000102de: c8 5d:       ldw (ru6)       r7, sp[0x8]
             0x000102e0: 89 5d:       ldw (ru6)       r6, sp[0x9]
             0x000102e2: 4a 5d:       ldw (ru6)       r5, sp[0xa]
             0x000102e4: 0b 5d:       ldw (ru6)       r4, sp[0xb]
             0x000102e6: cc 77:       retsp (u6)      0xc

<__main_xm_0>:
             0x000102e8: 41 77:       entsp (u6)      0x1
             0x000102ea: 00 f0 21 d5: bl (lu10)       -0x121 <audio_io>
             0x000102ee: c1 77:       retsp (u6)      0x1

<i2s_master>:
             0x000102f0: 48 77:       entsp (u6)      0x8
             0x000102f2: 07 55:       stw (ru6)       r4, sp[0x7]
             0x000102f4: 46 55:       stw (ru6)       r5, sp[0x6]
             0x000102f6: 85 55:       stw (ru6)       r6, sp[0x5]
             0x000102f8: b4 90:       add (2rus)      r11, r1, 0x0
             0x000102fa: 19 b0:       eq (2rus)       r1, r2, 0x1
             0x000102fc: 4e 78:       bf (ru6)        r1, 0xe <.label7>
             0x000102fe: 13 08:       ldw (2rus)      r1, r0[0x3]
             0x00010300: 70 0a:       ldw (2rus)      r3, r0[0x4]
.label8      0x00010302: 11 a7:       mkmsk (rus)     r4, 0x1
             0x00010304: 04 55:       stw (ru6)       r4, sp[0x4]
             0x00010306: 03 55:       stw (ru6)       r4, sp[0x3]
             0x00010308: 82 54:       stw (ru6)       r2, sp[0x2]
             0x0001030a: 41 54:       stw (ru6)       r1, sp[0x1]
             0x0001030c: 61 fa ec 9f: ldaw (l2rus)    r2, r0[0x5]
             0x00010310: 52 fa ec 9f: ldaw (l2rus)    r1, r0[0x6]
             0x00010314: 08 90:       add (2rus)      r0, r2, 0x0
             0x00010316: ac 91:       add (2rus)      r2, r11, 0x0
             0x00010318: 16 d0:       bl (u10)        0x16 <i2s_master_loop>
.label7      0x0001031a: 12 08:       ldw (2rus)      r1, r0[0x2]
             0x0001031c: 40 08:       ldw (2rus)      r4, r0[0x0]
             0x0001031e: 94 ff ec 0f: setclk (lr2r)   res[r4], r1
             0x00010322: 13 08:       ldw (2rus)      r1, r0[0x3]
             0x00010324: 51 08:       ldw (2rus)      r5, r0[0x1]
             0x00010326: 95 ff ec 0f: setclk (lr2r)   res[r5], r1
             0x0001032a: 11 ff ec 0f: setclk (lr2r)   res[r1], r4
             0x0001032e: 70 0a:       ldw (2rus)      r3, r0[0x4]
             0x00010330: 17 ff ec 0f: setclk (lr2r)   res[r3], r5
             0x00010334: a1 0a:       ldw (2rus)      r6, r0[0x5]
             0x00010336: d6 ff ec 0f: setclk (lr2r)   res[r6], r5
             0x0001033a: a2 0a:       ldw (2rus)      r6, r0[0x6]
             0x0001033c: d6 ff ec 0f: setclk (lr2r)   res[r6], r5
             0x00010340: 0f e9:       setc (ru6)      res[r4], 0xf
             0x00010342: 4f e9:       setc (ru6)      res[r5], 0xf
             0x00010344: 22 77:       bu (u6)         -0x22 <.label8>

<i2s_master_loop>:
             0x00010346: 4a 77:       entsp (u6)      0xa
             0x00010348: 09 55:       stw (ru6)       r4, sp[0x9]
             0x0001034a: 48 55:       stw (ru6)       r5, sp[0x8]
             0x0001034c: 87 55:       stw (ru6)       r6, sp[0x7]
             0x0001034e: c6 55:       stw (ru6)       r7, sp[0x6]
             0x00010350: 05 56:       stw (ru6)       r8, sp[0x5]
             0x00010352: 44 56:       stw (ru6)       r9, sp[0x4]
             0x00010354: c0 69:       ldc (ru6)       r7, 0x0
             0x00010356: c2 55:       stw (ru6)       r7, sp[0x2]
             0x00010358: c3 55:       stw (ru6)       r7, sp[0x3]
             0x0001035a: c0 55:       stw (ru6)       r7, sp[0x0]
             0x0001035c: c1 55:       stw (ru6)       r7, sp[0x1]
             0x0001035e: ce 5e:       ldw (ru6)       r11, sp[0xe]
             0x00010360: eb 4f:       ecallf (1r)     r11
             0x00010362: cd 5e:       ldw (ru6)       r11, sp[0xd]
             0x00010364: 14 08:       ldw (2rus)      r1, r1[0x0]
             0x00010366: 20 69:       ldc (ru6)       r4, 0x20
             0x00010368: 11 3f:       setpt (r2r)     res[r1], r4
             0x0001036a: 0d af:       out (r2r)       res[r1], r7
             0x0001036c: eb 4f:       ecallf (1r)     r11
             0x0001036e: cc 5e:       ldw (ru6)       r11, sp[0xc]
             0x00010370: 0b 5d:       ldw (ru6)       r4, sp[0xb]
             0x00010372: 00 08:       ldw (2rus)      r0, r0[0x0]
             0x00010374: d6 a7:       mkmsk (rus)     r5, 0x6
             0x00010376: 14 3f:       setpt (r2r)     res[r0], r5
             0x00010378: d5 a7:       mkmsk (rus)     r5, 0x5
             0x0001037a: 17 3f:       setpt (r2r)     res[r3], r5
             0x0001037c: 0f af:       out (r2r)       res[r3], r7
             0x0001037e: 5c b6:       eq (2rus)       r5, r11, 0x8
             0x00010380: 19 a7:       mkmsk (rus)     r6, 0x1
             0x00010382: 5b 71:       bt (ru6)        r5, 0x1b <.label9>
             0x00010384: 4c b4:       eq (2rus)       r8, r11, 0x4
             0x00010386: 0c 72:       bt (ru6)        r8, 0xc <.label10>
             0x00010388: 1e b2:       eq (2rus)       r9, r11, 0x2
             0x0001038a: 48 91:       add (2rus)      r8, r6, 0x0
             0x0001038c: 76 7a:       bf (ru6)        r9, 0x36 <.label11>
             0x0001038e: 00 f0 c9 6d: ldw (lru6)      r7, cp[0x9]
             0x00010392: cc af:       out (r2r)       res[r4], r7
             0x00010394: cc af:       out (r2r)       res[r4], r7
             0x00010396: cc af:       out (r2r)       res[r4], r7
             0x00010398: cc af:       out (r2r)       res[r4], r7
             0x0001039a: 51 a7:       mkmsk (rus)     r8, 0x1
             0x0001039c: c0 69:       ldc (ru6)       r7, 0x0
             0x0001039e: 2d 73:       bu (u6)         0x2d <.label11>
.label10     0x000103a0: 00 f0 c8 6d: ldw (lru6)      r7, cp[0x8]
             0x000103a4: cc af:       out (r2r)       res[r4], r7
             0x000103a6: cc af:       out (r2r)       res[r4], r7
             0x000103a8: cc af:       out (r2r)       res[r4], r7
             0x000103aa: cc af:       out (r2r)       res[r4], r7
             0x000103ac: cc af:       out (r2r)       res[r4], r7
             0x000103ae: cc af:       out (r2r)       res[r4], r7
             0x000103b0: cc af:       out (r2r)       res[r4], r7
             0x000103b2: cc af:       out (r2r)       res[r4], r7
             0x000103b4: 51 a7:       mkmsk (rus)     r8, 0x1
             0x000103b6: c0 69:       ldc (ru6)       r7, 0x0
             0x000103b8: 20 73:       bu (u6)         0x20 <.label11>
.label9      0x000103ba: 00 f0 c7 6d: ldw (lru6)      r7, cp[0x7]
             0x000103be: cc af:       out (r2r)       res[r4], r7
             0x000103c0: cc af:       out (r2r)       res[r4], r7
             0x000103c2: cc af:       out (r2r)       res[r4], r7
             0x000103c4: cc af:       out (r2r)       res[r4], r7
             0x000103c6: cc af:       out (r2r)       res[r4], r7
             0x000103c8: cc af:       out (r2r)       res[r4], r7
             0x000103ca: cc af:       out (r2r)       res[r4], r7
             0x000103cc: cc af:       out (r2r)       res[r4], r7
             0x000103ce: cc af:       out (r2r)       res[r4], r7
             0x000103d0: cc af:       out (r2r)       res[r4], r7
             0x000103d2: cc af:       out (r2r)       res[r4], r7
             0x000103d4: cc af:       out (r2r)       res[r4], r7
             0x000103d6: cc af:       out (r2r)       res[r4], r7
             0x000103d8: cc af:       out (r2r)       res[r4], r7
             0x000103da: cc af:       out (r2r)       res[r4], r7
             0x000103dc: cc af:       out (r2r)       res[r4], r7
             0x000103de: 51 a7:       mkmsk (rus)     r8, 0x1
             0x000103e0: c0 69:       ldc (ru6)       r7, 0x0
             0x000103e2: 0b 73:       bu (u6)         0xb <.label11>
.label16     0x000103e4: 00 f0 07 6e: ldw (lru6)      r8, cp[0x7]
             0x000103e8: e0 ae:       out (r2r)       res[r4], r8
             0x000103ea: e0 ae:       out (r2r)       res[r4], r8
             0x000103ec: e0 ae:       out (r2r)       res[r4], r8
             0x000103ee: e0 ae:       out (r2r)       res[r4], r8
             0x000103f0: e0 ae:       out (r2r)       res[r4], r8
             0x000103f2: e0 ae:       out (r2r)       res[r4], r8
             0x000103f4: e0 ae:       out (r2r)       res[r4], r8
             0x000103f6: e0 ae:       out (r2r)       res[r4], r8
             0x000103f8: 51 a7:       mkmsk (rus)     r8, 0x1
.label11     0x000103fa: 0e af:       out (r2r)       res[r2], r7
             0x000103fc: b8 c5:       lss (3r)        r7, r6, r8
             0x000103fe: c4 71:       bt (ru6)        r7, 0x4 <.label12>
             0x00010400: c2 65:       ldaw (ru6)      r7, sp[0x2]
             0x00010402: bc 4d:       ldw (3r)        r7, r7[r8]
             0x00010404: 01 92:       add (2rus)      r8, r8, 0x1
             0x00010406: 07 77:       bu (u6)         -0x7 <.label11>
.label12     0x00010408: 0e b7:       in (2r)         r7, res[r2]
             0x0001040a: c0 55:       stw (ru6)       r7, sp[0x0]
             0x0001040c: 42 b7:       in (2r)         r8, res[r2]
             0x0001040e: 01 56:       stw (ru6)       r8, sp[0x1]
             0x00010410: cf ff ec 07: bitrev (l2r)    r7, r7
             0x00010414: 0d af:       out (r2r)       res[r1], r7
             0x00010416: 0c b7:       in (2r)         r7, res[r0]
             0x00010418: cf ff ec 07: bitrev (l2r)    r7, r7
             0x0001041c: c2 55:       stw (ru6)       r7, sp[0x2]
             0x0001041e: 40 6a:       ldc (ru6)       r9, 0x0
             0x00010420: 47 af:       out (r2r)       res[r3], r9
             0x00010422: 50 71:       bt (ru6)        r5, 0x10 <.label13>
             0x00010424: 5c b4:       eq (2rus)       r9, r11, 0x4
             0x00010426: 47 72:       bt (ru6)        r9, 0x7 <.label14>
             0x00010428: 1e b2:       eq (2rus)       r9, r11, 0x2
             0x0001042a: 56 7a:       bf (ru6)        r9, 0x16 <.label15>
             0x0001042c: 00 f0 49 6e: ldw (lru6)      r9, cp[0x9]
             0x00010430: e4 ae:       out (r2r)       res[r4], r9
             0x00010432: e4 ae:       out (r2r)       res[r4], r9
             0x00010434: 11 73:       bu (u6)         0x11 <.label15>
.label14     0x00010436: 00 f0 48 6e: ldw (lru6)      r9, cp[0x8]
             0x0001043a: e4 ae:       out (r2r)       res[r4], r9
             0x0001043c: e4 ae:       out (r2r)       res[r4], r9
             0x0001043e: e4 ae:       out (r2r)       res[r4], r9
             0x00010440: e4 ae:       out (r2r)       res[r4], r9
             0x00010442: 0a 73:       bu (u6)         0xa <.label15>
.label13     0x00010444: 00 f0 47 6e: ldw (lru6)      r9, cp[0x7]
             0x00010448: e4 ae:       out (r2r)       res[r4], r9
             0x0001044a: e4 ae:       out (r2r)       res[r4], r9
             0x0001044c: e4 ae:       out (r2r)       res[r4], r9
             0x0001044e: e4 ae:       out (r2r)       res[r4], r9
             0x00010450: e4 ae:       out (r2r)       res[r4], r9
             0x00010452: e4 ae:       out (r2r)       res[r4], r9
             0x00010454: e4 ae:       out (r2r)       res[r4], r9
             0x00010456: e4 ae:       out (r2r)       res[r4], r9
.label15     0x00010458: a0 ff ec 07: bitrev (l2r)    r8, r8
             0x0001045c: 41 af:       out (r2r)       res[r1], r8
             0x0001045e: 40 b7:       in (2r)         r8, res[r0]
             0x00010460: a0 ff ec 07: bitrev (l2r)    r8, r8
             0x00010464: 03 56:       stw (ru6)       r8, sp[0x3]
             0x00010466: 50 a7:       mkmsk (rus)     r8, 0x20
             0x00010468: 43 af:       out (r2r)       res[r3], r8
             0x0001046a: 01 f0 45 75: bt (lru6)       r5, -0x45 <.label16>
             0x0001046e: 4c b4:       eq (2rus)       r8, r11, 0x4
             0x00010470: 0a 72:       bt (ru6)        r8, 0xa <.label17>
             0x00010472: 51 a7:       mkmsk (rus)     r8, 0x1
             0x00010474: 1e b2:       eq (2rus)       r9, r11, 0x2
             0x00010476: 7f 7e:       bf (ru6)        r9, -0x3f <.label11>
             0x00010478: 00 f0 09 6e: ldw (lru6)      r8, cp[0x9]
             0x0001047c: e0 ae:       out (r2r)       res[r4], r8
             0x0001047e: e0 ae:       out (r2r)       res[r4], r8
             0x00010480: 51 a7:       mkmsk (rus)     r8, 0x1
             0x00010482: 01 f0 06 77: bu (lu6)        -0x46 <.label11>
.label17     0x00010486: 00 f0 08 6e: ldw (lru6)      r8, cp[0x8]
             0x0001048a: e0 ae:       out (r2r)       res[r4], r8
             0x0001048c: e0 ae:       out (r2r)       res[r4], r8
             0x0001048e: e0 ae:       out (r2r)       res[r4], r8
             0x00010490: e0 ae:       out (r2r)       res[r4], r8
             0x00010492: 51 a7:       mkmsk (rus)     r8, 0x1
             0x00010494: 01 f0 0f 77: bu (lu6)        -0x4f <.label11>

<i2c_master_init>:
             0x00010498: 01 e8:       setc (ru6)      res[r0], 0x1
             0x0001049a: c0 b6:       in (2r)         r0, res[r0]
             0x0001049c: c0 77:       retsp (u6)      0x0

<i2c_master_rx>:
             0x0001049e: 46 77:       entsp (u6)      0x6
             0x000104a0: 05 55:       stw (ru6)       r4, sp[0x5]
             0x000104a2: 44 55:       stw (ru6)       r5, sp[0x4]
             0x000104a4: 83 55:       stw (ru6)       r6, sp[0x3]
             0x000104a6: c2 55:       stw (ru6)       r7, sp[0x2]
             0x000104a8: 01 56:       stw (ru6)       r8, sp[0x1]
             0x000104aa: 5c 90:       add (2rus)      r5, r3, 0x0
             0x000104ac: 44 90:       add (2rus)      r4, r1, 0x0
             0x000104ae: 60 90:       add (2rus)      r6, r0, 0x0
             0x000104b0: c4 90:       add (2rus)      r0, r5, 0x0
             0x000104b2: a9 d0:       bl (u10)        0xa9 <startBit>
             0x000104b4: d1 a6:       mkmsk (rus)     r0, 0x1
             0x000104b6: d8 40:       or (3r)         r1, r6, r0
             0x000104b8: c4 90:       add (2rus)      r0, r5, 0x0
             0x000104ba: e3 d0:       bl (u10)        0xe3 <tx8>
             0x000104bc: 80 69:       ldc (ru6)       r6, 0x0
             0x000104be: 08 6a:       ldc (ru6)       r8, 0x8
             0x000104c0: c7 5d:       ldw (ru6)       r7, sp[0x7]
             0x000104c2: d8 90:       add (2rus)      r1, r6, 0x0
.label18     0x000104c4: c4 90:       add (2rus)      r0, r5, 0x0
             0x000104c6: 6b d0:       bl (u10)        0x6b <highPulseSample>
             0x000104c8: 10 90:       add (2rus)      r1, r0, 0x0
             0x000104ca: 04 b0:       eq (2rus)       r0, r1, 0x0
             0x000104cc: 00 b0:       eq (2rus)       r0, r0, 0x0
             0x000104ce: e9 a0:       shl (2rus)      r2, r6, 0x1
             0x000104d0: 62 40:       or (3r)         r6, r0, r2
             0x000104d2: 01 9a:       sub (2rus)      r8, r8, 0x1
             0x000104d4: 09 76:       bt (ru6)        r8, -0x9 <.label18>
             0x000104d6: c4 90:       add (2rus)      r0, r5, 0x0
             0x000104d8: 62 d0:       bl (u10)        0x62 <highPulseSample>
             0x000104da: c4 90:       add (2rus)      r0, r5, 0x0
             0x000104dc: b2 d0:       bl (u10)        0xb2 <stopBit>
             0x000104de: e7 4f:       ecallf (1r)     r7
             0x000104e0: 00 68:       ldc (ru6)       r0, 0x0
             0x000104e2: 20 f9 ec 8f: st8 (l3r)       r6, r4[r0]
             0x000104e6: d1 a6:       mkmsk (rus)     r0, 0x1
             0x000104e8: 01 5e:       ldw (ru6)       r8, sp[0x1]
             0x000104ea: c2 5d:       ldw (ru6)       r7, sp[0x2]
             0x000104ec: 83 5d:       ldw (ru6)       r6, sp[0x3]
             0x000104ee: 44 5d:       ldw (ru6)       r5, sp[0x4]
             0x000104f0: 05 5d:       ldw (ru6)       r4, sp[0x5]
             0x000104f2: c6 77:       retsp (u6)      0x6

<i2c_master_read_reg>:
             0x000104f4: 46 77:       entsp (u6)      0x6
             0x000104f6: 05 55:       stw (ru6)       r4, sp[0x5]
             0x000104f8: 44 55:       stw (ru6)       r5, sp[0x4]
             0x000104fa: 83 55:       stw (ru6)       r6, sp[0x3]
             0x000104fc: c2 55:       stw (ru6)       r7, sp[0x2]
             0x000104fe: 48 90:       add (2rus)      r4, r2, 0x0
             0x00010500: 74 90:       add (2rus)      r7, r1, 0x0
             0x00010502: 60 90:       add (2rus)      r6, r0, 0x0
             0x00010504: 47 5d:       ldw (ru6)       r5, sp[0x7]
             0x00010506: c4 90:       add (2rus)      r0, r5, 0x0
             0x00010508: 7e d0:       bl (u10)        0x7e <startBit>
             0x0001050a: c4 90:       add (2rus)      r0, r5, 0x0
             0x0001050c: d8 90:       add (2rus)      r1, r6, 0x0
             0x0001050e: b9 d0:       bl (u10)        0xb9 <tx8>
             0x00010510: c4 90:       add (2rus)      r0, r5, 0x0
             0x00010512: dc 90:       add (2rus)      r1, r7, 0x0
             0x00010514: b6 d0:       bl (u10)        0xb6 <tx8>
             0x00010516: c4 90:       add (2rus)      r0, r5, 0x0
             0x00010518: 94 d0:       bl (u10)        0x94 <stopBit>
             0x0001051a: 08 5c:       ldw (ru6)       r0, sp[0x8]
             0x0001051c: 01 54:       stw (ru6)       r0, sp[0x1]
             0x0001051e: c8 90:       add (2rus)      r0, r6, 0x0
             0x00010520: d0 90:       add (2rus)      r1, r4, 0x0
             0x00010522: f4 90:       add (2rus)      r3, r5, 0x0
             0x00010524: 44 d4:       bl (u10)        -0x44 <i2c_master_rx>
             0x00010526: d1 a6:       mkmsk (rus)     r0, 0x1
             0x00010528: c2 5d:       ldw (ru6)       r7, sp[0x2]
             0x0001052a: 83 5d:       ldw (ru6)       r6, sp[0x3]
             0x0001052c: 44 5d:       ldw (ru6)       r5, sp[0x4]
             0x0001052e: 05 5d:       ldw (ru6)       r4, sp[0x5]
             0x00010530: c6 77:       retsp (u6)      0x6

<i2c_master_write_reg>:
             0x00010532: 45 77:       entsp (u6)      0x5
             0x00010534: 04 55:       stw (ru6)       r4, sp[0x4]
             0x00010536: 43 55:       stw (ru6)       r5, sp[0x3]
             0x00010538: 82 55:       stw (ru6)       r6, sp[0x2]
             0x0001053a: c1 55:       stw (ru6)       r7, sp[0x1]
             0x0001053c: 54 90:       add (2rus)      r5, r1, 0x0
             0x0001053e: 70 90:       add (2rus)      r7, r0, 0x0
             0x00010540: 07 5c:       ldw (ru6)       r0, sp[0x7]
             0x00010542: e0 4f:       ecallf (1r)     r0
             0x00010544: 06 5d:       ldw (ru6)       r4, sp[0x6]
             0x00010546: 00 68:       ldc (ru6)       r0, 0x0
             0x00010548: 68 88:       ld8u (3r)       r6, r2[r0]
             0x0001054a: c0 90:       add (2rus)      r0, r4, 0x0
             0x0001054c: 5c d0:       bl (u10)        0x5c <startBit>
             0x0001054e: c0 90:       add (2rus)      r0, r4, 0x0
             0x00010550: dc 90:       add (2rus)      r1, r7, 0x0
             0x00010552: 97 d0:       bl (u10)        0x97 <tx8>
             0x00010554: 70 90:       add (2rus)      r7, r0, 0x0
             0x00010556: c0 90:       add (2rus)      r0, r4, 0x0
             0x00010558: d4 90:       add (2rus)      r1, r5, 0x0
             0x0001055a: 93 d0:       bl (u10)        0x93 <tx8>
             0x0001055c: 93 42:       or (3r)         r5, r0, r7
             0x0001055e: c0 90:       add (2rus)      r0, r4, 0x0
             0x00010560: d8 90:       add (2rus)      r1, r6, 0x0
             0x00010562: 8f d0:       bl (u10)        0x8f <tx8>
             0x00010564: c4 40:       or (3r)         r0, r5, r0
             0x00010566: 50 b0:       eq (2rus)       r5, r0, 0x0
             0x00010568: c0 90:       add (2rus)      r0, r4, 0x0
             0x0001056a: 6b d0:       bl (u10)        0x6b <stopBit>
             0x0001056c: c4 90:       add (2rus)      r0, r5, 0x0
             0x0001056e: c1 5d:       ldw (ru6)       r7, sp[0x1]
             0x00010570: 82 5d:       ldw (ru6)       r6, sp[0x2]
             0x00010572: 43 5d:       ldw (ru6)       r5, sp[0x3]
             0x00010574: 04 5d:       ldw (ru6)       r4, sp[0x4]
             0x00010576: c5 77:       retsp (u6)      0x5

<waitHalf>:
             0x00010578: c5 86:       getr (rus)      r1, 0x1
             0x0001057a: 41 e8:       setc (ru6)      res[r1], 0x1
             0x0001057c: c9 b6:       in (2r)         r2, res[r1]
             0x0001057e: 27 f0 04 68: ldc (lru6)      r0, 0x9c4
             0x00010582: 28 10:       add (3r)        r2, r2, r0
             0x00010584: d9 16:       setd (r2r)      res[r1], r2
             0x00010586: 49 e8:       setc (ru6)      res[r1], 0x9
             0x00010588: c9 b6:       in (2r)         r2, res[r1]
             0x0001058a: e1 17:       freer (1r)      res[r1]
             0x0001058c: c5 86:       getr (rus)      r1, 0x1
             0x0001058e: 41 e8:       setc (ru6)      res[r1], 0x1
             0x00010590: c9 b6:       in (2r)         r2, res[r1]
             0x00010592: 08 10:       add (3r)        r0, r2, r0
             0x00010594: d1 16:       setd (r2r)      res[r1], r0
             0x00010596: 49 e8:       setc (ru6)      res[r1], 0x9
             0x00010598: c1 b6:       in (2r)         r0, res[r1]
             0x0001059a: e1 17:       freer (1r)      res[r1]
             0x0001059c: c0 77:       retsp (u6)      0x0

<highPulseSample>:
             0x0001059e: 41 77:       entsp (u6)      0x1
             0x000105a0: 00 55:       stw (ru6)       r4, sp[0x0]
             0x000105a2: 8c 68:       ldc (ru6)       r2, 0xc
             0x000105a4: 42 78:       bf (ru6)        r1, 0x2 <.label19>
             0x000105a6: 4e 68:       ldc (ru6)       r1, 0xe
             0x000105a8: 01 73:       bu (u6)         0x1 <.label20>
.label19     0x000105aa: 18 90:       add (2rus)      r1, r2, 0x0
.label20     0x000105ac: c4 ae:       out (r2r)       res[r0], r1
             0x000105ae: c5 86:       getr (rus)      r1, 0x1
             0x000105b0: 41 e8:       setc (ru6)      res[r1], 0x1
             0x000105b2: 4d b7:       in (2r)         r11, res[r1]
             0x000105b4: 27 f0 c4 68: ldc (lru6)      r3, 0x9c4
             0x000105b8: 3f 12:       add (3r)        r11, r11, r3
             0x000105ba: 5d 17:       setd (r2r)      res[r1], r11
             0x000105bc: 49 e8:       setc (ru6)      res[r1], 0x9
             0x000105be: 4d b7:       in (2r)         r11, res[r1]
             0x000105c0: e1 17:       freer (1r)      res[r1]
             0x000105c2: 01 e8:       setc (ru6)      res[r0], 0x1
             0x000105c4: c4 b6:       in (2r)         r1, res[r0]
             0x000105c6: c5 86:       getr (rus)      r1, 0x1
             0x000105c8: 41 e8:       setc (ru6)      res[r1], 0x1
             0x000105ca: 4d b7:       in (2r)         r11, res[r1]
             0x000105cc: 3f 12:       add (3r)        r11, r11, r3
             0x000105ce: 5d 17:       setd (r2r)      res[r1], r11
             0x000105d0: 49 e8:       setc (ru6)      res[r1], 0x9
             0x000105d2: 4d b7:       in (2r)         r11, res[r1]
             0x000105d4: e1 17:       freer (1r)      res[r1]
             0x000105d6: c4 be:       peek (2r)       r1, res[r0]
             0x000105d8: 4d 87:       getr (rus)      r11, 0x1
             0x000105da: c1 ea:       setc (ru6)      res[r11], 0x1
             0x000105dc: 63 b7:       in (2r)         r4, res[r11]
             0x000105de: 03 11:       add (3r)        r4, r4, r3
             0x000105e0: 73 17:       setd (r2r)      res[r11], r4
             0x000105e2: 02 69:       ldc (ru6)       r4, 0x2
             0x000105e4: 54 3a:       and (3r)        r1, r1, r4
             0x000105e6: 26 40:       or (3r)         r2, r1, r2
             0x000105e8: c9 ea:       setc (ru6)      res[r11], 0x9
             0x000105ea: 63 b7:       in (2r)         r4, res[r11]
             0x000105ec: eb 17:       freer (1r)      res[r11]
             0x000105ee: c8 ae:       out (r2r)       res[r0], r2
             0x000105f0: c1 86:       getr (rus)      r0, 0x1
             0x000105f2: 01 e8:       setc (ru6)      res[r0], 0x1
             0x000105f4: c8 b6:       in (2r)         r2, res[r0]
             0x000105f6: 2b 10:       add (3r)        r2, r2, r3
             0x000105f8: d8 16:       setd (r2r)      res[r0], r2
             0x000105fa: 09 e8:       setc (ru6)      res[r0], 0x9
             0x000105fc: c8 b6:       in (2r)         r2, res[r0]
             0x000105fe: e0 17:       freer (1r)      res[r0]
             0x00010600: 04 90:       add (2rus)      r0, r1, 0x0
             0x00010602: 00 5d:       ldw (ru6)       r4, sp[0x0]
             0x00010604: c1 77:       retsp (u6)      0x1

<startBit>:
             0x00010606: 43 77:       entsp (u6)      0x3
             0x00010608: 02 55:       stw (ru6)       r4, sp[0x2]
             0x0001060a: 41 55:       stw (ru6)       r5, sp[0x1]
             0x0001060c: 40 90:       add (2rus)      r4, r0, 0x0
             0x0001060e: c1 86:       getr (rus)      r0, 0x1
             0x00010610: 01 e8:       setc (ru6)      res[r0], 0x1
             0x00010612: c4 b6:       in (2r)         r1, res[r0]
             0x00010614: 27 f0 44 69: ldc (lru6)      r5, 0x9c4
             0x00010618: 55 12:       add (3r)        r1, r1, r5
             0x0001061a: d4 16:       setd (r2r)      res[r0], r1
             0x0001061c: 09 e8:       setc (ru6)      res[r0], 0x9
             0x0001061e: c4 b6:       in (2r)         r1, res[r0]
             0x00010620: e0 17:       freer (1r)      res[r0]
             0x00010622: 0d 68:       ldc (ru6)       r0, 0xd
             0x00010624: 80 af:       out (r2r)       res[r4], r0
             0x00010626: 58 d4:       bl (u10)        -0x58 <waitHalf>
             0x00010628: 0c 68:       ldc (ru6)       r0, 0xc
             0x0001062a: 80 af:       out (r2r)       res[r4], r0
             0x0001062c: c1 86:       getr (rus)      r0, 0x1
             0x0001062e: 01 e8:       setc (ru6)      res[r0], 0x1
             0x00010630: c4 b6:       in (2r)         r1, res[r0]
             0x00010632: 55 12:       add (3r)        r1, r1, r5
             0x00010634: d4 16:       setd (r2r)      res[r0], r1
             0x00010636: 09 e8:       setc (ru6)      res[r0], 0x9
             0x00010638: c4 b6:       in (2r)         r1, res[r0]
             0x0001063a: e0 17:       freer (1r)      res[r0]
             0x0001063c: 41 5d:       ldw (ru6)       r5, sp[0x1]
             0x0001063e: 02 5d:       ldw (ru6)       r4, sp[0x2]
             0x00010640: c3 77:       retsp (u6)      0x3

<stopBit>:
             0x00010642: 43 77:       entsp (u6)      0x3
             0x00010644: 02 55:       stw (ru6)       r4, sp[0x2]
             0x00010646: 41 55:       stw (ru6)       r5, sp[0x1]
             0x00010648: 40 90:       add (2rus)      r4, r0, 0x0
             0x0001064a: 0c 68:       ldc (ru6)       r0, 0xc
             0x0001064c: 80 af:       out (r2r)       res[r4], r0
             0x0001064e: c1 86:       getr (rus)      r0, 0x1
             0x00010650: 01 e8:       setc (ru6)      res[r0], 0x1
             0x00010652: c4 b6:       in (2r)         r1, res[r0]
             0x00010654: 27 f0 44 69: ldc (lru6)      r5, 0x9c4
             0x00010658: 55 12:       add (3r)        r1, r1, r5
             0x0001065a: d4 16:       setd (r2r)      res[r0], r1
             0x0001065c: 09 e8:       setc (ru6)      res[r0], 0x9
             0x0001065e: c4 b6:       in (2r)         r1, res[r0]
             0x00010660: e0 17:       freer (1r)      res[r0]
             0x00010662: 0d 68:       ldc (ru6)       r0, 0xd
             0x00010664: 80 af:       out (r2r)       res[r4], r0
             0x00010666: 78 d4:       bl (u10)        -0x78 <waitHalf>
             0x00010668: 01 e9:       setc (ru6)      res[r4], 0x1
             0x0001066a: 80 b7:       in (2r)         r0, res[r4]
             0x0001066c: c1 86:       getr (rus)      r0, 0x1
             0x0001066e: 01 e8:       setc (ru6)      res[r0], 0x1
             0x00010670: c4 b6:       in (2r)         r1, res[r0]
             0x00010672: 55 12:       add (3r)        r1, r1, r5
             0x00010674: d4 16:       setd (r2r)      res[r0], r1
             0x00010676: 09 e8:       setc (ru6)      res[r0], 0x9
             0x00010678: c4 b6:       in (2r)         r1, res[r0]
             0x0001067a: e0 17:       freer (1r)      res[r0]
             0x0001067c: 41 5d:       ldw (ru6)       r5, sp[0x1]
             0x0001067e: 02 5d:       ldw (ru6)       r4, sp[0x2]
             0x00010680: c3 77:       retsp (u6)      0x3

<tx8>:
             0x00010682: 48 77:       entsp (u6)      0x8
             0x00010684: 07 55:       stw (ru6)       r4, sp[0x7]
             0x00010686: 46 55:       stw (ru6)       r5, sp[0x6]
             0x00010688: 85 55:       stw (ru6)       r6, sp[0x5]
             0x0001068a: c4 55:       stw (ru6)       r7, sp[0x4]
             0x0001068c: 03 56:       stw (ru6)       r8, sp[0x3]
             0x0001068e: 42 56:       stw (ru6)       r9, sp[0x2]
             0x00010690: 81 56:       stw (ru6)       r10, sp[0x1]
             0x00010692: 40 90:       add (2rus)      r4, r0, 0x0
             0x00010694: c1 fe ec 07: bitrev (l2r)    r0, r1
             0x00010698: d2 ac:       shr (2rus)      r5, r0, 0x18
             0x0001069a: 88 69:       ldc (ru6)       r6, 0x8
             0x0001069c: cc 69:       ldc (ru6)       r7, 0xc
             0x0001069e: 27 f0 04 6a: ldc (lru6)      r8, 0x9c4
             0x000106a2: 4d 6a:       ldc (ru6)       r9, 0xd
             0x000106a4: 8e 6a:       ldc (ru6)       r10, 0xe
.label23     0x000106a6: c4 90:       add (2rus)      r0, r5, 0x0
             0x000106a8: d1 46:       zext (rus)      r0, 0x1
             0x000106aa: 16 78:       bf (ru6)        r0, 0x16 <.label21>
             0x000106ac: e8 ae:       out (r2r)       res[r4], r10
             0x000106ae: c1 86:       getr (rus)      r0, 0x1
             0x000106b0: 01 e8:       setc (ru6)      res[r0], 0x1
             0x000106b2: c4 b6:       in (2r)         r1, res[r0]
             0x000106b4: 94 14:       add (3r)        r1, r1, r8
             0x000106b6: d4 16:       setd (r2r)      res[r0], r1
             0x000106b8: 09 e8:       setc (ru6)      res[r0], 0x9
             0x000106ba: c4 b6:       in (2r)         r1, res[r0]
             0x000106bc: e0 17:       freer (1r)      res[r0]
             0x000106be: 01 e9:       setc (ru6)      res[r4], 0x1
             0x000106c0: 80 b7:       in (2r)         r0, res[r4]
             0x000106c2: a6 d4:       bl (u10)        -0xa6 <waitHalf>
             0x000106c4: e8 ae:       out (r2r)       res[r4], r10
             0x000106c6: c1 86:       getr (rus)      r0, 0x1
             0x000106c8: 01 e8:       setc (ru6)      res[r0], 0x1
             0x000106ca: c4 b6:       in (2r)         r1, res[r0]
             0x000106cc: 94 14:       add (3r)        r1, r1, r8
             0x000106ce: d4 16:       setd (r2r)      res[r0], r1
             0x000106d0: 09 e8:       setc (ru6)      res[r0], 0x9
             0x000106d2: c4 b6:       in (2r)         r1, res[r0]
             0x000106d4: e0 17:       freer (1r)      res[r0]
             0x000106d6: 14 73:       bu (u6)         0x14 <.label22>
.label21     0x000106d8: cc af:       out (r2r)       res[r4], r7
             0x000106da: c1 86:       getr (rus)      r0, 0x1
             0x000106dc: 01 e8:       setc (ru6)      res[r0], 0x1
             0x000106de: c4 b6:       in (2r)         r1, res[r0]
             0x000106e0: 94 14:       add (3r)        r1, r1, r8
             0x000106e2: d4 16:       setd (r2r)      res[r0], r1
             0x000106e4: 09 e8:       setc (ru6)      res[r0], 0x9
             0x000106e6: c4 b6:       in (2r)         r1, res[r0]
             0x000106e8: e0 17:       freer (1r)      res[r0]
             0x000106ea: e4 ae:       out (r2r)       res[r4], r9
             0x000106ec: bb d4:       bl (u10)        -0xbb <waitHalf>
             0x000106ee: cc af:       out (r2r)       res[r4], r7
             0x000106f0: c1 86:       getr (rus)      r0, 0x1
             0x000106f2: 01 e8:       setc (ru6)      res[r0], 0x1
             0x000106f4: c4 b6:       in (2r)         r1, res[r0]
             0x000106f6: 94 14:       add (3r)        r1, r1, r8
             0x000106f8: d4 16:       setd (r2r)      res[r0], r1
             0x000106fa: 09 e8:       setc (ru6)      res[r0], 0x9
             0x000106fc: c4 b6:       in (2r)         r1, res[r0]
             0x000106fe: e0 17:       freer (1r)      res[r0]
.label22     0x00010700: 29 99:       sub (2rus)      r6, r6, 0x1
             0x00010702: 15 a9:       shr (2rus)      r5, r5, 0x1
             0x00010704: b0 75:       bt (ru6)        r6, -0x30 <.label23>
             0x00010706: 40 68:       ldc (ru6)       r1, 0x0
             0x00010708: c0 90:       add (2rus)      r0, r4, 0x0
             0x0001070a: b7 d4:       bl (u10)        -0xb7 <highPulseSample>
             0x0001070c: 00 b0:       eq (2rus)       r0, r0, 0x0
             0x0001070e: 00 b0:       eq (2rus)       r0, r0, 0x0
             0x00010710: 81 5e:       ldw (ru6)       r10, sp[0x1]
             0x00010712: 42 5e:       ldw (ru6)       r9, sp[0x2]
             0x00010714: 03 5e:       ldw (ru6)       r8, sp[0x3]
             0x00010716: c4 5d:       ldw (ru6)       r7, sp[0x4]
             0x00010718: 85 5d:       ldw (ru6)       r6, sp[0x5]
             0x0001071a: 46 5d:       ldw (ru6)       r5, sp[0x6]
             0x0001071c: 07 5d:       ldw (ru6)       r4, sp[0x7]
             0x0001071e: c8 77:       retsp (u6)      0x8

<sdram_block_write_PINOUT_V0>:
             0x00010720: 00 55:       stw (ru6)       r4, sp[0x0]
             0x00010722: 10 a7:       mkmsk (rus)     r4, 0x20
             0x00010724: 81 9d:       sub (2rus)      r4, r4, 0x9
             0x00010726: 40 7f:       ldaw (u6)       r11, cp[0x0]
             0x00010728: f0 37:       set (1r)        cp, r0
             0x0001072a: 8c 91:       add (2rus)      r0, r11, 0x0
             0x0001072c: b4 90:       add (2rus)      r11, r1, 0x0
             0x0001072e: 00 90:       add (2rus)      r0, r0, 0x0
             0x00010730: 42 5c:       ldw (ru6)       r1, sp[0x2]
             0x00010732: eb 2f:       bru (1r)        r11
             0x00010734: c0 6e:       ldw (ru6)       r11, cp[0x0]
             0x00010736: 4e af:       out (r2r)       res[r2], r11
             0x00010738: c1 6e:       ldw (ru6)       r11, cp[0x1]
             0x0001073a: 4e af:       out (r2r)       res[r2], r11
             0x0001073c: c2 6e:       ldw (ru6)       r11, cp[0x2]
             0x0001073e: 4e af:       out (r2r)       res[r2], r11
             0x00010740: c3 6e:       ldw (ru6)       r11, cp[0x3]
             0x00010742: 4e af:       out (r2r)       res[r2], r11
             0x00010744: c4 6e:       ldw (ru6)       r11, cp[0x4]
             0x00010746: 4e af:       out (r2r)       res[r2], r11
             0x00010748: c5 6e:       ldw (ru6)       r11, cp[0x5]
             0x0001074a: 4e af:       out (r2r)       res[r2], r11
             0x0001074c: c6 6e:       ldw (ru6)       r11, cp[0x6]
             0x0001074e: 4e af:       out (r2r)       res[r2], r11
             0x00010750: c7 6e:       ldw (ru6)       r11, cp[0x7]
             0x00010752: 4e af:       out (r2r)       res[r2], r11
             0x00010754: c8 6e:       ldw (ru6)       r11, cp[0x8]
             0x00010756: 4e af:       out (r2r)       res[r2], r11
             0x00010758: c9 6e:       ldw (ru6)       r11, cp[0x9]
             0x0001075a: 4e af:       out (r2r)       res[r2], r11
             0x0001075c: ca 6e:       ldw (ru6)       r11, cp[0xa]
             0x0001075e: 4e af:       out (r2r)       res[r2], r11
             0x00010760: cb 6e:       ldw (ru6)       r11, cp[0xb]
             0x00010762: 4e af:       out (r2r)       res[r2], r11
             0x00010764: cc 6e:       ldw (ru6)       r11, cp[0xc]
             0x00010766: 4e af:       out (r2r)       res[r2], r11
             0x00010768: cd 6e:       ldw (ru6)       r11, cp[0xd]
             0x0001076a: 4e af:       out (r2r)       res[r2], r11
             0x0001076c: ce 6e:       ldw (ru6)       r11, cp[0xe]
             0x0001076e: 4e af:       out (r2r)       res[r2], r11
             0x00010770: cf 6e:       ldw (ru6)       r11, cp[0xf]
             0x00010772: 4e af:       out (r2r)       res[r2], r11
             0x00010774: d0 6e:       ldw (ru6)       r11, cp[0x10]
             0x00010776: 4e af:       out (r2r)       res[r2], r11
             0x00010778: d1 6e:       ldw (ru6)       r11, cp[0x11]
             0x0001077a: 4e af:       out (r2r)       res[r2], r11
             0x0001077c: d2 6e:       ldw (ru6)       r11, cp[0x12]
             0x0001077e: 4e af:       out (r2r)       res[r2], r11
             0x00010780: d3 6e:       ldw (ru6)       r11, cp[0x13]
             0x00010782: 4e af:       out (r2r)       res[r2], r11
             0x00010784: d4 6e:       ldw (ru6)       r11, cp[0x14]
             0x00010786: 4e af:       out (r2r)       res[r2], r11
             0x00010788: d5 6e:       ldw (ru6)       r11, cp[0x15]
             0x0001078a: 4e af:       out (r2r)       res[r2], r11
             0x0001078c: d6 6e:       ldw (ru6)       r11, cp[0x16]
             0x0001078e: 4e af:       out (r2r)       res[r2], r11
             0x00010790: d7 6e:       ldw (ru6)       r11, cp[0x17]
             0x00010792: 4e af:       out (r2r)       res[r2], r11
             0x00010794: d8 6e:       ldw (ru6)       r11, cp[0x18]
             0x00010796: 4e af:       out (r2r)       res[r2], r11
             0x00010798: d9 6e:       ldw (ru6)       r11, cp[0x19]
             0x0001079a: 4e af:       out (r2r)       res[r2], r11
             0x0001079c: da 6e:       ldw (ru6)       r11, cp[0x1a]
             0x0001079e: 4e af:       out (r2r)       res[r2], r11
             0x000107a0: db 6e:       ldw (ru6)       r11, cp[0x1b]
             0x000107a2: 4e af:       out (r2r)       res[r2], r11
             0x000107a4: dc 6e:       ldw (ru6)       r11, cp[0x1c]
             0x000107a6: 4e af:       out (r2r)       res[r2], r11
             0x000107a8: dd 6e:       ldw (ru6)       r11, cp[0x1d]
             0x000107aa: 4e af:       out (r2r)       res[r2], r11
             0x000107ac: de 6e:       ldw (ru6)       r11, cp[0x1e]
             0x000107ae: 4e af:       out (r2r)       res[r2], r11
             0x000107b0: df 6e:       ldw (ru6)       r11, cp[0x1f]
             0x000107b2: 4e af:       out (r2r)       res[r2], r11
             0x000107b4: e0 6e:       ldw (ru6)       r11, cp[0x20]
             0x000107b6: 4e af:       out (r2r)       res[r2], r11
             0x000107b8: e1 6e:       ldw (ru6)       r11, cp[0x21]
             0x000107ba: 4e af:       out (r2r)       res[r2], r11
             0x000107bc: e2 6e:       ldw (ru6)       r11, cp[0x22]
             0x000107be: 4e af:       out (r2r)       res[r2], r11
             0x000107c0: e3 6e:       ldw (ru6)       r11, cp[0x23]
             0x000107c2: 4e af:       out (r2r)       res[r2], r11
             0x000107c4: e4 6e:       ldw (ru6)       r11, cp[0x24]
             0x000107c6: 4e af:       out (r2r)       res[r2], r11
             0x000107c8: e5 6e:       ldw (ru6)       r11, cp[0x25]
             0x000107ca: 4e af:       out (r2r)       res[r2], r11
             0x000107cc: e6 6e:       ldw (ru6)       r11, cp[0x26]
             0x000107ce: 4e af:       out (r2r)       res[r2], r11
             0x000107d0: e7 6e:       ldw (ru6)       r11, cp[0x27]
             0x000107d2: 4e af:       out (r2r)       res[r2], r11
             0x000107d4: e8 6e:       ldw (ru6)       r11, cp[0x28]
             0x000107d6: 4e af:       out (r2r)       res[r2], r11
             0x000107d8: e9 6e:       ldw (ru6)       r11, cp[0x29]
             0x000107da: 4e af:       out (r2r)       res[r2], r11
             0x000107dc: ea 6e:       ldw (ru6)       r11, cp[0x2a]
             0x000107de: 4e af:       out (r2r)       res[r2], r11
             0x000107e0: eb 6e:       ldw (ru6)       r11, cp[0x2b]
             0x000107e2: 4e af:       out (r2r)       res[r2], r11
             0x000107e4: ec 6e:       ldw (ru6)       r11, cp[0x2c]
             0x000107e6: 4e af:       out (r2r)       res[r2], r11
             0x000107e8: ed 6e:       ldw (ru6)       r11, cp[0x2d]
             0x000107ea: 4e af:       out (r2r)       res[r2], r11
             0x000107ec: ee 6e:       ldw (ru6)       r11, cp[0x2e]
             0x000107ee: 4e af:       out (r2r)       res[r2], r11
             0x000107f0: ef 6e:       ldw (ru6)       r11, cp[0x2f]
             0x000107f2: 4e af:       out (r2r)       res[r2], r11
             0x000107f4: f0 6e:       ldw (ru6)       r11, cp[0x30]
             0x000107f6: 4e af:       out (r2r)       res[r2], r11
             0x000107f8: f1 6e:       ldw (ru6)       r11, cp[0x31]
             0x000107fa: 4e af:       out (r2r)       res[r2], r11
             0x000107fc: f2 6e:       ldw (ru6)       r11, cp[0x32]
             0x000107fe: 4e af:       out (r2r)       res[r2], r11
             0x00010800: f3 6e:       ldw (ru6)       r11, cp[0x33]
             0x00010802: 4e af:       out (r2r)       res[r2], r11
             0x00010804: f4 6e:       ldw (ru6)       r11, cp[0x34]
             0x00010806: 4e af:       out (r2r)       res[r2], r11
             0x00010808: f5 6e:       ldw (ru6)       r11, cp[0x35]
             0x0001080a: 4e af:       out (r2r)       res[r2], r11
             0x0001080c: f6 6e:       ldw (ru6)       r11, cp[0x36]
             0x0001080e: 4e af:       out (r2r)       res[r2], r11
             0x00010810: f7 6e:       ldw (ru6)       r11, cp[0x37]
             0x00010812: 4e af:       out (r2r)       res[r2], r11
             0x00010814: f8 6e:       ldw (ru6)       r11, cp[0x38]
             0x00010816: 4e af:       out (r2r)       res[r2], r11
             0x00010818: f9 6e:       ldw (ru6)       r11, cp[0x39]
             0x0001081a: 4e af:       out (r2r)       res[r2], r11
             0x0001081c: fa 6e:       ldw (ru6)       r11, cp[0x3a]
             0x0001081e: 4e af:       out (r2r)       res[r2], r11
             0x00010820: fb 6e:       ldw (ru6)       r11, cp[0x3b]
             0x00010822: 4e af:       out (r2r)       res[r2], r11
             0x00010824: fc 6e:       ldw (ru6)       r11, cp[0x3c]
             0x00010826: 4e af:       out (r2r)       res[r2], r11
             0x00010828: fd 6e:       ldw (ru6)       r11, cp[0x3d]
             0x0001082a: 4e af:       out (r2r)       res[r2], r11
             0x0001082c: fe 6e:       ldw (ru6)       r11, cp[0x3e]
             0x0001082e: 4e af:       out (r2r)       res[r2], r11
             0x00010830: ff 6e:       ldw (ru6)       r11, cp[0x3f]
             0x00010832: 4e af:       out (r2r)       res[r2], r11
             0x00010834: 40 e4:       ldw (u10)       r11, cp[0x40]
             0x00010836: 4e af:       out (r2r)       res[r2], r11
             0x00010838: 41 e4:       ldw (u10)       r11, cp[0x41]
             0x0001083a: 4e af:       out (r2r)       res[r2], r11
             0x0001083c: 42 e4:       ldw (u10)       r11, cp[0x42]
             0x0001083e: 4e af:       out (r2r)       res[r2], r11
             0x00010840: 43 e4:       ldw (u10)       r11, cp[0x43]
             0x00010842: 4e af:       out (r2r)       res[r2], r11
             0x00010844: 44 e4:       ldw (u10)       r11, cp[0x44]
             0x00010846: 4e af:       out (r2r)       res[r2], r11
             0x00010848: 45 e4:       ldw (u10)       r11, cp[0x45]
             0x0001084a: 4e af:       out (r2r)       res[r2], r11
             0x0001084c: 46 e4:       ldw (u10)       r11, cp[0x46]
             0x0001084e: 4e af:       out (r2r)       res[r2], r11
             0x00010850: 47 e4:       ldw (u10)       r11, cp[0x47]
             0x00010852: 4e af:       out (r2r)       res[r2], r11
             0x00010854: 48 e4:       ldw (u10)       r11, cp[0x48]
             0x00010856: 4e af:       out (r2r)       res[r2], r11
             0x00010858: 49 e4:       ldw (u10)       r11, cp[0x49]
             0x0001085a: 4e af:       out (r2r)       res[r2], r11
             0x0001085c: 4a e4:       ldw (u10)       r11, cp[0x4a]
             0x0001085e: 4e af:       out (r2r)       res[r2], r11
             0x00010860: 4b e4:       ldw (u10)       r11, cp[0x4b]
             0x00010862: 4e af:       out (r2r)       res[r2], r11
             0x00010864: 4c e4:       ldw (u10)       r11, cp[0x4c]
             0x00010866: 4e af:       out (r2r)       res[r2], r11
             0x00010868: 4d e4:       ldw (u10)       r11, cp[0x4d]
             0x0001086a: 4e af:       out (r2r)       res[r2], r11
             0x0001086c: 4e e4:       ldw (u10)       r11, cp[0x4e]
             0x0001086e: 4e af:       out (r2r)       res[r2], r11
             0x00010870: 4f e4:       ldw (u10)       r11, cp[0x4f]
             0x00010872: 4e af:       out (r2r)       res[r2], r11
             0x00010874: 50 e4:       ldw (u10)       r11, cp[0x50]
             0x00010876: 4e af:       out (r2r)       res[r2], r11
             0x00010878: 51 e4:       ldw (u10)       r11, cp[0x51]
             0x0001087a: 4e af:       out (r2r)       res[r2], r11
             0x0001087c: 52 e4:       ldw (u10)       r11, cp[0x52]
             0x0001087e: 4e af:       out (r2r)       res[r2], r11
             0x00010880: 53 e4:       ldw (u10)       r11, cp[0x53]
             0x00010882: 4e af:       out (r2r)       res[r2], r11
             0x00010884: 54 e4:       ldw (u10)       r11, cp[0x54]
             0x00010886: 4e af:       out (r2r)       res[r2], r11
             0x00010888: 55 e4:       ldw (u10)       r11, cp[0x55]
             0x0001088a: 4e af:       out (r2r)       res[r2], r11
             0x0001088c: 56 e4:       ldw (u10)       r11, cp[0x56]
             0x0001088e: 4e af:       out (r2r)       res[r2], r11
             0x00010890: 57 e4:       ldw (u10)       r11, cp[0x57]
             0x00010892: 4e af:       out (r2r)       res[r2], r11
             0x00010894: 58 e4:       ldw (u10)       r11, cp[0x58]
             0x00010896: 4e af:       out (r2r)       res[r2], r11
             0x00010898: 59 e4:       ldw (u10)       r11, cp[0x59]
             0x0001089a: 4e af:       out (r2r)       res[r2], r11
             0x0001089c: 5a e4:       ldw (u10)       r11, cp[0x5a]
             0x0001089e: 4e af:       out (r2r)       res[r2], r11
             0x000108a0: 5b e4:       ldw (u10)       r11, cp[0x5b]
             0x000108a2: 4e af:       out (r2r)       res[r2], r11
             0x000108a4: 5c e4:       ldw (u10)       r11, cp[0x5c]
             0x000108a6: 4e af:       out (r2r)       res[r2], r11
             0x000108a8: 5d e4:       ldw (u10)       r11, cp[0x5d]
             0x000108aa: 4e af:       out (r2r)       res[r2], r11
             0x000108ac: 5e e4:       ldw (u10)       r11, cp[0x5e]
             0x000108ae: 4e af:       out (r2r)       res[r2], r11
             0x000108b0: 5f e4:       ldw (u10)       r11, cp[0x5f]
             0x000108b2: 4e af:       out (r2r)       res[r2], r11
             0x000108b4: 60 e4:       ldw (u10)       r11, cp[0x60]
             0x000108b6: 4e af:       out (r2r)       res[r2], r11
             0x000108b8: 61 e4:       ldw (u10)       r11, cp[0x61]
             0x000108ba: 4e af:       out (r2r)       res[r2], r11
             0x000108bc: 62 e4:       ldw (u10)       r11, cp[0x62]
             0x000108be: 4e af:       out (r2r)       res[r2], r11
             0x000108c0: 63 e4:       ldw (u10)       r11, cp[0x63]
             0x000108c2: 4e af:       out (r2r)       res[r2], r11
             0x000108c4: 64 e4:       ldw (u10)       r11, cp[0x64]
             0x000108c6: 4e af:       out (r2r)       res[r2], r11
             0x000108c8: 65 e4:       ldw (u10)       r11, cp[0x65]
             0x000108ca: 4e af:       out (r2r)       res[r2], r11
             0x000108cc: 66 e4:       ldw (u10)       r11, cp[0x66]
             0x000108ce: 4e af:       out (r2r)       res[r2], r11
             0x000108d0: 67 e4:       ldw (u10)       r11, cp[0x67]
             0x000108d2: 4e af:       out (r2r)       res[r2], r11
             0x000108d4: 68 e4:       ldw (u10)       r11, cp[0x68]
             0x000108d6: 4e af:       out (r2r)       res[r2], r11
             0x000108d8: 69 e4:       ldw (u10)       r11, cp[0x69]
             0x000108da: 4e af:       out (r2r)       res[r2], r11
             0x000108dc: 6a e4:       ldw (u10)       r11, cp[0x6a]
             0x000108de: 4e af:       out (r2r)       res[r2], r11
             0x000108e0: 6b e4:       ldw (u10)       r11, cp[0x6b]
             0x000108e2: 4e af:       out (r2r)       res[r2], r11
             0x000108e4: 6c e4:       ldw (u10)       r11, cp[0x6c]
             0x000108e6: 4e af:       out (r2r)       res[r2], r11
             0x000108e8: 6d e4:       ldw (u10)       r11, cp[0x6d]
             0x000108ea: 4e af:       out (r2r)       res[r2], r11
             0x000108ec: 6e e4:       ldw (u10)       r11, cp[0x6e]
             0x000108ee: 4e af:       out (r2r)       res[r2], r11
             0x000108f0: 6f e4:       ldw (u10)       r11, cp[0x6f]
             0x000108f2: 4e af:       out (r2r)       res[r2], r11
             0x000108f4: 70 e4:       ldw (u10)       r11, cp[0x70]
             0x000108f6: 4e af:       out (r2r)       res[r2], r11
             0x000108f8: 71 e4:       ldw (u10)       r11, cp[0x71]
             0x000108fa: 4e af:       out (r2r)       res[r2], r11
             0x000108fc: 72 e4:       ldw (u10)       r11, cp[0x72]
             0x000108fe: 4e af:       out (r2r)       res[r2], r11
             0x00010900: 73 e4:       ldw (u10)       r11, cp[0x73]
             0x00010902: 4e af:       out (r2r)       res[r2], r11
             0x00010904: 74 e4:       ldw (u10)       r11, cp[0x74]
             0x00010906: 4e af:       out (r2r)       res[r2], r11
             0x00010908: 75 e4:       ldw (u10)       r11, cp[0x75]
             0x0001090a: 4e af:       out (r2r)       res[r2], r11
             0x0001090c: 76 e4:       ldw (u10)       r11, cp[0x76]
             0x0001090e: 4e af:       out (r2r)       res[r2], r11
             0x00010910: 77 e4:       ldw (u10)       r11, cp[0x77]
             0x00010912: 4e af:       out (r2r)       res[r2], r11
             0x00010914: 78 e4:       ldw (u10)       r11, cp[0x78]
             0x00010916: 4e af:       out (r2r)       res[r2], r11
             0x00010918: 79 e4:       ldw (u10)       r11, cp[0x79]
             0x0001091a: 4e af:       out (r2r)       res[r2], r11
             0x0001091c: 7a e4:       ldw (u10)       r11, cp[0x7a]
             0x0001091e: 4e af:       out (r2r)       res[r2], r11
             0x00010920: 7b e4:       ldw (u10)       r11, cp[0x7b]
             0x00010922: 4e af:       out (r2r)       res[r2], r11
             0x00010924: 7c e4:       ldw (u10)       r11, cp[0x7c]
             0x00010926: 4e af:       out (r2r)       res[r2], r11
             0x00010928: 7d e4:       ldw (u10)       r11, cp[0x7d]
             0x0001092a: 4e af:       out (r2r)       res[r2], r11
             0x0001092c: 7e e4:       ldw (u10)       r11, cp[0x7e]
             0x0001092e: 4e af:       out (r2r)       res[r2], r11
             0x00010930: 7f e4:       ldw (u10)       r11, cp[0x7f]
             0x00010932: 4e af:       out (r2r)       res[r2], r11
             0x00010934: d7 3e:       setpt (r2r)     res[r3], r1
             0x00010936: 8d fa ed 97: outpw (l2rus)   res[r3], r4, 0x5
             0x0001093a: 02 af:       out (r2r)       res[r2], r4
             0x0001093c: 17 90:       add (2rus)      r1, r1, 0x3
             0x0001093e: c1 5c:       ldw (ru6)       r3, sp[0x1]
             0x00010940: d7 3e:       setpt (r2r)     res[r3], r1
             0x00010942: 4e f8 ed 97: outpw (l2rus)   res[r3], r4, 0x2
             0x00010946: f0 37:       set (1r)        cp, r0
             0x00010948: 00 5d:       ldw (ru6)       r4, sp[0x0]
             0x0001094a: c0 77:       retsp (u6)      0x0

<sdram_block_read_PINOUT_V0>:
             0x0001094c: 45 77:       entsp (u6)      0x5
             0x0001094e: 00 55:       stw (ru6)       r4, sp[0x0]
             0x00010950: 41 55:       stw (ru6)       r5, sp[0x1]
             0x00010952: 82 55:       stw (ru6)       r6, sp[0x2]
             0x00010954: c3 55:       stw (ru6)       r7, sp[0x3]
             0x00010956: 04 56:       stw (ru6)       r8, sp[0x4]
             0x00010958: 74 90:       add (2rus)      r7, r1, 0x0
             0x0001095a: 06 5d:       ldw (ru6)       r4, sp[0x6]
             0x0001095c: 81 93:       add (2rus)      r8, r4, 0x5
             0x0001095e: 40 60:       ldaw (ru6)      r1, dp[0x0]
             0x00010960: e0 37:       set (1r)        dp, r0
             0x00010962: 7f 61:       ldaw (ru6)      r5, dp[0x3f]
             0x00010964: 54 93:       add (2rus)      r5, r5, 0x4
             0x00010966: 01 f0 1e 68: ldc (lru6)      r0, 0x5e
             0x0001096a: c7 5e:       ldw (ru6)       r11, sp[0x7]
             0x0001096c: 5e 3f:       setpt (r2r)     res[r2], r11
             0x0001096e: 00 90:       add (2rus)      r0, r0, 0x0
             0x00010970: 4e b7:       in (2r)         r11, res[r2]
             0x00010972: e7 2f:       bru (1r)        r7
             0x00010974: 4e b7:       in (2r)         r11, res[r2]
             0x00010976: c0 52:       stw (ru6)       r11, dp[0x0]
             0x00010978: 4e b7:       in (2r)         r11, res[r2]
             0x0001097a: c1 52:       stw (ru6)       r11, dp[0x1]
             0x0001097c: 4e b7:       in (2r)         r11, res[r2]
             0x0001097e: c2 52:       stw (ru6)       r11, dp[0x2]
             0x00010980: 4e b7:       in (2r)         r11, res[r2]
             0x00010982: c3 52:       stw (ru6)       r11, dp[0x3]
             0x00010984: 4e b7:       in (2r)         r11, res[r2]
             0x00010986: c4 52:       stw (ru6)       r11, dp[0x4]
             0x00010988: 4e b7:       in (2r)         r11, res[r2]
             0x0001098a: c5 52:       stw (ru6)       r11, dp[0x5]
             0x0001098c: 4e b7:       in (2r)         r11, res[r2]
             0x0001098e: c6 52:       stw (ru6)       r11, dp[0x6]
             0x00010990: 4e b7:       in (2r)         r11, res[r2]
             0x00010992: c7 52:       stw (ru6)       r11, dp[0x7]
             0x00010994: 4e b7:       in (2r)         r11, res[r2]
             0x00010996: c8 52:       stw (ru6)       r11, dp[0x8]
             0x00010998: 4e b7:       in (2r)         r11, res[r2]
             0x0001099a: c9 52:       stw (ru6)       r11, dp[0x9]
             0x0001099c: 4e b7:       in (2r)         r11, res[r2]
             0x0001099e: ca 52:       stw (ru6)       r11, dp[0xa]
             0x000109a0: 4e b7:       in (2r)         r11, res[r2]
             0x000109a2: cb 52:       stw (ru6)       r11, dp[0xb]
             0x000109a4: 4e b7:       in (2r)         r11, res[r2]
             0x000109a6: cc 52:       stw (ru6)       r11, dp[0xc]
             0x000109a8: 4e b7:       in (2r)         r11, res[r2]
             0x000109aa: cd 52:       stw (ru6)       r11, dp[0xd]
             0x000109ac: 4e b7:       in (2r)         r11, res[r2]
             0x000109ae: ce 52:       stw (ru6)       r11, dp[0xe]
             0x000109b0: 4e b7:       in (2r)         r11, res[r2]
             0x000109b2: cf 52:       stw (ru6)       r11, dp[0xf]
             0x000109b4: 4e b7:       in (2r)         r11, res[r2]
             0x000109b6: d0 52:       stw (ru6)       r11, dp[0x10]
             0x000109b8: 4e b7:       in (2r)         r11, res[r2]
             0x000109ba: d1 52:       stw (ru6)       r11, dp[0x11]
             0x000109bc: 4e b7:       in (2r)         r11, res[r2]
             0x000109be: d2 52:       stw (ru6)       r11, dp[0x12]
             0x000109c0: 4e b7:       in (2r)         r11, res[r2]
             0x000109c2: d3 52:       stw (ru6)       r11, dp[0x13]
             0x000109c4: 4e b7:       in (2r)         r11, res[r2]
             0x000109c6: d4 52:       stw (ru6)       r11, dp[0x14]
             0x000109c8: 4e b7:       in (2r)         r11, res[r2]
             0x000109ca: d5 52:       stw (ru6)       r11, dp[0x15]
             0x000109cc: 4e b7:       in (2r)         r11, res[r2]
             0x000109ce: d6 52:       stw (ru6)       r11, dp[0x16]
             0x000109d0: 4e b7:       in (2r)         r11, res[r2]
             0x000109d2: d7 52:       stw (ru6)       r11, dp[0x17]
             0x000109d4: 4e b7:       in (2r)         r11, res[r2]
             0x000109d6: d8 52:       stw (ru6)       r11, dp[0x18]
             0x000109d8: 4e b7:       in (2r)         r11, res[r2]
             0x000109da: d9 52:       stw (ru6)       r11, dp[0x19]
             0x000109dc: 4e b7:       in (2r)         r11, res[r2]
             0x000109de: da 52:       stw (ru6)       r11, dp[0x1a]
             0x000109e0: 4e b7:       in (2r)         r11, res[r2]
             0x000109e2: db 52:       stw (ru6)       r11, dp[0x1b]
             0x000109e4: 4e b7:       in (2r)         r11, res[r2]
             0x000109e6: dc 52:       stw (ru6)       r11, dp[0x1c]
             0x000109e8: 4e b7:       in (2r)         r11, res[r2]
             0x000109ea: dd 52:       stw (ru6)       r11, dp[0x1d]
             0x000109ec: 4e b7:       in (2r)         r11, res[r2]
             0x000109ee: de 52:       stw (ru6)       r11, dp[0x1e]
             0x000109f0: 4e b7:       in (2r)         r11, res[r2]
             0x000109f2: df 52:       stw (ru6)       r11, dp[0x1f]
             0x000109f4: 4e b7:       in (2r)         r11, res[r2]
             0x000109f6: e0 52:       stw (ru6)       r11, dp[0x20]
             0x000109f8: 4e b7:       in (2r)         r11, res[r2]
             0x000109fa: e1 52:       stw (ru6)       r11, dp[0x21]
             0x000109fc: 4e b7:       in (2r)         r11, res[r2]
             0x000109fe: e2 52:       stw (ru6)       r11, dp[0x22]
             0x00010a00: 4e b7:       in (2r)         r11, res[r2]
             0x00010a02: e3 52:       stw (ru6)       r11, dp[0x23]
             0x00010a04: 4e b7:       in (2r)         r11, res[r2]
             0x00010a06: e4 52:       stw (ru6)       r11, dp[0x24]
             0x00010a08: 4e b7:       in (2r)         r11, res[r2]
             0x00010a0a: e5 52:       stw (ru6)       r11, dp[0x25]
             0x00010a0c: 4e b7:       in (2r)         r11, res[r2]
             0x00010a0e: e6 52:       stw (ru6)       r11, dp[0x26]
             0x00010a10: 4e b7:       in (2r)         r11, res[r2]
             0x00010a12: e7 52:       stw (ru6)       r11, dp[0x27]
             0x00010a14: 4e b7:       in (2r)         r11, res[r2]
             0x00010a16: e8 52:       stw (ru6)       r11, dp[0x28]
             0x00010a18: 4e b7:       in (2r)         r11, res[r2]
             0x00010a1a: e9 52:       stw (ru6)       r11, dp[0x29]
             0x00010a1c: 4e b7:       in (2r)         r11, res[r2]
             0x00010a1e: ea 52:       stw (ru6)       r11, dp[0x2a]
             0x00010a20: 4e b7:       in (2r)         r11, res[r2]
             0x00010a22: eb 52:       stw (ru6)       r11, dp[0x2b]
             0x00010a24: 4e b7:       in (2r)         r11, res[r2]
             0x00010a26: ec 52:       stw (ru6)       r11, dp[0x2c]
             0x00010a28: 4e b7:       in (2r)         r11, res[r2]
             0x00010a2a: ed 52:       stw (ru6)       r11, dp[0x2d]
             0x00010a2c: 4e b7:       in (2r)         r11, res[r2]
             0x00010a2e: ee 52:       stw (ru6)       r11, dp[0x2e]
             0x00010a30: 4e b7:       in (2r)         r11, res[r2]
             0x00010a32: ef 52:       stw (ru6)       r11, dp[0x2f]
             0x00010a34: 4e b7:       in (2r)         r11, res[r2]
             0x00010a36: f0 52:       stw (ru6)       r11, dp[0x30]
             0x00010a38: 4e b7:       in (2r)         r11, res[r2]
             0x00010a3a: f1 52:       stw (ru6)       r11, dp[0x31]
             0x00010a3c: 4e b7:       in (2r)         r11, res[r2]
             0x00010a3e: f2 52:       stw (ru6)       r11, dp[0x32]
             0x00010a40: 4e b7:       in (2r)         r11, res[r2]
             0x00010a42: f3 52:       stw (ru6)       r11, dp[0x33]
             0x00010a44: 4e b7:       in (2r)         r11, res[r2]
             0x00010a46: f4 52:       stw (ru6)       r11, dp[0x34]
             0x00010a48: 4e b7:       in (2r)         r11, res[r2]
             0x00010a4a: f5 52:       stw (ru6)       r11, dp[0x35]
             0x00010a4c: 4e b7:       in (2r)         r11, res[r2]
             0x00010a4e: f6 52:       stw (ru6)       r11, dp[0x36]
             0x00010a50: 4e b7:       in (2r)         r11, res[r2]
             0x00010a52: f7 52:       stw (ru6)       r11, dp[0x37]
             0x00010a54: 4e b7:       in (2r)         r11, res[r2]
             0x00010a56: f8 52:       stw (ru6)       r11, dp[0x38]
             0x00010a58: 4e b7:       in (2r)         r11, res[r2]
             0x00010a5a: f9 52:       stw (ru6)       r11, dp[0x39]
             0x00010a5c: 4e b7:       in (2r)         r11, res[r2]
             0x00010a5e: fa 52:       stw (ru6)       r11, dp[0x3a]
             0x00010a60: 4e b7:       in (2r)         r11, res[r2]
             0x00010a62: fb 52:       stw (ru6)       r11, dp[0x3b]
             0x00010a64: 4e b7:       in (2r)         r11, res[r2]
             0x00010a66: fc 52:       stw (ru6)       r11, dp[0x3c]
             0x00010a68: 4e b7:       in (2r)         r11, res[r2]
             0x00010a6a: fd 52:       stw (ru6)       r11, dp[0x3d]
             0x00010a6c: 4e b7:       in (2r)         r11, res[r2]
             0x00010a6e: fe 52:       stw (ru6)       r11, dp[0x3e]
             0x00010a70: 0a b7:       in (2r)         r6, res[r2]
             0x00010a72: e5 37:       set (1r)        dp, r5
             0x00010a74: 4e b7:       in (2r)         r11, res[r2]
             0x00010a76: c0 52:       stw (ru6)       r11, dp[0x0]
             0x00010a78: 4e b7:       in (2r)         r11, res[r2]
             0x00010a7a: c1 52:       stw (ru6)       r11, dp[0x1]
             0x00010a7c: 4e b7:       in (2r)         r11, res[r2]
             0x00010a7e: c2 52:       stw (ru6)       r11, dp[0x2]
             0x00010a80: 4e b7:       in (2r)         r11, res[r2]
             0x00010a82: c3 52:       stw (ru6)       r11, dp[0x3]
             0x00010a84: 4e b7:       in (2r)         r11, res[r2]
             0x00010a86: c4 52:       stw (ru6)       r11, dp[0x4]
             0x00010a88: 4e b7:       in (2r)         r11, res[r2]
             0x00010a8a: c5 52:       stw (ru6)       r11, dp[0x5]
             0x00010a8c: 4e b7:       in (2r)         r11, res[r2]
             0x00010a8e: c6 52:       stw (ru6)       r11, dp[0x6]
             0x00010a90: 4e b7:       in (2r)         r11, res[r2]
             0x00010a92: c7 52:       stw (ru6)       r11, dp[0x7]
             0x00010a94: 4e b7:       in (2r)         r11, res[r2]
             0x00010a96: c8 52:       stw (ru6)       r11, dp[0x8]
             0x00010a98: 4e b7:       in (2r)         r11, res[r2]
             0x00010a9a: c9 52:       stw (ru6)       r11, dp[0x9]
             0x00010a9c: 4e b7:       in (2r)         r11, res[r2]
             0x00010a9e: ca 52:       stw (ru6)       r11, dp[0xa]
             0x00010aa0: 4e b7:       in (2r)         r11, res[r2]
             0x00010aa2: cb 52:       stw (ru6)       r11, dp[0xb]
             0x00010aa4: 4e b7:       in (2r)         r11, res[r2]
             0x00010aa6: cc 52:       stw (ru6)       r11, dp[0xc]
             0x00010aa8: 4e b7:       in (2r)         r11, res[r2]
             0x00010aaa: cd 52:       stw (ru6)       r11, dp[0xd]
             0x00010aac: 4e b7:       in (2r)         r11, res[r2]
             0x00010aae: ce 52:       stw (ru6)       r11, dp[0xe]
             0x00010ab0: 4e b7:       in (2r)         r11, res[r2]
             0x00010ab2: cf 52:       stw (ru6)       r11, dp[0xf]
             0x00010ab4: 4e b7:       in (2r)         r11, res[r2]
             0x00010ab6: d0 52:       stw (ru6)       r11, dp[0x10]
             0x00010ab8: 4e b7:       in (2r)         r11, res[r2]
             0x00010aba: d1 52:       stw (ru6)       r11, dp[0x11]
             0x00010abc: 4e b7:       in (2r)         r11, res[r2]
             0x00010abe: d2 52:       stw (ru6)       r11, dp[0x12]
             0x00010ac0: 4e b7:       in (2r)         r11, res[r2]
             0x00010ac2: d3 52:       stw (ru6)       r11, dp[0x13]
             0x00010ac4: 4e b7:       in (2r)         r11, res[r2]
             0x00010ac6: d4 52:       stw (ru6)       r11, dp[0x14]
             0x00010ac8: 4e b7:       in (2r)         r11, res[r2]
             0x00010aca: d5 52:       stw (ru6)       r11, dp[0x15]
             0x00010acc: 4e b7:       in (2r)         r11, res[r2]
             0x00010ace: d6 52:       stw (ru6)       r11, dp[0x16]
             0x00010ad0: 4e b7:       in (2r)         r11, res[r2]
             0x00010ad2: d7 52:       stw (ru6)       r11, dp[0x17]
             0x00010ad4: 4e b7:       in (2r)         r11, res[r2]
             0x00010ad6: d8 52:       stw (ru6)       r11, dp[0x18]
             0x00010ad8: 4e b7:       in (2r)         r11, res[r2]
             0x00010ada: d9 52:       stw (ru6)       r11, dp[0x19]
             0x00010adc: 4e b7:       in (2r)         r11, res[r2]
             0x00010ade: da 52:       stw (ru6)       r11, dp[0x1a]
             0x00010ae0: 4e b7:       in (2r)         r11, res[r2]
             0x00010ae2: db 52:       stw (ru6)       r11, dp[0x1b]
             0x00010ae4: 4e b7:       in (2r)         r11, res[r2]
             0x00010ae6: dc 52:       stw (ru6)       r11, dp[0x1c]
             0x00010ae8: 4e b7:       in (2r)         r11, res[r2]
             0x00010aea: dd 52:       stw (ru6)       r11, dp[0x1d]
             0x00010aec: 4e b7:       in (2r)         r11, res[r2]
             0x00010aee: de 52:       stw (ru6)       r11, dp[0x1e]
             0x00010af0: 4e b7:       in (2r)         r11, res[r2]
             0x00010af2: df 52:       stw (ru6)       r11, dp[0x1f]
             0x00010af4: 4e b7:       in (2r)         r11, res[r2]
             0x00010af6: e0 52:       stw (ru6)       r11, dp[0x20]
             0x00010af8: 4e b7:       in (2r)         r11, res[r2]
             0x00010afa: e1 52:       stw (ru6)       r11, dp[0x21]
             0x00010afc: 4e b7:       in (2r)         r11, res[r2]
             0x00010afe: e2 52:       stw (ru6)       r11, dp[0x22]
             0x00010b00: 4e b7:       in (2r)         r11, res[r2]
             0x00010b02: e3 52:       stw (ru6)       r11, dp[0x23]
             0x00010b04: 4e b7:       in (2r)         r11, res[r2]
             0x00010b06: e4 52:       stw (ru6)       r11, dp[0x24]
             0x00010b08: 4e b7:       in (2r)         r11, res[r2]
             0x00010b0a: e5 52:       stw (ru6)       r11, dp[0x25]
             0x00010b0c: 4e b7:       in (2r)         r11, res[r2]
             0x00010b0e: e6 52:       stw (ru6)       r11, dp[0x26]
             0x00010b10: 4e b7:       in (2r)         r11, res[r2]
             0x00010b12: e7 52:       stw (ru6)       r11, dp[0x27]
             0x00010b14: 4e b7:       in (2r)         r11, res[r2]
             0x00010b16: e8 52:       stw (ru6)       r11, dp[0x28]
             0x00010b18: 4e b7:       in (2r)         r11, res[r2]
             0x00010b1a: e9 52:       stw (ru6)       r11, dp[0x29]
             0x00010b1c: 4e b7:       in (2r)         r11, res[r2]
             0x00010b1e: ea 52:       stw (ru6)       r11, dp[0x2a]
             0x00010b20: 4e b7:       in (2r)         r11, res[r2]
             0x00010b22: eb 52:       stw (ru6)       r11, dp[0x2b]
             0x00010b24: 4e b7:       in (2r)         r11, res[r2]
             0x00010b26: ec 52:       stw (ru6)       r11, dp[0x2c]
             0x00010b28: 4e b7:       in (2r)         r11, res[r2]
             0x00010b2a: ed 52:       stw (ru6)       r11, dp[0x2d]
             0x00010b2c: 4e b7:       in (2r)         r11, res[r2]
             0x00010b2e: ee 52:       stw (ru6)       r11, dp[0x2e]
             0x00010b30: 4e b7:       in (2r)         r11, res[r2]
             0x00010b32: ef 52:       stw (ru6)       r11, dp[0x2f]
             0x00010b34: 4e b7:       in (2r)         r11, res[r2]
             0x00010b36: f0 52:       stw (ru6)       r11, dp[0x30]
             0x00010b38: 4e b7:       in (2r)         r11, res[r2]
             0x00010b3a: f1 52:       stw (ru6)       r11, dp[0x31]
             0x00010b3c: 4e b7:       in (2r)         r11, res[r2]
             0x00010b3e: f2 52:       stw (ru6)       r11, dp[0x32]
             0x00010b40: 4e b7:       in (2r)         r11, res[r2]
             0x00010b42: f3 52:       stw (ru6)       r11, dp[0x33]
             0x00010b44: 4e b7:       in (2r)         r11, res[r2]
             0x00010b46: f4 52:       stw (ru6)       r11, dp[0x34]
             0x00010b48: 4e b7:       in (2r)         r11, res[r2]
             0x00010b4a: f5 52:       stw (ru6)       r11, dp[0x35]
             0x00010b4c: 4e b7:       in (2r)         r11, res[r2]
             0x00010b4e: f6 52:       stw (ru6)       r11, dp[0x36]
             0x00010b50: 4e b7:       in (2r)         r11, res[r2]
             0x00010b52: f7 52:       stw (ru6)       r11, dp[0x37]
             0x00010b54: 4e b7:       in (2r)         r11, res[r2]
             0x00010b56: f8 52:       stw (ru6)       r11, dp[0x38]
             0x00010b58: 4e b7:       in (2r)         r11, res[r2]
             0x00010b5a: f9 52:       stw (ru6)       r11, dp[0x39]
             0x00010b5c: 4e b7:       in (2r)         r11, res[r2]
             0x00010b5e: fa 52:       stw (ru6)       r11, dp[0x3a]
             0x00010b60: 4e b7:       in (2r)         r11, res[r2]
             0x00010b62: fb 52:       stw (ru6)       r11, dp[0x3b]
             0x00010b64: 4e b7:       in (2r)         r11, res[r2]
             0x00010b66: 13 3f:       setpt (r2r)     res[r3], r4
             0x00010b68: 02 b7:       in (2r)         r4, res[r2]
             0x00010b6a: 4f fa ed 97: outpw (l2rus)   res[r3], r0, 0x7
             0x00010b6e: ce b6:       in (2r)         r3, res[r2]
             0x00010b70: 08 5c:       ldw (ru6)       r0, sp[0x8]
             0x00010b72: 0e b7:       in (2r)         r7, res[r2]
             0x00010b74: 50 3f:       setpt (r2r)     res[r0], r8
             0x00010b76: 02 6a:       ldc (ru6)       r8, 0x2
             0x00010b78: 82 f8 ed 97: outpw (l2rus)   res[r0], r8, 0x2
             0x00010b7c: d0 a6:       mkmsk (rus)     r0, 0x20
             0x00010b7e: c2 ae:       out (r2r)       res[r2], r0
             0x00010b80: fc 52:       stw (ru6)       r11, dp[0x3c]
             0x00010b82: 3d 51:       stw (ru6)       r4, dp[0x3d]
             0x00010b84: fe 50:       stw (ru6)       r3, dp[0x3e]
             0x00010b86: ff 51:       stw (ru6)       r7, dp[0x3f]
             0x00010b88: c0 62:       ldaw (ru6)      r11, dp[0x0]
             0x00010b8a: 1d 34:       eq (3r)         r5, r11, r5
             0x00010b8c: 42 79:       bf (ru6)        r5, 0x2 <jump>
             0x00010b8e: 81 73:       extdp (u6)      0x1
             0x00010b90: 80 51:       stw (ru6)       r6, dp[0x0]

<jump>:
             0x00010b92: e1 37:       set (1r)        dp, r1
             0x00010b94: 04 5e:       ldw (ru6)       r8, sp[0x4]
             0x00010b96: c3 5d:       ldw (ru6)       r7, sp[0x3]
             0x00010b98: 82 5d:       ldw (ru6)       r6, sp[0x2]
             0x00010b9a: 41 5d:       ldw (ru6)       r5, sp[0x1]
             0x00010b9c: 00 5d:       ldw (ru6)       r4, sp[0x0]
             0x00010b9e: c5 77:       retsp (u6)      0x5

<sdram_short_block_read_PINOUT_V0>:
             0x00010ba0: 44 77:       entsp (u6)      0x4
             0x00010ba2: 00 55:       stw (ru6)       r4, sp[0x0]
             0x00010ba4: 41 55:       stw (ru6)       r5, sp[0x1]
             0x00010ba6: 82 55:       stw (ru6)       r6, sp[0x2]
             0x00010ba8: c3 55:       stw (ru6)       r7, sp[0x3]
             0x00010baa: 05 5d:       ldw (ru6)       r4, sp[0x5]
             0x00010bac: 72 93:       add (2rus)      r7, r4, 0x6
             0x00010bae: 02 f0 7e 69: ldc (lru6)      r5, 0xbe
             0x00010bb2: c6 5e:       ldw (ru6)       r11, sp[0x6]
             0x00010bb4: 5e 3f:       setpt (r2r)     res[r2], r11
             0x00010bb6: 4e b7:       in (2r)         r11, res[r2]
             0x00010bb8: 4e b7:       in (2r)         r11, res[r2]
             0x00010bba: 13 3f:       setpt (r2r)     res[r3], r4
             0x00010bbc: 02 b7:       in (2r)         r4, res[r2]
             0x00010bbe: dc fc ed 97: outpw (l2rus)   res[r3], r5, 0x8
             0x00010bc2: 06 b7:       in (2r)         r5, res[r2]
             0x00010bc4: dc a6:       mkmsk (rus)     r3, 0x20
             0x00010bc6: 0a b7:       in (2r)         r6, res[r2]
             0x00010bc8: ce ae:       out (r2r)       res[r2], r3
             0x00010bca: c7 5c:       ldw (ru6)       r3, sp[0x7]
             0x00010bcc: 1f 3f:       setpt (r2r)     res[r3], r7
             0x00010bce: 82 68:       ldc (ru6)       r2, 0x2
             0x00010bd0: 2e f8 ed 97: outpw (l2rus)   res[r3], r2, 0x2
             0x00010bd4: 84 68:       ldc (ru6)       r2, 0x4
             0x00010bd6: 19 18:       sub (3r)        r1, r2, r1
             0x00010bd8: e1 2f:       bru (1r)        r1
             0x00010bda: 63 00:       stw (2rus)      r6, r0[0x3]
             0x00010bdc: 52 00:       stw (2rus)      r5, r0[0x2]
             0x00010bde: 41 00:       stw (2rus)      r4, r0[0x1]
             0x00010be0: b0 00:       stw (2rus)      r11, r0[0x0]
             0x00010be2: c3 5d:       ldw (ru6)       r7, sp[0x3]
             0x00010be4: 82 5d:       ldw (ru6)       r6, sp[0x2]
             0x00010be6: 41 5d:       ldw (ru6)       r5, sp[0x1]
             0x00010be8: 00 5d:       ldw (ru6)       r4, sp[0x0]
             0x00010bea: c4 77:       retsp (u6)      0x4

<sdram_block_write_PINOUT_V1_IS42S16160D>:
             0x00010bec: 00 55:       stw (ru6)       r4, sp[0x0]
             0x00010bee: 10 a7:       mkmsk (rus)     r4, 0x20
             0x00010bf0: 81 9d:       sub (2rus)      r4, r4, 0x9
             0x00010bf2: 40 7f:       ldaw (u6)       r11, cp[0x0]
             0x00010bf4: f0 37:       set (1r)        cp, r0
             0x00010bf6: 8c 91:       add (2rus)      r0, r11, 0x0
             0x00010bf8: b4 90:       add (2rus)      r11, r1, 0x0
             0x00010bfa: 00 90:       add (2rus)      r0, r0, 0x0
             0x00010bfc: 42 5c:       ldw (ru6)       r1, sp[0x2]
             0x00010bfe: eb 2f:       bru (1r)        r11
             0x00010c00: c0 6e:       ldw (ru6)       r11, cp[0x0]
             0x00010c02: 4e af:       out (r2r)       res[r2], r11
             0x00010c04: c1 6e:       ldw (ru6)       r11, cp[0x1]
             0x00010c06: 4e af:       out (r2r)       res[r2], r11
             0x00010c08: c2 6e:       ldw (ru6)       r11, cp[0x2]
             0x00010c0a: 4e af:       out (r2r)       res[r2], r11
             0x00010c0c: c3 6e:       ldw (ru6)       r11, cp[0x3]
             0x00010c0e: 4e af:       out (r2r)       res[r2], r11
             0x00010c10: c4 6e:       ldw (ru6)       r11, cp[0x4]
             0x00010c12: 4e af:       out (r2r)       res[r2], r11
             0x00010c14: c5 6e:       ldw (ru6)       r11, cp[0x5]
             0x00010c16: 4e af:       out (r2r)       res[r2], r11
             0x00010c18: c6 6e:       ldw (ru6)       r11, cp[0x6]
             0x00010c1a: 4e af:       out (r2r)       res[r2], r11
             0x00010c1c: c7 6e:       ldw (ru6)       r11, cp[0x7]
             0x00010c1e: 4e af:       out (r2r)       res[r2], r11
             0x00010c20: c8 6e:       ldw (ru6)       r11, cp[0x8]
             0x00010c22: 4e af:       out (r2r)       res[r2], r11
             0x00010c24: c9 6e:       ldw (ru6)       r11, cp[0x9]
             0x00010c26: 4e af:       out (r2r)       res[r2], r11
             0x00010c28: ca 6e:       ldw (ru6)       r11, cp[0xa]
             0x00010c2a: 4e af:       out (r2r)       res[r2], r11
             0x00010c2c: cb 6e:       ldw (ru6)       r11, cp[0xb]
             0x00010c2e: 4e af:       out (r2r)       res[r2], r11
             0x00010c30: cc 6e:       ldw (ru6)       r11, cp[0xc]
             0x00010c32: 4e af:       out (r2r)       res[r2], r11
             0x00010c34: cd 6e:       ldw (ru6)       r11, cp[0xd]
             0x00010c36: 4e af:       out (r2r)       res[r2], r11
             0x00010c38: ce 6e:       ldw (ru6)       r11, cp[0xe]
             0x00010c3a: 4e af:       out (r2r)       res[r2], r11
             0x00010c3c: cf 6e:       ldw (ru6)       r11, cp[0xf]
             0x00010c3e: 4e af:       out (r2r)       res[r2], r11
             0x00010c40: d0 6e:       ldw (ru6)       r11, cp[0x10]
             0x00010c42: 4e af:       out (r2r)       res[r2], r11
             0x00010c44: d1 6e:       ldw (ru6)       r11, cp[0x11]
             0x00010c46: 4e af:       out (r2r)       res[r2], r11
             0x00010c48: d2 6e:       ldw (ru6)       r11, cp[0x12]
             0x00010c4a: 4e af:       out (r2r)       res[r2], r11
             0x00010c4c: d3 6e:       ldw (ru6)       r11, cp[0x13]
             0x00010c4e: 4e af:       out (r2r)       res[r2], r11
             0x00010c50: d4 6e:       ldw (ru6)       r11, cp[0x14]
             0x00010c52: 4e af:       out (r2r)       res[r2], r11
             0x00010c54: d5 6e:       ldw (ru6)       r11, cp[0x15]
             0x00010c56: 4e af:       out (r2r)       res[r2], r11
             0x00010c58: d6 6e:       ldw (ru6)       r11, cp[0x16]
             0x00010c5a: 4e af:       out (r2r)       res[r2], r11
             0x00010c5c: d7 6e:       ldw (ru6)       r11, cp[0x17]
             0x00010c5e: 4e af:       out (r2r)       res[r2], r11
             0x00010c60: d8 6e:       ldw (ru6)       r11, cp[0x18]
             0x00010c62: 4e af:       out (r2r)       res[r2], r11
             0x00010c64: d9 6e:       ldw (ru6)       r11, cp[0x19]
             0x00010c66: 4e af:       out (r2r)       res[r2], r11
             0x00010c68: da 6e:       ldw (ru6)       r11, cp[0x1a]
             0x00010c6a: 4e af:       out (r2r)       res[r2], r11
             0x00010c6c: db 6e:       ldw (ru6)       r11, cp[0x1b]
             0x00010c6e: 4e af:       out (r2r)       res[r2], r11
             0x00010c70: dc 6e:       ldw (ru6)       r11, cp[0x1c]
             0x00010c72: 4e af:       out (r2r)       res[r2], r11
             0x00010c74: dd 6e:       ldw (ru6)       r11, cp[0x1d]
             0x00010c76: 4e af:       out (r2r)       res[r2], r11
             0x00010c78: de 6e:       ldw (ru6)       r11, cp[0x1e]
             0x00010c7a: 4e af:       out (r2r)       res[r2], r11
             0x00010c7c: df 6e:       ldw (ru6)       r11, cp[0x1f]
             0x00010c7e: 4e af:       out (r2r)       res[r2], r11
             0x00010c80: e0 6e:       ldw (ru6)       r11, cp[0x20]
             0x00010c82: 4e af:       out (r2r)       res[r2], r11
             0x00010c84: e1 6e:       ldw (ru6)       r11, cp[0x21]
             0x00010c86: 4e af:       out (r2r)       res[r2], r11
             0x00010c88: e2 6e:       ldw (ru6)       r11, cp[0x22]
             0x00010c8a: 4e af:       out (r2r)       res[r2], r11
             0x00010c8c: e3 6e:       ldw (ru6)       r11, cp[0x23]
             0x00010c8e: 4e af:       out (r2r)       res[r2], r11
             0x00010c90: e4 6e:       ldw (ru6)       r11, cp[0x24]
             0x00010c92: 4e af:       out (r2r)       res[r2], r11
             0x00010c94: e5 6e:       ldw (ru6)       r11, cp[0x25]
             0x00010c96: 4e af:       out (r2r)       res[r2], r11
             0x00010c98: e6 6e:       ldw (ru6)       r11, cp[0x26]
             0x00010c9a: 4e af:       out (r2r)       res[r2], r11
             0x00010c9c: e7 6e:       ldw (ru6)       r11, cp[0x27]
             0x00010c9e: 4e af:       out (r2r)       res[r2], r11
             0x00010ca0: e8 6e:       ldw (ru6)       r11, cp[0x28]
             0x00010ca2: 4e af:       out (r2r)       res[r2], r11
             0x00010ca4: e9 6e:       ldw (ru6)       r11, cp[0x29]
             0x00010ca6: 4e af:       out (r2r)       res[r2], r11
             0x00010ca8: ea 6e:       ldw (ru6)       r11, cp[0x2a]
             0x00010caa: 4e af:       out (r2r)       res[r2], r11
             0x00010cac: eb 6e:       ldw (ru6)       r11, cp[0x2b]
             0x00010cae: 4e af:       out (r2r)       res[r2], r11
             0x00010cb0: ec 6e:       ldw (ru6)       r11, cp[0x2c]
             0x00010cb2: 4e af:       out (r2r)       res[r2], r11
             0x00010cb4: ed 6e:       ldw (ru6)       r11, cp[0x2d]
             0x00010cb6: 4e af:       out (r2r)       res[r2], r11
             0x00010cb8: ee 6e:       ldw (ru6)       r11, cp[0x2e]
             0x00010cba: 4e af:       out (r2r)       res[r2], r11
             0x00010cbc: ef 6e:       ldw (ru6)       r11, cp[0x2f]
             0x00010cbe: 4e af:       out (r2r)       res[r2], r11
             0x00010cc0: f0 6e:       ldw (ru6)       r11, cp[0x30]
             0x00010cc2: 4e af:       out (r2r)       res[r2], r11
             0x00010cc4: f1 6e:       ldw (ru6)       r11, cp[0x31]
             0x00010cc6: 4e af:       out (r2r)       res[r2], r11
             0x00010cc8: f2 6e:       ldw (ru6)       r11, cp[0x32]
             0x00010cca: 4e af:       out (r2r)       res[r2], r11
             0x00010ccc: f3 6e:       ldw (ru6)       r11, cp[0x33]
             0x00010cce: 4e af:       out (r2r)       res[r2], r11
             0x00010cd0: f4 6e:       ldw (ru6)       r11, cp[0x34]
             0x00010cd2: 4e af:       out (r2r)       res[r2], r11
             0x00010cd4: f5 6e:       ldw (ru6)       r11, cp[0x35]
             0x00010cd6: 4e af:       out (r2r)       res[r2], r11
             0x00010cd8: f6 6e:       ldw (ru6)       r11, cp[0x36]
             0x00010cda: 4e af:       out (r2r)       res[r2], r11
             0x00010cdc: f7 6e:       ldw (ru6)       r11, cp[0x37]
             0x00010cde: 4e af:       out (r2r)       res[r2], r11
             0x00010ce0: f8 6e:       ldw (ru6)       r11, cp[0x38]
             0x00010ce2: 4e af:       out (r2r)       res[r2], r11
             0x00010ce4: f9 6e:       ldw (ru6)       r11, cp[0x39]
             0x00010ce6: 4e af:       out (r2r)       res[r2], r11
             0x00010ce8: fa 6e:       ldw (ru6)       r11, cp[0x3a]
             0x00010cea: 4e af:       out (r2r)       res[r2], r11
             0x00010cec: fb 6e:       ldw (ru6)       r11, cp[0x3b]
             0x00010cee: 4e af:       out (r2r)       res[r2], r11
             0x00010cf0: fc 6e:       ldw (ru6)       r11, cp[0x3c]
             0x00010cf2: 4e af:       out (r2r)       res[r2], r11
             0x00010cf4: fd 6e:       ldw (ru6)       r11, cp[0x3d]
             0x00010cf6: 4e af:       out (r2r)       res[r2], r11
             0x00010cf8: fe 6e:       ldw (ru6)       r11, cp[0x3e]
             0x00010cfa: 4e af:       out (r2r)       res[r2], r11
             0x00010cfc: ff 6e:       ldw (ru6)       r11, cp[0x3f]
             0x00010cfe: 4e af:       out (r2r)       res[r2], r11
             0x00010d00: 40 e4:       ldw (u10)       r11, cp[0x40]
             0x00010d02: 4e af:       out (r2r)       res[r2], r11
             0x00010d04: 41 e4:       ldw (u10)       r11, cp[0x41]
             0x00010d06: 4e af:       out (r2r)       res[r2], r11
             0x00010d08: 42 e4:       ldw (u10)       r11, cp[0x42]
             0x00010d0a: 4e af:       out (r2r)       res[r2], r11
             0x00010d0c: 43 e4:       ldw (u10)       r11, cp[0x43]
             0x00010d0e: 4e af:       out (r2r)       res[r2], r11
             0x00010d10: 44 e4:       ldw (u10)       r11, cp[0x44]
             0x00010d12: 4e af:       out (r2r)       res[r2], r11
             0x00010d14: 45 e4:       ldw (u10)       r11, cp[0x45]
             0x00010d16: 4e af:       out (r2r)       res[r2], r11
             0x00010d18: 46 e4:       ldw (u10)       r11, cp[0x46]
             0x00010d1a: 4e af:       out (r2r)       res[r2], r11
             0x00010d1c: 47 e4:       ldw (u10)       r11, cp[0x47]
             0x00010d1e: 4e af:       out (r2r)       res[r2], r11
             0x00010d20: 48 e4:       ldw (u10)       r11, cp[0x48]
             0x00010d22: 4e af:       out (r2r)       res[r2], r11
             0x00010d24: 49 e4:       ldw (u10)       r11, cp[0x49]
             0x00010d26: 4e af:       out (r2r)       res[r2], r11
             0x00010d28: 4a e4:       ldw (u10)       r11, cp[0x4a]
             0x00010d2a: 4e af:       out (r2r)       res[r2], r11
             0x00010d2c: 4b e4:       ldw (u10)       r11, cp[0x4b]
             0x00010d2e: 4e af:       out (r2r)       res[r2], r11
             0x00010d30: 4c e4:       ldw (u10)       r11, cp[0x4c]
             0x00010d32: 4e af:       out (r2r)       res[r2], r11
             0x00010d34: 4d e4:       ldw (u10)       r11, cp[0x4d]
             0x00010d36: 4e af:       out (r2r)       res[r2], r11
             0x00010d38: 4e e4:       ldw (u10)       r11, cp[0x4e]
             0x00010d3a: 4e af:       out (r2r)       res[r2], r11
             0x00010d3c: 4f e4:       ldw (u10)       r11, cp[0x4f]
             0x00010d3e: 4e af:       out (r2r)       res[r2], r11
             0x00010d40: 50 e4:       ldw (u10)       r11, cp[0x50]
             0x00010d42: 4e af:       out (r2r)       res[r2], r11
             0x00010d44: 51 e4:       ldw (u10)       r11, cp[0x51]
             0x00010d46: 4e af:       out (r2r)       res[r2], r11
             0x00010d48: 52 e4:       ldw (u10)       r11, cp[0x52]
             0x00010d4a: 4e af:       out (r2r)       res[r2], r11
             0x00010d4c: 53 e4:       ldw (u10)       r11, cp[0x53]
             0x00010d4e: 4e af:       out (r2r)       res[r2], r11
             0x00010d50: 54 e4:       ldw (u10)       r11, cp[0x54]
             0x00010d52: 4e af:       out (r2r)       res[r2], r11
             0x00010d54: 55 e4:       ldw (u10)       r11, cp[0x55]
             0x00010d56: 4e af:       out (r2r)       res[r2], r11
             0x00010d58: 56 e4:       ldw (u10)       r11, cp[0x56]
             0x00010d5a: 4e af:       out (r2r)       res[r2], r11
             0x00010d5c: 57 e4:       ldw (u10)       r11, cp[0x57]
             0x00010d5e: 4e af:       out (r2r)       res[r2], r11
             0x00010d60: 58 e4:       ldw (u10)       r11, cp[0x58]
             0x00010d62: 4e af:       out (r2r)       res[r2], r11
             0x00010d64: 59 e4:       ldw (u10)       r11, cp[0x59]
             0x00010d66: 4e af:       out (r2r)       res[r2], r11
             0x00010d68: 5a e4:       ldw (u10)       r11, cp[0x5a]
             0x00010d6a: 4e af:       out (r2r)       res[r2], r11
             0x00010d6c: 5b e4:       ldw (u10)       r11, cp[0x5b]
             0x00010d6e: 4e af:       out (r2r)       res[r2], r11
             0x00010d70: 5c e4:       ldw (u10)       r11, cp[0x5c]
             0x00010d72: 4e af:       out (r2r)       res[r2], r11
             0x00010d74: 5d e4:       ldw (u10)       r11, cp[0x5d]
             0x00010d76: 4e af:       out (r2r)       res[r2], r11
             0x00010d78: 5e e4:       ldw (u10)       r11, cp[0x5e]
             0x00010d7a: 4e af:       out (r2r)       res[r2], r11
             0x00010d7c: 5f e4:       ldw (u10)       r11, cp[0x5f]
             0x00010d7e: 4e af:       out (r2r)       res[r2], r11
             0x00010d80: 60 e4:       ldw (u10)       r11, cp[0x60]
             0x00010d82: 4e af:       out (r2r)       res[r2], r11
             0x00010d84: 61 e4:       ldw (u10)       r11, cp[0x61]
             0x00010d86: 4e af:       out (r2r)       res[r2], r11
             0x00010d88: 62 e4:       ldw (u10)       r11, cp[0x62]
             0x00010d8a: 4e af:       out (r2r)       res[r2], r11
             0x00010d8c: 63 e4:       ldw (u10)       r11, cp[0x63]
             0x00010d8e: 4e af:       out (r2r)       res[r2], r11
             0x00010d90: 64 e4:       ldw (u10)       r11, cp[0x64]
             0x00010d92: 4e af:       out (r2r)       res[r2], r11
             0x00010d94: 65 e4:       ldw (u10)       r11, cp[0x65]
             0x00010d96: 4e af:       out (r2r)       res[r2], r11
             0x00010d98: 66 e4:       ldw (u10)       r11, cp[0x66]
             0x00010d9a: 4e af:       out (r2r)       res[r2], r11
             0x00010d9c: 67 e4:       ldw (u10)       r11, cp[0x67]
             0x00010d9e: 4e af:       out (r2r)       res[r2], r11
             0x00010da0: 68 e4:       ldw (u10)       r11, cp[0x68]
             0x00010da2: 4e af:       out (r2r)       res[r2], r11
             0x00010da4: 69 e4:       ldw (u10)       r11, cp[0x69]
             0x00010da6: 4e af:       out (r2r)       res[r2], r11
             0x00010da8: 6a e4:       ldw (u10)       r11, cp[0x6a]
             0x00010daa: 4e af:       out (r2r)       res[r2], r11
             0x00010dac: 6b e4:       ldw (u10)       r11, cp[0x6b]
             0x00010dae: 4e af:       out (r2r)       res[r2], r11
             0x00010db0: 6c e4:       ldw (u10)       r11, cp[0x6c]
             0x00010db2: 4e af:       out (r2r)       res[r2], r11
             0x00010db4: 6d e4:       ldw (u10)       r11, cp[0x6d]
             0x00010db6: 4e af:       out (r2r)       res[r2], r11
             0x00010db8: 6e e4:       ldw (u10)       r11, cp[0x6e]
             0x00010dba: 4e af:       out (r2r)       res[r2], r11
             0x00010dbc: 6f e4:       ldw (u10)       r11, cp[0x6f]
             0x00010dbe: 4e af:       out (r2r)       res[r2], r11
             0x00010dc0: 70 e4:       ldw (u10)       r11, cp[0x70]
             0x00010dc2: 4e af:       out (r2r)       res[r2], r11
             0x00010dc4: 71 e4:       ldw (u10)       r11, cp[0x71]
             0x00010dc6: 4e af:       out (r2r)       res[r2], r11
             0x00010dc8: 72 e4:       ldw (u10)       r11, cp[0x72]
             0x00010dca: 4e af:       out (r2r)       res[r2], r11
             0x00010dcc: 73 e4:       ldw (u10)       r11, cp[0x73]
             0x00010dce: 4e af:       out (r2r)       res[r2], r11
             0x00010dd0: 74 e4:       ldw (u10)       r11, cp[0x74]
             0x00010dd2: 4e af:       out (r2r)       res[r2], r11
             0x00010dd4: 75 e4:       ldw (u10)       r11, cp[0x75]
             0x00010dd6: 4e af:       out (r2r)       res[r2], r11
             0x00010dd8: 76 e4:       ldw (u10)       r11, cp[0x76]
             0x00010dda: 4e af:       out (r2r)       res[r2], r11
             0x00010ddc: 77 e4:       ldw (u10)       r11, cp[0x77]
             0x00010dde: 4e af:       out (r2r)       res[r2], r11
             0x00010de0: 78 e4:       ldw (u10)       r11, cp[0x78]
             0x00010de2: 4e af:       out (r2r)       res[r2], r11
             0x00010de4: 79 e4:       ldw (u10)       r11, cp[0x79]
             0x00010de6: 4e af:       out (r2r)       res[r2], r11
             0x00010de8: 7a e4:       ldw (u10)       r11, cp[0x7a]
             0x00010dea: 4e af:       out (r2r)       res[r2], r11
             0x00010dec: 7b e4:       ldw (u10)       r11, cp[0x7b]
             0x00010dee: 4e af:       out (r2r)       res[r2], r11
             0x00010df0: 7c e4:       ldw (u10)       r11, cp[0x7c]
             0x00010df2: 4e af:       out (r2r)       res[r2], r11
             0x00010df4: 7d e4:       ldw (u10)       r11, cp[0x7d]
             0x00010df6: 4e af:       out (r2r)       res[r2], r11
             0x00010df8: 7e e4:       ldw (u10)       r11, cp[0x7e]
             0x00010dfa: 4e af:       out (r2r)       res[r2], r11
             0x00010dfc: 7f e4:       ldw (u10)       r11, cp[0x7f]
             0x00010dfe: 4e af:       out (r2r)       res[r2], r11
             0x00010e00: d7 3e:       setpt (r2r)     res[r3], r1
             0x00010e02: 8d fa ed 97: outpw (l2rus)   res[r3], r4, 0x5
             0x00010e06: 02 af:       out (r2r)       res[r2], r4
             0x00010e08: 17 90:       add (2rus)      r1, r1, 0x3
             0x00010e0a: c1 5c:       ldw (ru6)       r3, sp[0x1]
             0x00010e0c: d7 3e:       setpt (r2r)     res[r3], r1
             0x00010e0e: 4e f8 ed 97: outpw (l2rus)   res[r3], r4, 0x2
             0x00010e12: f0 37:       set (1r)        cp, r0
             0x00010e14: 00 5d:       ldw (ru6)       r4, sp[0x0]
             0x00010e16: c0 77:       retsp (u6)      0x0

<sdram_block_read_PINOUT_V1_IS42S16160D>:
             0x00010e18: 45 77:       entsp (u6)      0x5
             0x00010e1a: 00 55:       stw (ru6)       r4, sp[0x0]
             0x00010e1c: 41 55:       stw (ru6)       r5, sp[0x1]
             0x00010e1e: 82 55:       stw (ru6)       r6, sp[0x2]
             0x00010e20: c3 55:       stw (ru6)       r7, sp[0x3]
             0x00010e22: 04 56:       stw (ru6)       r8, sp[0x4]
             0x00010e24: 74 90:       add (2rus)      r7, r1, 0x0
             0x00010e26: 06 5d:       ldw (ru6)       r4, sp[0x6]
             0x00010e28: 81 93:       add (2rus)      r8, r4, 0x5
             0x00010e2a: 40 60:       ldaw (ru6)      r1, dp[0x0]
             0x00010e2c: e0 37:       set (1r)        dp, r0
             0x00010e2e: 7f 61:       ldaw (ru6)      r5, dp[0x3f]
             0x00010e30: 54 93:       add (2rus)      r5, r5, 0x4
             0x00010e32: 01 f0 1e 68: ldc (lru6)      r0, 0x5e
             0x00010e36: c7 5e:       ldw (ru6)       r11, sp[0x7]
             0x00010e38: 5e 3f:       setpt (r2r)     res[r2], r11
             0x00010e3a: 00 90:       add (2rus)      r0, r0, 0x0
             0x00010e3c: 4e b7:       in (2r)         r11, res[r2]
             0x00010e3e: e7 2f:       bru (1r)        r7
             0x00010e40: 4e b7:       in (2r)         r11, res[r2]
             0x00010e42: c0 52:       stw (ru6)       r11, dp[0x0]
             0x00010e44: 4e b7:       in (2r)         r11, res[r2]
             0x00010e46: c1 52:       stw (ru6)       r11, dp[0x1]
             0x00010e48: 4e b7:       in (2r)         r11, res[r2]
             0x00010e4a: c2 52:       stw (ru6)       r11, dp[0x2]
             0x00010e4c: 4e b7:       in (2r)         r11, res[r2]
             0x00010e4e: c3 52:       stw (ru6)       r11, dp[0x3]
             0x00010e50: 4e b7:       in (2r)         r11, res[r2]
             0x00010e52: c4 52:       stw (ru6)       r11, dp[0x4]
             0x00010e54: 4e b7:       in (2r)         r11, res[r2]
             0x00010e56: c5 52:       stw (ru6)       r11, dp[0x5]
             0x00010e58: 4e b7:       in (2r)         r11, res[r2]
             0x00010e5a: c6 52:       stw (ru6)       r11, dp[0x6]
             0x00010e5c: 4e b7:       in (2r)         r11, res[r2]
             0x00010e5e: c7 52:       stw (ru6)       r11, dp[0x7]
             0x00010e60: 4e b7:       in (2r)         r11, res[r2]
             0x00010e62: c8 52:       stw (ru6)       r11, dp[0x8]
             0x00010e64: 4e b7:       in (2r)         r11, res[r2]
             0x00010e66: c9 52:       stw (ru6)       r11, dp[0x9]
             0x00010e68: 4e b7:       in (2r)         r11, res[r2]
             0x00010e6a: ca 52:       stw (ru6)       r11, dp[0xa]
             0x00010e6c: 4e b7:       in (2r)         r11, res[r2]
             0x00010e6e: cb 52:       stw (ru6)       r11, dp[0xb]
             0x00010e70: 4e b7:       in (2r)         r11, res[r2]
             0x00010e72: cc 52:       stw (ru6)       r11, dp[0xc]
             0x00010e74: 4e b7:       in (2r)         r11, res[r2]
             0x00010e76: cd 52:       stw (ru6)       r11, dp[0xd]
             0x00010e78: 4e b7:       in (2r)         r11, res[r2]
             0x00010e7a: ce 52:       stw (ru6)       r11, dp[0xe]
             0x00010e7c: 4e b7:       in (2r)         r11, res[r2]
             0x00010e7e: cf 52:       stw (ru6)       r11, dp[0xf]
             0x00010e80: 4e b7:       in (2r)         r11, res[r2]
             0x00010e82: d0 52:       stw (ru6)       r11, dp[0x10]
             0x00010e84: 4e b7:       in (2r)         r11, res[r2]
             0x00010e86: d1 52:       stw (ru6)       r11, dp[0x11]
             0x00010e88: 4e b7:       in (2r)         r11, res[r2]
             0x00010e8a: d2 52:       stw (ru6)       r11, dp[0x12]
             0x00010e8c: 4e b7:       in (2r)         r11, res[r2]
             0x00010e8e: d3 52:       stw (ru6)       r11, dp[0x13]
             0x00010e90: 4e b7:       in (2r)         r11, res[r2]
             0x00010e92: d4 52:       stw (ru6)       r11, dp[0x14]
             0x00010e94: 4e b7:       in (2r)         r11, res[r2]
             0x00010e96: d5 52:       stw (ru6)       r11, dp[0x15]
             0x00010e98: 4e b7:       in (2r)         r11, res[r2]
             0x00010e9a: d6 52:       stw (ru6)       r11, dp[0x16]
             0x00010e9c: 4e b7:       in (2r)         r11, res[r2]
             0x00010e9e: d7 52:       stw (ru6)       r11, dp[0x17]
             0x00010ea0: 4e b7:       in (2r)         r11, res[r2]
             0x00010ea2: d8 52:       stw (ru6)       r11, dp[0x18]
             0x00010ea4: 4e b7:       in (2r)         r11, res[r2]
             0x00010ea6: d9 52:       stw (ru6)       r11, dp[0x19]
             0x00010ea8: 4e b7:       in (2r)         r11, res[r2]
             0x00010eaa: da 52:       stw (ru6)       r11, dp[0x1a]
             0x00010eac: 4e b7:       in (2r)         r11, res[r2]
             0x00010eae: db 52:       stw (ru6)       r11, dp[0x1b]
             0x00010eb0: 4e b7:       in (2r)         r11, res[r2]
             0x00010eb2: dc 52:       stw (ru6)       r11, dp[0x1c]
             0x00010eb4: 4e b7:       in (2r)         r11, res[r2]
             0x00010eb6: dd 52:       stw (ru6)       r11, dp[0x1d]
             0x00010eb8: 4e b7:       in (2r)         r11, res[r2]
             0x00010eba: de 52:       stw (ru6)       r11, dp[0x1e]
             0x00010ebc: 4e b7:       in (2r)         r11, res[r2]
             0x00010ebe: df 52:       stw (ru6)       r11, dp[0x1f]
             0x00010ec0: 4e b7:       in (2r)         r11, res[r2]
             0x00010ec2: e0 52:       stw (ru6)       r11, dp[0x20]
             0x00010ec4: 4e b7:       in (2r)         r11, res[r2]
             0x00010ec6: e1 52:       stw (ru6)       r11, dp[0x21]
             0x00010ec8: 4e b7:       in (2r)         r11, res[r2]
             0x00010eca: e2 52:       stw (ru6)       r11, dp[0x22]
             0x00010ecc: 4e b7:       in (2r)         r11, res[r2]
             0x00010ece: e3 52:       stw (ru6)       r11, dp[0x23]
             0x00010ed0: 4e b7:       in (2r)         r11, res[r2]
             0x00010ed2: e4 52:       stw (ru6)       r11, dp[0x24]
             0x00010ed4: 4e b7:       in (2r)         r11, res[r2]
             0x00010ed6: e5 52:       stw (ru6)       r11, dp[0x25]
             0x00010ed8: 4e b7:       in (2r)         r11, res[r2]
             0x00010eda: e6 52:       stw (ru6)       r11, dp[0x26]
             0x00010edc: 4e b7:       in (2r)         r11, res[r2]
             0x00010ede: e7 52:       stw (ru6)       r11, dp[0x27]
             0x00010ee0: 4e b7:       in (2r)         r11, res[r2]
             0x00010ee2: e8 52:       stw (ru6)       r11, dp[0x28]
             0x00010ee4: 4e b7:       in (2r)         r11, res[r2]
             0x00010ee6: e9 52:       stw (ru6)       r11, dp[0x29]
             0x00010ee8: 4e b7:       in (2r)         r11, res[r2]
             0x00010eea: ea 52:       stw (ru6)       r11, dp[0x2a]
             0x00010eec: 4e b7:       in (2r)         r11, res[r2]
             0x00010eee: eb 52:       stw (ru6)       r11, dp[0x2b]
             0x00010ef0: 4e b7:       in (2r)         r11, res[r2]
             0x00010ef2: ec 52:       stw (ru6)       r11, dp[0x2c]
             0x00010ef4: 4e b7:       in (2r)         r11, res[r2]
             0x00010ef6: ed 52:       stw (ru6)       r11, dp[0x2d]
             0x00010ef8: 4e b7:       in (2r)         r11, res[r2]
             0x00010efa: ee 52:       stw (ru6)       r11, dp[0x2e]
             0x00010efc: 4e b7:       in (2r)         r11, res[r2]
             0x00010efe: ef 52:       stw (ru6)       r11, dp[0x2f]
             0x00010f00: 4e b7:       in (2r)         r11, res[r2]
             0x00010f02: f0 52:       stw (ru6)       r11, dp[0x30]
             0x00010f04: 4e b7:       in (2r)         r11, res[r2]
             0x00010f06: f1 52:       stw (ru6)       r11, dp[0x31]
             0x00010f08: 4e b7:       in (2r)         r11, res[r2]
             0x00010f0a: f2 52:       stw (ru6)       r11, dp[0x32]
             0x00010f0c: 4e b7:       in (2r)         r11, res[r2]
             0x00010f0e: f3 52:       stw (ru6)       r11, dp[0x33]
             0x00010f10: 4e b7:       in (2r)         r11, res[r2]
             0x00010f12: f4 52:       stw (ru6)       r11, dp[0x34]
             0x00010f14: 4e b7:       in (2r)         r11, res[r2]
             0x00010f16: f5 52:       stw (ru6)       r11, dp[0x35]
             0x00010f18: 4e b7:       in (2r)         r11, res[r2]
             0x00010f1a: f6 52:       stw (ru6)       r11, dp[0x36]
             0x00010f1c: 4e b7:       in (2r)         r11, res[r2]
             0x00010f1e: f7 52:       stw (ru6)       r11, dp[0x37]
             0x00010f20: 4e b7:       in (2r)         r11, res[r2]
             0x00010f22: f8 52:       stw (ru6)       r11, dp[0x38]
             0x00010f24: 4e b7:       in (2r)         r11, res[r2]
             0x00010f26: f9 52:       stw (ru6)       r11, dp[0x39]
             0x00010f28: 4e b7:       in (2r)         r11, res[r2]
             0x00010f2a: fa 52:       stw (ru6)       r11, dp[0x3a]
             0x00010f2c: 4e b7:       in (2r)         r11, res[r2]
             0x00010f2e: fb 52:       stw (ru6)       r11, dp[0x3b]
             0x00010f30: 4e b7:       in (2r)         r11, res[r2]
             0x00010f32: fc 52:       stw (ru6)       r11, dp[0x3c]
             0x00010f34: 4e b7:       in (2r)         r11, res[r2]
             0x00010f36: fd 52:       stw (ru6)       r11, dp[0x3d]
             0x00010f38: 4e b7:       in (2r)         r11, res[r2]
             0x00010f3a: fe 52:       stw (ru6)       r11, dp[0x3e]
             0x00010f3c: 0a b7:       in (2r)         r6, res[r2]
             0x00010f3e: e5 37:       set (1r)        dp, r5
             0x00010f40: 4e b7:       in (2r)         r11, res[r2]
             0x00010f42: c0 52:       stw (ru6)       r11, dp[0x0]
             0x00010f44: 4e b7:       in (2r)         r11, res[r2]
             0x00010f46: c1 52:       stw (ru6)       r11, dp[0x1]
             0x00010f48: 4e b7:       in (2r)         r11, res[r2]
             0x00010f4a: c2 52:       stw (ru6)       r11, dp[0x2]
             0x00010f4c: 4e b7:       in (2r)         r11, res[r2]
             0x00010f4e: c3 52:       stw (ru6)       r11, dp[0x3]
             0x00010f50: 4e b7:       in (2r)         r11, res[r2]
             0x00010f52: c4 52:       stw (ru6)       r11, dp[0x4]
             0x00010f54: 4e b7:       in (2r)         r11, res[r2]
             0x00010f56: c5 52:       stw (ru6)       r11, dp[0x5]
             0x00010f58: 4e b7:       in (2r)         r11, res[r2]
             0x00010f5a: c6 52:       stw (ru6)       r11, dp[0x6]
             0x00010f5c: 4e b7:       in (2r)         r11, res[r2]
             0x00010f5e: c7 52:       stw (ru6)       r11, dp[0x7]
             0x00010f60: 4e b7:       in (2r)         r11, res[r2]
             0x00010f62: c8 52:       stw (ru6)       r11, dp[0x8]
             0x00010f64: 4e b7:       in (2r)         r11, res[r2]
             0x00010f66: c9 52:       stw (ru6)       r11, dp[0x9]
             0x00010f68: 4e b7:       in (2r)         r11, res[r2]
             0x00010f6a: ca 52:       stw (ru6)       r11, dp[0xa]
             0x00010f6c: 4e b7:       in (2r)         r11, res[r2]
             0x00010f6e: cb 52:       stw (ru6)       r11, dp[0xb]
             0x00010f70: 4e b7:       in (2r)         r11, res[r2]
             0x00010f72: cc 52:       stw (ru6)       r11, dp[0xc]
             0x00010f74: 4e b7:       in (2r)         r11, res[r2]
             0x00010f76: cd 52:       stw (ru6)       r11, dp[0xd]
             0x00010f78: 4e b7:       in (2r)         r11, res[r2]
             0x00010f7a: ce 52:       stw (ru6)       r11, dp[0xe]
             0x00010f7c: 4e b7:       in (2r)         r11, res[r2]
             0x00010f7e: cf 52:       stw (ru6)       r11, dp[0xf]
             0x00010f80: 4e b7:       in (2r)         r11, res[r2]
             0x00010f82: d0 52:       stw (ru6)       r11, dp[0x10]
             0x00010f84: 4e b7:       in (2r)         r11, res[r2]
             0x00010f86: d1 52:       stw (ru6)       r11, dp[0x11]
             0x00010f88: 4e b7:       in (2r)         r11, res[r2]
             0x00010f8a: d2 52:       stw (ru6)       r11, dp[0x12]
             0x00010f8c: 4e b7:       in (2r)         r11, res[r2]
             0x00010f8e: d3 52:       stw (ru6)       r11, dp[0x13]
             0x00010f90: 4e b7:       in (2r)         r11, res[r2]
             0x00010f92: d4 52:       stw (ru6)       r11, dp[0x14]
             0x00010f94: 4e b7:       in (2r)         r11, res[r2]
             0x00010f96: d5 52:       stw (ru6)       r11, dp[0x15]
             0x00010f98: 4e b7:       in (2r)         r11, res[r2]
             0x00010f9a: d6 52:       stw (ru6)       r11, dp[0x16]
             0x00010f9c: 4e b7:       in (2r)         r11, res[r2]
             0x00010f9e: d7 52:       stw (ru6)       r11, dp[0x17]
             0x00010fa0: 4e b7:       in (2r)         r11, res[r2]
             0x00010fa2: d8 52:       stw (ru6)       r11, dp[0x18]
             0x00010fa4: 4e b7:       in (2r)         r11, res[r2]
             0x00010fa6: d9 52:       stw (ru6)       r11, dp[0x19]
             0x00010fa8: 4e b7:       in (2r)         r11, res[r2]
             0x00010faa: da 52:       stw (ru6)       r11, dp[0x1a]
             0x00010fac: 4e b7:       in (2r)         r11, res[r2]
             0x00010fae: db 52:       stw (ru6)       r11, dp[0x1b]
             0x00010fb0: 4e b7:       in (2r)         r11, res[r2]
             0x00010fb2: dc 52:       stw (ru6)       r11, dp[0x1c]
             0x00010fb4: 4e b7:       in (2r)         r11, res[r2]
             0x00010fb6: dd 52:       stw (ru6)       r11, dp[0x1d]
             0x00010fb8: 4e b7:       in (2r)         r11, res[r2]
             0x00010fba: de 52:       stw (ru6)       r11, dp[0x1e]
             0x00010fbc: 4e b7:       in (2r)         r11, res[r2]
             0x00010fbe: df 52:       stw (ru6)       r11, dp[0x1f]
             0x00010fc0: 4e b7:       in (2r)         r11, res[r2]
             0x00010fc2: e0 52:       stw (ru6)       r11, dp[0x20]
             0x00010fc4: 4e b7:       in (2r)         r11, res[r2]
             0x00010fc6: e1 52:       stw (ru6)       r11, dp[0x21]
             0x00010fc8: 4e b7:       in (2r)         r11, res[r2]
             0x00010fca: e2 52:       stw (ru6)       r11, dp[0x22]
             0x00010fcc: 4e b7:       in (2r)         r11, res[r2]
             0x00010fce: e3 52:       stw (ru6)       r11, dp[0x23]
             0x00010fd0: 4e b7:       in (2r)         r11, res[r2]
             0x00010fd2: e4 52:       stw (ru6)       r11, dp[0x24]
             0x00010fd4: 4e b7:       in (2r)         r11, res[r2]
             0x00010fd6: e5 52:       stw (ru6)       r11, dp[0x25]
             0x00010fd8: 4e b7:       in (2r)         r11, res[r2]
             0x00010fda: e6 52:       stw (ru6)       r11, dp[0x26]
             0x00010fdc: 4e b7:       in (2r)         r11, res[r2]
             0x00010fde: e7 52:       stw (ru6)       r11, dp[0x27]
             0x00010fe0: 4e b7:       in (2r)         r11, res[r2]
             0x00010fe2: e8 52:       stw (ru6)       r11, dp[0x28]
             0x00010fe4: 4e b7:       in (2r)         r11, res[r2]
             0x00010fe6: e9 52:       stw (ru6)       r11, dp[0x29]
             0x00010fe8: 4e b7:       in (2r)         r11, res[r2]
             0x00010fea: ea 52:       stw (ru6)       r11, dp[0x2a]
             0x00010fec: 4e b7:       in (2r)         r11, res[r2]
             0x00010fee: eb 52:       stw (ru6)       r11, dp[0x2b]
             0x00010ff0: 4e b7:       in (2r)         r11, res[r2]
             0x00010ff2: ec 52:       stw (ru6)       r11, dp[0x2c]
             0x00010ff4: 4e b7:       in (2r)         r11, res[r2]
             0x00010ff6: ed 52:       stw (ru6)       r11, dp[0x2d]
             0x00010ff8: 4e b7:       in (2r)         r11, res[r2]
             0x00010ffa: ee 52:       stw (ru6)       r11, dp[0x2e]
             0x00010ffc: 4e b7:       in (2r)         r11, res[r2]
             0x00010ffe: ef 52:       stw (ru6)       r11, dp[0x2f]
             0x00011000: 4e b7:       in (2r)         r11, res[r2]
             0x00011002: f0 52:       stw (ru6)       r11, dp[0x30]
             0x00011004: 4e b7:       in (2r)         r11, res[r2]
             0x00011006: f1 52:       stw (ru6)       r11, dp[0x31]
             0x00011008: 4e b7:       in (2r)         r11, res[r2]
             0x0001100a: f2 52:       stw (ru6)       r11, dp[0x32]
             0x0001100c: 4e b7:       in (2r)         r11, res[r2]
             0x0001100e: f3 52:       stw (ru6)       r11, dp[0x33]
             0x00011010: 4e b7:       in (2r)         r11, res[r2]
             0x00011012: f4 52:       stw (ru6)       r11, dp[0x34]
             0x00011014: 4e b7:       in (2r)         r11, res[r2]
             0x00011016: f5 52:       stw (ru6)       r11, dp[0x35]
             0x00011018: 4e b7:       in (2r)         r11, res[r2]
             0x0001101a: f6 52:       stw (ru6)       r11, dp[0x36]
             0x0001101c: 4e b7:       in (2r)         r11, res[r2]
             0x0001101e: f7 52:       stw (ru6)       r11, dp[0x37]
             0x00011020: 4e b7:       in (2r)         r11, res[r2]
             0x00011022: f8 52:       stw (ru6)       r11, dp[0x38]
             0x00011024: 4e b7:       in (2r)         r11, res[r2]
             0x00011026: f9 52:       stw (ru6)       r11, dp[0x39]
             0x00011028: 4e b7:       in (2r)         r11, res[r2]
             0x0001102a: fa 52:       stw (ru6)       r11, dp[0x3a]
             0x0001102c: 4e b7:       in (2r)         r11, res[r2]
             0x0001102e: fb 52:       stw (ru6)       r11, dp[0x3b]
             0x00011030: 4e b7:       in (2r)         r11, res[r2]
             0x00011032: 13 3f:       setpt (r2r)     res[r3], r4
             0x00011034: 02 b7:       in (2r)         r4, res[r2]
             0x00011036: 4f fa ed 97: outpw (l2rus)   res[r3], r0, 0x7
             0x0001103a: ce b6:       in (2r)         r3, res[r2]
             0x0001103c: 08 5c:       ldw (ru6)       r0, sp[0x8]
             0x0001103e: 0e b7:       in (2r)         r7, res[r2]
             0x00011040: 50 3f:       setpt (r2r)     res[r0], r8
             0x00011042: 02 6a:       ldc (ru6)       r8, 0x2
             0x00011044: 82 f8 ed 97: outpw (l2rus)   res[r0], r8, 0x2
             0x00011048: d0 a6:       mkmsk (rus)     r0, 0x20
             0x0001104a: c2 ae:       out (r2r)       res[r2], r0
             0x0001104c: fc 52:       stw (ru6)       r11, dp[0x3c]
             0x0001104e: 3d 51:       stw (ru6)       r4, dp[0x3d]
             0x00011050: fe 50:       stw (ru6)       r3, dp[0x3e]
             0x00011052: ff 51:       stw (ru6)       r7, dp[0x3f]
             0x00011054: c0 62:       ldaw (ru6)      r11, dp[0x0]
             0x00011056: 1d 34:       eq (3r)         r5, r11, r5
             0x00011058: 42 79:       bf (ru6)        r5, 0x2 <jump>
             0x0001105a: 81 73:       extdp (u6)      0x1
             0x0001105c: 80 51:       stw (ru6)       r6, dp[0x0]

<jump>:
             0x0001105e: e1 37:       set (1r)        dp, r1
             0x00011060: 04 5e:       ldw (ru6)       r8, sp[0x4]
             0x00011062: c3 5d:       ldw (ru6)       r7, sp[0x3]
             0x00011064: 82 5d:       ldw (ru6)       r6, sp[0x2]
             0x00011066: 41 5d:       ldw (ru6)       r5, sp[0x1]
             0x00011068: 00 5d:       ldw (ru6)       r4, sp[0x0]
             0x0001106a: c5 77:       retsp (u6)      0x5

<sdram_short_block_read_PINOUT_V1_IS42S16160D>:
             0x0001106c: 44 77:       entsp (u6)      0x4
             0x0001106e: 00 55:       stw (ru6)       r4, sp[0x0]
             0x00011070: 41 55:       stw (ru6)       r5, sp[0x1]
             0x00011072: 82 55:       stw (ru6)       r6, sp[0x2]
             0x00011074: c3 55:       stw (ru6)       r7, sp[0x3]
             0x00011076: 05 5d:       ldw (ru6)       r4, sp[0x5]
             0x00011078: 72 93:       add (2rus)      r7, r4, 0x6
             0x0001107a: 02 f0 7e 69: ldc (lru6)      r5, 0xbe
             0x0001107e: c6 5e:       ldw (ru6)       r11, sp[0x6]
             0x00011080: 5e 3f:       setpt (r2r)     res[r2], r11
             0x00011082: 4e b7:       in (2r)         r11, res[r2]
             0x00011084: 4e b7:       in (2r)         r11, res[r2]
             0x00011086: 13 3f:       setpt (r2r)     res[r3], r4
             0x00011088: 02 b7:       in (2r)         r4, res[r2]
             0x0001108a: dc fc ed 97: outpw (l2rus)   res[r3], r5, 0x8
             0x0001108e: 06 b7:       in (2r)         r5, res[r2]
             0x00011090: dc a6:       mkmsk (rus)     r3, 0x20
             0x00011092: 0a b7:       in (2r)         r6, res[r2]
             0x00011094: ce ae:       out (r2r)       res[r2], r3
             0x00011096: c7 5c:       ldw (ru6)       r3, sp[0x7]
             0x00011098: 1f 3f:       setpt (r2r)     res[r3], r7
             0x0001109a: 82 68:       ldc (ru6)       r2, 0x2
             0x0001109c: 2e f8 ed 97: outpw (l2rus)   res[r3], r2, 0x2
             0x000110a0: 84 68:       ldc (ru6)       r2, 0x4
             0x000110a2: 19 18:       sub (3r)        r1, r2, r1
             0x000110a4: e1 2f:       bru (1r)        r1
             0x000110a6: 63 00:       stw (2rus)      r6, r0[0x3]
             0x000110a8: 52 00:       stw (2rus)      r5, r0[0x2]
             0x000110aa: 41 00:       stw (2rus)      r4, r0[0x1]
             0x000110ac: b0 00:       stw (2rus)      r11, r0[0x0]
             0x000110ae: c3 5d:       ldw (ru6)       r7, sp[0x3]
             0x000110b0: 82 5d:       ldw (ru6)       r6, sp[0x2]
             0x000110b2: 41 5d:       ldw (ru6)       r5, sp[0x1]
             0x000110b4: 00 5d:       ldw (ru6)       r4, sp[0x0]
             0x000110b6: c4 77:       retsp (u6)      0x4

<sdram_block_write_PINOUT_V1_IS42S16400F>:
             0x000110b8: 00 55:       stw (ru6)       r4, sp[0x0]
             0x000110ba: 10 a7:       mkmsk (rus)     r4, 0x20
             0x000110bc: 81 9d:       sub (2rus)      r4, r4, 0x9
             0x000110be: 40 7f:       ldaw (u6)       r11, cp[0x0]
             0x000110c0: f0 37:       set (1r)        cp, r0
             0x000110c2: 8c 91:       add (2rus)      r0, r11, 0x0
             0x000110c4: b4 90:       add (2rus)      r11, r1, 0x0
             0x000110c6: 00 90:       add (2rus)      r0, r0, 0x0
             0x000110c8: 42 5c:       ldw (ru6)       r1, sp[0x2]
             0x000110ca: eb 2f:       bru (1r)        r11
             0x000110cc: c0 6e:       ldw (ru6)       r11, cp[0x0]
             0x000110ce: 4e af:       out (r2r)       res[r2], r11
             0x000110d0: c1 6e:       ldw (ru6)       r11, cp[0x1]
             0x000110d2: 4e af:       out (r2r)       res[r2], r11
             0x000110d4: c2 6e:       ldw (ru6)       r11, cp[0x2]
             0x000110d6: 4e af:       out (r2r)       res[r2], r11
             0x000110d8: c3 6e:       ldw (ru6)       r11, cp[0x3]
             0x000110da: 4e af:       out (r2r)       res[r2], r11
             0x000110dc: c4 6e:       ldw (ru6)       r11, cp[0x4]
             0x000110de: 4e af:       out (r2r)       res[r2], r11
             0x000110e0: c5 6e:       ldw (ru6)       r11, cp[0x5]
             0x000110e2: 4e af:       out (r2r)       res[r2], r11
             0x000110e4: c6 6e:       ldw (ru6)       r11, cp[0x6]
             0x000110e6: 4e af:       out (r2r)       res[r2], r11
             0x000110e8: c7 6e:       ldw (ru6)       r11, cp[0x7]
             0x000110ea: 4e af:       out (r2r)       res[r2], r11
             0x000110ec: c8 6e:       ldw (ru6)       r11, cp[0x8]
             0x000110ee: 4e af:       out (r2r)       res[r2], r11
             0x000110f0: c9 6e:       ldw (ru6)       r11, cp[0x9]
             0x000110f2: 4e af:       out (r2r)       res[r2], r11
             0x000110f4: ca 6e:       ldw (ru6)       r11, cp[0xa]
             0x000110f6: 4e af:       out (r2r)       res[r2], r11
             0x000110f8: cb 6e:       ldw (ru6)       r11, cp[0xb]
             0x000110fa: 4e af:       out (r2r)       res[r2], r11
             0x000110fc: cc 6e:       ldw (ru6)       r11, cp[0xc]
             0x000110fe: 4e af:       out (r2r)       res[r2], r11
             0x00011100: cd 6e:       ldw (ru6)       r11, cp[0xd]
             0x00011102: 4e af:       out (r2r)       res[r2], r11
             0x00011104: ce 6e:       ldw (ru6)       r11, cp[0xe]
             0x00011106: 4e af:       out (r2r)       res[r2], r11
             0x00011108: cf 6e:       ldw (ru6)       r11, cp[0xf]
             0x0001110a: 4e af:       out (r2r)       res[r2], r11
             0x0001110c: d0 6e:       ldw (ru6)       r11, cp[0x10]
             0x0001110e: 4e af:       out (r2r)       res[r2], r11
             0x00011110: d1 6e:       ldw (ru6)       r11, cp[0x11]
             0x00011112: 4e af:       out (r2r)       res[r2], r11
             0x00011114: d2 6e:       ldw (ru6)       r11, cp[0x12]
             0x00011116: 4e af:       out (r2r)       res[r2], r11
             0x00011118: d3 6e:       ldw (ru6)       r11, cp[0x13]
             0x0001111a: 4e af:       out (r2r)       res[r2], r11
             0x0001111c: d4 6e:       ldw (ru6)       r11, cp[0x14]
             0x0001111e: 4e af:       out (r2r)       res[r2], r11
             0x00011120: d5 6e:       ldw (ru6)       r11, cp[0x15]
             0x00011122: 4e af:       out (r2r)       res[r2], r11
             0x00011124: d6 6e:       ldw (ru6)       r11, cp[0x16]
             0x00011126: 4e af:       out (r2r)       res[r2], r11
             0x00011128: d7 6e:       ldw (ru6)       r11, cp[0x17]
             0x0001112a: 4e af:       out (r2r)       res[r2], r11
             0x0001112c: d8 6e:       ldw (ru6)       r11, cp[0x18]
             0x0001112e: 4e af:       out (r2r)       res[r2], r11
             0x00011130: d9 6e:       ldw (ru6)       r11, cp[0x19]
             0x00011132: 4e af:       out (r2r)       res[r2], r11
             0x00011134: da 6e:       ldw (ru6)       r11, cp[0x1a]
             0x00011136: 4e af:       out (r2r)       res[r2], r11
             0x00011138: db 6e:       ldw (ru6)       r11, cp[0x1b]
             0x0001113a: 4e af:       out (r2r)       res[r2], r11
             0x0001113c: dc 6e:       ldw (ru6)       r11, cp[0x1c]
             0x0001113e: 4e af:       out (r2r)       res[r2], r11
             0x00011140: dd 6e:       ldw (ru6)       r11, cp[0x1d]
             0x00011142: 4e af:       out (r2r)       res[r2], r11
             0x00011144: de 6e:       ldw (ru6)       r11, cp[0x1e]
             0x00011146: 4e af:       out (r2r)       res[r2], r11
             0x00011148: df 6e:       ldw (ru6)       r11, cp[0x1f]
             0x0001114a: 4e af:       out (r2r)       res[r2], r11
             0x0001114c: e0 6e:       ldw (ru6)       r11, cp[0x20]
             0x0001114e: 4e af:       out (r2r)       res[r2], r11
             0x00011150: e1 6e:       ldw (ru6)       r11, cp[0x21]
             0x00011152: 4e af:       out (r2r)       res[r2], r11
             0x00011154: e2 6e:       ldw (ru6)       r11, cp[0x22]
             0x00011156: 4e af:       out (r2r)       res[r2], r11
             0x00011158: e3 6e:       ldw (ru6)       r11, cp[0x23]
             0x0001115a: 4e af:       out (r2r)       res[r2], r11
             0x0001115c: e4 6e:       ldw (ru6)       r11, cp[0x24]
             0x0001115e: 4e af:       out (r2r)       res[r2], r11
             0x00011160: e5 6e:       ldw (ru6)       r11, cp[0x25]
             0x00011162: 4e af:       out (r2r)       res[r2], r11
             0x00011164: e6 6e:       ldw (ru6)       r11, cp[0x26]
             0x00011166: 4e af:       out (r2r)       res[r2], r11
             0x00011168: e7 6e:       ldw (ru6)       r11, cp[0x27]
             0x0001116a: 4e af:       out (r2r)       res[r2], r11
             0x0001116c: e8 6e:       ldw (ru6)       r11, cp[0x28]
             0x0001116e: 4e af:       out (r2r)       res[r2], r11
             0x00011170: e9 6e:       ldw (ru6)       r11, cp[0x29]
             0x00011172: 4e af:       out (r2r)       res[r2], r11
             0x00011174: ea 6e:       ldw (ru6)       r11, cp[0x2a]
             0x00011176: 4e af:       out (r2r)       res[r2], r11
             0x00011178: eb 6e:       ldw (ru6)       r11, cp[0x2b]
             0x0001117a: 4e af:       out (r2r)       res[r2], r11
             0x0001117c: ec 6e:       ldw (ru6)       r11, cp[0x2c]
             0x0001117e: 4e af:       out (r2r)       res[r2], r11
             0x00011180: ed 6e:       ldw (ru6)       r11, cp[0x2d]
             0x00011182: 4e af:       out (r2r)       res[r2], r11
             0x00011184: ee 6e:       ldw (ru6)       r11, cp[0x2e]
             0x00011186: 4e af:       out (r2r)       res[r2], r11
             0x00011188: ef 6e:       ldw (ru6)       r11, cp[0x2f]
             0x0001118a: 4e af:       out (r2r)       res[r2], r11
             0x0001118c: f0 6e:       ldw (ru6)       r11, cp[0x30]
             0x0001118e: 4e af:       out (r2r)       res[r2], r11
             0x00011190: f1 6e:       ldw (ru6)       r11, cp[0x31]
             0x00011192: 4e af:       out (r2r)       res[r2], r11
             0x00011194: f2 6e:       ldw (ru6)       r11, cp[0x32]
             0x00011196: 4e af:       out (r2r)       res[r2], r11
             0x00011198: f3 6e:       ldw (ru6)       r11, cp[0x33]
             0x0001119a: 4e af:       out (r2r)       res[r2], r11
             0x0001119c: f4 6e:       ldw (ru6)       r11, cp[0x34]
             0x0001119e: 4e af:       out (r2r)       res[r2], r11
             0x000111a0: f5 6e:       ldw (ru6)       r11, cp[0x35]
             0x000111a2: 4e af:       out (r2r)       res[r2], r11
             0x000111a4: f6 6e:       ldw (ru6)       r11, cp[0x36]
             0x000111a6: 4e af:       out (r2r)       res[r2], r11
             0x000111a8: f7 6e:       ldw (ru6)       r11, cp[0x37]
             0x000111aa: 4e af:       out (r2r)       res[r2], r11
             0x000111ac: f8 6e:       ldw (ru6)       r11, cp[0x38]
             0x000111ae: 4e af:       out (r2r)       res[r2], r11
             0x000111b0: f9 6e:       ldw (ru6)       r11, cp[0x39]
             0x000111b2: 4e af:       out (r2r)       res[r2], r11
             0x000111b4: fa 6e:       ldw (ru6)       r11, cp[0x3a]
             0x000111b6: 4e af:       out (r2r)       res[r2], r11
             0x000111b8: fb 6e:       ldw (ru6)       r11, cp[0x3b]
             0x000111ba: 4e af:       out (r2r)       res[r2], r11
             0x000111bc: fc 6e:       ldw (ru6)       r11, cp[0x3c]
             0x000111be: 4e af:       out (r2r)       res[r2], r11
             0x000111c0: fd 6e:       ldw (ru6)       r11, cp[0x3d]
             0x000111c2: 4e af:       out (r2r)       res[r2], r11
             0x000111c4: fe 6e:       ldw (ru6)       r11, cp[0x3e]
             0x000111c6: 4e af:       out (r2r)       res[r2], r11
             0x000111c8: ff 6e:       ldw (ru6)       r11, cp[0x3f]
             0x000111ca: 4e af:       out (r2r)       res[r2], r11
             0x000111cc: 40 e4:       ldw (u10)       r11, cp[0x40]
             0x000111ce: 4e af:       out (r2r)       res[r2], r11
             0x000111d0: 41 e4:       ldw (u10)       r11, cp[0x41]
             0x000111d2: 4e af:       out (r2r)       res[r2], r11
             0x000111d4: 42 e4:       ldw (u10)       r11, cp[0x42]
             0x000111d6: 4e af:       out (r2r)       res[r2], r11
             0x000111d8: 43 e4:       ldw (u10)       r11, cp[0x43]
             0x000111da: 4e af:       out (r2r)       res[r2], r11
             0x000111dc: 44 e4:       ldw (u10)       r11, cp[0x44]
             0x000111de: 4e af:       out (r2r)       res[r2], r11
             0x000111e0: 45 e4:       ldw (u10)       r11, cp[0x45]
             0x000111e2: 4e af:       out (r2r)       res[r2], r11
             0x000111e4: 46 e4:       ldw (u10)       r11, cp[0x46]
             0x000111e6: 4e af:       out (r2r)       res[r2], r11
             0x000111e8: 47 e4:       ldw (u10)       r11, cp[0x47]
             0x000111ea: 4e af:       out (r2r)       res[r2], r11
             0x000111ec: 48 e4:       ldw (u10)       r11, cp[0x48]
             0x000111ee: 4e af:       out (r2r)       res[r2], r11
             0x000111f0: 49 e4:       ldw (u10)       r11, cp[0x49]
             0x000111f2: 4e af:       out (r2r)       res[r2], r11
             0x000111f4: 4a e4:       ldw (u10)       r11, cp[0x4a]
             0x000111f6: 4e af:       out (r2r)       res[r2], r11
             0x000111f8: 4b e4:       ldw (u10)       r11, cp[0x4b]
             0x000111fa: 4e af:       out (r2r)       res[r2], r11
             0x000111fc: 4c e4:       ldw (u10)       r11, cp[0x4c]
             0x000111fe: 4e af:       out (r2r)       res[r2], r11
             0x00011200: 4d e4:       ldw (u10)       r11, cp[0x4d]
             0x00011202: 4e af:       out (r2r)       res[r2], r11
             0x00011204: 4e e4:       ldw (u10)       r11, cp[0x4e]
             0x00011206: 4e af:       out (r2r)       res[r2], r11
             0x00011208: 4f e4:       ldw (u10)       r11, cp[0x4f]
             0x0001120a: 4e af:       out (r2r)       res[r2], r11
             0x0001120c: 50 e4:       ldw (u10)       r11, cp[0x50]
             0x0001120e: 4e af:       out (r2r)       res[r2], r11
             0x00011210: 51 e4:       ldw (u10)       r11, cp[0x51]
             0x00011212: 4e af:       out (r2r)       res[r2], r11
             0x00011214: 52 e4:       ldw (u10)       r11, cp[0x52]
             0x00011216: 4e af:       out (r2r)       res[r2], r11
             0x00011218: 53 e4:       ldw (u10)       r11, cp[0x53]
             0x0001121a: 4e af:       out (r2r)       res[r2], r11
             0x0001121c: 54 e4:       ldw (u10)       r11, cp[0x54]
             0x0001121e: 4e af:       out (r2r)       res[r2], r11
             0x00011220: 55 e4:       ldw (u10)       r11, cp[0x55]
             0x00011222: 4e af:       out (r2r)       res[r2], r11
             0x00011224: 56 e4:       ldw (u10)       r11, cp[0x56]
             0x00011226: 4e af:       out (r2r)       res[r2], r11
             0x00011228: 57 e4:       ldw (u10)       r11, cp[0x57]
             0x0001122a: 4e af:       out (r2r)       res[r2], r11
             0x0001122c: 58 e4:       ldw (u10)       r11, cp[0x58]
             0x0001122e: 4e af:       out (r2r)       res[r2], r11
             0x00011230: 59 e4:       ldw (u10)       r11, cp[0x59]
             0x00011232: 4e af:       out (r2r)       res[r2], r11
             0x00011234: 5a e4:       ldw (u10)       r11, cp[0x5a]
             0x00011236: 4e af:       out (r2r)       res[r2], r11
             0x00011238: 5b e4:       ldw (u10)       r11, cp[0x5b]
             0x0001123a: 4e af:       out (r2r)       res[r2], r11
             0x0001123c: 5c e4:       ldw (u10)       r11, cp[0x5c]
             0x0001123e: 4e af:       out (r2r)       res[r2], r11
             0x00011240: 5d e4:       ldw (u10)       r11, cp[0x5d]
             0x00011242: 4e af:       out (r2r)       res[r2], r11
             0x00011244: 5e e4:       ldw (u10)       r11, cp[0x5e]
             0x00011246: 4e af:       out (r2r)       res[r2], r11
             0x00011248: 5f e4:       ldw (u10)       r11, cp[0x5f]
             0x0001124a: 4e af:       out (r2r)       res[r2], r11
             0x0001124c: 60 e4:       ldw (u10)       r11, cp[0x60]
             0x0001124e: 4e af:       out (r2r)       res[r2], r11
             0x00011250: 61 e4:       ldw (u10)       r11, cp[0x61]
             0x00011252: 4e af:       out (r2r)       res[r2], r11
             0x00011254: 62 e4:       ldw (u10)       r11, cp[0x62]
             0x00011256: 4e af:       out (r2r)       res[r2], r11
             0x00011258: 63 e4:       ldw (u10)       r11, cp[0x63]
             0x0001125a: 4e af:       out (r2r)       res[r2], r11
             0x0001125c: 64 e4:       ldw (u10)       r11, cp[0x64]
             0x0001125e: 4e af:       out (r2r)       res[r2], r11
             0x00011260: 65 e4:       ldw (u10)       r11, cp[0x65]
             0x00011262: 4e af:       out (r2r)       res[r2], r11
             0x00011264: 66 e4:       ldw (u10)       r11, cp[0x66]
             0x00011266: 4e af:       out (r2r)       res[r2], r11
             0x00011268: 67 e4:       ldw (u10)       r11, cp[0x67]
             0x0001126a: 4e af:       out (r2r)       res[r2], r11
             0x0001126c: 68 e4:       ldw (u10)       r11, cp[0x68]
             0x0001126e: 4e af:       out (r2r)       res[r2], r11
             0x00011270: 69 e4:       ldw (u10)       r11, cp[0x69]
             0x00011272: 4e af:       out (r2r)       res[r2], r11
             0x00011274: 6a e4:       ldw (u10)       r11, cp[0x6a]
             0x00011276: 4e af:       out (r2r)       res[r2], r11
             0x00011278: 6b e4:       ldw (u10)       r11, cp[0x6b]
             0x0001127a: 4e af:       out (r2r)       res[r2], r11
             0x0001127c: 6c e4:       ldw (u10)       r11, cp[0x6c]
             0x0001127e: 4e af:       out (r2r)       res[r2], r11
             0x00011280: 6d e4:       ldw (u10)       r11, cp[0x6d]
             0x00011282: 4e af:       out (r2r)       res[r2], r11
             0x00011284: 6e e4:       ldw (u10)       r11, cp[0x6e]
             0x00011286: 4e af:       out (r2r)       res[r2], r11
             0x00011288: 6f e4:       ldw (u10)       r11, cp[0x6f]
             0x0001128a: 4e af:       out (r2r)       res[r2], r11
             0x0001128c: 70 e4:       ldw (u10)       r11, cp[0x70]
             0x0001128e: 4e af:       out (r2r)       res[r2], r11
             0x00011290: 71 e4:       ldw (u10)       r11, cp[0x71]
             0x00011292: 4e af:       out (r2r)       res[r2], r11
             0x00011294: 72 e4:       ldw (u10)       r11, cp[0x72]
             0x00011296: 4e af:       out (r2r)       res[r2], r11
             0x00011298: 73 e4:       ldw (u10)       r11, cp[0x73]
             0x0001129a: 4e af:       out (r2r)       res[r2], r11
             0x0001129c: 74 e4:       ldw (u10)       r11, cp[0x74]
             0x0001129e: 4e af:       out (r2r)       res[r2], r11
             0x000112a0: 75 e4:       ldw (u10)       r11, cp[0x75]
             0x000112a2: 4e af:       out (r2r)       res[r2], r11
             0x000112a4: 76 e4:       ldw (u10)       r11, cp[0x76]
             0x000112a6: 4e af:       out (r2r)       res[r2], r11
             0x000112a8: 77 e4:       ldw (u10)       r11, cp[0x77]
             0x000112aa: 4e af:       out (r2r)       res[r2], r11
             0x000112ac: 78 e4:       ldw (u10)       r11, cp[0x78]
             0x000112ae: 4e af:       out (r2r)       res[r2], r11
             0x000112b0: 79 e4:       ldw (u10)       r11, cp[0x79]
             0x000112b2: 4e af:       out (r2r)       res[r2], r11
             0x000112b4: 7a e4:       ldw (u10)       r11, cp[0x7a]
             0x000112b6: 4e af:       out (r2r)       res[r2], r11
             0x000112b8: 7b e4:       ldw (u10)       r11, cp[0x7b]
             0x000112ba: 4e af:       out (r2r)       res[r2], r11
             0x000112bc: 7c e4:       ldw (u10)       r11, cp[0x7c]
             0x000112be: 4e af:       out (r2r)       res[r2], r11
             0x000112c0: 7d e4:       ldw (u10)       r11, cp[0x7d]
             0x000112c2: 4e af:       out (r2r)       res[r2], r11
             0x000112c4: 7e e4:       ldw (u10)       r11, cp[0x7e]
             0x000112c6: 4e af:       out (r2r)       res[r2], r11
             0x000112c8: 7f e4:       ldw (u10)       r11, cp[0x7f]
             0x000112ca: 4e af:       out (r2r)       res[r2], r11
             0x000112cc: d7 3e:       setpt (r2r)     res[r3], r1
             0x000112ce: 8d fa ed 97: outpw (l2rus)   res[r3], r4, 0x5
             0x000112d2: 02 af:       out (r2r)       res[r2], r4
             0x000112d4: 17 90:       add (2rus)      r1, r1, 0x3
             0x000112d6: c1 5c:       ldw (ru6)       r3, sp[0x1]
             0x000112d8: d7 3e:       setpt (r2r)     res[r3], r1
             0x000112da: 4e f8 ed 97: outpw (l2rus)   res[r3], r4, 0x2
             0x000112de: f0 37:       set (1r)        cp, r0
             0x000112e0: 00 5d:       ldw (ru6)       r4, sp[0x0]
             0x000112e2: c0 77:       retsp (u6)      0x0

<sdram_block_read_PINOUT_V1_IS42S16400F>:
             0x000112e4: 45 77:       entsp (u6)      0x5
             0x000112e6: 00 55:       stw (ru6)       r4, sp[0x0]
             0x000112e8: 41 55:       stw (ru6)       r5, sp[0x1]
             0x000112ea: 82 55:       stw (ru6)       r6, sp[0x2]
             0x000112ec: c3 55:       stw (ru6)       r7, sp[0x3]
             0x000112ee: 04 56:       stw (ru6)       r8, sp[0x4]
             0x000112f0: 74 90:       add (2rus)      r7, r1, 0x0
             0x000112f2: 06 5d:       ldw (ru6)       r4, sp[0x6]
             0x000112f4: 81 93:       add (2rus)      r8, r4, 0x5
             0x000112f6: 40 60:       ldaw (ru6)      r1, dp[0x0]
             0x000112f8: e0 37:       set (1r)        dp, r0
             0x000112fa: 7f 61:       ldaw (ru6)      r5, dp[0x3f]
             0x000112fc: 54 93:       add (2rus)      r5, r5, 0x4
             0x000112fe: 01 f0 1e 68: ldc (lru6)      r0, 0x5e
             0x00011302: c7 5e:       ldw (ru6)       r11, sp[0x7]
             0x00011304: 5e 3f:       setpt (r2r)     res[r2], r11
             0x00011306: 00 90:       add (2rus)      r0, r0, 0x0
             0x00011308: 4e b7:       in (2r)         r11, res[r2]
             0x0001130a: e7 2f:       bru (1r)        r7
             0x0001130c: 4e b7:       in (2r)         r11, res[r2]
             0x0001130e: c0 52:       stw (ru6)       r11, dp[0x0]
             0x00011310: 4e b7:       in (2r)         r11, res[r2]
             0x00011312: c1 52:       stw (ru6)       r11, dp[0x1]
             0x00011314: 4e b7:       in (2r)         r11, res[r2]
             0x00011316: c2 52:       stw (ru6)       r11, dp[0x2]
             0x00011318: 4e b7:       in (2r)         r11, res[r2]
             0x0001131a: c3 52:       stw (ru6)       r11, dp[0x3]
             0x0001131c: 4e b7:       in (2r)         r11, res[r2]
             0x0001131e: c4 52:       stw (ru6)       r11, dp[0x4]
             0x00011320: 4e b7:       in (2r)         r11, res[r2]
             0x00011322: c5 52:       stw (ru6)       r11, dp[0x5]
             0x00011324: 4e b7:       in (2r)         r11, res[r2]
             0x00011326: c6 52:       stw (ru6)       r11, dp[0x6]
             0x00011328: 4e b7:       in (2r)         r11, res[r2]
             0x0001132a: c7 52:       stw (ru6)       r11, dp[0x7]
             0x0001132c: 4e b7:       in (2r)         r11, res[r2]
             0x0001132e: c8 52:       stw (ru6)       r11, dp[0x8]
             0x00011330: 4e b7:       in (2r)         r11, res[r2]
             0x00011332: c9 52:       stw (ru6)       r11, dp[0x9]
             0x00011334: 4e b7:       in (2r)         r11, res[r2]
             0x00011336: ca 52:       stw (ru6)       r11, dp[0xa]
             0x00011338: 4e b7:       in (2r)         r11, res[r2]
             0x0001133a: cb 52:       stw (ru6)       r11, dp[0xb]
             0x0001133c: 4e b7:       in (2r)         r11, res[r2]
             0x0001133e: cc 52:       stw (ru6)       r11, dp[0xc]
             0x00011340: 4e b7:       in (2r)         r11, res[r2]
             0x00011342: cd 52:       stw (ru6)       r11, dp[0xd]
             0x00011344: 4e b7:       in (2r)         r11, res[r2]
             0x00011346: ce 52:       stw (ru6)       r11, dp[0xe]
             0x00011348: 4e b7:       in (2r)         r11, res[r2]
             0x0001134a: cf 52:       stw (ru6)       r11, dp[0xf]
             0x0001134c: 4e b7:       in (2r)         r11, res[r2]
             0x0001134e: d0 52:       stw (ru6)       r11, dp[0x10]
             0x00011350: 4e b7:       in (2r)         r11, res[r2]
             0x00011352: d1 52:       stw (ru6)       r11, dp[0x11]
             0x00011354: 4e b7:       in (2r)         r11, res[r2]
             0x00011356: d2 52:       stw (ru6)       r11, dp[0x12]
             0x00011358: 4e b7:       in (2r)         r11, res[r2]
             0x0001135a: d3 52:       stw (ru6)       r11, dp[0x13]
             0x0001135c: 4e b7:       in (2r)         r11, res[r2]
             0x0001135e: d4 52:       stw (ru6)       r11, dp[0x14]
             0x00011360: 4e b7:       in (2r)         r11, res[r2]
             0x00011362: d5 52:       stw (ru6)       r11, dp[0x15]
             0x00011364: 4e b7:       in (2r)         r11, res[r2]
             0x00011366: d6 52:       stw (ru6)       r11, dp[0x16]
             0x00011368: 4e b7:       in (2r)         r11, res[r2]
             0x0001136a: d7 52:       stw (ru6)       r11, dp[0x17]
             0x0001136c: 4e b7:       in (2r)         r11, res[r2]
             0x0001136e: d8 52:       stw (ru6)       r11, dp[0x18]
             0x00011370: 4e b7:       in (2r)         r11, res[r2]
             0x00011372: d9 52:       stw (ru6)       r11, dp[0x19]
             0x00011374: 4e b7:       in (2r)         r11, res[r2]
             0x00011376: da 52:       stw (ru6)       r11, dp[0x1a]
             0x00011378: 4e b7:       in (2r)         r11, res[r2]
             0x0001137a: db 52:       stw (ru6)       r11, dp[0x1b]
             0x0001137c: 4e b7:       in (2r)         r11, res[r2]
             0x0001137e: dc 52:       stw (ru6)       r11, dp[0x1c]
             0x00011380: 4e b7:       in (2r)         r11, res[r2]
             0x00011382: dd 52:       stw (ru6)       r11, dp[0x1d]
             0x00011384: 4e b7:       in (2r)         r11, res[r2]
             0x00011386: de 52:       stw (ru6)       r11, dp[0x1e]
             0x00011388: 4e b7:       in (2r)         r11, res[r2]
             0x0001138a: df 52:       stw (ru6)       r11, dp[0x1f]
             0x0001138c: 4e b7:       in (2r)         r11, res[r2]
             0x0001138e: e0 52:       stw (ru6)       r11, dp[0x20]
             0x00011390: 4e b7:       in (2r)         r11, res[r2]
             0x00011392: e1 52:       stw (ru6)       r11, dp[0x21]
             0x00011394: 4e b7:       in (2r)         r11, res[r2]
             0x00011396: e2 52:       stw (ru6)       r11, dp[0x22]
             0x00011398: 4e b7:       in (2r)         r11, res[r2]
             0x0001139a: e3 52:       stw (ru6)       r11, dp[0x23]
             0x0001139c: 4e b7:       in (2r)         r11, res[r2]
             0x0001139e: e4 52:       stw (ru6)       r11, dp[0x24]
             0x000113a0: 4e b7:       in (2r)         r11, res[r2]
             0x000113a2: e5 52:       stw (ru6)       r11, dp[0x25]
             0x000113a4: 4e b7:       in (2r)         r11, res[r2]
             0x000113a6: e6 52:       stw (ru6)       r11, dp[0x26]
             0x000113a8: 4e b7:       in (2r)         r11, res[r2]
             0x000113aa: e7 52:       stw (ru6)       r11, dp[0x27]
             0x000113ac: 4e b7:       in (2r)         r11, res[r2]
             0x000113ae: e8 52:       stw (ru6)       r11, dp[0x28]
             0x000113b0: 4e b7:       in (2r)         r11, res[r2]
             0x000113b2: e9 52:       stw (ru6)       r11, dp[0x29]
             0x000113b4: 4e b7:       in (2r)         r11, res[r2]
             0x000113b6: ea 52:       stw (ru6)       r11, dp[0x2a]
             0x000113b8: 4e b7:       in (2r)         r11, res[r2]
             0x000113ba: eb 52:       stw (ru6)       r11, dp[0x2b]
             0x000113bc: 4e b7:       in (2r)         r11, res[r2]
             0x000113be: ec 52:       stw (ru6)       r11, dp[0x2c]
             0x000113c0: 4e b7:       in (2r)         r11, res[r2]
             0x000113c2: ed 52:       stw (ru6)       r11, dp[0x2d]
             0x000113c4: 4e b7:       in (2r)         r11, res[r2]
             0x000113c6: ee 52:       stw (ru6)       r11, dp[0x2e]
             0x000113c8: 4e b7:       in (2r)         r11, res[r2]
             0x000113ca: ef 52:       stw (ru6)       r11, dp[0x2f]
             0x000113cc: 4e b7:       in (2r)         r11, res[r2]
             0x000113ce: f0 52:       stw (ru6)       r11, dp[0x30]
             0x000113d0: 4e b7:       in (2r)         r11, res[r2]
             0x000113d2: f1 52:       stw (ru6)       r11, dp[0x31]
             0x000113d4: 4e b7:       in (2r)         r11, res[r2]
             0x000113d6: f2 52:       stw (ru6)       r11, dp[0x32]
             0x000113d8: 4e b7:       in (2r)         r11, res[r2]
             0x000113da: f3 52:       stw (ru6)       r11, dp[0x33]
             0x000113dc: 4e b7:       in (2r)         r11, res[r2]
             0x000113de: f4 52:       stw (ru6)       r11, dp[0x34]
             0x000113e0: 4e b7:       in (2r)         r11, res[r2]
             0x000113e2: f5 52:       stw (ru6)       r11, dp[0x35]
             0x000113e4: 4e b7:       in (2r)         r11, res[r2]
             0x000113e6: f6 52:       stw (ru6)       r11, dp[0x36]
             0x000113e8: 4e b7:       in (2r)         r11, res[r2]
             0x000113ea: f7 52:       stw (ru6)       r11, dp[0x37]
             0x000113ec: 4e b7:       in (2r)         r11, res[r2]
             0x000113ee: f8 52:       stw (ru6)       r11, dp[0x38]
             0x000113f0: 4e b7:       in (2r)         r11, res[r2]
             0x000113f2: f9 52:       stw (ru6)       r11, dp[0x39]
             0x000113f4: 4e b7:       in (2r)         r11, res[r2]
             0x000113f6: fa 52:       stw (ru6)       r11, dp[0x3a]
             0x000113f8: 4e b7:       in (2r)         r11, res[r2]
             0x000113fa: fb 52:       stw (ru6)       r11, dp[0x3b]
             0x000113fc: 4e b7:       in (2r)         r11, res[r2]
             0x000113fe: fc 52:       stw (ru6)       r11, dp[0x3c]
             0x00011400: 4e b7:       in (2r)         r11, res[r2]
             0x00011402: fd 52:       stw (ru6)       r11, dp[0x3d]
             0x00011404: 4e b7:       in (2r)         r11, res[r2]
             0x00011406: fe 52:       stw (ru6)       r11, dp[0x3e]
             0x00011408: 0a b7:       in (2r)         r6, res[r2]
             0x0001140a: e5 37:       set (1r)        dp, r5
             0x0001140c: 4e b7:       in (2r)         r11, res[r2]
             0x0001140e: c0 52:       stw (ru6)       r11, dp[0x0]
             0x00011410: 4e b7:       in (2r)         r11, res[r2]
             0x00011412: c1 52:       stw (ru6)       r11, dp[0x1]
             0x00011414: 4e b7:       in (2r)         r11, res[r2]
             0x00011416: c2 52:       stw (ru6)       r11, dp[0x2]
             0x00011418: 4e b7:       in (2r)         r11, res[r2]
             0x0001141a: c3 52:       stw (ru6)       r11, dp[0x3]
             0x0001141c: 4e b7:       in (2r)         r11, res[r2]
             0x0001141e: c4 52:       stw (ru6)       r11, dp[0x4]
             0x00011420: 4e b7:       in (2r)         r11, res[r2]
             0x00011422: c5 52:       stw (ru6)       r11, dp[0x5]
             0x00011424: 4e b7:       in (2r)         r11, res[r2]
             0x00011426: c6 52:       stw (ru6)       r11, dp[0x6]
             0x00011428: 4e b7:       in (2r)         r11, res[r2]
             0x0001142a: c7 52:       stw (ru6)       r11, dp[0x7]
             0x0001142c: 4e b7:       in (2r)         r11, res[r2]
             0x0001142e: c8 52:       stw (ru6)       r11, dp[0x8]
             0x00011430: 4e b7:       in (2r)         r11, res[r2]
             0x00011432: c9 52:       stw (ru6)       r11, dp[0x9]
             0x00011434: 4e b7:       in (2r)         r11, res[r2]
             0x00011436: ca 52:       stw (ru6)       r11, dp[0xa]
             0x00011438: 4e b7:       in (2r)         r11, res[r2]
             0x0001143a: cb 52:       stw (ru6)       r11, dp[0xb]
             0x0001143c: 4e b7:       in (2r)         r11, res[r2]
             0x0001143e: cc 52:       stw (ru6)       r11, dp[0xc]
             0x00011440: 4e b7:       in (2r)         r11, res[r2]
             0x00011442: cd 52:       stw (ru6)       r11, dp[0xd]
             0x00011444: 4e b7:       in (2r)         r11, res[r2]
             0x00011446: ce 52:       stw (ru6)       r11, dp[0xe]
             0x00011448: 4e b7:       in (2r)         r11, res[r2]
             0x0001144a: cf 52:       stw (ru6)       r11, dp[0xf]
             0x0001144c: 4e b7:       in (2r)         r11, res[r2]
             0x0001144e: d0 52:       stw (ru6)       r11, dp[0x10]
             0x00011450: 4e b7:       in (2r)         r11, res[r2]
             0x00011452: d1 52:       stw (ru6)       r11, dp[0x11]
             0x00011454: 4e b7:       in (2r)         r11, res[r2]
             0x00011456: d2 52:       stw (ru6)       r11, dp[0x12]
             0x00011458: 4e b7:       in (2r)         r11, res[r2]
             0x0001145a: d3 52:       stw (ru6)       r11, dp[0x13]
             0x0001145c: 4e b7:       in (2r)         r11, res[r2]
             0x0001145e: d4 52:       stw (ru6)       r11, dp[0x14]
             0x00011460: 4e b7:       in (2r)         r11, res[r2]
             0x00011462: d5 52:       stw (ru6)       r11, dp[0x15]
             0x00011464: 4e b7:       in (2r)         r11, res[r2]
             0x00011466: d6 52:       stw (ru6)       r11, dp[0x16]
             0x00011468: 4e b7:       in (2r)         r11, res[r2]
             0x0001146a: d7 52:       stw (ru6)       r11, dp[0x17]
             0x0001146c: 4e b7:       in (2r)         r11, res[r2]
             0x0001146e: d8 52:       stw (ru6)       r11, dp[0x18]
             0x00011470: 4e b7:       in (2r)         r11, res[r2]
             0x00011472: d9 52:       stw (ru6)       r11, dp[0x19]
             0x00011474: 4e b7:       in (2r)         r11, res[r2]
             0x00011476: da 52:       stw (ru6)       r11, dp[0x1a]
             0x00011478: 4e b7:       in (2r)         r11, res[r2]
             0x0001147a: db 52:       stw (ru6)       r11, dp[0x1b]
             0x0001147c: 4e b7:       in (2r)         r11, res[r2]
             0x0001147e: dc 52:       stw (ru6)       r11, dp[0x1c]
             0x00011480: 4e b7:       in (2r)         r11, res[r2]
             0x00011482: dd 52:       stw (ru6)       r11, dp[0x1d]
             0x00011484: 4e b7:       in (2r)         r11, res[r2]
             0x00011486: de 52:       stw (ru6)       r11, dp[0x1e]
             0x00011488: 4e b7:       in (2r)         r11, res[r2]
             0x0001148a: df 52:       stw (ru6)       r11, dp[0x1f]
             0x0001148c: 4e b7:       in (2r)         r11, res[r2]
             0x0001148e: e0 52:       stw (ru6)       r11, dp[0x20]
             0x00011490: 4e b7:       in (2r)         r11, res[r2]
             0x00011492: e1 52:       stw (ru6)       r11, dp[0x21]
             0x00011494: 4e b7:       in (2r)         r11, res[r2]
             0x00011496: e2 52:       stw (ru6)       r11, dp[0x22]
             0x00011498: 4e b7:       in (2r)         r11, res[r2]
             0x0001149a: e3 52:       stw (ru6)       r11, dp[0x23]
             0x0001149c: 4e b7:       in (2r)         r11, res[r2]
             0x0001149e: e4 52:       stw (ru6)       r11, dp[0x24]
             0x000114a0: 4e b7:       in (2r)         r11, res[r2]
             0x000114a2: e5 52:       stw (ru6)       r11, dp[0x25]
             0x000114a4: 4e b7:       in (2r)         r11, res[r2]
             0x000114a6: e6 52:       stw (ru6)       r11, dp[0x26]
             0x000114a8: 4e b7:       in (2r)         r11, res[r2]
             0x000114aa: e7 52:       stw (ru6)       r11, dp[0x27]
             0x000114ac: 4e b7:       in (2r)         r11, res[r2]
             0x000114ae: e8 52:       stw (ru6)       r11, dp[0x28]
             0x000114b0: 4e b7:       in (2r)         r11, res[r2]
             0x000114b2: e9 52:       stw (ru6)       r11, dp[0x29]
             0x000114b4: 4e b7:       in (2r)         r11, res[r2]
             0x000114b6: ea 52:       stw (ru6)       r11, dp[0x2a]
             0x000114b8: 4e b7:       in (2r)         r11, res[r2]
             0x000114ba: eb 52:       stw (ru6)       r11, dp[0x2b]
             0x000114bc: 4e b7:       in (2r)         r11, res[r2]
             0x000114be: ec 52:       stw (ru6)       r11, dp[0x2c]
             0x000114c0: 4e b7:       in (2r)         r11, res[r2]
             0x000114c2: ed 52:       stw (ru6)       r11, dp[0x2d]
             0x000114c4: 4e b7:       in (2r)         r11, res[r2]
             0x000114c6: ee 52:       stw (ru6)       r11, dp[0x2e]
             0x000114c8: 4e b7:       in (2r)         r11, res[r2]
             0x000114ca: ef 52:       stw (ru6)       r11, dp[0x2f]
             0x000114cc: 4e b7:       in (2r)         r11, res[r2]
             0x000114ce: f0 52:       stw (ru6)       r11, dp[0x30]
             0x000114d0: 4e b7:       in (2r)         r11, res[r2]
             0x000114d2: f1 52:       stw (ru6)       r11, dp[0x31]
             0x000114d4: 4e b7:       in (2r)         r11, res[r2]
             0x000114d6: f2 52:       stw (ru6)       r11, dp[0x32]
             0x000114d8: 4e b7:       in (2r)         r11, res[r2]
             0x000114da: f3 52:       stw (ru6)       r11, dp[0x33]
             0x000114dc: 4e b7:       in (2r)         r11, res[r2]
             0x000114de: f4 52:       stw (ru6)       r11, dp[0x34]
             0x000114e0: 4e b7:       in (2r)         r11, res[r2]
             0x000114e2: f5 52:       stw (ru6)       r11, dp[0x35]
             0x000114e4: 4e b7:       in (2r)         r11, res[r2]
             0x000114e6: f6 52:       stw (ru6)       r11, dp[0x36]
             0x000114e8: 4e b7:       in (2r)         r11, res[r2]
             0x000114ea: f7 52:       stw (ru6)       r11, dp[0x37]
             0x000114ec: 4e b7:       in (2r)         r11, res[r2]
             0x000114ee: f8 52:       stw (ru6)       r11, dp[0x38]
             0x000114f0: 4e b7:       in (2r)         r11, res[r2]
             0x000114f2: f9 52:       stw (ru6)       r11, dp[0x39]
             0x000114f4: 4e b7:       in (2r)         r11, res[r2]
             0x000114f6: fa 52:       stw (ru6)       r11, dp[0x3a]
             0x000114f8: 4e b7:       in (2r)         r11, res[r2]
             0x000114fa: fb 52:       stw (ru6)       r11, dp[0x3b]
             0x000114fc: 4e b7:       in (2r)         r11, res[r2]
             0x000114fe: 13 3f:       setpt (r2r)     res[r3], r4
             0x00011500: 02 b7:       in (2r)         r4, res[r2]
             0x00011502: 4f fa ed 97: outpw (l2rus)   res[r3], r0, 0x7
             0x00011506: ce b6:       in (2r)         r3, res[r2]
             0x00011508: 08 5c:       ldw (ru6)       r0, sp[0x8]
             0x0001150a: 0e b7:       in (2r)         r7, res[r2]
             0x0001150c: 50 3f:       setpt (r2r)     res[r0], r8
             0x0001150e: 02 6a:       ldc (ru6)       r8, 0x2
             0x00011510: 82 f8 ed 97: outpw (l2rus)   res[r0], r8, 0x2
             0x00011514: d0 a6:       mkmsk (rus)     r0, 0x20
             0x00011516: c2 ae:       out (r2r)       res[r2], r0
             0x00011518: fc 52:       stw (ru6)       r11, dp[0x3c]
             0x0001151a: 3d 51:       stw (ru6)       r4, dp[0x3d]
             0x0001151c: fe 50:       stw (ru6)       r3, dp[0x3e]
             0x0001151e: ff 51:       stw (ru6)       r7, dp[0x3f]
             0x00011520: c0 62:       ldaw (ru6)      r11, dp[0x0]
             0x00011522: 1d 34:       eq (3r)         r5, r11, r5
             0x00011524: 42 79:       bf (ru6)        r5, 0x2 <jump>
             0x00011526: 81 73:       extdp (u6)      0x1
             0x00011528: 80 51:       stw (ru6)       r6, dp[0x0]

<jump>:
             0x0001152a: e1 37:       set (1r)        dp, r1
             0x0001152c: 04 5e:       ldw (ru6)       r8, sp[0x4]
             0x0001152e: c3 5d:       ldw (ru6)       r7, sp[0x3]
             0x00011530: 82 5d:       ldw (ru6)       r6, sp[0x2]
             0x00011532: 41 5d:       ldw (ru6)       r5, sp[0x1]
             0x00011534: 00 5d:       ldw (ru6)       r4, sp[0x0]
             0x00011536: c5 77:       retsp (u6)      0x5

<sdram_short_block_read_PINOUT_V1_IS42S16400F>:
             0x00011538: 44 77:       entsp (u6)      0x4
             0x0001153a: 00 55:       stw (ru6)       r4, sp[0x0]
             0x0001153c: 41 55:       stw (ru6)       r5, sp[0x1]
             0x0001153e: 82 55:       stw (ru6)       r6, sp[0x2]
             0x00011540: c3 55:       stw (ru6)       r7, sp[0x3]
             0x00011542: 05 5d:       ldw (ru6)       r4, sp[0x5]
             0x00011544: 72 93:       add (2rus)      r7, r4, 0x6
             0x00011546: 02 f0 7e 69: ldc (lru6)      r5, 0xbe
             0x0001154a: c6 5e:       ldw (ru6)       r11, sp[0x6]
             0x0001154c: 5e 3f:       setpt (r2r)     res[r2], r11
             0x0001154e: 4e b7:       in (2r)         r11, res[r2]
             0x00011550: 4e b7:       in (2r)         r11, res[r2]
             0x00011552: 13 3f:       setpt (r2r)     res[r3], r4
             0x00011554: 02 b7:       in (2r)         r4, res[r2]
             0x00011556: dc fc ed 97: outpw (l2rus)   res[r3], r5, 0x8
             0x0001155a: 06 b7:       in (2r)         r5, res[r2]
             0x0001155c: dc a6:       mkmsk (rus)     r3, 0x20
             0x0001155e: 0a b7:       in (2r)         r6, res[r2]
             0x00011560: ce ae:       out (r2r)       res[r2], r3
             0x00011562: c7 5c:       ldw (ru6)       r3, sp[0x7]
             0x00011564: 1f 3f:       setpt (r2r)     res[r3], r7
             0x00011566: 82 68:       ldc (ru6)       r2, 0x2
             0x00011568: 2e f8 ed 97: outpw (l2rus)   res[r3], r2, 0x2
             0x0001156c: 84 68:       ldc (ru6)       r2, 0x4
             0x0001156e: 19 18:       sub (3r)        r1, r2, r1
             0x00011570: e1 2f:       bru (1r)        r1
             0x00011572: 63 00:       stw (2rus)      r6, r0[0x3]
             0x00011574: 52 00:       stw (2rus)      r5, r0[0x2]
             0x00011576: 41 00:       stw (2rus)      r4, r0[0x1]
             0x00011578: b0 00:       stw (2rus)      r11, r0[0x0]
             0x0001157a: c3 5d:       ldw (ru6)       r7, sp[0x3]
             0x0001157c: 82 5d:       ldw (ru6)       r6, sp[0x2]
             0x0001157e: 41 5d:       ldw (ru6)       r5, sp[0x1]
             0x00011580: 00 5d:       ldw (ru6)       r4, sp[0x0]
             0x00011582: c4 77:       retsp (u6)      0x4

<__localPortInitializer0.ctor>:
             0x00011584: 00 f0 21 58: ldw (lru6)      r0, dp[0x21]
             0x00011588: 08 e8:       setc (ru6)      res[r0], 0x8
             0x0001158a: c0 77:       retsp (u6)      0x0

<__localPortInitializer0.dtor>:
             0x0001158c: 00 f0 21 58: ldw (lru6)      r0, dp[0x21]
             0x00011590: 00 e8:       setc (ru6)      res[r0], 0x0
             0x00011592: c0 77:       retsp (u6)      0x0

<__localPortInitializer1.ctor>:
             0x00011594: 00 f0 22 58: ldw (lru6)      r0, dp[0x22]
             0x00011598: 08 e8:       setc (ru6)      res[r0], 0x8
             0x0001159a: c0 77:       retsp (u6)      0x0

<__localPortInitializer1.dtor>:
             0x0001159c: 00 f0 22 58: ldw (lru6)      r0, dp[0x22]
             0x000115a0: 00 e8:       setc (ru6)      res[r0], 0x0
             0x000115a2: c0 77:       retsp (u6)      0x0

<__localPortInitializer2.ctor>:
             0x000115a4: 00 f0 23 58: ldw (lru6)      r0, dp[0x23]
             0x000115a8: 08 e8:       setc (ru6)      res[r0], 0x8
             0x000115aa: 00 f0 46 68: ldc (lru6)      r1, 0x6
             0x000115ae: d4 fe ec 0f: setclk (lr2r)   res[r0], r1
             0x000115b2: c0 77:       retsp (u6)      0x0

<__localPortInitializer2.dtor>:
             0x000115b4: 00 f0 23 58: ldw (lru6)      r0, dp[0x23]
             0x000115b8: 00 e8:       setc (ru6)      res[r0], 0x0
             0x000115ba: c0 77:       retsp (u6)      0x0

<__localPortInitializer3.ctor>:
             0x000115bc: 00 f0 24 58: ldw (lru6)      r0, dp[0x24]
             0x000115c0: 08 e8:       setc (ru6)      res[r0], 0x8
             0x000115c2: 80 f0 0f e8: setc (lru6)     res[r0], 0x200f
             0x000115c6: 60 68:       ldc (ru6)       r1, 0x20
             0x000115c8: d4 fe ec 27: settw (lr2r)    res[r0], r1
             0x000115cc: 00 f0 46 68: ldc (lru6)      r1, 0x6
             0x000115d0: d4 fe ec 0f: setclk (lr2r)   res[r0], r1
             0x000115d4: c0 77:       retsp (u6)      0x0

<__localPortInitializer3.dtor>:
             0x000115d6: 00 f0 24 58: ldw (lru6)      r0, dp[0x24]
             0x000115da: 00 e8:       setc (ru6)      res[r0], 0x0
             0x000115dc: c0 77:       retsp (u6)      0x0

<__localPortInitializer4.ctor>:
             0x000115de: 00 f0 25 58: ldw (lru6)      r0, dp[0x25]
             0x000115e2: 08 e8:       setc (ru6)      res[r0], 0x8
             0x000115e4: 80 f0 0f e8: setc (lru6)     res[r0], 0x200f
             0x000115e8: 60 68:       ldc (ru6)       r1, 0x20
             0x000115ea: d4 fe ec 27: settw (lr2r)    res[r0], r1
             0x000115ee: 00 f0 46 68: ldc (lru6)      r1, 0x6
             0x000115f2: d4 fe ec 0f: setclk (lr2r)   res[r0], r1
             0x000115f6: c0 77:       retsp (u6)      0x0

<__localPortInitializer4.dtor>:
             0x000115f8: 00 f0 25 58: ldw (lru6)      r0, dp[0x25]
             0x000115fc: 00 e8:       setc (ru6)      res[r0], 0x0
             0x000115fe: c0 77:       retsp (u6)      0x0

<__localPortInitializer5.ctor>:
             0x00011600: 00 f0 26 58: ldw (lru6)      r0, dp[0x26]
             0x00011604: 08 e8:       setc (ru6)      res[r0], 0x8
             0x00011606: 80 f0 0f e8: setc (lru6)     res[r0], 0x200f
             0x0001160a: 60 68:       ldc (ru6)       r1, 0x20
             0x0001160c: d4 fe ec 27: settw (lr2r)    res[r0], r1
             0x00011610: 00 f0 46 68: ldc (lru6)      r1, 0x6
             0x00011614: d4 fe ec 0f: setclk (lr2r)   res[r0], r1
             0x00011618: c0 77:       retsp (u6)      0x0

<__localPortInitializer5.dtor>:
             0x0001161a: 00 f0 26 58: ldw (lru6)      r0, dp[0x26]
             0x0001161e: 00 e8:       setc (ru6)      res[r0], 0x0
             0x00011620: c0 77:       retsp (u6)      0x0

<__localPortInitializer6.ctor>:
             0x00011622: 00 f0 27 58: ldw (lru6)      r0, dp[0x27]
             0x00011626: 08 e8:       setc (ru6)      res[r0], 0x8
             0x00011628: 80 f0 0f e8: setc (lru6)     res[r0], 0x200f
             0x0001162c: 60 68:       ldc (ru6)       r1, 0x20
             0x0001162e: d4 fe ec 27: settw (lr2r)    res[r0], r1
             0x00011632: 00 f0 46 68: ldc (lru6)      r1, 0x6
             0x00011636: d4 fe ec 0f: setclk (lr2r)   res[r0], r1
             0x0001163a: c0 77:       retsp (u6)      0x0

<__localPortInitializer6.dtor>:
             0x0001163c: 00 f0 27 58: ldw (lru6)      r0, dp[0x27]
             0x00011640: 00 e8:       setc (ru6)      res[r0], 0x0
             0x00011642: c0 77:       retsp (u6)      0x0

<p_i2c.ctor>:
             0x00011644: 00 f0 28 58: ldw (lru6)      r0, dp[0x28]
             0x00011648: 08 e8:       setc (ru6)      res[r0], 0x8
             0x0001164a: 00 f0 46 68: ldc (lru6)      r1, 0x6
             0x0001164e: d4 fe ec 0f: setclk (lr2r)   res[r0], r1
             0x00011652: c0 77:       retsp (u6)      0x0

<p_i2c.dtor>:
             0x00011654: 00 f0 28 58: ldw (lru6)      r0, dp[0x28]
             0x00011658: 00 e8:       setc (ru6)      res[r0], 0x0
             0x0001165a: c0 77:       retsp (u6)      0x0

<p_gpio.ctor>:
             0x0001165c: 00 f0 29 58: ldw (lru6)      r0, dp[0x29]
             0x00011660: 08 e8:       setc (ru6)      res[r0], 0x8
             0x00011662: 00 f0 46 68: ldc (lru6)      r1, 0x6
             0x00011666: d4 fe ec 0f: setclk (lr2r)   res[r0], r1
             0x0001166a: c0 77:       retsp (u6)      0x0

<p_gpio.dtor>:
             0x0001166c: 00 f0 29 58: ldw (lru6)      r0, dp[0x29]
             0x00011670: 00 e8:       setc (ru6)      res[r0], 0x0
             0x00011672: c0 77:       retsp (u6)      0x0

<__mcmain400000>:
             0x00011674: 45 77:       entsp (u6)      0x5
             0x00011676: 03 54:       stw (ru6)       r0, sp[0x3]
             0x00011678: 01 54:       stw (ru6)       r0, sp[0x1]
             0x0001167a: 03 5c:       ldw (ru6)       r0, sp[0x3]
             0x0001167c: 02 f0 cc d5: bl (lu10)       -0x9cc <__main_xm_0>
             0x00011680: 02 5c:       ldw (ru6)       r0, sp[0x2]
             0x00011682: c5 77:       retsp (u6)      0x5

<main>:
             0x00011684: 42 77:       entsp (u6)      0x2

<getAllChannels>:
             0x00011686: c2 86:       getr (rus)      r0, 0x2
             0x00011688: 02 74:       bt (ru6)        r0, -0x2 <getAllChannels>
             0x0001168a: 9f 68:       ldc (ru6)       r2, 0x1f
             0x0001168c: c1 68:       ldc (ru6)       r3, 0x1
             0x0001168e: 04 f0 40 68: ldc (lru6)      r1, 0x100
             0x00011692: 00 f0 02 6c: ldw (lru6)      r0, cp[0x2]
             0x00011696: 01 10:       add (3r)        r0, r0, r1

<freeAllChannels>:
             0x00011698: e0 17:       freer (1r)      res[r0]

<skipFree>:
             0x0001169a: 01 10:       add (3r)        r0, r0, r1
             0x0001169c: 4e 30:       eq (3r)         r4, r3, r2
             0x0001169e: 3d 90:       add (2rus)      r3, r3, 0x1
             0x000116a0: 05 7d:       bf (ru6)        r4, -0x5 <freeAllChannels>
             0x000116a2: 00 f0 02 6c: ldw (lru6)      r0, cp[0x2]

<receiveEnd>:
             0x000116a6: c4 b6:       in (2r)         r1, res[r0]
             0x000116a8: d1 ce:       chkct (rus)     res[r0], 0x1
             0x000116aa: d4 16:       setd (r2r)      res[r0], r1
             0x000116ac: c0 ae:       out (r2r)       res[r0], r0
             0x000116ae: d1 4e:       outct (rus)     res[r0], 0x1

<waitForZero>:
             0x000116b0: c4 b6:       in (2r)         r1, res[r0]
             0x000116b2: d1 ce:       chkct (rus)     res[r0], 0x1
             0x000116b4: 43 74:       bt (ru6)        r1, -0x3 <waitForZero>
             0x000116b6: 00 f0 ef 62: ldaw (lru6)     r11, dp[0x2f]
             0x000116ba: c0 68:       ldc (ru6)       r3, 0x0
             0x000116bc: 81 68:       ldc (ru6)       r2, 0x1
             0x000116be: fc f3 c0 69: ldc (lru6)      r7, 0xff00

<getLocalEndsTop>:
             0x000116c2: 1e 30:       eq (3r)         r1, r3, r2
             0x000116c4: 48 70:       bt (ru6)        r1, 0x8 <gotLocalEnds>
             0x000116c6: 06 87:       getr (rus)      r5, 0x2
             0x000116c8: df f9 ec 07: stw (l3r)       r5, r11[r3]
             0x000116cc: 1d 43:       or (3r)         r1, r7, r5
             0x000116ce: 95 17:       setd (r2r)      res[r5], r1
             0x000116d0: 04 af:       out (r2r)       res[r0], r5
             0x000116d2: 3d 90:       add (2rus)      r3, r3, 0x1
             0x000116d4: 0a 77:       bu (u6)         -0xa <getLocalEndsTop>

<gotLocalEnds>:
             0x000116d6: d1 4e:       outct (rus)     res[r0], 0x1
             0x000116d8: c0 68:       ldc (ru6)       r3, 0x0

<getRemoteEndsTop>:
             0x000116da: 4e 30:       eq (3r)         r4, r3, r2
             0x000116dc: 0c 71:       bt (ru6)        r4, 0xc <gotRemoteEnds>
             0x000116de: 00 b7:       in (2r)         r4, res[r0]
             0x000116e0: 10 17:       setd (r2r)      res[r0], r4
             0x000116e2: 08 b7:       in (2r)         r6, res[r0]
             0x000116e4: 0e 4c:       ldw (3r)        r4, r11[r6]
             0x000116e6: 04 b7:       in (2r)         r5, res[r0]
             0x000116e8: d1 ce:       chkct (rus)     res[r0], 0x1
             0x000116ea: d3 4e:       outct (rus)     res[r0], 0x3
             0x000116ec: d1 4e:       outct (rus)     res[r0], 0x1
             0x000116ee: 41 79:       bf (ru6)        r5, 0x1 <loopForNextRemoteEnd>
             0x000116f0: d4 17:       setd (r2r)      res[r4], r5

<loopForNextRemoteEnd>:
             0x000116f2: 3d 90:       add (2rus)      r3, r3, 0x1
             0x000116f4: 0e 77:       bu (u6)         -0xe <getRemoteEndsTop>

<gotRemoteEnds>:
             0x000116f6: e0 17:       freer (1r)      res[r0]
             0x000116f8: 00 f0 ef 62: ldaw (lru6)     r11, dp[0x2f]
             0x000116fc: c1 69:       ldc (ru6)       r7, 0x1
             0x000116fe: fc f3 00 6a: ldc (lru6)      r8, 0xff00
             0x00011702: 05 d0:       bl (u10)        0x5 <buildRegArg>
             0x00011704: 0c 90:       add (2rus)      r0, r3, 0x0
             0x00011706: 00 f0 4b d4: bl (lu10)       -0x4b <__mcmain400000>

<returnToCRT>:
             0x0001170a: 00 68:       ldc (ru6)       r0, 0x0
             0x0001170c: c2 77:       retsp (u6)      0x2

<buildRegArg>:
             0x0001170e: bc 09:       ldw (2rus)      r3, r11[0x0]
             0x00011710: 3d fa ec 9f: ldaw (l2rus)    r11, r11[0x1]
             0x00011714: df 3a:       and (3r)        r9, r3, r7
             0x00011716: 43 7a:       bf (ru6)        r9, 0x3 <hasEndReg>
             0x00011718: 8f 2f:       andnot (2r)     r3, r7
             0x0001171a: 2c 45:       or (3r)         r10, r3, r8
             0x0001171c: 5b 17:       setd (r2r)      res[r3], r10

<hasEndReg>:
             0x0001171e: c0 77:       retsp (u6)      0x0

<_DoException>:
<endOfStartup>:
             0x00011720: ed 07:       clre (0r)       
             0x00011722: ec 07:       waiteu (0r)     

<__libc_done>:
             0x00011724: 40 68:       ldc (ru6)       r1, 0x0
             0x00011726: 41 77:       entsp (u6)      0x1
             0x00011728: 04 90:       add (2rus)      r0, r1, 0x0
             0x0001172a: 00 f0 a7 d0: bl (lu10)       0xa7 <__call_exitprocs>
             0x0001172e: 00 f0 8b d1: bl (lu10)       0x18b <_cleanup>
             0x00011732: 01 f0 c1 d0: bl (lu10)       0x4c1 <.label24>
             0x00011736: 00 f0 8b d1: bl (lu10)       0x18b <_done>
             0x0001173a: 00 00:       stw (2rus)      r0, r0[0x0]

<_exit>:
             0x0001173c: 10 90:       add (2rus)      r1, r0, 0x0
             0x0001173e: 00 68:       ldc (ru6)       r0, 0x0
             0x00011740: 00 f0 9a d0: bl (lu10)       0x9a <_DoSyscall>
             0x00011744: ed 07:       clre (0r)       
             0x00011746: ec 07:       waiteu (0r)     

<_exit_unlocked>:
             0x00011748: 40 68:       ldc (ru6)       r1, 0x0
             0x0001174a: 42 77:       entsp (u6)      0x2
             0x0001174c: 01 55:       stw (ru6)       r4, sp[0x1]
             0x0001174e: 40 90:       add (2rus)      r4, r0, 0x0
             0x00011750: c0 90:       add (2rus)      r0, r4, 0x0
             0x00011752: 00 f0 93 d0: bl (lu10)       0x93 <__call_exitprocs>
             0x00011756: 00 f0 77 d1: bl (lu10)       0x177 <_cleanup>
             0x0001175a: 01 f0 ad d0: bl (lu10)       0x4ad <.label24>
             0x0001175e: c0 90:       add (2rus)      r0, r4, 0x0
             0x00011760: 00 f0 14 d4: bl (lu10)       -0x14 <_exit>

<memset>:
.label105    0x00011764: bb a8:       shr (2rus)      r11, r2, 0x3
             0x00011766: dd 7a:       bf (ru6)        r11, 0x1d <.label25>
             0x00011768: 34 47:       zext (rus)      r1, 0x8
             0x0001176a: 34 a5:       shl (2rus)      r11, r1, 0x8
             0x0001176c: 97 44:       or (3r)         r1, r1, r11
             0x0001176e: 35 a5:       shl (2rus)      r11, r1, 0x10
             0x00011770: 97 44:       or (3r)         r1, r1, r11
             0x00011772: 33 90:       add (2rus)      r3, r0, 0x3
             0x00011774: c3 6a:       ldc (ru6)       r11, 0x3
             0x00011776: 2f 2f:       andnot (2r)     r3, r11
             0x00011778: bc 18:       sub (3r)        r11, r3, r0
             0x0001177a: c5 7a:       bf (ru6)        r11, 0x5 <.label26>
             0x0001177c: ab 1c:       sub (3r)        r2, r2, r11
.label27     0x0001177e: 3d 9a:       sub (2rus)      r11, r11, 0x1
             0x00011780: 93 fc ec 8f: st8 (l3r)       r1, r0[r11]
             0x00011784: c4 76:       bt (ru6)        r11, -0x4 <.label27>
.label26     0x00011786: ba a8:       shr (2rus)      r11, r2, 0x2
.label28     0x00011788: 3d 9a:       sub (2rus)      r11, r11, 0x1
             0x0001178a: 9f fc ec 07: stw (l3r)       r1, r3[r11]
             0x0001178e: c4 76:       bt (ru6)        r11, -0x4 <.label28>
             0x00011790: 3e 10:       add (3r)        r3, r3, r2
             0x00011792: da 46:       zext (rus)      r2, 0x2
             0x00011794: 85 78:       bf (ru6)        r2, 0x5 <.label29>
             0x00011796: 3e 18:       sub (3r)        r3, r3, r2
.label30     0x00011798: 29 98:       sub (2rus)      r2, r2, 0x1
             0x0001179a: 1e f8 ec 8f: st8 (l3r)       r1, r3[r2]
             0x0001179e: 84 74:       bt (ru6)        r2, -0x4 <.label30>
.label29     0x000117a0: c0 77:       retsp (u6)      0x0
.label25     0x000117a2: 84 78:       bf (ru6)        r2, 0x4 <.label31>
.label32     0x000117a4: 29 98:       sub (2rus)      r2, r2, 0x1
             0x000117a6: 12 f8 ec 8f: st8 (l3r)       r1, r0[r2]
             0x000117aa: 84 74:       bt (ru6)        r2, -0x4 <.label32>
.label31     0x000117ac: c0 77:       retsp (u6)      0x0

<printchar>:
             0x000117ae: 42 77:       entsp (u6)      0x2
             0x000117b0: 80 68:       ldc (ru6)       r2, 0x0
             0x000117b2: 41 64:       ldaw (ru6)      r1, sp[0x1]
             0x000117b4: 06 f8 ec 8f: st8 (l3r)       r0, r1[r2]
             0x000117b8: dd a6:       mkmsk (rus)     r3, 0x1
             0x000117ba: 0c 90:       add (2rus)      r0, r3, 0x0
             0x000117bc: 2c 90:       add (2rus)      r2, r3, 0x0
             0x000117be: 00 f0 9e d1: bl (lu10)       0x19e <_write> <_write.coersed..f.7bsi.7d.28si.2cp.28c.3auc.29.2cui.29>
             0x000117c2: c2 77:       retsp (u6)      0x2

<printhex>:
             0x000117c4: 41 77:       entsp (u6)      0x1
             0x000117c6: 50 68:       ldc (ru6)       r1, 0x10
             0x000117c8: 2a d0:       bl (u10)        0x2a <printuint_base>
             0x000117ca: c1 77:       retsp (u6)      0x1

<printstr>:
             0x000117cc: 43 77:       entsp (u6)      0x3
             0x000117ce: 02 55:       stw (ru6)       r4, sp[0x2]
             0x000117d0: 41 55:       stw (ru6)       r5, sp[0x1]
             0x000117d2: 44 90:       add (2rus)      r4, r1, 0x0
             0x000117d4: 50 90:       add (2rus)      r5, r0, 0x0
             0x000117d6: c4 90:       add (2rus)      r0, r5, 0x0
             0x000117d8: d0 90:       add (2rus)      r1, r4, 0x0
             0x000117da: 00 f0 bb d1: bl (lu10)       0x1bb <safestrlen>
             0x000117de: 20 90:       add (2rus)      r2, r0, 0x0
             0x000117e0: d1 a6:       mkmsk (rus)     r0, 0x1
             0x000117e2: d4 90:       add (2rus)      r1, r5, 0x0
             0x000117e4: f0 90:       add (2rus)      r3, r4, 0x0
             0x000117e6: 00 f0 8a d1: bl (lu10)       0x18a <_write> <_write.coersed..f.7bsi.7d.28si.2cp.28c.3auc.29.2cui.29>
             0x000117ea: 41 5d:       ldw (ru6)       r5, sp[0x1]
             0x000117ec: 02 5d:       ldw (ru6)       r4, sp[0x2]
             0x000117ee: c3 77:       retsp (u6)      0x3

<reverse_array>:
             0x000117f0: 41 77:       entsp (u6)      0x1
             0x000117f2: 00 55:       stw (ru6)       r4, sp[0x0]
             0x000117f4: 15 98:       sub (2rus)      r1, r1, 0x1
             0x000117f6: dd a6:       mkmsk (rus)     r3, 0x1
             0x000117f8: 37 c0:       lss (3r)        r3, r1, r3
             0x000117fa: cf 70:       bt (ru6)        r3, 0xf <.label33>
             0x000117fc: c0 68:       ldc (ru6)       r3, 0x0
.label34     0x000117fe: be c8:       lsu (3r)        r11, r3, r2
             0x00011800: eb 4f:       ecallf (1r)     r11
             0x00011802: b6 c8:       lsu (3r)        r11, r1, r2
             0x00011804: eb 4f:       ecallf (1r)     r11
             0x00011806: b3 88:       ld8u (3r)       r11, r0[r3]
             0x00011808: 41 88:       ld8u (3r)       r4, r0[r1]
             0x0001180a: 43 f8 ec 8f: st8 (l3r)       r4, r0[r3]
             0x0001180e: b1 f8 ec 8f: st8 (l3r)       r11, r0[r1]
             0x00011812: 15 98:       sub (2rus)      r1, r1, 0x1
             0x00011814: 3d 90:       add (2rus)      r3, r3, 0x1
             0x00011816: bd c0:       lss (3r)        r11, r3, r1
             0x00011818: ce 76:       bt (ru6)        r11, -0xe <.label34>
.label33     0x0001181a: 00 5d:       ldw (ru6)       r4, sp[0x0]
             0x0001181c: c1 77:       retsp (u6)      0x1

<printuint_base>:
             0x0001181e: 4d 77:       entsp (u6)      0xd
             0x00011820: 0c 55:       stw (ru6)       r4, sp[0xc]
             0x00011822: 4b 55:       stw (ru6)       r5, sp[0xb]
             0x00011824: 8a 55:       stw (ru6)       r6, sp[0xa]
             0x00011826: c9 55:       stw (ru6)       r7, sp[0x9]
             0x00011828: 03 70:       bt (ru6)        r0, 0x3 <.label35>
             0x0001182a: 30 68:       ldc (ru6)       r0, 0x30
             0x0001182c: 40 d4:       bl (u10)        -0x40 <printchar>
             0x0001182e: 1f 73:       bu (u6)         0x1f <.label36>
.label35     0x00011830: 00 69:       ldc (ru6)       r4, 0x0
             0x00011832: 99 a7:       mkmsk (rus)     r2, 0x5
             0x00011834: d0 68:       ldc (ru6)       r3, 0x10
             0x00011836: 00 f0 ea 62: ldaw (lru6)     r11, dp[0x2a]
             0x0001183a: 41 65:       ldaw (ru6)      r5, sp[0x1]
.label37     0x0001183c: 61 f8 ec cf: remu (l3r)      r6, r0, r1
             0x00011840: 01 f8 ec 4f: divu (l3r)      r0, r0, r1
             0x00011844: b8 ca:       lsu (3r)        r7, r2, r4
             0x00011846: f7 4f:       ecallt (1r)     r7
             0x00011848: be ca:       lsu (3r)        r7, r3, r6
             0x0001184a: f7 4f:       ecallt (1r)     r7
             0x0001184c: 2e 8c:       ld8u (3r)       r6, r11[r6]
             0x0001184e: 64 fb ec 8f: st8 (l3r)       r6, r5[r4]
             0x00011852: 01 91:       add (2rus)      r4, r4, 0x1
             0x00011854: 0d 74:       bt (ru6)        r0, -0xd <.label37>
             0x00011856: 81 65:       ldaw (ru6)      r6, sp[0x1]
             0x00011858: 60 69:       ldc (ru6)       r5, 0x20
             0x0001185a: c8 90:       add (2rus)      r0, r6, 0x0
             0x0001185c: d0 90:       add (2rus)      r1, r4, 0x0
             0x0001185e: e4 90:       add (2rus)      r2, r5, 0x0
             0x00011860: 39 d4:       bl (u10)        -0x39 <reverse_array>
             0x00011862: d1 a6:       mkmsk (rus)     r0, 0x1
             0x00011864: d8 90:       add (2rus)      r1, r6, 0x0
             0x00011866: e0 90:       add (2rus)      r2, r4, 0x0
             0x00011868: f4 90:       add (2rus)      r3, r5, 0x0
             0x0001186a: 00 f0 48 d1: bl (lu10)       0x148 <_write> <_write.coersed..f.7bsi.7d.28si.2cp.28c.3auc.29.2cui.29>
.label36     0x0001186e: c9 5d:       ldw (ru6)       r7, sp[0x9]
             0x00011870: 8a 5d:       ldw (ru6)       r6, sp[0xa]
             0x00011872: 4b 5d:       ldw (ru6)       r5, sp[0xb]
             0x00011874: 0c 5d:       ldw (ru6)       r4, sp[0xc]
             0x00011876: cd 77:       retsp (u6)      0xd

<_DoSyscall>:
             0x00011878: d0 a6:       mkmsk (rus)     r0, 0x20
             0x0001187a: c0 77:       retsp (u6)      0x0

<__call_exitprocs>:
             0x0001187c: 41 77:       entsp (u6)      0x1
             0x0001187e: 01 f0 39 d0: bl (lu10)       0x439 <.label38>
             0x00011882: c1 77:       retsp (u6)      0x1

<__alloc_libc_hwlock>:
.label108    0x00011884: 81 87:       getr (rus)      r0, 0x5
             0x00011886: 00 f0 30 50: stw (lru6)      r0, dp[0x30]
             0x0001188a: c0 77:       retsp (u6)      0x0

<__spin_lock_acquire>:
             0x0001188c: d5 a6:       mkmsk (rus)     r1, 0x1
.label39     0x0001188e: 00 f0 b0 58: ldw (lru6)      r2, dp[0x30]
             0x00011892: ca b6:       in (2r)         r2, res[r2]
             0x00011894: 20 08:       ldw (2rus)      r2, r0[0x0]
             0x00011896: 10 00:       stw (2rus)      r1, r0[0x0]
             0x00011898: 00 f0 f0 58: ldw (lru6)      r3, dp[0x30]
             0x0001189c: cf ae:       out (r2r)       res[r3], r3
             0x0001189e: 89 74:       bt (ru6)        r2, -0x9 <.label39>
             0x000118a0: c0 77:       retsp (u6)      0x0
             0x000118a2: 00 90:       add (2rus)      r0, r0, 0x0

<__spin_lock_release>:
             0x000118a4: 00 f0 70 58: ldw (lru6)      r1, dp[0x30]
             0x000118a8: c5 b6:       in (2r)         r1, res[r1]
             0x000118aa: 40 68:       ldc (ru6)       r1, 0x0
             0x000118ac: 10 00:       stw (2rus)      r1, r0[0x0]
             0x000118ae: 00 f0 30 58: ldw (lru6)      r0, dp[0x30]
             0x000118b2: c0 ae:       out (r2r)       res[r0], r0
             0x000118b4: c0 77:       retsp (u6)      0x0
             0x000118b6: 00 90:       add (2rus)      r0, r0, 0x0

<__spin_lock_init_recursive>:
             0x000118b8: d4 a6:       mkmsk (rus)     r1, 0x20
             0x000118ba: 10 00:       stw (2rus)      r1, r0[0x0]
             0x000118bc: 40 68:       ldc (ru6)       r1, 0x0
             0x000118be: 11 00:       stw (2rus)      r1, r0[0x1]
             0x000118c0: c0 77:       retsp (u6)      0x0
             0x000118c2: 00 90:       add (2rus)      r0, r0, 0x0

<__spin_lock_release_recursive>:
             0x000118c4: 11 08:       ldw (2rus)      r1, r0[0x1]
             0x000118c6: 15 98:       sub (2rus)      r1, r1, 0x1
             0x000118c8: 11 00:       stw (2rus)      r1, r0[0x1]
             0x000118ca: 11 08:       ldw (2rus)      r1, r0[0x1]
             0x000118cc: 48 70:       bt (ru6)        r1, 0x8 <.label40>
             0x000118ce: 00 f0 70 58: ldw (lru6)      r1, dp[0x30]
             0x000118d2: c5 b6:       in (2r)         r1, res[r1]
             0x000118d4: d4 a6:       mkmsk (rus)     r1, 0x20
             0x000118d6: 10 00:       stw (2rus)      r1, r0[0x0]
             0x000118d8: 00 f0 30 58: ldw (lru6)      r0, dp[0x30]
             0x000118dc: c0 ae:       out (r2r)       res[r0], r0
.label40     0x000118de: c0 77:       retsp (u6)      0x0

<__spin_lock_acquire_recursive>:
             0x000118e0: 10 08:       ldw (2rus)      r1, r0[0x0]
             0x000118e2: ee 17:       get (0r)        r11, id
             0x000118e4: 97 34:       eq (3r)         r1, r1, r11
             0x000118e6: 53 70:       bt (ru6)        r1, 0x13 <.label41>
             0x000118e8: 00 f0 70 58: ldw (lru6)      r1, dp[0x30]
             0x000118ec: c5 b6:       in (2r)         r1, res[r1]
             0x000118ee: 20 08:       ldw (2rus)      r2, r0[0x0]
             0x000118f0: d4 a6:       mkmsk (rus)     r1, 0x20
             0x000118f2: 07 73:       bu (u6)         0x7 <.label42>
.label43     0x000118f4: 00 f0 b0 58: ldw (lru6)      r2, dp[0x30]
             0x000118f8: ca ae:       out (r2r)       res[r2], r2
             0x000118fa: 00 f0 b0 58: ldw (lru6)      r2, dp[0x30]
             0x000118fe: ca b6:       in (2r)         r2, res[r2]
             0x00011900: 20 08:       ldw (2rus)      r2, r0[0x0]
.label42     0x00011902: 29 30:       eq (3r)         r2, r2, r1
             0x00011904: 89 7c:       bf (ru6)        r2, -0x9 <.label43>
             0x00011906: b0 00:       stw (2rus)      r11, r0[0x0]
             0x00011908: 00 f0 70 58: ldw (lru6)      r1, dp[0x30]
             0x0001190c: c5 ae:       out (r2r)       res[r1], r1
.label41     0x0001190e: 11 08:       ldw (2rus)      r1, r0[0x1]
             0x00011910: 15 90:       add (2rus)      r1, r1, 0x1
             0x00011912: 11 00:       stw (2rus)      r1, r0[0x1]
             0x00011914: c0 77:       retsp (u6)      0x0
             0x00011916: 00 00:       stw (2rus)      r0, r0[0x0]

<__sfp_lock_release>:
             0x00011918: 00 f0 05 60: ldaw (lru6)     r0, dp[0x5]
             0x0001191c: 41 77:       entsp (u6)      0x1
             0x0001191e: 00 f0 2f d4: bl (lu10)       -0x2f <__spin_lock_release_recursive>
             0x00011922: c1 77:       retsp (u6)      0x1

<__sfp_lock_acquire>:
             0x00011924: 00 f0 05 60: ldaw (lru6)     r0, dp[0x5]
             0x00011928: 41 77:       entsp (u6)      0x1
             0x0001192a: 00 f0 27 d4: bl (lu10)       -0x27 <__spin_lock_acquire_recursive>
             0x0001192e: c1 77:       retsp (u6)      0x1

<_cleanup_impl>:
             0x00011930: 00 f0 80 da: ldap (lu10)     r11, 0x280 <fflush>
             0x00011934: 41 77:       entsp (u6)      0x1
             0x00011936: 8c 91:       add (2rus)      r0, r11, 0x0
             0x00011938: 00 f0 86 d2: bl (lu10)       0x286 <_fwalk>
             0x0001193c: c1 77:       retsp (u6)      0x1
             0x0001193e: 00 90:       add (2rus)      r0, r0, 0x0

<__sinit>:
             0x00011940: 48 77:       entsp (u6)      0x8
             0x00011942: 07 55:       stw (ru6)       r4, sp[0x7]
             0x00011944: 46 55:       stw (ru6)       r5, sp[0x6]
             0x00011946: 85 55:       stw (ru6)       r6, sp[0x5]
             0x00011948: c4 55:       stw (ru6)       r7, sp[0x4]
             0x0001194a: 03 56:       stw (ru6)       r8, sp[0x3]
             0x0001194c: 42 56:       stw (ru6)       r9, sp[0x2]
             0x0001194e: 81 56:       stw (ru6)       r10, sp[0x1]
             0x00011950: 00 f0 03 60: ldaw (lru6)     r0, dp[0x3]
             0x00011954: 00 f0 3c d4: bl (lu10)       -0x3c <__spin_lock_acquire_recursive>
             0x00011958: 00 f0 31 58: ldw (lru6)      r0, dp[0x31]
             0x0001195c: 01 f0 27 70: bt (lru6)       r0, 0x67 <.label44>
             0x00011960: 00 6a:       ldc (ru6)       r8, 0x0
             0x00011962: 00 f0 32 52: stw (lru6)      r8, dp[0x32]
             0x00011966: 84 68:       ldc (ru6)       r2, 0x4
             0x00011968: d2 a6:       mkmsk (rus)     r0, 0x2
             0x0001196a: 00 f0 33 50: stw (lru6)      r0, dp[0x33]
             0x0001196e: 8e 6a:       ldc (ru6)       r10, 0xe
             0x00011970: 00 f0 35 60: ldaw (lru6)     r0, dp[0x35]
             0x00011974: 00 f0 00 d9: ldap (lu10)     r11, 0x100 <__sread>
             0x00011978: 18 92:       add (2rus)      r9, r10, 0x0
             0x0001197a: 00 f0 34 50: stw (lru6)      r0, dp[0x34]
             0x0001197e: cc 91:       add (2rus)      r4, r11, 0x0
             0x00011980: 00 f0 48 d9: ldap (lu10)     r11, 0x148 <__swrite>
             0x00011984: 00 f0 07 58: ldw (lru6)      r0, dp[0x7]
             0x00011988: 13 f8 ec 9f: ldaw (l2rus)    r1, r0[0x3]
             0x0001198c: 80 00:       stw (2rus)      r8, r0[0x0]
             0x0001198e: dc 91:       add (2rus)      r5, r11, 0x0
             0x00011990: 00 f0 1c d9: ldap (lu10)     r11, 0x11c <__sseek>
             0x00011994: 81 00:       stw (2rus)      r8, r0[0x1]
             0x00011996: 82 00:       stw (2rus)      r8, r0[0x2]
             0x00011998: ec 91:       add (2rus)      r6, r11, 0x0
             0x0001199a: a4 fc ec 87: st16 (l3r)      r2, r1[r8]
             0x0001199e: 92 14:       add (3r)        r1, r0, r10
             0x000119a0: 00 f0 0c d9: ldap (lu10)     r11, 0x10c <__sclose>
             0x000119a4: fc 91:       add (2rus)      r7, r11, 0x0
             0x000119a6: 04 fd ec 87: st16 (l3r)      r8, r1[r8]
             0x000119aa: c0 02:       stw (2rus)      r8, r0[0x4]
             0x000119ac: c1 02:       stw (2rus)      r8, r0[0x5]
             0x000119ae: c2 02:       stw (2rus)      r8, r0[0x6]
             0x000119b0: 01 f0 94 6a: ldc (lru6)      r10, 0x54
             0x000119b4: 43 02:       stw (2rus)      r0, r0[0x7]
             0x000119b6: c0 04:       stw (2rus)      r4, r0[0x8]
             0x000119b8: d1 04:       stw (2rus)      r5, r0[0x9]
             0x000119ba: e2 04:       stw (2rus)      r6, r0[0xa]
             0x000119bc: f3 04:       stw (2rus)      r7, r0[0xb]
             0x000119be: 82 14:       add (3r)        r0, r0, r10
             0x000119c0: 00 f0 86 d4: bl (lu10)       -0x86 <__spin_lock_init_recursive>
             0x000119c4: 00 f0 08 58: ldw (lru6)      r0, dp[0x8]
             0x000119c8: 80 00:       stw (2rus)      r8, r0[0x0]
             0x000119ca: 81 00:       stw (2rus)      r8, r0[0x1]
             0x000119cc: 82 00:       stw (2rus)      r8, r0[0x2]
             0x000119ce: 89 68:       ldc (ru6)       r2, 0x9
             0x000119d0: 13 f8 ec 9f: ldaw (l2rus)    r1, r0[0x3]
             0x000119d4: a4 fc ec 87: st16 (l3r)      r2, r1[r8]
             0x000119d8: 91 14:       add (3r)        r1, r0, r9
             0x000119da: 55 a7:       mkmsk (rus)     r9, 0x1
             0x000119dc: 14 fd ec 87: st16 (l3r)      r9, r1[r8]
             0x000119e0: c0 02:       stw (2rus)      r8, r0[0x4]
             0x000119e2: c1 02:       stw (2rus)      r8, r0[0x5]
             0x000119e4: c2 02:       stw (2rus)      r8, r0[0x6]
             0x000119e6: 43 02:       stw (2rus)      r0, r0[0x7]
             0x000119e8: c0 04:       stw (2rus)      r4, r0[0x8]
             0x000119ea: d1 04:       stw (2rus)      r5, r0[0x9]
             0x000119ec: e2 04:       stw (2rus)      r6, r0[0xa]
             0x000119ee: f3 04:       stw (2rus)      r7, r0[0xb]
             0x000119f0: 82 14:       add (3r)        r0, r0, r10
             0x000119f2: 00 f0 9f d4: bl (lu10)       -0x9f <__spin_lock_init_recursive>
             0x000119f6: 00 f0 09 58: ldw (lru6)      r0, dp[0x9]
             0x000119fa: 80 00:       stw (2rus)      r8, r0[0x0]
             0x000119fc: 92 68:       ldc (ru6)       r2, 0x12
             0x000119fe: 81 00:       stw (2rus)      r8, r0[0x1]
             0x00011a00: 13 f8 ec 9f: ldaw (l2rus)    r1, r0[0x3]
             0x00011a04: 82 00:       stw (2rus)      r8, r0[0x2]
             0x00011a06: a4 fc ec 87: st16 (l3r)      r2, r1[r8]
             0x00011a0a: 4e 68:       ldc (ru6)       r1, 0xe
             0x00011a0c: 82 68:       ldc (ru6)       r2, 0x2
             0x00011a0e: 11 10:       add (3r)        r1, r0, r1
             0x00011a10: a4 fc ec 87: st16 (l3r)      r2, r1[r8]
             0x00011a14: c0 02:       stw (2rus)      r8, r0[0x4]
             0x00011a16: c1 02:       stw (2rus)      r8, r0[0x5]
             0x00011a18: c2 02:       stw (2rus)      r8, r0[0x6]
             0x00011a1a: 43 02:       stw (2rus)      r0, r0[0x7]
             0x00011a1c: c0 04:       stw (2rus)      r4, r0[0x8]
             0x00011a1e: d1 04:       stw (2rus)      r5, r0[0x9]
             0x00011a20: e2 04:       stw (2rus)      r6, r0[0xa]
             0x00011a22: f3 04:       stw (2rus)      r7, r0[0xb]
             0x00011a24: 82 14:       add (3r)        r0, r0, r10
             0x00011a26: 00 f0 b9 d4: bl (lu10)       -0xb9 <__spin_lock_init_recursive>
             0x00011a2a: 00 f0 71 52: stw (lru6)      r9, dp[0x31]
.label44     0x00011a2e: 00 f0 03 60: ldaw (lru6)     r0, dp[0x3]
             0x00011a32: 00 f0 b9 d4: bl (lu10)       -0xb9 <__spin_lock_release_recursive>
             0x00011a36: 81 5e:       ldw (ru6)       r10, sp[0x1]
             0x00011a38: 42 5e:       ldw (ru6)       r9, sp[0x2]
             0x00011a3a: 03 5e:       ldw (ru6)       r8, sp[0x3]
             0x00011a3c: c4 5d:       ldw (ru6)       r7, sp[0x4]
             0x00011a3e: 85 5d:       ldw (ru6)       r6, sp[0x5]
             0x00011a40: 46 5d:       ldw (ru6)       r5, sp[0x6]
             0x00011a42: 07 5d:       ldw (ru6)       r4, sp[0x7]
             0x00011a44: c8 77:       retsp (u6)      0x8
             0x00011a46: 00 00:       stw (2rus)      r0, r0[0x0]

<_cleanup>:
             0x00011a48: 41 77:       entsp (u6)      0x1
             0x00011a4a: 00 f0 8f d4: bl (lu10)       -0x8f <_cleanup_impl>
             0x00011a4e: c1 77:       retsp (u6)      0x1

<_done>:
             0x00011a50: 07 68:       ldc (ru6)       r0, 0x7
             0x00011a52: 00 f0 ef d4: bl (lu10)       -0xef <_DoSyscall>
             0x00011a56: ed 07:       clre (0r)       
             0x00011a58: ec 07:       waiteu (0r)     

<xscope_output_data>:
             0x00011a5a: 45 77:       entsp (u6)      0x5
             0x00011a5c: 04 55:       stw (ru6)       r4, sp[0x4]
             0x00011a5e: 43 55:       stw (ru6)       r5, sp[0x3]
             0x00011a60: 82 55:       stw (ru6)       r6, sp[0x2]
             0x00011a62: c1 55:       stw (ru6)       r7, sp[0x1]
             0x00011a64: 44 90:       add (2rus)      r4, r1, 0x0
             0x00011a66: 50 90:       add (2rus)      r5, r0, 0x0
             0x00011a68: 01 f0 7b 58: ldw (lru6)      r1, dp[0x7b]
             0x00011a6c: 41 70:       bt (ru6)        r1, 0x1 <.label45>
             0x00011a6e: 85 87:       getr (rus)      r1, 0x5
.label45     0x00011a70: c9 b6:       in (2r)         r2, res[r1]
             0x00011a72: 01 f0 7b 50: stw (lru6)      r1, dp[0x7b]
             0x00011a76: 00 f0 69 d2: bl (lu10)       0x269 <xscope_gettime>
             0x00011a7a: 60 90:       add (2rus)      r6, r0, 0x0
             0x00011a7c: 01 f0 3c 58: ldw (lru6)      r0, dp[0x7c]
             0x00011a80: 02 b0:       eq (2rus)       r0, r0, 0x2
             0x00011a82: 06 78:       bf (ru6)        r0, 0x6 <.label46>
             0x00011a84: 02 93:       add (2rus)      r0, r4, 0x6
             0x00011a86: 30 47:       zext (rus)      r0, 0x8
             0x00011a88: 00 f0 6c d2: bl (lu10)       0x26c <xscope_xlink_put_ch>
             0x00011a8c: 29 68:       ldc (ru6)       r0, 0x29
             0x00011a8e: 05 73:       bu (u6)         0x5 <.label47>
.label46     0x00011a90: c2 90:       add (2rus)      r0, r4, 0x2
             0x00011a92: 30 47:       zext (rus)      r0, 0x8
             0x00011a94: 00 f0 66 d2: bl (lu10)       0x266 <xscope_xlink_put_ch>
             0x00011a98: 28 68:       ldc (ru6)       r0, 0x28
.label47     0x00011a9a: 00 f0 63 d2: bl (lu10)       0x263 <xscope_xlink_put_ch>
             0x00011a9e: 01 f0 3c 58: ldw (lru6)      r0, dp[0x7c]
             0x00011aa2: 02 b0:       eq (2rus)       r0, r0, 0x2
             0x00011aa4: 10 78:       bf (ru6)        r0, 0x10 <.label48>
             0x00011aa6: b8 ad:       shr (2rus)      r7, r6, 0x8
             0x00011aa8: c8 90:       add (2rus)      r0, r6, 0x0
             0x00011aaa: 30 47:       zext (rus)      r0, 0x8
             0x00011aac: 00 f0 5a d2: bl (lu10)       0x25a <xscope_xlink_put_ch>
             0x00011ab0: 7c 47:       zext (rus)      r7, 0x8
             0x00011ab2: cc 90:       add (2rus)      r0, r7, 0x0
             0x00011ab4: 00 f0 56 d2: bl (lu10)       0x256 <xscope_xlink_put_ch>
             0x00011ab8: 49 ad:       shr (2rus)      r0, r6, 0x10
             0x00011aba: 30 47:       zext (rus)      r0, 0x8
             0x00011abc: 00 f0 52 d2: bl (lu10)       0x252 <xscope_xlink_put_ch>
             0x00011ac0: 4a ad:       shr (2rus)      r0, r6, 0x18
             0x00011ac2: 00 f0 4f d2: bl (lu10)       0x24f <xscope_xlink_put_ch>
.label48     0x00011ac6: fc f3 00 68: ldc (lru6)      r0, 0xff00
             0x00011aca: 20 39:       and (3r)        r6, r4, r0
             0x00011acc: c0 90:       add (2rus)      r0, r4, 0x0
             0x00011ace: 30 47:       zext (rus)      r0, 0x8
             0x00011ad0: 00 f0 48 d2: bl (lu10)       0x248 <xscope_xlink_put_ch>
             0x00011ad4: 48 ad:       shr (2rus)      r0, r6, 0x8
             0x00011ad6: 00 f0 45 d2: bl (lu10)       0x245 <xscope_xlink_put_ch>
             0x00011ada: 07 79:       bf (ru6)        r4, 0x7 <.label49>
             0x00011adc: 80 69:       ldc (ru6)       r6, 0x0
.label50     0x00011ade: 06 8b:       ld8u (3r)       r0, r5[r6]
             0x00011ae0: 00 f0 40 d2: bl (lu10)       0x240 <xscope_xlink_put_ch>
             0x00011ae4: 29 91:       add (2rus)      r6, r6, 0x1
             0x00011ae6: 08 33:       eq (3r)         r0, r6, r4
             0x00011ae8: 06 7c:       bf (ru6)        r0, -0x6 <.label50>
.label49     0x00011aea: 00 f0 4a d2: bl (lu10)       0x24a <xscope_xlink_put_ct>
             0x00011aee: 01 f0 3b 58: ldw (lru6)      r0, dp[0x7b]
             0x00011af2: c0 ae:       out (r2r)       res[r0], r0
             0x00011af4: c1 5d:       ldw (ru6)       r7, sp[0x1]
             0x00011af6: 82 5d:       ldw (ru6)       r6, sp[0x2]
             0x00011af8: 43 5d:       ldw (ru6)       r5, sp[0x3]
             0x00011afa: 04 5d:       ldw (ru6)       r4, sp[0x4]
             0x00011afc: c5 77:       retsp (u6)      0x5

<_write>:
<_write.coersed..f.7bsi.7d.28si.2cp.28c.3auc.29.2cui.29>:
             0x00011afe: 42 77:       entsp (u6)      0x2
             0x00011b00: 01 55:       stw (ru6)       r4, sp[0x1]
             0x00011b02: 48 90:       add (2rus)      r4, r2, 0x0
             0x00011b04: 01 f0 bc 58: ldw (lru6)      r2, dp[0x7c]
             0x00011b08: 84 78:       bf (ru6)        r2, 0x4 <.label51>
             0x00011b0a: 04 90:       add (2rus)      r0, r1, 0x0
             0x00011b0c: d0 90:       add (2rus)      r1, r4, 0x0
             0x00011b0e: 5b d4:       bl (u10)        -0x5b <xscope_output_data>
             0x00011b10: 04 73:       bu (u6)         0x4 <.label52>
.label51     0x00011b12: e0 90:       add (2rus)      r2, r4, 0x0
             0x00011b14: 00 f0 1f d2: bl (lu10)       0x21f <xscope_syscall_write>
             0x00011b18: 40 90:       add (2rus)      r4, r0, 0x0
.label52     0x00011b1a: c0 90:       add (2rus)      r0, r4, 0x0
             0x00011b1c: 01 5d:       ldw (ru6)       r4, sp[0x1]
             0x00011b1e: c2 77:       retsp (u6)      0x2

<xscope_lock_init>:
             0x00011b20: 41 77:       entsp (u6)      0x1
             0x00011b22: 81 87:       getr (rus)      r0, 0x5
             0x00011b24: 01 f0 3b 50: stw (lru6)      r0, dp[0x7b]
             0x00011b28: 23 f0 96 dd: ldap (lu10)     r11, -0x8d96 <.label53>
             0x00011b2c: d1 7a:       bf (ru6)        r11, 0x11 <.label54>
             0x00011b2e: 23 f0 99 d5: bl (lu10)       -0x8d99 <.label53>
             0x00011b32: 00 f0 0c 58: ldw (lru6)      r0, dp[0xc]
             0x00011b36: 0c 78:       bf (ru6)        r0, 0xc <.label54>
             0x00011b38: 00 f0 fc d1: bl (lu10)       0x1fc <get_local_tile_id>
             0x00011b3c: 67 68:       ldc (ru6)       r1, 0x27
             0x00011b3e: 00 f0 8a 6c: ldw (lru6)      r2, cp[0xa]
             0x00011b42: 00 f0 cc d1: bl (lu10)       0x1cc <write_pswitch_reg>
             0x00011b46: 9c f0 0b 68: ldc (lru6)      r0, 0x270b
.label55     0x00011b4a: d4 fe ec 17: get (l2r)       r1, ps[r0]
             0x00011b4e: 43 74:       bt (ru6)        r1, -0x3 <.label55>
.label54     0x00011b50: c1 77:       retsp (u6)      0x1
             0x00011b52: 00 00:       stw (2rus)      r0, r0[0x0]

<safestrlen>:
             0x00011b54: 20 90:       add (2rus)      r2, r0, 0x0
             0x00011b56: e1 4f:       ecallf (1r)     r1
             0x00011b58: 00 68:       ldc (ru6)       r0, 0x0
             0x00011b5a: 38 88:       ld8u (3r)       r3, r2[r0]
             0x00011b5c: c5 78:       bf (ru6)        r3, 0x5 <.label56>
.label57     0x00011b5e: 01 90:       add (2rus)      r0, r0, 0x1
             0x00011b60: 31 c8:       lsu (3r)        r3, r0, r1
             0x00011b62: e3 4f:       ecallf (1r)     r3
             0x00011b64: 38 88:       ld8u (3r)       r3, r2[r0]
             0x00011b66: c5 74:       bt (ru6)        r3, -0x5 <.label57>
.label56     0x00011b68: c0 77:       retsp (u6)      0x0
             0x00011b6a: 00 00:       stw (2rus)      r0, r0[0x0]

<__errno>:
             0x00011b6c: 01 f0 3d 60: ldaw (lru6)     r0, dp[0x7d]
             0x00011b70: ee 17:       get (0r)        r11, id
             0x00011b72: 83 fc ec 1f: ldaw (l3r)      r0, r0[r11]
             0x00011b76: c0 77:       retsp (u6)      0x0

<__sread>:
             0x00011b78: 43 77:       entsp (u6)      0x3
             0x00011b7a: 0e 68:       ldc (ru6)       r0, 0xe
             0x00011b7c: 02 55:       stw (ru6)       r4, sp[0x2]
             0x00011b7e: 44 90:       add (2rus)      r4, r1, 0x0
             0x00011b80: 41 55:       stw (ru6)       r5, sp[0x1]
             0x00011b82: c0 10:       add (3r)        r0, r4, r0
             0x00011b84: 18 90:       add (2rus)      r1, r2, 0x0
             0x00011b86: 2c 90:       add (2rus)      r2, r3, 0x0
             0x00011b88: 40 69:       ldc (ru6)       r5, 0x0
             0x00011b8a: 41 82:       ld16s (3r)      r0, r0[r5]
             0x00011b8c: 00 f0 26 d2: bl (lu10)       0x226 <_read>
             0x00011b90: 10 f8 ec 97: ashr (l2rus)    r1, r0, 0x20
             0x00011b94: 47 70:       bt (ru6)        r1, 0x7 <.label58>
             0x00011b96: 01 f0 50 68: ldc (lru6)      r1, 0x50
             0x00011b9a: d1 10:       add (3r)        r1, r4, r1
             0x00011b9c: 24 08:       ldw (2rus)      r2, r1[0x0]
             0x00011b9e: 28 10:       add (3r)        r2, r2, r0
             0x00011ba0: 24 00:       stw (2rus)      r2, r1[0x0]
             0x00011ba2: 08 73:       bu (u6)         0x8 <.label59>
.label58     0x00011ba4: bf f3 ff 68: ldc (lru6)      r3, 0xefff
             0x00011ba8: d3 f8 ec 9f: ldaw (l2rus)    r1, r4[0x3]
             0x00011bac: 65 82:       ld16s (3r)      r2, r1[r5]
             0x00011bae: 2b 38:       and (3r)        r2, r2, r3
             0x00011bb0: 65 fa ec 87: st16 (l3r)      r2, r1[r5]
.label59     0x00011bb4: 41 5d:       ldw (ru6)       r5, sp[0x1]
             0x00011bb6: 02 5d:       ldw (ru6)       r4, sp[0x2]
             0x00011bb8: c3 77:       retsp (u6)      0x3
             0x00011bba: 00 90:       add (2rus)      r0, r0, 0x0

<__sclose>:
             0x00011bbc: 0e 68:       ldc (ru6)       r0, 0xe
             0x00011bbe: 04 10:       add (3r)        r0, r1, r0
             0x00011bc0: 40 68:       ldc (ru6)       r1, 0x0
             0x00011bc2: 41 77:       entsp (u6)      0x1
             0x00011bc4: 01 80:       ld16s (3r)      r0, r0[r1]
             0x00011bc6: 00 f0 ff d1: bl (lu10)       0x1ff <_close>
             0x00011bca: c1 77:       retsp (u6)      0x1

<__sseek>:
             0x00011bcc: 43 77:       entsp (u6)      0x3
             0x00011bce: 0e 68:       ldc (ru6)       r0, 0xe
             0x00011bd0: 02 55:       stw (ru6)       r4, sp[0x2]
             0x00011bd2: 44 90:       add (2rus)      r4, r1, 0x0
             0x00011bd4: 41 55:       stw (ru6)       r5, sp[0x1]
             0x00011bd6: c0 10:       add (3r)        r0, r4, r0
             0x00011bd8: 40 69:       ldc (ru6)       r5, 0x0
             0x00011bda: 41 82:       ld16s (3r)      r0, r0[r5]
             0x00011bdc: 18 90:       add (2rus)      r1, r2, 0x0
             0x00011bde: 2c 90:       add (2rus)      r2, r3, 0x0
             0x00011be0: 00 f0 f6 d1: bl (lu10)       0x1f6 <_lseek>
             0x00011be4: d3 f8 ec 9f: ldaw (l2rus)    r1, r4[0x3]
             0x00011be8: 65 82:       ld16s (3r)      r2, r1[r5]
             0x00011bea: dc a6:       mkmsk (rus)     r3, 0x20
             0x00011bec: 33 30:       eq (3r)         r3, r0, r3
             0x00011bee: c6 78:       bf (ru6)        r3, 0x6 <.label60>
             0x00011bf0: bf f3 ff 68: ldc (lru6)      r3, 0xefff
             0x00011bf4: 2b 38:       and (3r)        r2, r2, r3
             0x00011bf6: 65 fa ec 87: st16 (l3r)      r2, r1[r5]
             0x00011bfa: 09 73:       bu (u6)         0x9 <.label61>
.label60     0x00011bfc: 40 f0 c0 68: ldc (lru6)      r3, 0x1000
             0x00011c00: 2b 40:       or (3r)         r2, r2, r3
             0x00011c02: 65 fa ec 87: st16 (l3r)      r2, r1[r5]
             0x00011c06: 01 f0 50 68: ldc (lru6)      r1, 0x50
             0x00011c0a: d1 10:       add (3r)        r1, r4, r1
             0x00011c0c: 04 00:       stw (2rus)      r0, r1[0x0]
.label61     0x00011c0e: 41 5d:       ldw (ru6)       r5, sp[0x1]
             0x00011c10: 02 5d:       ldw (ru6)       r4, sp[0x2]
             0x00011c12: c3 77:       retsp (u6)      0x3

<__swrite>:
             0x00011c14: 44 77:       entsp (u6)      0x4
             0x00011c16: 03 55:       stw (ru6)       r4, sp[0x3]
             0x00011c18: 42 55:       stw (ru6)       r5, sp[0x2]
             0x00011c1a: 4c 90:       add (2rus)      r4, r3, 0x0
             0x00011c1c: 81 55:       stw (ru6)       r6, sp[0x1]
             0x00011c1e: 58 90:       add (2rus)      r5, r2, 0x0
             0x00011c20: 04 f0 00 68: ldc (lru6)      r0, 0x100
             0x00011c24: 64 90:       add (2rus)      r6, r1, 0x0
             0x00011c26: db 08:       ldw (2rus)      r1, r6[0x3]
             0x00011c28: 24 38:       and (3r)        r2, r1, r0
             0x00011c2a: 85 ac:       shr (2rus)      r0, r1, 0x10
             0x00011c2c: 87 78:       bf (ru6)        r2, 0x7 <.label62>
             0x00011c2e: 82 68:       ldc (ru6)       r2, 0x2
             0x00011c30: 40 68:       ldc (ru6)       r1, 0x0
             0x00011c32: 31 37:       sext (rus)      r0, 0x10
             0x00011c34: 00 f0 cc d1: bl (lu10)       0x1cc <_lseek>
             0x00011c38: db 08:       ldw (2rus)      r1, r6[0x3]
             0x00011c3a: 85 ac:       shr (2rus)      r0, r1, 0x10
.label62     0x00011c3c: bf f3 bf 68: ldc (lru6)      r2, 0xefff
             0x00011c40: 16 38:       and (3r)        r1, r1, r2
             0x00011c42: eb f8 ec 9f: ldaw (l2rus)    r2, r6[0x3]
             0x00011c46: 31 37:       sext (rus)      r0, 0x10
             0x00011c48: c0 68:       ldc (ru6)       r3, 0x0
             0x00011c4a: 1b f8 ec 87: st16 (l3r)      r1, r2[r3]
             0x00011c4e: e0 90:       add (2rus)      r2, r4, 0x0
             0x00011c50: d4 90:       add (2rus)      r1, r5, 0x0
             0x00011c52: 00 f0 ac d4: bl (lu10)       -0xac <_write> <_write.coersed..f.7bsi.7d.28si.2cp.28c.3auc.29.2cui.29>
             0x00011c56: 81 5d:       ldw (ru6)       r6, sp[0x1]
             0x00011c58: 42 5d:       ldw (ru6)       r5, sp[0x2]
             0x00011c5a: 03 5d:       ldw (ru6)       r4, sp[0x3]
             0x00011c5c: c4 77:       retsp (u6)      0x4
             0x00011c5e: 00 00:       stw (2rus)      r0, r0[0x0]

<_fflush>:
             0x00011c60: 48 77:       entsp (u6)      0x8
             0x00011c62: 07 55:       stw (ru6)       r4, sp[0x7]
             0x00011c64: 46 55:       stw (ru6)       r5, sp[0x6]
             0x00011c66: 85 55:       stw (ru6)       r6, sp[0x5]
             0x00011c68: c4 55:       stw (ru6)       r7, sp[0x4]
             0x00011c6a: 03 56:       stw (ru6)       r8, sp[0x3]
             0x00011c6c: 42 56:       stw (ru6)       r9, sp[0x2]
             0x00011c6e: 81 56:       stw (ru6)       r10, sp[0x1]
             0x00011c70: 40 90:       add (2rus)      r4, r0, 0x0
             0x00011c72: 00 f0 31 58: ldw (lru6)      r0, dp[0x31]
             0x00011c76: 02 70:       bt (ru6)        r0, 0x2 <.label63>
             0x00011c78: 00 f0 9e d5: bl (lu10)       -0x19e <__sinit>
.label63     0x00011c7c: 08 f0 80 6a: ldc (lru6)      r10, 0x200
             0x00011c80: 53 f9 ec 9f: ldaw (l2rus)    r9, r4[0x3]
             0x00011c84: 40 69:       ldc (ru6)       r5, 0x0
             0x00011c86: c5 83:       ld16s (3r)      r0, r9[r5]
             0x00011c88: 92 3c:       and (3r)        r1, r0, r10
             0x00011c8a: 42 78:       bf (ru6)        r1, 0x2 <.label64>
             0x00011c8c: 31 47:       zext (rus)      r0, 0x10
             0x00011c8e: 07 73:       bu (u6)         0x7 <.label65>
.label64     0x00011c90: 01 f0 14 68: ldc (lru6)      r0, 0x54
             0x00011c94: c0 10:       add (3r)        r0, r4, r0
             0x00011c96: 00 f0 dd d5: bl (lu10)       -0x1dd <__spin_lock_acquire_recursive>
             0x00011c9a: 00 68:       ldc (ru6)       r0, 0x0
             0x00011c9c: 84 81:       ld16s (3r)      r0, r9[r0]
.label65     0x00011c9e: 10 90:       add (2rus)      r1, r0, 0x0
             0x00011ca0: 35 37:       sext (rus)      r1, 0x10
             0x00011ca2: 88 68:       ldc (ru6)       r2, 0x8
             0x00011ca4: 26 38:       and (3r)        r2, r1, r2
             0x00011ca6: 02 f0 85 70: bt (lru6)       r2, 0x85 <.label66>
             0x00011caa: 00 6a:       ldc (ru6)       r8, 0x0
             0x00011cac: 20 f0 40 68: ldc (lru6)      r1, 0x800
             0x00011cb0: 11 40:       or (3r)         r1, r0, r1
             0x00011cb2: 14 fe ec 87: st16 (l3r)      r1, r9[r8]
             0x00011cb6: e1 08:       ldw (2rus)      r2, r4[0x1]
             0x00011cb8: a2 c1:       lss (3r)        r2, r8, r2
             0x00011cba: 86 70:       bt (ru6)        r2, 0x6 <.label67>
             0x00011cbc: bc 68:       ldc (ru6)       r2, 0x3c
             0x00011cbe: e2 10:       add (3r)        r2, r4, r2
             0x00011cc0: 28 08:       ldw (2rus)      r2, r2[0x0]
             0x00011cc2: dd a6:       mkmsk (rus)     r3, 0x1
             0x00011cc4: 2b c0:       lss (3r)        r2, r2, r3
             0x00011cc6: bf 70:       bt (ru6)        r2, 0x3f <.label68>
.label67     0x00011cc8: f2 0d:       ldw (2rus)      r11, r4[0xa]
             0x00011cca: fd 7a:       bf (ru6)        r11, 0x3d <.label68>
             0x00011ccc: 40 f0 80 68: ldc (lru6)      r2, 0x1000
             0x00011cd0: 02 38:       and (3r)        r0, r0, r2
             0x00011cd2: 3e 78:       bf (ru6)        r0, 0x3e <.label69>
             0x00011cd4: 01 f0 10 68: ldc (lru6)      r0, 0x50
             0x00011cd8: c0 10:       add (3r)        r0, r4, r0
             0x00011cda: 60 08:       ldw (2rus)      r6, r0[0x0]
.label77     0x00011cdc: 04 68:       ldc (ru6)       r0, 0x4
             0x00011cde: 04 38:       and (3r)        r0, r1, r0
             0x00011ce0: 0a 78:       bf (ru6)        r0, 0xa <.label70>
             0x00011ce2: c1 08:       ldw (2rus)      r0, r4[0x1]
             0x00011ce4: 28 19:       sub (3r)        r6, r6, r0
             0x00011ce6: 30 68:       ldc (ru6)       r0, 0x30
             0x00011ce8: c0 10:       add (3r)        r0, r4, r0
             0x00011cea: 00 08:       ldw (2rus)      r0, r0[0x0]
             0x00011cec: 04 78:       bf (ru6)        r0, 0x4 <.label70>
             0x00011cee: 3c 68:       ldc (ru6)       r0, 0x3c
             0x00011cf0: c0 10:       add (3r)        r0, r4, r0
             0x00011cf2: 00 08:       ldw (2rus)      r0, r0[0x0]
             0x00011cf4: 28 19:       sub (3r)        r6, r6, r0
.label70     0x00011cf6: c0 69:       ldc (ru6)       r7, 0x0
             0x00011cf8: 13 0b:       ldw (2rus)      r1, r4[0x7]
             0x00011cfa: cc 90:       add (2rus)      r0, r7, 0x0
             0x00011cfc: f2 0d:       ldw (2rus)      r11, r4[0xa]
             0x00011cfe: e8 90:       add (2rus)      r2, r6, 0x0
             0x00011d00: fc 90:       add (2rus)      r3, r7, 0x0
             0x00011d02: eb 27:       bla (1r)        r11
             0x00011d04: 52 32:       eq (3r)         r1, r0, r6
             0x00011d06: c7 83:       ld16s (3r)      r0, r9[r7]
             0x00011d08: 01 f0 4b 78: bf (lru6)       r1, 0x4b <.label71>
             0x00011d0c: df f3 7f 68: ldc (lru6)      r1, 0xf7ff
             0x00011d10: 11 38:       and (3r)        r1, r0, r1
             0x00011d12: d7 fb ec 87: st16 (l3r)      r1, r9[r7]
             0x00011d16: 31 01:       stw (2rus)      r7, r4[0x1]
             0x00011d18: 20 0b:       ldw (2rus)      r2, r4[0x4]
             0x00011d1a: e0 00:       stw (2rus)      r2, r4[0x0]
             0x00011d1c: 40 f0 80 68: ldc (lru6)      r2, 0x1000
             0x00011d20: 02 38:       and (3r)        r0, r0, r2
             0x00011d22: 04 78:       bf (ru6)        r0, 0x4 <.label72>
             0x00011d24: 01 f0 10 68: ldc (lru6)      r0, 0x50
             0x00011d28: c0 10:       add (3r)        r0, r4, r0
             0x00011d2a: 60 00:       stw (2rus)      r6, r0[0x0]
.label72     0x00011d2c: 30 68:       ldc (ru6)       r0, 0x30
             0x00011d2e: 10 11:       add (3r)        r5, r4, r0
             0x00011d30: c4 08:       ldw (2rus)      r0, r5[0x0]
             0x00011d32: 09 78:       bf (ru6)        r0, 0x9 <.label68>
             0x00011d34: 01 f0 80 68: ldc (lru6)      r2, 0x40
             0x00011d38: e2 10:       add (3r)        r2, r4, r2
             0x00011d3a: 22 30:       eq (3r)         r2, r0, r2
             0x00011d3c: 83 70:       bt (ru6)        r2, 0x3 <.label73>
             0x00011d3e: 00 f0 81 d1: bl (lu10)       0x181 <free>
             0x00011d42: d7 83:       ld16s (3r)      r1, r9[r7]
.label73     0x00011d44: 34 01:       stw (2rus)      r7, r5[0x0]
.label68     0x00011d46: 86 3c:       and (3r)        r0, r1, r10
             0x00011d48: 01 f0 25 78: bf (lru6)       r0, 0x65 <.label74>
             0x00011d4c: 01 f0 29 73: bu (lu6)        0x69 <.label75>
.label69     0x00011d50: 13 0b:       ldw (2rus)      r1, r4[0x7]
             0x00011d52: c0 69:       ldc (ru6)       r7, 0x0
             0x00011d54: dd a6:       mkmsk (rus)     r3, 0x1
             0x00011d56: cc 90:       add (2rus)      r0, r7, 0x0
             0x00011d58: ec 90:       add (2rus)      r2, r7, 0x0
             0x00011d5a: eb 27:       bla (1r)        r11
             0x00011d5c: 60 90:       add (2rus)      r6, r0, 0x0
             0x00011d5e: 14 a7:       mkmsk (rus)     r5, 0x20
             0x00011d60: 09 33:       eq (3r)         r0, r6, r5
             0x00011d62: 03 70:       bt (ru6)        r0, 0x3 <.label76>
             0x00011d64: d7 83:       ld16s (3r)      r1, r9[r7]
             0x00011d66: 01 f0 07 77: bu (lu6)        -0x47 <.label77>
.label76     0x00011d6a: 00 f0 01 d5: bl (lu10)       -0x101 <__errno>
             0x00011d6e: 9d 68:       ldc (ru6)       r2, 0x1d
             0x00011d70: d7 83:       ld16s (3r)      r1, r9[r7]
             0x00011d72: 00 08:       ldw (2rus)      r0, r0[0x0]
             0x00011d74: 02 30:       eq (3r)         r0, r0, r2
             0x00011d76: 02 78:       bf (ru6)        r0, 0x2 <.label78>
             0x00011d78: 1c 91:       add (2rus)      r5, r7, 0x0
             0x00011d7a: 06 73:       bu (u6)         0x6 <.label79>
.label78     0x00011d7c: 01 f0 00 68: ldc (lru6)      r0, 0x40
             0x00011d80: 14 40:       or (3r)         r1, r1, r0
             0x00011d82: 00 68:       ldc (ru6)       r0, 0x0
             0x00011d84: 94 f9 ec 87: st16 (l3r)      r1, r9[r0]
.label79     0x00011d88: 86 3c:       and (3r)        r0, r1, r10
             0x00011d8a: 03 78:       bf (ru6)        r0, 0x3 <.label80>
             0x00011d8c: 44 91:       add (2rus)      r8, r5, 0x0
             0x00011d8e: 01 f0 08 73: bu (lu6)        0x48 <.label75>
.label80     0x00011d92: 01 f0 14 68: ldc (lru6)      r0, 0x54
             0x00011d96: c0 10:       add (3r)        r0, r4, r0
             0x00011d98: 00 f0 6c d6: bl (lu10)       -0x26c <__spin_lock_release_recursive>
             0x00011d9c: 44 91:       add (2rus)      r8, r5, 0x0
             0x00011d9e: 01 f0 00 73: bu (lu6)        0x40 <.label75>
.label71     0x00011da2: 01 f0 40 68: ldc (lru6)      r1, 0x40
             0x00011da6: 11 40:       or (3r)         r1, r0, r1
             0x00011da8: 82 3c:       and (3r)        r0, r0, r10
             0x00011daa: d7 fb ec 87: st16 (l3r)      r1, r9[r7]
             0x00011dae: 1b 78:       bf (ru6)        r0, 0x1b <.label81>
             0x00011db0: 50 a7:       mkmsk (rus)     r8, 0x20
             0x00011db2: 37 73:       bu (u6)         0x37 <.label75>
.label66     0x00011db4: 60 0b:       ldw (2rus)      r6, r4[0x4]
             0x00011db6: 83 71:       bt (ru6)        r6, 0x3 <.label82>
             0x00011db8: 82 3c:       and (3r)        r0, r0, r10
             0x00011dba: 2d 78:       bf (ru6)        r0, 0x2d <.label74>
             0x00011dbc: 31 73:       bu (u6)         0x31 <.label83>
.label82     0x00011dbe: e4 90:       add (2rus)      r2, r5, 0x0
             0x00011dc0: d6 46:       zext (rus)      r1, 0x2
             0x00011dc2: c0 08:       ldw (2rus)      r0, r4[0x0]
             0x00011dc4: 20 01:       stw (2rus)      r6, r4[0x0]
             0x00011dc6: 41 70:       bt (ru6)        r1, 0x1 <.label84>
             0x00011dc8: 21 0b:       ldw (2rus)      r2, r4[0x5]
.label84     0x00011dca: b2 1a:       sub (3r)        r7, r0, r6
             0x00011dcc: e2 00:       stw (2rus)      r2, r4[0x2]
             0x00011dce: 1c 73:       bu (u6)         0x1c <.label85>
.label86     0x00011dd0: 01 f0 80 68: ldc (lru6)      r2, 0x40
             0x00011dd4: 40 68:       ldc (ru6)       r1, 0x0
             0x00011dd6: 85 81:       ld16s (3r)      r0, r9[r1]
             0x00011dd8: 22 40:       or (3r)         r2, r0, r2
             0x00011dda: a5 f9 ec 87: st16 (l3r)      r2, r9[r1]
             0x00011dde: 82 3c:       and (3r)        r0, r0, r10
             0x00011de0: 02 78:       bf (ru6)        r0, 0x2 <.label81>
             0x00011de2: 50 a7:       mkmsk (rus)     r8, 0x20
             0x00011de4: 1e 73:       bu (u6)         0x1e <.label75>
.label81     0x00011de6: 01 f0 14 68: ldc (lru6)      r0, 0x54
             0x00011dea: c0 10:       add (3r)        r0, r4, r0
             0x00011dec: 00 f0 96 d6: bl (lu10)       -0x296 <__spin_lock_release_recursive>
             0x00011df0: 50 a7:       mkmsk (rus)     r8, 0x20
             0x00011df2: 17 73:       bu (u6)         0x17 <.label75>
.label87     0x00011df4: 13 0b:       ldw (2rus)      r1, r4[0x7]
             0x00011df6: c4 90:       add (2rus)      r0, r5, 0x0
             0x00011df8: f1 0d:       ldw (2rus)      r11, r4[0x9]
             0x00011dfa: e8 90:       add (2rus)      r2, r6, 0x0
             0x00011dfc: fc 90:       add (2rus)      r3, r7, 0x0
             0x00011dfe: eb 27:       bla (1r)        r11
             0x00011e00: d4 c0:       lss (3r)        r1, r5, r0
             0x00011e02: 5a 7c:       bf (ru6)        r1, -0x1a <.label86>
             0x00011e04: 28 11:       add (3r)        r6, r6, r0
             0x00011e06: 3c 19:       sub (3r)        r7, r7, r0
.label85     0x00011e08: 07 c3:       lss (3r)        r0, r5, r7
             0x00011e0a: 0c 74:       bt (ru6)        r0, -0xc <.label87>
             0x00011e0c: 42 68:       ldc (ru6)       r1, 0x2
             0x00011e0e: 0d 68:       ldc (ru6)       r0, 0xd
             0x00011e10: c0 88:       ld8u (3r)       r0, r4[r0]
             0x00011e12: 01 38:       and (3r)        r0, r0, r1
             0x00011e14: 05 70:       bt (ru6)        r0, 0x5 <.label83>
.label74     0x00011e16: 01 f0 14 68: ldc (lru6)      r0, 0x54
             0x00011e1a: c0 10:       add (3r)        r0, r4, r0
             0x00011e1c: 00 f0 ae d6: bl (lu10)       -0x2ae <__spin_lock_release_recursive>
.label83     0x00011e20: 00 6a:       ldc (ru6)       r8, 0x0
.label75     0x00011e22: 81 5e:       ldw (ru6)       r10, sp[0x1]
             0x00011e24: 42 5e:       ldw (ru6)       r9, sp[0x2]
             0x00011e26: 80 91:       add (2rus)      r0, r8, 0x0
             0x00011e28: 03 5e:       ldw (ru6)       r8, sp[0x3]
             0x00011e2a: c4 5d:       ldw (ru6)       r7, sp[0x4]
             0x00011e2c: 85 5d:       ldw (ru6)       r6, sp[0x5]
             0x00011e2e: 46 5d:       ldw (ru6)       r5, sp[0x6]
             0x00011e30: 07 5d:       ldw (ru6)       r4, sp[0x7]
             0x00011e32: c8 77:       retsp (u6)      0x8

<fflush>:
             0x00011e34: 41 77:       entsp (u6)      0x1
             0x00011e36: 05 70:       bt (ru6)        r0, 0x5 <.label88>
             0x00011e38: 03 dc:       ldap (u10)      r11, -0x3 <fflush>
             0x00011e3a: 8c 91:       add (2rus)      r0, r11, 0x0
             0x00011e3c: 00 f0 04 d0: bl (lu10)       0x4 <_fwalk>
             0x00011e40: c1 77:       retsp (u6)      0x1
.label88     0x00011e42: f2 d4:       bl (u10)        -0xf2 <_fflush>
             0x00011e44: c1 77:       retsp (u6)      0x1
             0x00011e46: 00 00:       stw (2rus)      r0, r0[0x0]

<_fwalk>:
             0x00011e48: 49 77:       entsp (u6)      0x9
             0x00011e4a: 08 55:       stw (ru6)       r4, sp[0x8]
             0x00011e4c: 47 55:       stw (ru6)       r5, sp[0x7]
             0x00011e4e: 86 55:       stw (ru6)       r6, sp[0x6]
             0x00011e50: c5 55:       stw (ru6)       r7, sp[0x5]
             0x00011e52: 04 56:       stw (ru6)       r8, sp[0x4]
             0x00011e54: 43 56:       stw (ru6)       r9, sp[0x3]
             0x00011e56: 82 56:       stw (ru6)       r10, sp[0x2]
             0x00011e58: 01 54:       stw (ru6)       r0, sp[0x1]
             0x00011e5a: 00 f0 9d d6: bl (lu10)       -0x29d <__sfp_lock_acquire>
             0x00011e5e: c0 69:       ldc (ru6)       r7, 0x0
             0x00011e60: 08 f0 40 6a: ldc (lru6)      r9, 0x200
             0x00011e64: 01 f0 94 6a: ldc (lru6)      r10, 0x54
             0x00011e68: 00 f0 32 62: ldaw (lru6)     r8, dp[0x32]
             0x00011e6c: 1c 91:       add (2rus)      r5, r7, 0x0
.label95     0x00011e6e: d1 a6:       mkmsk (rus)     r0, 0x1
             0x00011e70: c1 09:       ldw (2rus)      r4, r8[0x1]
             0x00011e72: c0 c0:       lss (3r)        r0, r4, r0
             0x00011e74: 27 70:       bt (ru6)        r0, 0x27 <.label89>
             0x00011e76: e2 09:       ldw (2rus)      r6, r8[0x2]
.label94     0x00011e78: db 08:       ldw (2rus)      r1, r6[0x3]
             0x00011e7a: 04 90:       add (2rus)      r0, r1, 0x0
             0x00011e7c: 31 47:       zext (rus)      r0, 0x10
             0x00011e7e: 1c 78:       bf (ru6)        r0, 0x1c <.label90>
             0x00011e80: 04 90:       add (2rus)      r0, r1, 0x0
             0x00011e82: a5 3c:       and (3r)        r2, r1, r9
             0x00011e84: 88 70:       bt (ru6)        r2, 0x8 <.label91>
             0x00011e86: 4a 15:       add (3r)        r0, r6, r10
             0x00011e88: 00 f0 d6 d6: bl (lu10)       -0x2d6 <__spin_lock_acquire_recursive>
             0x00011e8c: db 08:       ldw (2rus)      r1, r6[0x3]
             0x00011e8e: 04 90:       add (2rus)      r0, r1, 0x0
             0x00011e90: 24 90:       add (2rus)      r2, r1, 0x0
             0x00011e92: 39 47:       zext (rus)      r2, 0x10
             0x00011e94: 8e 78:       bf (ru6)        r2, 0xe <.label92>
.label91     0x00011e96: 00 f0 8b 6c: ldw (lru6)      r2, cp[0xb]
             0x00011e9a: 02 38:       and (3r)        r0, r0, r2
             0x00011e9c: 02 30:       eq (3r)         r0, r0, r2
             0x00011e9e: 07 70:       bt (ru6)        r0, 0x7 <.label93>
             0x00011ea0: 41 5c:       ldw (ru6)       r1, sp[0x1]
             0x00011ea2: c8 90:       add (2rus)      r0, r6, 0x0
             0x00011ea4: e1 27:       bla (1r)        r1
             0x00011ea6: 91 42:       or (3r)         r5, r0, r5
             0x00011ea8: db f8 ec 9f: ldaw (l2rus)    r1, r6[0x3]
             0x00011eac: 57 82:       ld16s (3r)      r1, r1[r7]
.label93     0x00011eae: 85 3c:       and (3r)        r0, r1, r9
             0x00011eb0: 03 70:       bt (ru6)        r0, 0x3 <.label90>
.label92     0x00011eb2: 4a 15:       add (3r)        r0, r6, r10
             0x00011eb4: 00 f0 fa d6: bl (lu10)       -0x2fa <__spin_lock_release_recursive>
.label90     0x00011eb8: 01 99:       sub (2rus)      r4, r4, 0x1
             0x00011eba: 01 f0 1c 68: ldc (lru6)      r0, 0x5c
             0x00011ebe: 28 11:       add (3r)        r6, r6, r0
             0x00011ec0: 0c c3:       lss (3r)        r0, r7, r4
             0x00011ec2: 26 74:       bt (ru6)        r0, -0x26 <.label94>
.label89     0x00011ec4: 00 0a:       ldw (2rus)      r8, r8[0x0]
             0x00011ec6: 2d 76:       bt (ru6)        r8, -0x2d <.label95>
             0x00011ec8: 00 f0 da d6: bl (lu10)       -0x2da <__sfp_lock_release>
             0x00011ecc: 82 5e:       ldw (ru6)       r10, sp[0x2]
             0x00011ece: 43 5e:       ldw (ru6)       r9, sp[0x3]
             0x00011ed0: 04 5e:       ldw (ru6)       r8, sp[0x4]
             0x00011ed2: c5 5d:       ldw (ru6)       r7, sp[0x5]
             0x00011ed4: 86 5d:       ldw (ru6)       r6, sp[0x6]
             0x00011ed6: c4 90:       add (2rus)      r0, r5, 0x0
             0x00011ed8: 47 5d:       ldw (ru6)       r5, sp[0x7]
             0x00011eda: 08 5d:       ldw (ru6)       r4, sp[0x8]
             0x00011edc: c9 77:       retsp (u6)      0x9

<write_pswitch_reg>:
             0x00011ede: 08 f3 cc 68: ldc (lru6)      r3, 0xc20c
             0x00011ee2: c1 6a:       ldc (ru6)       r11, 0x1
             0x00011ee4: 00 73:       bu (u6)         0x0 <write_switch_reg>

<write_switch_reg>:
             0x00011ee6: 00 55:       stw (ru6)       r4, sp[0x0]
             0x00011ee8: c1 ac:       shr (2rus)      r4, r0, 0x10
             0x00011eea: 1e 71:       bt (ru6)        r4, 0x1e <write_switch_reg_return_0>
             0x00011eec: c5 ac:       shr (2rus)      r4, r1, 0x10
             0x00011eee: 1c 71:       bt (ru6)        r4, 0x1c <write_switch_reg_return_0>
             0x00011ef0: 81 a4:       shl (2rus)      r0, r0, 0x10
             0x00011ef2: 03 40:       or (3r)         r0, r0, r3
             0x00011ef4: 02 87:       getr (rus)      r4, 0x2
             0x00011ef6: 90 17:       setd (r2r)      res[r4], r0
             0x00011ef8: 03 f0 c0 68: ldc (lru6)      r3, 0xc0
             0x00011efc: 03 4f:       outct (2r)      res[r4], r3
             0x00011efe: c3 7a:       bf (ru6)        r11, 0x3 <build_return_no_ack>
             0x00011f00: 40 ad:       shr (2rus)      r0, r4, 0x8
             0x00011f02: 80 a4:       shl (2rus)      r0, r0, 0x8
             0x00011f04: 04 73:       bu (u6)         0x4 <write_switch_reg_send>

<build_return_no_ack>:
             0x00011f06: 80 ac:       shr (2rus)      r0, r0, 0x8
             0x00011f08: 3c a7:       mkmsk (rus)     r3, 0x8
             0x00011f0a: 03 40:       or (3r)         r0, r0, r3
             0x00011f0c: 80 a4:       shl (2rus)      r0, r0, 0x8

<write_switch_reg_send>:
             0x00011f0e: b4 ac:       shr (2rus)      r3, r1, 0x8
             0x00011f10: 03 40:       or (3r)         r0, r0, r3
             0x00011f12: 80 af:       out (r2r)       res[r4], r0
             0x00011f14: 94 0f:       outt (r2r)      res[r4], r1
             0x00011f16: 88 af:       out (r2r)       res[r4], r2
             0x00011f18: 11 4f:       outct (rus)     res[r4], 0x1
             0x00011f1a: c9 7a:       bf (ru6)        r11, 0x9 <write_switch_reg_return_1>
             0x00011f1c: 90 87:       inct (2r)       r0, res[r4]
             0x00011f1e: 03 b0:       eq (2rus)       r0, r0, 0x3
             0x00011f20: 11 cf:       chkct (rus)     res[r4], 0x1
             0x00011f22: e4 17:       freer (1r)      res[r4]
             0x00011f24: 00 5d:       ldw (ru6)       r4, sp[0x0]
             0x00011f26: c0 77:       retsp (u6)      0x0

<write_switch_reg_return_0>:
             0x00011f28: 00 68:       ldc (ru6)       r0, 0x0
             0x00011f2a: 00 5d:       ldw (ru6)       r4, sp[0x0]
             0x00011f2c: c0 77:       retsp (u6)      0x0

<write_switch_reg_return_1>:
             0x00011f2e: 01 68:       ldc (ru6)       r0, 0x1
             0x00011f30: 00 5d:       ldw (ru6)       r4, sp[0x0]
             0x00011f32: c0 77:       retsp (u6)      0x0

<get_local_tile_id>:
             0x00011f34: c6 86:       getr (rus)      r1, 0x2
             0x00011f36: 85 ac:       shr (2rus)      r0, r1, 0x10
             0x00011f38: e1 17:       freer (1r)      res[r1]
             0x00011f3a: c0 77:       retsp (u6)      0x0

<xscope_tmr.ctor>:
             0x00011f3c: c1 86:       getr (rus)      r0, 0x1
             0x00011f3e: 02 f0 06 50: stw (lru6)      r0, dp[0x86]
             0x00011f42: c0 77:       retsp (u6)      0x0

<xscope_tmr.dtor>:
             0x00011f44: 02 f0 06 58: ldw (lru6)      r0, dp[0x86]
             0x00011f48: e0 17:       freer (1r)      res[r0]
             0x00011f4a: c0 77:       retsp (u6)      0x0

<xscope_gettime>:
             0x00011f4c: 02 f0 06 58: ldw (lru6)      r0, dp[0x86]
             0x00011f50: 01 e8:       setc (ru6)      res[r0], 0x1
             0x00011f52: c0 b6:       in (2r)         r0, res[r0]
             0x00011f54: c0 77:       retsp (u6)      0x0

<xscope_syscall_write>:
             0x00011f56: 38 90:       add (2rus)      r3, r2, 0x0
             0x00011f58: 24 90:       add (2rus)      r2, r1, 0x0
             0x00011f5a: 10 90:       add (2rus)      r1, r0, 0x0
             0x00011f5c: 06 68:       ldc (ru6)       r0, 0x6
             0x00011f5e: 00 f0 18 73: bu (lu6)        0x18 <_DoSyscallErrno>
             0x00011f62: 00 00:       stw (2rus)      r0, r0[0x0]

<xscope_xlink_put_ch>:
             0x00011f64: 00 f0 4c 58: ldw (lru6)      r1, dp[0xc]
             0x00011f68: 4b 78:       bf (ru6)        r1, 0xb <xscope_xlink_put_ch_ret>
             0x00011f6a: 01 f0 ba 58: ldw (lru6)      r2, dp[0x7a]
             0x00011f6e: 87 70:       bt (ru6)        r2, 0x7 <xscope_xlink_outt>
             0x00011f70: 00 f0 4d 58: ldw (lru6)      r1, dp[0xd]
             0x00011f74: 45 78:       bf (ru6)        r1, 0x5 <xscope_xlink_put_ch_ret>
             0x00011f76: ca 86:       getr (rus)      r2, 0x2
             0x00011f78: d6 16:       setd (r2r)      res[r2], r1
             0x00011f7a: 01 f0 ba 50: stw (lru6)      r2, dp[0x7a]

<xscope_xlink_outt>:
             0x00011f7e: d2 0e:       outt (r2r)      res[r2], r0

<xscope_xlink_put_ch_ret>:
             0x00011f80: c0 77:       retsp (u6)      0x0

<xscope_xlink_put_ct>:
             0x00011f82: 00 f0 4c 58: ldw (lru6)      r1, dp[0xc]
             0x00011f86: 44 78:       bf (ru6)        r1, 0x4 <xscope_xlink_put_ct_ret>
             0x00011f88: 01 f0 ba 58: ldw (lru6)      r2, dp[0x7a]
             0x00011f8c: 81 78:       bf (ru6)        r2, 0x1 <xscope_xlink_put_ct_ret>
             0x00011f8e: d9 4e:       outct (rus)     res[r2], 0x1

<xscope_xlink_put_ct_ret>:
             0x00011f90: c0 77:       retsp (u6)      0x0

<_DoSyscallErrno>:
             0x00011f92: 42 77:       entsp (u6)      0x2
             0x00011f94: 00 f0 90 d7: bl (lu10)       -0x390 <_DoSyscall>
             0x00011f98: c4 8e:       not (2r)        r1, r0
             0x00011f9a: 57 aa:       shr (2rus)      r1, r1, 0x7
             0x00011f9c: 41 78:       bf (ru6)        r1, 0x1 <.label96>
             0x00011f9e: c2 77:       retsp (u6)      0x2
.label96     0x00011fa0: c4 96:       neg (2r)        r1, r0
             0x00011fa2: 41 54:       stw (ru6)       r1, sp[0x1]
             0x00011fa4: 00 f0 1e d6: bl (lu10)       -0x21e <__errno>
             0x00011fa8: 41 5c:       ldw (ru6)       r1, sp[0x1]
             0x00011faa: 10 00:       stw (2rus)      r1, r0[0x0]
             0x00011fac: d0 a6:       mkmsk (rus)     r0, 0x20
             0x00011fae: c2 77:       retsp (u6)      0x2

<__malloc_lock>:
             0x00011fb0: 02 f0 07 60: ldaw (lru6)     r0, dp[0x87]
             0x00011fb4: 41 77:       entsp (u6)      0x1
             0x00011fb6: 00 f0 97 d7: bl (lu10)       -0x397 <__spin_lock_acquire>
             0x00011fba: c1 77:       retsp (u6)      0x1

<__malloc_unlock>:
             0x00011fbc: 02 f0 07 60: ldaw (lru6)     r0, dp[0x87]
             0x00011fc0: 41 77:       entsp (u6)      0x1
             0x00011fc2: 00 f0 91 d7: bl (lu10)       -0x391 <__spin_lock_release>
             0x00011fc6: c1 77:       retsp (u6)      0x1

<_close>:
             0x00011fc8: 10 90:       add (2rus)      r1, r0, 0x0
             0x00011fca: 04 68:       ldc (ru6)       r0, 0x4
             0x00011fcc: 00 f0 1f 77: bu (lu6)        -0x1f <_DoSyscallErrno>

<_lseek>:
             0x00011fd0: 38 90:       add (2rus)      r3, r2, 0x0
             0x00011fd2: 24 90:       add (2rus)      r2, r1, 0x0
             0x00011fd4: 10 90:       add (2rus)      r1, r0, 0x0
             0x00011fd6: 08 68:       ldc (ru6)       r0, 0x8
             0x00011fd8: 00 f0 25 77: bu (lu6)        -0x25 <_DoSyscallErrno>

<_read>:
             0x00011fdc: 38 90:       add (2rus)      r3, r2, 0x0
             0x00011fde: 24 90:       add (2rus)      r2, r1, 0x0
             0x00011fe0: 10 90:       add (2rus)      r1, r0, 0x0
             0x00011fe2: 05 68:       ldc (ru6)       r0, 0x5
             0x00011fe4: 00 f0 2b 77: bu (lu6)        -0x2b <_DoSyscallErrno>

<__free>:
             0x00011fe8: 41 77:       entsp (u6)      0x1
             0x00011fea: 00 55:       stw (ru6)       r4, sp[0x0]
             0x00011fec: 28 78:       bf (ru6)        r0, 0x28 <.label97>
             0x00011fee: 40 9a:       sub (2rus)      r0, r0, 0x4
             0x00011ff0: 02 f0 85 60: ldaw (lru6)     r2, dp[0x85]
             0x00011ff4: 20 73:       bu (u6)         0x20 <.label98>
.label103    0x00011ff6: bf 11:       add (3r)        r3, r11, r3
             0x00011ff8: 34 00:       stw (2rus)      r3, r1[0x0]
             0x00011ffa: 25 08:       ldw (2rus)      r2, r1[0x1]
             0x00011ffc: a0 78:       bf (ru6)        r2, 0x20 <.label97>
             0x00011ffe: b0 08:       ldw (2rus)      r11, r0[0x0]
             0x00012000: 8c 11:       add (3r)        r0, r11, r0
             0x00012002: 02 30:       eq (3r)         r0, r0, r2
             0x00012004: 1c 78:       bf (ru6)        r0, 0x1c <.label97>
             0x00012006: 08 08:       ldw (2rus)      r0, r2[0x0]
             0x00012008: 03 10:       add (3r)        r0, r0, r3
             0x0001200a: 04 00:       stw (2rus)      r0, r1[0x0]
             0x0001200c: 09 08:       ldw (2rus)      r0, r2[0x1]
             0x0001200e: 05 00:       stw (2rus)      r0, r1[0x1]
             0x00012010: 00 5d:       ldw (ru6)       r4, sp[0x0]
             0x00012012: c1 77:       retsp (u6)      0x1
.label100    0x00012014: bf 11:       add (3r)        r3, r11, r3
             0x00012016: 30 00:       stw (2rus)      r3, r0[0x0]
             0x00012018: 15 08:       ldw (2rus)      r1, r1[0x1]
             0x0001201a: 0f 73:       bu (u6)         0xf <.label99>
.label102    0x0001201c: cc 11:       add (3r)        r4, r11, r0
             0x0001201e: 84 32:       eq (3r)         r4, r1, r4
             0x00012020: 07 75:       bt (ru6)        r4, -0x7 <.label100>
             0x00012022: 06 73:       bu (u6)         0x6 <.label101>
.label104    0x00012024: 34 08:       ldw (2rus)      r3, r1[0x0]
             0x00012026: bd 10:       add (3r)        r11, r3, r1
             0x00012028: cc 31:       eq (3r)         r4, r11, r0
             0x0001202a: b0 08:       ldw (2rus)      r11, r0[0x0]
             0x0001202c: 09 7d:       bf (ru6)        r4, -0x9 <.label102>
             0x0001202e: 1d 77:       bu (u6)         -0x1d <.label103>
.label101    0x00012030: 31 c8:       lsu (3r)        r3, r0, r1
             0x00012032: c3 70:       bt (ru6)        r3, 0x3 <.label99>
             0x00012034: 64 92:       add (2rus)      r2, r1, 0x4
.label98     0x00012036: 18 08:       ldw (2rus)      r1, r2[0x0]
             0x00012038: 4b 74:       bt (ru6)        r1, -0xb <.label104>
.label99     0x0001203a: 11 00:       stw (2rus)      r1, r0[0x1]
             0x0001203c: 08 00:       stw (2rus)      r0, r2[0x0]
.label97     0x0001203e: 00 5d:       ldw (ru6)       r4, sp[0x0]
             0x00012040: c1 77:       retsp (u6)      0x1
             0x00012042: 00 90:       add (2rus)      r0, r0, 0x0

<free>:
             0x00012044: 42 77:       entsp (u6)      0x2
             0x00012046: 01 55:       stw (ru6)       r4, sp[0x1]
             0x00012048: 40 90:       add (2rus)      r4, r0, 0x0
             0x0001204a: 00 f0 4f d4: bl (lu10)       -0x4f <__malloc_lock>
             0x0001204e: c0 90:       add (2rus)      r0, r4, 0x0
             0x00012050: 35 d4:       bl (u10)        -0x35 <__free>
             0x00012052: 00 f0 4d d4: bl (lu10)       -0x4d <__malloc_unlock>
             0x00012056: 01 5d:       ldw (ru6)       r4, sp[0x1]
             0x00012058: c2 77:       retsp (u6)      0x2
             0x0001205a: 00 00:       stw (2rus)      r0, r0[0x0]

Disassembly of section .init (size: 92)

<_init>:
.label3      0x0001205c: 41 77:       entsp (u6)      0x1
             0x0001205e: 00 f0 a9 d8: ldap (lu10)     r11, 0xa9 <.label1>
             0x00012062: 8c 91:       add (2rus)      r0, r11, 0x0
             0x00012064: 40 68:       ldc (ru6)       r1, 0x0
             0x00012066: 00 f0 a5 d8: ldap (lu10)     r11, 0xa5 <.label1>
             0x0001206a: ac 19:       sub (3r)        r2, r11, r0
             0x0001206c: 01 f0 86 d4: bl (lu10)       -0x486 <.label105>
             0x00012070: 00 f0 fe d8: ldap (lu10)     r11, 0xfe <.label106>
             0x00012074: 8c 91:       add (2rus)      r0, r11, 0x0
             0x00012076: 40 68:       ldc (ru6)       r1, 0x0
             0x00012078: 00 f0 ba d9: ldap (lu10)     r11, 0x1ba <.label107>
             0x0001207c: ac 19:       sub (3r)        r2, r11, r0
             0x0001207e: 01 f0 8f d4: bl (lu10)       -0x48f <.label105>
             0x00012082: 01 f0 01 d4: bl (lu10)       -0x401 <.label108>
             0x00012086: 00 f0 39 d8: ldap (lu10)     r11, 0x39 <.label109>
             0x0001208a: 8c 91:       add (2rus)      r0, r11, 0x0
             0x0001208c: 02 f0 48 60: ldaw (lru6)     r1, dp[0x88]
             0x00012090: 80 68:       ldc (ru6)       r2, 0x0
             0x00012092: c0 68:       ldc (ru6)       r3, 0x0
             0x00012094: 03 f0 f7 d7: bl (lu10)       -0xff7 <.label110>
             0x00012098: 00 f0 0b 59: ldw (lru6)      r4, dp[0xb]
             0x0001209c: 02 a9:       shr (2rus)      r4, r4, 0x2
             0x0001209e: 0b 79:       bf (ru6)        r4, 0xb <do_ctors_end>
             0x000120a0: 00 f0 5e d8: ldap (lu10)     r11, 0x5e <.label111>
             0x000120a4: dc 91:       add (2rus)      r5, r11, 0x0
             0x000120a6: 00 f0 8a 59: ldw (lru6)      r6, dp[0xa]
             0x000120aa: 66 1b:       sub (3r)        r6, r5, r6

<do_ctors_loop>:
             0x000120ac: 01 99:       sub (2rus)      r4, r4, 0x1
             0x000120ae: 04 4b:       ldw (3r)        r0, r5[r4]
             0x000120b0: 42 12:       add (3r)        r0, r0, r6
             0x000120b2: e0 27:       bla (1r)        r0
             0x000120b4: 05 75:       bt (ru6)        r4, -0x5 <do_ctors_loop>

<do_ctors_end>:
             0x000120b6: c1 77:       retsp (u6)      0x1

Disassembly of section .fini (size: 58)

<_fini>:
.label24     0x000120b8: 41 77:       entsp (u6)      0x1
             0x000120ba: 85 77:       extsp (u6)      0x5
             0x000120bc: 01 55:       stw (ru6)       r4, sp[0x1]
             0x000120be: 42 55:       stw (ru6)       r5, sp[0x2]
             0x000120c0: 83 55:       stw (ru6)       r6, sp[0x3]
             0x000120c2: c4 55:       stw (ru6)       r7, sp[0x4]
             0x000120c4: 00 f0 c2 59: ldw (lru6)      r7, dp[0x2]
             0x000120c8: 3e a9:       shr (2rus)      r7, r7, 0x2
             0x000120ca: cd 79:       bf (ru6)        r7, 0xd <do_dtors_end>
             0x000120cc: 00 69:       ldc (ru6)       r4, 0x0
             0x000120ce: 00 f0 5d d8: ldap (lu10)     r11, 0x5d <.label112>
             0x000120d2: dc 91:       add (2rus)      r5, r11, 0x0
             0x000120d4: 00 f0 81 59: ldw (lru6)      r6, dp[0x1]
             0x000120d8: 66 1b:       sub (3r)        r6, r5, r6

<do_dtors_loop>:
             0x000120da: 04 4b:       ldw (3r)        r0, r5[r4]
             0x000120dc: 42 12:       add (3r)        r0, r0, r6
             0x000120de: e0 27:       bla (1r)        r0
             0x000120e0: 01 91:       add (2rus)      r4, r4, 0x1
             0x000120e2: b3 cb:       lsu (3r)        r11, r4, r7
             0x000120e4: c6 76:       bt (ru6)        r11, -0x6 <do_dtors_loop>

<do_dtors_end>:
             0x000120e6: 01 5d:       ldw (ru6)       r4, sp[0x1]
             0x000120e8: 42 5d:       ldw (ru6)       r5, sp[0x2]
             0x000120ea: 83 5d:       ldw (ru6)       r6, sp[0x3]
             0x000120ec: c4 5d:       ldw (ru6)       r7, sp[0x4]
             0x000120ee: 85 67:       ldaw (ru6)      sp, sp[0x5]
             0x000120f0: c1 77:       retsp (u6)      0x1

Disassembly of section .text.__call_exitprocs_impl (size: 2)

<__call_exitprocs_impl>:
.label38     0x000120f4: c0 77:       retsp (u6)      0x0


