bin/L1_AUDIO/usb_audio.xe: file format: xcore-xe

Loadable 1 for stdcore[0] (node "0", core 0):

Disassembly of section .text (size: 19938)

<_start>:
             0x00010000: 4b 68:       ldc (ru6)       r1, 0xb
             0x00010002: d1 fe ec 17: get (l2r)       r0, ps[r1]
             0x00010006: 04 f0 8b 68: ldc (lru6)      r2, 0x10b
             0x0001000a: c2 fe ec 1f: set (lr2r)      ps[r2], r0
             0x0001000e: 4a d0:       bl (u10)        0x4a <_SetupTraps>
             0x00010010: 0f d0:       bl (u10)        0xf <_GetRamEnd>
             0x00010012: f0 2f:       set (1r)        sp, r0
             0x00010014: 01 f0 82 77: extsp (lu6)     0x42
             0x00010018: 0a f0 6a d8: ldap (lu10)     r11, 0x286a <.label0>
             0x0001001c: fb 37:       set (1r)        cp, r11
             0x0001001e: 0a f0 4f d9: ldap (lu10)     r11, 0x294f <.label1>
             0x00010022: eb 37:       set (1r)        dp, r11
             0x00010024: c3 86:       getr (rus)      r0, 0x3

<_InitThreadLoop>:
             0x00010026: d4 06:       getst (2r)      r1, res[r0]
             0x00010028: b4 b0:       eq (2rus)       r11, r1, 0x0
             0x0001002a: cc 72:       bt (ru6)        r11, 0xc <_Join>
             0x0001002c: 1f d0:       bl (u10)        0x1f <_InitThread>
             0x0001002e: 05 77:       bu (u6)         -0x5 <_InitThreadLoop>

<_GetRamEnd>:
             0x00010030: cb 6a:       ldc (ru6)       r11, 0xb
             0x00010032: bb ff ec 17: get (l2r)       r10, ps[r11]
             0x00010036: 0a f0 4b d8: ldap (lu10)     r11, 0x284b <.label2>
             0x0001003a: 3c 0a:       ldw (2rus)      r11, r11[0x0]
             0x0001003c: 0b 16:       add (3r)        r0, r10, r11
             0x0001003e: c0 77:       retsp (u6)      0x0

<_ExitWithError>:
             0x00010040: 6f f0 10 73: bu (lu6)        0x1bd0 <_exit>

<_Join>:
             0x00010044: f0 1f:       msync (1r)      res[r0]
             0x00010046: f0 17:       mjoin (1r)      res[r0]
             0x00010048: e0 17:       freer (1r)      res[r0]
             0x0001004a: 1f d0:       bl (u10)        0x1f <_TouchRegisters>
             0x0001004c: 09 f0 c9 d2: bl (lu10)       0x26c9 <.label3>
             0x00010050: 00 f0 c6 6a: ldc (lru6)      r11, 0x6
             0x00010054: c8 ea:       setc (ru6)      res[r11], 0x8
             0x00010056: cf ea:       setc (ru6)      res[r11], 0xf
             0x00010058: 00 68:       ldc (ru6)       r0, 0x0
             0x0001005a: 00 f0 40 60: ldaw (lru6)     r1, dp[0x0]
             0x0001005e: 00 f0 21 d1: bl (lu10)       0x121 <main>
             0x00010062: 02 70:       bt (ru6)        r0, 0x2 <_NonZeroReturn>
             0x00010064: 6e f0 32 73: bu (lu6)        0x1bb2 <__libc_done>

<_NonZeroReturn>:
             0x00010068: 6f f0 02 73: bu (lu6)        0x1bc2 <_exit_unlocked>

<_InitThread>:
             0x0001006c: 0a f0 40 d8: ldap (lu10)     r11, 0x2840 <.label0>
             0x00010070: 4d 1f:       init (2r)       t[r1]:cp, r11
             0x00010072: 0a f0 25 d9: ldap (lu10)     r11, 0x2925 <.label1>
             0x00010076: 4d 0f:       init (2r)       t[r1]:dp, r11
             0x00010078: 05 d8:       ldap (u10)      r11, 0x5 <_InitThreadRoutine>
             0x0001007a: 4d 07:       init (2r)       t[r1]:pc, r11
             0x0001007c: c0 77:       retsp (u6)      0x0
             0x0001007e: 00 90:       add (2rus)      r0, r0, 0x0

<_TrapHandler>:
             0x00010080: 6e f0 22 73: bu (lu6)        0x1ba2 <_DoException>

<_InitThreadRoutine>:
             0x00010084: 02 d0:       bl (u10)        0x2 <_TouchRegisters>
             0x00010086: 0e d0:       bl (u10)        0xe <_SetupTraps>
             0x00010088: ee 07:       ssync (0r)      

<_TouchRegisters>:
             0x0001008a: 00 68:       ldc (ru6)       r0, 0x0
             0x0001008c: 40 68:       ldc (ru6)       r1, 0x0
             0x0001008e: 80 68:       ldc (ru6)       r2, 0x0
             0x00010090: c0 68:       ldc (ru6)       r3, 0x0
             0x00010092: 00 69:       ldc (ru6)       r4, 0x0
             0x00010094: 40 69:       ldc (ru6)       r5, 0x0
             0x00010096: 80 69:       ldc (ru6)       r6, 0x0
             0x00010098: c0 69:       ldc (ru6)       r7, 0x0
             0x0001009a: 00 6a:       ldc (ru6)       r8, 0x0
             0x0001009c: 40 6a:       ldc (ru6)       r9, 0x0
             0x0001009e: 80 6a:       ldc (ru6)       r10, 0x0
             0x000100a0: c0 6a:       ldc (ru6)       r11, 0x0
             0x000100a2: c0 77:       retsp (u6)      0x0

<_SetupTraps>:
             0x000100a4: 13 dc:       ldap (u10)      r11, -0x13 <_TrapHandler>
             0x000100a6: ff 07:       set (0r)        kep, r11
             0x000100a8: c0 77:       retsp (u6)      0x0

<__register_frame_info_bases>:
<__free_libc_hwlock>:
.label621    0x000100aa: c0 77:       retsp (u6)      0x0

<GetADCCounts>:
<GetADCCounts.coersed..f.7b0.7d.28ui.2cp.28si.29.2cp.28si.29.2cp.28si.29.29>:
             0x000100ac: 41 77:       entsp (u6)      0x1
             0x000100ae: 00 55:       stw (ru6)       r4, sp[0x0]
             0x000100b0: 11 f0 c4 5a: ldw (lru6)      r11, dp[0x444]
             0x000100b4: 3e b2:       eq (2rus)       r11, r11, 0x2
             0x000100b6: c3 7a:       bf (ru6)        r11, 0x3 <.label4>
             0x000100b8: 7d f0 c0 6a: ldc (lru6)      r11, 0x1f40
             0x000100bc: 02 73:       bu (u6)         0x2 <.label5>
.label4      0x000100be: 0f f0 e8 6a: ldc (lru6)      r11, 0x3e8
.label5      0x000100c2: c3 fc ec 4f: divu (l3r)      r4, r0, r11
             0x000100c6: 44 00:       stw (2rus)      r4, r1[0x0]
             0x000100c8: 01 91:       add (2rus)      r4, r4, 0x1
             0x000100ca: 4c 00:       stw (2rus)      r4, r3[0x0]
             0x000100cc: 34 08:       ldw (2rus)      r3, r1[0x0]
             0x000100ce: 38 00:       stw (2rus)      r3, r2[0x0]
             0x000100d0: 83 fc ec cf: remu (l3r)      r0, r0, r11
             0x000100d4: 03 70:       bt (ru6)        r0, 0x3 <.label6>
             0x000100d6: 04 08:       ldw (2rus)      r0, r1[0x0]
             0x000100d8: 01 98:       sub (2rus)      r0, r0, 0x1
             0x000100da: 04 00:       stw (2rus)      r0, r1[0x0]
.label6      0x000100dc: 00 5d:       ldw (ru6)       r4, sp[0x0]
             0x000100de: c1 77:       retsp (u6)      0x1

<give_samples_to_host>:
             0x000100e0: 24 08:       ldw (2rus)      r2, r1[0x0]
             0x000100e2: c8 ae:       out (r2r)       res[r0], r2
             0x000100e4: 25 08:       ldw (2rus)      r2, r1[0x1]
             0x000100e6: c8 ae:       out (r2r)       res[r0], r2
             0x000100e8: c0 77:       retsp (u6)      0x0
             0x000100ea: 00 90:       add (2rus)      r0, r0, 0x0

<give_samples_to_gain>:
             0x000100ec: 24 08:       ldw (2rus)      r2, r1[0x0]
             0x000100ee: c8 ae:       out (r2r)       res[r0], r2
             0x000100f0: 25 08:       ldw (2rus)      r2, r1[0x1]
             0x000100f2: c8 ae:       out (r2r)       res[r0], r2
             0x000100f4: c0 77:       retsp (u6)      0x0
             0x000100f6: 00 90:       add (2rus)      r0, r0, 0x0

<give_samples_to_eq_in>:
             0x000100f8: 24 08:       ldw (2rus)      r2, r1[0x0]
             0x000100fa: c8 ae:       out (r2r)       res[r0], r2
             0x000100fc: 25 08:       ldw (2rus)      r2, r1[0x1]
             0x000100fe: c8 ae:       out (r2r)       res[r0], r2
             0x00010100: c0 77:       retsp (u6)      0x0
             0x00010102: 00 90:       add (2rus)      r0, r0, 0x0

<get_samples_from_gain>:
             0x00010104: c8 b6:       in (2r)         r2, res[r0]
             0x00010106: 24 00:       stw (2rus)      r2, r1[0x0]
             0x00010108: c8 b6:       in (2r)         r2, res[r0]
             0x0001010a: 25 00:       stw (2rus)      r2, r1[0x1]
             0x0001010c: c0 77:       retsp (u6)      0x0
             0x0001010e: 00 90:       add (2rus)      r0, r0, 0x0

<dsp_control>:
             0x00010110: 4b 77:       entsp (u6)      0xb
             0x00010112: a0 90:       add (2rus)      r10, r0, 0x0
             0x00010114: 94 90:       add (2rus)      r9, r1, 0x0
             0x00010116: 88 90:       add (2rus)      r8, r2, 0x0
             0x00010118: 01 64:       ldaw (ru6)      r0, sp[0x1]
             0x0001011a: 40 68:       ldc (ru6)       r1, 0x0
             0x0001011c: 88 68:       ldc (ru6)       r2, 0x8
             0x0001011e: c8 68:       ldc (ru6)       r3, 0x8
             0x00010120: 07 f0 e2 d0: bl (lu10)       0x1ce2 <safememset>
             0x00010124: c3 65:       ldaw (ru6)      r7, sp[0x3]
             0x00010126: cc 90:       add (2rus)      r0, r7, 0x0
             0x00010128: 40 68:       ldc (ru6)       r1, 0x0
             0x0001012a: 88 68:       ldc (ru6)       r2, 0x8
             0x0001012c: c8 68:       ldc (ru6)       r3, 0x8
             0x0001012e: 07 f0 db d0: bl (lu10)       0x1cdb <safememset>
             0x00010132: 85 65:       ldaw (ru6)      r6, sp[0x5]
             0x00010134: c8 90:       add (2rus)      r0, r6, 0x0
             0x00010136: 40 68:       ldc (ru6)       r1, 0x0
             0x00010138: 88 68:       ldc (ru6)       r2, 0x8
             0x0001013a: c8 68:       ldc (ru6)       r3, 0x8
             0x0001013c: 07 f0 d4 d0: bl (lu10)       0x1cd4 <safememset>
             0x00010140: 85 65:       ldaw (ru6)      r6, sp[0x5]
             0x00010142: 47 65:       ldaw (ru6)      r5, sp[0x7]
             0x00010144: c3 65:       ldaw (ru6)      r7, sp[0x3]
             0x00010146: 09 65:       ldaw (ru6)      r4, sp[0x9]
.label8      0x00010148: 20 b7:       in (2r)         r0, res[r8]
             0x0001014a: 21 b7:       in (2r)         r0, res[r9]
             0x0001014c: 00 68:       ldc (ru6)       r0, 0x0
             0x0001014e: 22 af:       out (r2r)       res[r10], r0
             0x00010150: 32 bf:       testct (2r)     r0, res[r10]
             0x00010152: 26 70:       bt (ru6)        r0, 0x26 <.label7>
             0x00010154: 22 b7:       in (2r)         r0, res[r10]
             0x00010156: 00 68:       ldc (ru6)       r0, 0x0
             0x00010158: 20 af:       out (r2r)       res[r8], r0
             0x0001015a: 00 68:       ldc (ru6)       r0, 0x0
             0x0001015c: 21 af:       out (r2r)       res[r9], r0
             0x0001015e: 80 91:       add (2rus)      r0, r8, 0x0
             0x00010160: d8 90:       add (2rus)      r1, r6, 0x0
             0x00010162: 82 68:       ldc (ru6)       r2, 0x2
             0x00010164: 3d d4:       bl (u10)        -0x3d <give_samples_to_gain>
             0x00010166: 21 b7:       in (2r)         r0, res[r9]
             0x00010168: c4 00:       stw (2rus)      r0, r5[0x0]
             0x0001016a: 21 b7:       in (2r)         r0, res[r9]
             0x0001016c: c5 00:       stw (2rus)      r0, r5[0x1]
             0x0001016e: c4 08:       ldw (2rus)      r0, r5[0x0]
             0x00010170: c8 00:       stw (2rus)      r0, r6[0x0]
             0x00010172: c5 08:       ldw (2rus)      r0, r5[0x1]
             0x00010174: c9 00:       stw (2rus)      r0, r6[0x1]
             0x00010176: 80 91:       add (2rus)      r0, r8, 0x0
             0x00010178: 41 64:       ldaw (ru6)      r1, sp[0x1]
             0x0001017a: 82 68:       ldc (ru6)       r2, 0x2
             0x0001017c: 3d d4:       bl (u10)        -0x3d <get_samples_from_gain>
             0x0001017e: 88 91:       add (2rus)      r0, r10, 0x0
             0x00010180: 41 64:       ldaw (ru6)      r1, sp[0x1]
             0x00010182: 82 68:       ldc (ru6)       r2, 0x2
             0x00010184: 53 d4:       bl (u10)        -0x53 <give_samples_to_host>
             0x00010186: 84 91:       add (2rus)      r0, r9, 0x0
             0x00010188: dc 90:       add (2rus)      r1, r7, 0x0
             0x0001018a: 82 68:       ldc (ru6)       r2, 0x2
             0x0001018c: 4b d4:       bl (u10)        -0x4b <give_samples_to_eq_in>
             0x0001018e: 22 b7:       in (2r)         r0, res[r10]
             0x00010190: c0 00:       stw (2rus)      r0, r4[0x0]
             0x00010192: 22 b7:       in (2r)         r0, res[r10]
             0x00010194: c1 00:       stw (2rus)      r0, r4[0x1]
             0x00010196: c0 08:       ldw (2rus)      r0, r4[0x0]
             0x00010198: cc 00:       stw (2rus)      r0, r7[0x0]
             0x0001019a: c1 08:       ldw (2rus)      r0, r4[0x1]
             0x0001019c: cd 00:       stw (2rus)      r0, r7[0x1]
             0x0001019e: 2c 77:       bu (u6)         -0x2c <.label8>
.label7      0x000101a0: 32 87:       inct (2r)       r0, res[r10]
             0x000101a2: 22 b7:       in (2r)         r0, res[r10]
             0x000101a4: 51 4f:       outct (rus)     res[r8], 0x1
             0x000101a6: 55 4f:       outct (rus)     res[r9], 0x1
             0x000101a8: 20 af:       out (r2r)       res[r8], r0
             0x000101aa: 21 af:       out (r2r)       res[r9], r0
             0x000101ac: 51 cf:       chkct (rus)     res[r8], 0x1
             0x000101ae: 55 cf:       chkct (rus)     res[r9], 0x1
             0x000101b0: 59 4f:       outct (rus)     res[r10], 0x1
             0x000101b2: 36 77:       bu (u6)         -0x36 <.label8>
             0x000101b4: 00 90:       add (2rus)      r0, r0, 0x0
             0x000101b6: 00 90:       add (2rus)      r0, r0, 0x0

<give_samples_to_output>:
             0x000101b8: 24 08:       ldw (2rus)      r2, r1[0x0]
             0x000101ba: c8 ae:       out (r2r)       res[r0], r2
             0x000101bc: 25 08:       ldw (2rus)      r2, r1[0x1]
             0x000101be: c8 ae:       out (r2r)       res[r0], r2
             0x000101c0: c0 77:       retsp (u6)      0x0
             0x000101c2: 00 90:       add (2rus)      r0, r0, 0x0

<dsp_equalisation>:
             0x000101c4: 45 77:       entsp (u6)      0x5
             0x000101c6: 40 90:       add (2rus)      r4, r0, 0x0
             0x000101c8: 41 65:       ldaw (ru6)      r5, sp[0x1]
             0x000101ca: c4 90:       add (2rus)      r0, r5, 0x0
             0x000101cc: 40 68:       ldc (ru6)       r1, 0x0
             0x000101ce: 88 68:       ldc (ru6)       r2, 0x8
             0x000101d0: c8 68:       ldc (ru6)       r3, 0x8
             0x000101d2: 07 f0 89 d0: bl (lu10)       0x1c89 <safememset>
             0x000101d6: c0 69:       ldc (ru6)       r7, 0x0
             0x000101d8: 41 65:       ldaw (ru6)      r5, sp[0x1]
             0x000101da: 83 65:       ldaw (ru6)      r6, sp[0x3]
.label10     0x000101dc: 80 b7:       in (2r)         r0, res[r4]
             0x000101de: cc af:       out (r2r)       res[r4], r7
             0x000101e0: 90 bf:       testct (2r)     r0, res[r4]
             0x000101e2: 0f 70:       bt (ru6)        r0, 0xf <.label9>
             0x000101e4: 80 b7:       in (2r)         r0, res[r4]
             0x000101e6: cc af:       out (r2r)       res[r4], r7
             0x000101e8: c0 90:       add (2rus)      r0, r4, 0x0
             0x000101ea: d4 90:       add (2rus)      r1, r5, 0x0
             0x000101ec: 82 68:       ldc (ru6)       r2, 0x2
             0x000101ee: 1c d4:       bl (u10)        -0x1c <give_samples_to_output>
             0x000101f0: 80 b7:       in (2r)         r0, res[r4]
             0x000101f2: c8 00:       stw (2rus)      r0, r6[0x0]
             0x000101f4: 80 b7:       in (2r)         r0, res[r4]
             0x000101f6: c9 00:       stw (2rus)      r0, r6[0x1]
             0x000101f8: c8 08:       ldw (2rus)      r0, r6[0x0]
             0x000101fa: c4 00:       stw (2rus)      r0, r5[0x0]
             0x000101fc: c9 08:       ldw (2rus)      r0, r6[0x1]
             0x000101fe: c5 00:       stw (2rus)      r0, r5[0x1]
             0x00010200: 13 77:       bu (u6)         -0x13 <.label10>
.label9      0x00010202: 90 87:       inct (2r)       r0, res[r4]
             0x00010204: 80 b7:       in (2r)         r0, res[r4]
             0x00010206: 11 4f:       outct (rus)     res[r4], 0x1
             0x00010208: 17 77:       bu (u6)         -0x17 <.label10>
             0x0001020a: 00 00:       stw (2rus)      r0, r0[0x0]

<give_samples_to_control>:
             0x0001020c: 24 08:       ldw (2rus)      r2, r1[0x0]
             0x0001020e: c8 ae:       out (r2r)       res[r0], r2
             0x00010210: 25 08:       ldw (2rus)      r2, r1[0x1]
             0x00010212: c8 ae:       out (r2r)       res[r0], r2
             0x00010214: c0 77:       retsp (u6)      0x0
             0x00010216: 00 90:       add (2rus)      r0, r0, 0x0

<get_samples_from_device>:
             0x00010218: c8 b6:       in (2r)         r2, res[r0]
             0x0001021a: 24 00:       stw (2rus)      r2, r1[0x0]
             0x0001021c: c8 b6:       in (2r)         r2, res[r0]
             0x0001021e: 25 00:       stw (2rus)      r2, r1[0x1]
             0x00010220: c0 77:       retsp (u6)      0x0
             0x00010222: 00 90:       add (2rus)      r0, r0, 0x0

<give_samples_to_device>:
             0x00010224: 24 08:       ldw (2rus)      r2, r1[0x0]
             0x00010226: c8 ae:       out (r2r)       res[r0], r2
             0x00010228: 25 08:       ldw (2rus)      r2, r1[0x1]
             0x0001022a: c8 ae:       out (r2r)       res[r0], r2
             0x0001022c: c0 77:       retsp (u6)      0x0
             0x0001022e: 00 90:       add (2rus)      r0, r0, 0x0

<dsp_loudness>:
             0x00010230: 47 77:       entsp (u6)      0x7
             0x00010232: a0 90:       add (2rus)      r10, r0, 0x0
             0x00010234: 44 90:       add (2rus)      r4, r1, 0x0
             0x00010236: 01 64:       ldaw (ru6)      r0, sp[0x1]
             0x00010238: 40 68:       ldc (ru6)       r1, 0x0
             0x0001023a: 88 68:       ldc (ru6)       r2, 0x8
             0x0001023c: c8 68:       ldc (ru6)       r3, 0x8
             0x0001023e: 07 f0 53 d0: bl (lu10)       0x1c53 <safememset>
             0x00010242: 43 65:       ldaw (ru6)      r5, sp[0x3]
             0x00010244: c4 90:       add (2rus)      r0, r5, 0x0
             0x00010246: 40 68:       ldc (ru6)       r1, 0x0
             0x00010248: 88 68:       ldc (ru6)       r2, 0x8
             0x0001024a: c8 68:       ldc (ru6)       r3, 0x8
             0x0001024c: 07 f0 4c d0: bl (lu10)       0x1c4c <safememset>
             0x00010250: c0 69:       ldc (ru6)       r7, 0x0
             0x00010252: 43 65:       ldaw (ru6)      r5, sp[0x3]
             0x00010254: 01 64:       ldaw (ru6)      r0, sp[0x1]
             0x00010256: 90 90:       add (2rus)      r9, r0, 0x0
             0x00010258: 80 90:       add (2rus)      r8, r0, 0x0
             0x0001025a: 85 65:       ldaw (ru6)      r6, sp[0x5]
.label12     0x0001025c: 80 b7:       in (2r)         r0, res[r4]
             0x0001025e: 6e af:       out (r2r)       res[r10], r7
             0x00010260: 32 bf:       testct (2r)     r0, res[r10]
             0x00010262: 17 70:       bt (ru6)        r0, 0x17 <.label11>
             0x00010264: 22 b7:       in (2r)         r0, res[r10]
             0x00010266: cc af:       out (r2r)       res[r4], r7
             0x00010268: c0 90:       add (2rus)      r0, r4, 0x0
             0x0001026a: d4 90:       add (2rus)      r1, r5, 0x0
             0x0001026c: 82 68:       ldc (ru6)       r2, 0x2
             0x0001026e: 26 d4:       bl (u10)        -0x26 <give_samples_to_device>
             0x00010270: c0 90:       add (2rus)      r0, r4, 0x0
             0x00010272: 94 91:       add (2rus)      r1, r9, 0x0
             0x00010274: 82 68:       ldc (ru6)       r2, 0x2
             0x00010276: 30 d4:       bl (u10)        -0x30 <get_samples_from_device>
             0x00010278: 88 91:       add (2rus)      r0, r10, 0x0
             0x0001027a: 90 91:       add (2rus)      r1, r8, 0x0
             0x0001027c: 82 68:       ldc (ru6)       r2, 0x2
             0x0001027e: 3a d4:       bl (u10)        -0x3a <give_samples_to_control>
             0x00010280: 22 b7:       in (2r)         r0, res[r10]
             0x00010282: c8 00:       stw (2rus)      r0, r6[0x0]
             0x00010284: 22 b7:       in (2r)         r0, res[r10]
             0x00010286: c9 00:       stw (2rus)      r0, r6[0x1]
             0x00010288: c8 08:       ldw (2rus)      r0, r6[0x0]
             0x0001028a: c4 00:       stw (2rus)      r0, r5[0x0]
             0x0001028c: c9 08:       ldw (2rus)      r0, r6[0x1]
             0x0001028e: c5 00:       stw (2rus)      r0, r5[0x1]
             0x00010290: 1b 77:       bu (u6)         -0x1b <.label12>
.label11     0x00010292: 32 87:       inct (2r)       r0, res[r10]
             0x00010294: 22 b7:       in (2r)         r0, res[r10]
             0x00010296: 11 4f:       outct (rus)     res[r4], 0x1
             0x00010298: 80 af:       out (r2r)       res[r4], r0
             0x0001029a: 11 cf:       chkct (rus)     res[r4], 0x1
             0x0001029c: 59 4f:       outct (rus)     res[r10], 0x1
             0x0001029e: 22 77:       bu (u6)         -0x22 <.label12>
             0x000102a0: 00 90:       add (2rus)      r0, r0, 0x0
             0x000102a2: 00 90:       add (2rus)      r0, r0, 0x0

<main>:
             0x000102a4: 70 77:       entsp (u6)      0x30
             0x000102a6: 0d 55:       stw (ru6)       r4, sp[0xd]
             0x000102a8: 4e 55:       stw (ru6)       r5, sp[0xe]
             0x000102aa: 8f 55:       stw (ru6)       r6, sp[0xf]
             0x000102ac: d0 55:       stw (ru6)       r7, sp[0x10]
             0x000102ae: 11 56:       stw (ru6)       r8, sp[0x11]
             0x000102b0: 52 56:       stw (ru6)       r9, sp[0x12]
             0x000102b2: 93 56:       stw (ru6)       r10, sp[0x13]
             0x000102b4: 42 87:       getr (rus)      r8, 0x2
             0x000102b6: c2 86:       getr (rus)      r0, 0x2
             0x000102b8: 30 17:       setd (r2r)      res[r8], r0
             0x000102ba: 50 17:       setd (r2r)      res[r0], r8
             0x000102bc: 15 54:       stw (ru6)       r0, sp[0x15]
             0x000102be: 40 68:       ldc (ru6)       r1, 0x0
             0x000102c0: 96 64:       ldaw (ru6)      r2, sp[0x16]
             0x000102c2: 1a a7:       mkmsk (rus)     r6, 0x2
.label13     0x000102c4: c2 86:       getr (rus)      r0, 0x2
             0x000102c6: ce 86:       getr (rus)      r3, 0x2
             0x000102c8: dc 16:       setd (r2r)      res[r0], r3
             0x000102ca: d3 16:       setd (r2r)      res[r3], r0
             0x000102cc: 09 f8 ec 07: stw (l3r)       r0, r2[r1]
             0x000102d0: 07 90:       add (2rus)      r0, r1, 0x3
             0x000102d2: 38 f8 ec 07: stw (l3r)       r3, r2[r0]
             0x000102d6: 15 90:       add (2rus)      r1, r1, 0x1
             0x000102d8: 46 ca:       lsu (3r)        r0, r1, r6
             0x000102da: 0c 74:       bt (ru6)        r0, -0xc <.label13>
             0x000102dc: 80 68:       ldc (ru6)       r2, 0x0
             0x000102de: 5c 64:       ldaw (ru6)      r1, sp[0x1c]
             0x000102e0: 45 69:       ldc (ru6)       r5, 0x5
.label14     0x000102e2: c2 86:       getr (rus)      r0, 0x2
             0x000102e4: ce 86:       getr (rus)      r3, 0x2
             0x000102e6: dc 16:       setd (r2r)      res[r0], r3
             0x000102e8: d3 16:       setd (r2r)      res[r3], r0
             0x000102ea: 06 f8 ec 07: stw (l3r)       r0, r1[r2]
             0x000102ee: 49 92:       add (2rus)      r0, r2, 0x5
             0x000102f0: 34 f8 ec 07: stw (l3r)       r3, r1[r0]
             0x000102f4: 29 90:       add (2rus)      r2, r2, 0x1
             0x000102f6: 49 ca:       lsu (3r)        r0, r2, r5
             0x000102f8: 0c 74:       bt (ru6)        r0, -0xc <.label14>
             0x000102fa: ca 86:       getr (rus)      r2, 0x2
             0x000102fc: c2 86:       getr (rus)      r0, 0x2
             0x000102fe: d2 16:       setd (r2r)      res[r2], r0
             0x00010300: d8 16:       setd (r2r)      res[r0], r2
             0x00010302: a6 54:       stw (ru6)       r2, sp[0x26]
             0x00010304: 27 54:       stw (ru6)       r0, sp[0x27]
             0x00010306: ca 86:       getr (rus)      r2, 0x2
             0x00010308: c2 86:       getr (rus)      r0, 0x2
             0x0001030a: d2 16:       setd (r2r)      res[r2], r0
             0x0001030c: d8 16:       setd (r2r)      res[r0], r2
             0x0001030e: a8 54:       stw (ru6)       r2, sp[0x28]
             0x00010310: 29 54:       stw (ru6)       r0, sp[0x29]
             0x00010312: ca 86:       getr (rus)      r2, 0x2
             0x00010314: c2 86:       getr (rus)      r0, 0x2
             0x00010316: d2 16:       setd (r2r)      res[r2], r0
             0x00010318: d8 16:       setd (r2r)      res[r0], r2
             0x0001031a: aa 54:       stw (ru6)       r2, sp[0x2a]
             0x0001031c: 2b 54:       stw (ru6)       r0, sp[0x2b]
             0x0001031e: ca 86:       getr (rus)      r2, 0x2
             0x00010320: c2 86:       getr (rus)      r0, 0x2
             0x00010322: d2 16:       setd (r2r)      res[r2], r0
             0x00010324: d8 16:       setd (r2r)      res[r0], r2
             0x00010326: ac 54:       stw (ru6)       r2, sp[0x2c]
             0x00010328: 2d 54:       stw (ru6)       r0, sp[0x2d]
             0x0001032a: 0e 87:       getr (rus)      r7, 0x2
             0x0001032c: 02 87:       getr (rus)      r4, 0x2
             0x0001032e: d3 17:       setd (r2r)      res[r7], r4
             0x00010330: dc 17:       setd (r2r)      res[r4], r7
             0x00010332: 10 f0 ae 58: ldw (lru6)      r2, dp[0x42e]
             0x00010336: 10 f0 33 58: ldw (lru6)      r0, dp[0x433]
             0x0001033a: d2 fe ec 0f: setclk (lr2r)   res[r2], r0
             0x0001033e: 4b 87:       getr (rus)      r10, 0x3
             0x00010340: 32 07:       getst (2r)      r0, res[r10]
             0x00010342: e0 d8:       ldap (u10)      r11, 0xe0 <.label15>
             0x00010344: c0 66:       ldaw (ru6)      r11, sp[0x0]
             0x00010346: 4c 17:       init (2r)       t[r0]:sp, r11
             0x00010348: dd d8:       ldap (u10)      r11, 0xdd <.label15>
             0x0001034a: 4c 07:       init (2r)       t[r0]:pc, r11
             0x0001034c: 14 b8:       set (3r)        t[r0]:r1, r1
             0x0001034e: 32 07:       getst (2r)      r0, res[r10]
             0x00010350: c0 d8:       ldap (u10)      r11, 0xc0 <.label16>
             0x00010352: c0 66:       ldaw (ru6)      r11, sp[0x0]
             0x00010354: 4c 17:       init (2r)       t[r0]:sp, r11
             0x00010356: bd d8:       ldap (u10)      r11, 0xbd <.label16>
             0x00010358: 4c 07:       init (2r)       t[r0]:pc, r11
             0x0001035a: 74 b8:       set (3r)        t[r0]:r7, r1
             0x0001035c: 48 b8:       set (3r)        t[r0]:r4, r2
             0x0001035e: 32 07:       getst (2r)      r0, res[r10]
             0x00010360: ab d8:       ldap (u10)      r11, 0xab <.label17>
             0x00010362: c0 66:       ldaw (ru6)      r11, sp[0x0]
             0x00010364: 4c 17:       init (2r)       t[r0]:sp, r11
             0x00010366: a8 d8:       ldap (u10)      r11, 0xa8 <.label17>
             0x00010368: 4c 07:       init (2r)       t[r0]:pc, r11
             0x0001036a: 32 07:       getst (2r)      r0, res[r10]
             0x0001036c: 94 d8:       ldap (u10)      r11, 0x94 <.label18>
             0x0001036e: c0 66:       ldaw (ru6)      r11, sp[0x0]
             0x00010370: 4c 17:       init (2r)       t[r0]:sp, r11
             0x00010372: 91 d8:       ldap (u10)      r11, 0x91 <.label18>
             0x00010374: 4c 07:       init (2r)       t[r0]:pc, r11
             0x00010376: 32 07:       getst (2r)      r0, res[r10]
             0x00010378: 83 d8:       ldap (u10)      r11, 0x83 <.label19>
             0x0001037a: c0 66:       ldaw (ru6)      r11, sp[0x0]
             0x0001037c: 4c 17:       init (2r)       t[r0]:sp, r11
             0x0001037e: 80 d8:       ldap (u10)      r11, 0x80 <.label19>
             0x00010380: 4c 07:       init (2r)       t[r0]:pc, r11
             0x00010382: 32 07:       getst (2r)      r0, res[r10]
             0x00010384: 71 d8:       ldap (u10)      r11, 0x71 <.label20>
             0x00010386: c0 66:       ldaw (ru6)      r11, sp[0x0]
             0x00010388: 4c 17:       init (2r)       t[r0]:sp, r11
             0x0001038a: 6e d8:       ldap (u10)      r11, 0x6e <.label20>
             0x0001038c: 4c 07:       init (2r)       t[r0]:pc, r11
             0x0001038e: 1c b9:       set (3r)        t[r0]:r5, r7
             0x00010390: 32 07:       getst (2r)      r0, res[r10]
             0x00010392: 5f d8:       ldap (u10)      r11, 0x5f <.label21>
             0x00010394: c0 66:       ldaw (ru6)      r11, sp[0x0]
             0x00010396: 4c 17:       init (2r)       t[r0]:sp, r11
             0x00010398: 5c d8:       ldap (u10)      r11, 0x5c <.label21>
             0x0001039a: 4c 07:       init (2r)       t[r0]:pc, r11
             0x0001039c: 00 b9:       set (3r)        t[r0]:r4, r4
             0x0001039e: fa 1f:       msync (1r)      res[r10]
             0x000103a0: 96 64:       ldaw (ru6)      r2, sp[0x16]
             0x000103a2: 0c 68:       ldc (ru6)       r0, 0xc
             0x000103a4: 08 10:       add (3r)        r0, r2, r0
             0x000103a6: 94 68:       ldc (ru6)       r2, 0x14
             0x000103a8: 26 10:       add (3r)        r2, r1, r2
             0x000103aa: 00 f0 c7 62: ldaw (lru6)     r11, dp[0x7]
             0x000103ae: 00 f0 4a 62: ldaw (lru6)     r9, dp[0xa]
             0x000103b2: d6 a6:       mkmsk (rus)     r1, 0x2
             0x000103b4: c5 68:       ldc (ru6)       r3, 0x5
             0x000103b6: 01 56:       stw (ru6)       r8, sp[0x1]
             0x000103b8: c2 56:       stw (ru6)       r11, sp[0x2]
             0x000103ba: 43 56:       stw (ru6)       r9, sp[0x3]
             0x000103bc: 10 f0 6f 5a: ldw (lru6)      r9, dp[0x42f]
             0x000103c0: 44 56:       stw (ru6)       r9, sp[0x4]
             0x000103c2: 10 f0 75 5a: ldw (lru6)      r9, dp[0x435]
             0x000103c6: 45 56:       stw (ru6)       r9, sp[0x5]
             0x000103c8: 55 a7:       mkmsk (rus)     r9, 0x1
             0x000103ca: 46 56:       stw (ru6)       r9, sp[0x6]
             0x000103cc: 42 6a:       ldc (ru6)       r9, 0x2
             0x000103ce: 47 56:       stw (ru6)       r9, sp[0x7]
             0x000103d0: 40 6a:       ldc (ru6)       r9, 0x0
             0x000103d2: 48 56:       stw (ru6)       r9, sp[0x8]
             0x000103d4: 56 a7:       mkmsk (rus)     r9, 0x2
             0x000103d6: 49 56:       stw (ru6)       r9, sp[0x9]
             0x000103d8: 45 6a:       ldc (ru6)       r9, 0x5
             0x000103da: 4a 56:       stw (ru6)       r9, sp[0xa]
             0x000103dc: 56 a7:       mkmsk (rus)     r9, 0x2
             0x000103de: 4b 56:       stw (ru6)       r9, sp[0xb]
             0x000103e0: 45 6a:       ldc (ru6)       r9, 0x5
             0x000103e2: 4c 56:       stw (ru6)       r9, sp[0xc]
             0x000103e4: 05 f0 14 d2: bl (lu10)       0x1614 <XUD_Manager>
             0x000103e8: fa 1f:       msync (1r)      res[r10]
             0x000103ea: fa 17:       mjoin (1r)      res[r10]
             0x000103ec: ea 17:       freer (1r)      res[r10]
             0x000103ee: 00 68:       ldc (ru6)       r0, 0x0
             0x000103f0: e8 17:       freer (1r)      res[r8]
             0x000103f2: 55 5c:       ldw (ru6)       r1, sp[0x15]
             0x000103f4: e1 17:       freer (1r)      res[r1]
             0x000103f6: c0 68:       ldc (ru6)       r3, 0x0
             0x000103f8: 96 64:       ldaw (ru6)      r2, sp[0x16]
.label22     0x000103fa: 8b 48:       ldw (3r)        r8, r2[r3]
             0x000103fc: 1f 90:       add (2rus)      r1, r3, 0x3
             0x000103fe: 19 48:       ldw (3r)        r1, r2[r1]
             0x00010400: e8 17:       freer (1r)      res[r8]
             0x00010402: e1 17:       freer (1r)      res[r1]
             0x00010404: 3d 90:       add (2rus)      r3, r3, 0x1
             0x00010406: 5e ca:       lsu (3r)        r1, r3, r6
             0x00010408: 48 74:       bt (ru6)        r1, -0x8 <.label22>
             0x0001040a: c0 68:       ldc (ru6)       r3, 0x0
             0x0001040c: 5c 64:       ldaw (ru6)      r1, sp[0x1c]
.label23     0x0001040e: 67 48:       ldw (3r)        r6, r1[r3]
             0x00010410: 6d 92:       add (2rus)      r2, r3, 0x5
             0x00010412: 26 48:       ldw (3r)        r2, r1[r2]
             0x00010414: e6 17:       freer (1r)      res[r6]
             0x00010416: e2 17:       freer (1r)      res[r2]
             0x00010418: 3d 90:       add (2rus)      r3, r3, 0x1
             0x0001041a: 6d ca:       lsu (3r)        r2, r3, r5
             0x0001041c: 88 74:       bt (ru6)        r2, -0x8 <.label23>
             0x0001041e: 66 5c:       ldw (ru6)       r1, sp[0x26]
             0x00010420: e1 17:       freer (1r)      res[r1]
             0x00010422: 67 5c:       ldw (ru6)       r1, sp[0x27]
             0x00010424: e1 17:       freer (1r)      res[r1]
             0x00010426: 68 5c:       ldw (ru6)       r1, sp[0x28]
             0x00010428: e1 17:       freer (1r)      res[r1]
             0x0001042a: 69 5c:       ldw (ru6)       r1, sp[0x29]
             0x0001042c: e1 17:       freer (1r)      res[r1]
             0x0001042e: 6a 5c:       ldw (ru6)       r1, sp[0x2a]
             0x00010430: e1 17:       freer (1r)      res[r1]
             0x00010432: 6b 5c:       ldw (ru6)       r1, sp[0x2b]
             0x00010434: e1 17:       freer (1r)      res[r1]
             0x00010436: 6c 5c:       ldw (ru6)       r1, sp[0x2c]
             0x00010438: e1 17:       freer (1r)      res[r1]
             0x0001043a: 6d 5c:       ldw (ru6)       r1, sp[0x2d]
             0x0001043c: e1 17:       freer (1r)      res[r1]
             0x0001043e: e7 17:       freer (1r)      res[r7]
             0x00010440: e4 17:       freer (1r)      res[r4]
             0x00010442: 0d 5d:       ldw (ru6)       r4, sp[0xd]
             0x00010444: 4e 5d:       ldw (ru6)       r5, sp[0xe]
             0x00010446: 8f 5d:       ldw (ru6)       r6, sp[0xf]
             0x00010448: d0 5d:       ldw (ru6)       r7, sp[0x10]
             0x0001044a: 11 5e:       ldw (ru6)       r8, sp[0x11]
             0x0001044c: 52 5e:       ldw (ru6)       r9, sp[0x12]
             0x0001044e: 93 5e:       ldw (ru6)       r10, sp[0x13]
             0x00010450: f0 77:       retsp (u6)      0x30
.label21     0x00010452: 00 f0 bb 77: extsp (lu6)     0x3b
             0x00010456: 02 f0 00 7b: clrsr (lu6)     0x80
             0x0001045a: c0 90:       add (2rus)      r0, r4, 0x0
             0x0001045c: 40 68:       ldc (ru6)       r1, 0x0
             0x0001045e: 80 68:       ldc (ru6)       r2, 0x0
             0x00010460: 01 f0 68 d0: bl (lu10)       0x468 <audio>
             0x00010464: ee 07:       ssync (0r)      
             0x00010466: ee 07:       ssync (0r)      
.label20     0x00010468: 01 f0 9b 77: extsp (lu6)     0x5b
             0x0001046c: 02 f0 08 5d: ldw (lru6)      r4, sp[0x88]
             0x00010470: 02 f0 00 7b: clrsr (lu6)     0x80
             0x00010474: c0 90:       add (2rus)      r0, r4, 0x0
             0x00010476: d4 90:       add (2rus)      r1, r5, 0x0
             0x00010478: 00 f0 26 d5: bl (lu10)       -0x126 <dsp_loudness>
             0x0001047c: ee 07:       ssync (0r)      
             0x0001047e: ee 07:       ssync (0r)      
.label19     0x00010480: 01 f0 a3 77: extsp (lu6)     0x63
             0x00010484: 02 f0 0e 5d: ldw (lru6)      r4, sp[0x8e]
             0x00010488: 02 f0 00 7b: clrsr (lu6)     0x80
             0x0001048c: c0 90:       add (2rus)      r0, r4, 0x0
             0x0001048e: 00 f0 67 d5: bl (lu10)       -0x167 <dsp_equalisation>
             0x00010492: ee 07:       ssync (0r)      
             0x00010494: ee 07:       ssync (0r)      
.label18     0x00010496: 01 f0 a9 77: extsp (lu6)     0x69
             0x0001049a: 02 f0 92 5e: ldw (lru6)      r10, sp[0x92]
             0x0001049e: 02 f0 53 5e: ldw (lru6)      r9, sp[0x93]
             0x000104a2: 02 f0 15 5e: ldw (lru6)      r8, sp[0x95]
             0x000104a6: 02 f0 00 7b: clrsr (lu6)     0x80
             0x000104aa: 88 91:       add (2rus)      r0, r10, 0x0
             0x000104ac: 94 91:       add (2rus)      r1, r9, 0x0
             0x000104ae: a0 91:       add (2rus)      r2, r8, 0x0
             0x000104b0: 00 f0 d2 d5: bl (lu10)       -0x1d2 <dsp_control>
             0x000104b4: ee 07:       ssync (0r)      
             0x000104b6: ee 07:       ssync (0r)      
.label17     0x000104b8: 01 f0 b5 77: extsp (lu6)     0x75
             0x000104bc: 02 f0 9d 5e: ldw (lru6)      r10, sp[0x9d]
             0x000104c0: 02 f0 00 7b: clrsr (lu6)     0x80
             0x000104c4: 88 91:       add (2rus)      r0, r10, 0x0
             0x000104c6: 40 68:       ldc (ru6)       r1, 0x0
             0x000104c8: 80 68:       ldc (ru6)       r2, 0x0
             0x000104ca: 04 f0 15 d1: bl (lu10)       0x1115 <decouple>
             0x000104ce: ee 07:       ssync (0r)      
             0x000104d0: ee 07:       ssync (0r)      
.label16     0x000104d2: 01 f0 bd 77: extsp (lu6)     0x7d
             0x000104d6: 02 f0 92 5e: ldw (lru6)      r10, sp[0x92]
             0x000104da: 02 f0 64 5e: ldw (lru6)      r9, sp[0xa4]
             0x000104de: 02 f0 00 7b: clrsr (lu6)     0x80
             0x000104e2: 02 f0 d3 64: ldaw (lru6)     r3, sp[0x93]
             0x000104e6: 0d 08:       ldw (2rus)      r0, r3[0x1]
             0x000104e8: de 08:       ldw (2rus)      r1, r7[0x2]
             0x000104ea: ed 08:       ldw (2rus)      r2, r7[0x1]
             0x000104ec: 3e 08:       ldw (2rus)      r3, r3[0x2]
             0x000104ee: 7f 09:       ldw (2rus)      r11, r7[0x3]
             0x000104f0: 7c 0b:       ldw (2rus)      r7, r7[0x4]
             0x000104f2: c1 56:       stw (ru6)       r11, sp[0x1]
             0x000104f4: c2 55:       stw (ru6)       r7, sp[0x2]
             0x000104f6: 83 56:       stw (ru6)       r10, sp[0x3]
             0x000104f8: 44 56:       stw (ru6)       r9, sp[0x4]
             0x000104fa: 05 55:       stw (ru6)       r4, sp[0x5]
             0x000104fc: 04 f0 02 d3: bl (lu10)       0x1302 <buffer>
             0x00010500: ee 07:       ssync (0r)      
             0x00010502: ee 07:       ssync (0r)      
.label15     0x00010504: 02 f0 91 77: extsp (lu6)     0x91
             0x00010508: 02 f0 b7 5e: ldw (lru6)      r10, sp[0xb7]
             0x0001050c: 02 f0 00 7b: clrsr (lu6)     0x80
             0x00010510: 02 f0 27 64: ldaw (lru6)     r0, sp[0xa7]
             0x00010514: 00 08:       ldw (2rus)      r0, r0[0x0]
             0x00010516: 14 08:       ldw (2rus)      r1, r1[0x0]
             0x00010518: a8 91:       add (2rus)      r2, r10, 0x0
             0x0001051a: c0 68:       ldc (ru6)       r3, 0x0
             0x0001051c: c0 6a:       ldc (ru6)       r11, 0x0
             0x0001051e: c1 56:       stw (ru6)       r11, sp[0x1]
             0x00010520: 02 f0 88 d2: bl (lu10)       0xa88 <Endpoint0>
             0x00010524: ee 07:       ssync (0r)      
             0x00010526: ee 07:       ssync (0r)      

<ClockingInit>:
             0x00010528: c0 77:       retsp (u6)      0x0
             0x0001052a: 00 90:       add (2rus)      r0, r0, 0x0

<ClockingConfig>:
             0x0001052c: c0 77:       retsp (u6)      0x0
             0x0001052e: 00 00:       stw (2rus)      r0, r0[0x0]

<CodecInit>:
             0x00010530: c0 77:       retsp (u6)      0x0
             0x00010532: 00 90:       add (2rus)      r0, r0, 0x0

<CodecConfig>:
             0x00010534: 44 77:       entsp (u6)      0x4
             0x00010536: 01 55:       stw (ru6)       r4, sp[0x1]
             0x00010538: 42 55:       stw (ru6)       r5, sp[0x2]
             0x0001053a: 83 55:       stw (ru6)       r6, sp[0x3]
             0x0001053c: 09 87:       getr (rus)      r6, 0x1
             0x0001053e: 58 f1 62 68: ldc (lru6)      r1, 0x5622
             0x00010542: 11 f8 ec cf: remu (l3r)      r1, r0, r1
             0x00010546: 6d 78:       bf (ru6)        r1, 0x2d <.label24>
             0x00010548: 77 f1 40 68: ldc (lru6)      r1, 0x5dc0
             0x0001054c: 11 f8 ec cf: remu (l3r)      r1, r0, r1
             0x00010550: 6a 78:       bf (ru6)        r1, 0x2a <.label25>
             0x00010552: 13 f0 52 68: ldc (lru6)      r1, 0x4d2
             0x00010556: 11 30:       eq (3r)         r1, r0, r1
             0x00010558: 68 70:       bt (ru6)        r1, 0x28 <.label26>
             0x0001055a: 06 f0 21 d2: bl (lu10)       0x1a21 <printintln>
             0x0001055e: 00 f0 6d 7f: ldaw (lu6)      r11, cp[0x2d]
             0x00010562: 8c 91:       add (2rus)      r0, r11, 0x0
             0x00010564: 69 68:       ldc (ru6)       r1, 0x29
             0x00010566: 06 f0 61 d2: bl (lu10)       0x1a61 <printstr> <printstr.coersed..f.7bsi.7d.28.26.28a.28.3ac.3auc.29.29.29>
.label27     0x0001056a: 05 f0 87 d0: bl (lu10)       0x1487 <port32A_peek>
             0x0001056e: 18 69:       ldc (ru6)       r4, 0x18
             0x00010570: 40 3a:       and (3r)        r0, r0, r4
             0x00010572: c4 40:       or (3r)         r0, r5, r0
             0x00010574: 05 f0 7e d0: bl (lu10)       0x147e <port32A_out>
             0x00010578: 81 e9:       setc (ru6)      res[r6], 0x1
             0x0001057a: 82 b7:       in (2r)         r0, res[r6]
             0x0001057c: 00 f0 49 6c: ldw (lru6)      r1, cp[0x9]
             0x00010580: 01 10:       add (3r)        r0, r0, r1
             0x00010582: 92 17:       setd (r2r)      res[r6], r0
             0x00010584: 89 e9:       setc (ru6)      res[r6], 0x9
             0x00010586: 82 b7:       in (2r)         r0, res[r6]
             0x00010588: 02 68:       ldc (ru6)       r0, 0x2
             0x0001058a: 14 41:       or (3r)         r5, r5, r0
             0x0001058c: 05 f0 76 d0: bl (lu10)       0x1476 <port32A_peek>
             0x00010590: 40 3a:       and (3r)        r0, r0, r4
             0x00010592: c4 40:       or (3r)         r0, r5, r0
             0x00010594: 05 f0 6e d0: bl (lu10)       0x146e <port32A_out>
             0x00010598: e6 17:       freer (1r)      res[r6]
             0x0001059a: 01 5d:       ldw (ru6)       r4, sp[0x1]
             0x0001059c: 42 5d:       ldw (ru6)       r5, sp[0x2]
             0x0001059e: 83 5d:       ldw (ru6)       r6, sp[0x3]
             0x000105a0: c4 77:       retsp (u6)      0x4
.label24     0x000105a2: 15 a7:       mkmsk (rus)     r5, 0x1
             0x000105a4: 1e 77:       bu (u6)         -0x1e <.label27>
.label25     0x000105a6: 45 69:       ldc (ru6)       r5, 0x5
             0x000105a8: 20 77:       bu (u6)         -0x20 <.label27>
.label26     0x000105aa: e6 17:       freer (1r)      res[r6]
             0x000105ac: 01 5d:       ldw (ru6)       r4, sp[0x1]
             0x000105ae: 42 5d:       ldw (ru6)       r5, sp[0x2]
             0x000105b0: 83 5d:       ldw (ru6)       r6, sp[0x3]
             0x000105b2: c4 77:       retsp (u6)      0x4

<AudioStreamStart>:
             0x000105b4: 41 77:       entsp (u6)      0x1
             0x000105b6: 05 f0 61 d0: bl (lu10)       0x1461 <port32A_peek>
             0x000105ba: 50 68:       ldc (ru6)       r1, 0x10
             0x000105bc: 01 40:       or (3r)         r0, r0, r1
             0x000105be: 05 f0 59 d0: bl (lu10)       0x1459 <port32A_out>
             0x000105c2: c1 77:       retsp (u6)      0x1

<AudioStreamStop>:
             0x000105c4: 41 77:       entsp (u6)      0x1
             0x000105c6: 05 f0 59 d0: bl (lu10)       0x1459 <port32A_peek>
             0x000105ca: 50 68:       ldc (ru6)       r1, 0x10
             0x000105cc: c5 8e:       not (2r)        r1, r1
             0x000105ce: 01 38:       and (3r)        r0, r0, r1
             0x000105d0: 05 f0 50 d0: bl (lu10)       0x1450 <port32A_out>
             0x000105d4: c1 77:       retsp (u6)      0x1
             0x000105d6: 00 00:       stw (2rus)      r0, r0[0x0]

<VendorHostActive>:
             0x000105d8: 41 77:       entsp (u6)      0x1
             0x000105da: 08 70:       bt (ru6)        r0, 0x8 <.label28>
             0x000105dc: 05 f0 4e d0: bl (lu10)       0x144e <port32A_peek>
             0x000105e0: 48 68:       ldc (ru6)       r1, 0x8
             0x000105e2: c5 8e:       not (2r)        r1, r1
             0x000105e4: 01 38:       and (3r)        r0, r0, r1
             0x000105e6: 05 f0 45 d0: bl (lu10)       0x1445 <port32A_out>
.label29     0x000105ea: c1 77:       retsp (u6)      0x1
.label28     0x000105ec: 05 f0 46 d0: bl (lu10)       0x1446 <port32A_peek>
             0x000105f0: 48 68:       ldc (ru6)       r1, 0x8
             0x000105f2: 01 40:       or (3r)         r0, r0, r1
             0x000105f4: 05 f0 3e d0: bl (lu10)       0x143e <port32A_out>
             0x000105f8: 08 77:       bu (u6)         -0x8 <.label29>
             0x000105fa: 00 00:       stw (2rus)      r0, r0[0x0]

<DescriptorRequests>:
             0x000105fc: 6a 77:       entsp (u6)      0x2a
             0x000105fe: 05 55:       stw (ru6)       r4, sp[0x5]
             0x00010600: 46 55:       stw (ru6)       r5, sp[0x6]
             0x00010602: 87 55:       stw (ru6)       r6, sp[0x7]
             0x00010604: c8 55:       stw (ru6)       r7, sp[0x8]
             0x00010606: 09 56:       stw (ru6)       r8, sp[0x9]
             0x00010608: 4a 56:       stw (ru6)       r9, sp[0xa]
             0x0001060a: 8b 56:       stw (ru6)       r10, sp[0xb]
             0x0001060c: 60 90:       add (2rus)      r6, r0, 0x0
             0x0001060e: 94 90:       add (2rus)      r9, r1, 0x0
             0x00010610: 83 54:       stw (ru6)       r2, sp[0x3]
             0x00010612: c4 54:       stw (ru6)       r3, sp[0x4]
             0x00010614: 32 5e:       ldw (ru6)       r8, sp[0x32]
             0x00010616: b5 5e:       ldw (ru6)       r10, sp[0x35]
             0x00010618: 36 5d:       ldw (ru6)       r4, sp[0x36]
             0x0001061a: 37 5c:       ldw (ru6)       r0, sp[0x37]
             0x0001061c: c8 90:       add (2rus)      r0, r6, 0x0
             0x0001061e: 4c 65:       ldaw (ru6)      r5, sp[0xc]
             0x00010620: d4 90:       add (2rus)      r1, r5, 0x0
             0x00010622: 01 f0 b8 68: ldc (lru6)      r2, 0x78
             0x00010626: 00 f0 5b d1: bl (lu10)       0x15b <XUD_GetSetupBuffer>
             0x0001062a: c0 69:       ldc (ru6)       r7, 0x0
             0x0001062c: 43 c2:       lss (3r)        r0, r0, r7
             0x0001062e: 12 70:       bt (ru6)        r0, 0x12 <.label30>
             0x00010630: c4 90:       add (2rus)      r0, r5, 0x0
             0x00010632: 90 91:       add (2rus)      r1, r8, 0x0
             0x00010634: 01 f0 b8 68: ldc (lru6)      r2, 0x78
             0x00010638: 00 f0 f6 d0: bl (lu10)       0xf6 <XUD_ParseSetupPacket>
             0x0001063c: 00 68:       ldc (ru6)       r0, 0x0
             0x0001063e: 80 89:       ld8u (3r)       r0, r8[r0]
             0x00010640: 12 78:       bf (ru6)        r0, 0x12 <.label31>
.label33     0x00010642: d1 a6:       mkmsk (rus)     r0, 0x1
             0x00010644: 05 5d:       ldw (ru6)       r4, sp[0x5]
             0x00010646: 46 5d:       ldw (ru6)       r5, sp[0x6]
             0x00010648: 87 5d:       ldw (ru6)       r6, sp[0x7]
             0x0001064a: c8 5d:       ldw (ru6)       r7, sp[0x8]
             0x0001064c: 09 5e:       ldw (ru6)       r8, sp[0x9]
             0x0001064e: 4a 5e:       ldw (ru6)       r9, sp[0xa]
             0x00010650: 8b 5e:       ldw (ru6)       r10, sp[0xb]
             0x00010652: ea 77:       retsp (u6)      0x2a
.label30     0x00010654: d0 a6:       mkmsk (rus)     r0, 0x20
             0x00010656: 05 5d:       ldw (ru6)       r4, sp[0x5]
             0x00010658: 46 5d:       ldw (ru6)       r5, sp[0x6]
             0x0001065a: 87 5d:       ldw (ru6)       r6, sp[0x7]
             0x0001065c: c8 5d:       ldw (ru6)       r7, sp[0x8]
             0x0001065e: 09 5e:       ldw (ru6)       r8, sp[0x9]
             0x00010660: 4a 5e:       ldw (ru6)       r9, sp[0xa]
             0x00010662: 8b 5e:       ldw (ru6)       r10, sp[0xb]
             0x00010664: ea 77:       retsp (u6)      0x2a
.label31     0x00010666: d1 a6:       mkmsk (rus)     r0, 0x1
             0x00010668: 80 89:       ld8u (3r)       r0, r8[r0]
             0x0001066a: 01 78:       bf (ru6)        r0, 0x1 <.label32>
             0x0001066c: 16 77:       bu (u6)         -0x16 <.label33>
.label32     0x0001066e: d2 a6:       mkmsk (rus)     r0, 0x2
             0x00010670: 80 89:       ld8u (3r)       r0, r8[r0]
             0x00010672: 42 b2:       eq (2rus)       r0, r0, 0x6
             0x00010674: 01 70:       bt (ru6)        r0, 0x1 <.label34>
             0x00010676: 1b 77:       bu (u6)         -0x1b <.label33>
.label34     0x00010678: 02 68:       ldc (ru6)       r0, 0x2
             0x0001067a: 90 81:       ld16s (3r)      r1, r8[r0]
             0x0001067c: 35 47:       zext (rus)      r1, 0x10
             0x0001067e: fc f3 00 68: ldc (lru6)      r0, 0xff00
             0x00010682: 14 38:       and (3r)        r1, r1, r0
             0x00010684: 04 f0 00 68: ldc (lru6)      r0, 0x100
             0x00010688: 04 30:       eq (3r)         r0, r1, r0
             0x0001068a: 13 70:       bt (ru6)        r0, 0x13 <.label35>
             0x0001068c: 08 f0 00 68: ldc (lru6)      r0, 0x200
             0x00010690: 04 30:       eq (3r)         r0, r1, r0
             0x00010692: 23 70:       bt (ru6)        r0, 0x23 <.label36>
             0x00010694: 18 f0 00 68: ldc (lru6)      r0, 0x600
             0x00010698: 04 30:       eq (3r)         r0, r1, r0
             0x0001069a: 33 70:       bt (ru6)        r0, 0x33 <.label37>
             0x0001069c: 1c f0 00 68: ldc (lru6)      r0, 0x700
             0x000106a0: 04 30:       eq (3r)         r0, r1, r0
             0x000106a2: 01 f0 01 70: bt (lru6)       r0, 0x41 <.label38>
             0x000106a6: 0c f0 00 68: ldc (lru6)      r0, 0x300
             0x000106aa: 04 30:       eq (3r)         r0, r1, r0
             0x000106ac: 01 f0 0f 70: bt (lru6)       r0, 0x4f <.label39>
             0x000106b0: 38 77:       bu (u6)         -0x38 <.label33>
.label35     0x000106b2: c8 90:       add (2rus)      r0, r6, 0x0
             0x000106b4: 94 91:       add (2rus)      r1, r9, 0x0
             0x000106b6: 83 5c:       ldw (ru6)       r2, sp[0x3]
             0x000106b8: c4 5c:       ldw (ru6)       r3, sp[0x4]
             0x000106ba: 04 69:       ldc (ru6)       r4, 0x4
             0x000106bc: 00 84:       ld16s (3r)      r4, r8[r4]
             0x000106be: 71 47:       zext (rus)      r4, 0x10
             0x000106c0: 01 55:       stw (ru6)       r4, sp[0x1]
             0x000106c2: 33 5d:       ldw (ru6)       r4, sp[0x33]
             0x000106c4: 02 55:       stw (ru6)       r4, sp[0x2]
             0x000106c6: 00 f0 89 d1: bl (lu10)       0x189 <XUD_DoGetRequest>
             0x000106ca: 05 5d:       ldw (ru6)       r4, sp[0x5]
             0x000106cc: 46 5d:       ldw (ru6)       r5, sp[0x6]
             0x000106ce: 87 5d:       ldw (ru6)       r6, sp[0x7]
             0x000106d0: c8 5d:       ldw (ru6)       r7, sp[0x8]
             0x000106d2: 09 5e:       ldw (ru6)       r8, sp[0x9]
             0x000106d4: 4a 5e:       ldw (ru6)       r9, sp[0xa]
             0x000106d6: 8b 5e:       ldw (ru6)       r10, sp[0xb]
             0x000106d8: ea 77:       retsp (u6)      0x2a
.label36     0x000106da: c8 90:       add (2rus)      r0, r6, 0x0
             0x000106dc: 94 91:       add (2rus)      r1, r9, 0x0
             0x000106de: ab 5c:       ldw (ru6)       r2, sp[0x2b]
             0x000106e0: ec 5c:       ldw (ru6)       r3, sp[0x2c]
             0x000106e2: 04 69:       ldc (ru6)       r4, 0x4
             0x000106e4: 00 84:       ld16s (3r)      r4, r8[r4]
             0x000106e6: 71 47:       zext (rus)      r4, 0x10
             0x000106e8: 01 55:       stw (ru6)       r4, sp[0x1]
             0x000106ea: 34 5d:       ldw (ru6)       r4, sp[0x34]
             0x000106ec: 02 55:       stw (ru6)       r4, sp[0x2]
             0x000106ee: 00 f0 75 d1: bl (lu10)       0x175 <XUD_DoGetRequest>
             0x000106f2: 05 5d:       ldw (ru6)       r4, sp[0x5]
             0x000106f4: 46 5d:       ldw (ru6)       r5, sp[0x6]
             0x000106f6: 87 5d:       ldw (ru6)       r6, sp[0x7]
             0x000106f8: c8 5d:       ldw (ru6)       r7, sp[0x8]
             0x000106fa: 09 5e:       ldw (ru6)       r8, sp[0x9]
             0x000106fc: 4a 5e:       ldw (ru6)       r9, sp[0xa]
             0x000106fe: 8b 5e:       ldw (ru6)       r10, sp[0xb]
             0x00010700: ea 77:       retsp (u6)      0x2a
.label37     0x00010702: c8 90:       add (2rus)      r0, r6, 0x0
             0x00010704: 94 91:       add (2rus)      r1, r9, 0x0
             0x00010706: ad 5c:       ldw (ru6)       r2, sp[0x2d]
             0x00010708: ee 5c:       ldw (ru6)       r3, sp[0x2e]
             0x0001070a: 04 69:       ldc (ru6)       r4, 0x4
             0x0001070c: 00 84:       ld16s (3r)      r4, r8[r4]
             0x0001070e: 71 47:       zext (rus)      r4, 0x10
             0x00010710: 01 55:       stw (ru6)       r4, sp[0x1]
             0x00010712: 82 56:       stw (ru6)       r10, sp[0x2]
             0x00010714: 00 f0 62 d1: bl (lu10)       0x162 <XUD_DoGetRequest>
             0x00010718: 05 5d:       ldw (ru6)       r4, sp[0x5]
             0x0001071a: 46 5d:       ldw (ru6)       r5, sp[0x6]
             0x0001071c: 87 5d:       ldw (ru6)       r6, sp[0x7]
             0x0001071e: c8 5d:       ldw (ru6)       r7, sp[0x8]
             0x00010720: 09 5e:       ldw (ru6)       r8, sp[0x9]
             0x00010722: 4a 5e:       ldw (ru6)       r9, sp[0xa]
             0x00010724: 8b 5e:       ldw (ru6)       r10, sp[0xb]
             0x00010726: ea 77:       retsp (u6)      0x2a
.label38     0x00010728: c8 90:       add (2rus)      r0, r6, 0x0
             0x0001072a: 94 91:       add (2rus)      r1, r9, 0x0
             0x0001072c: af 5c:       ldw (ru6)       r2, sp[0x2f]
             0x0001072e: f0 5c:       ldw (ru6)       r3, sp[0x30]
             0x00010730: 44 69:       ldc (ru6)       r5, 0x4
             0x00010732: 11 84:       ld16s (3r)      r5, r8[r5]
             0x00010734: 75 47:       zext (rus)      r5, 0x10
             0x00010736: 41 55:       stw (ru6)       r5, sp[0x1]
             0x00010738: 02 55:       stw (ru6)       r4, sp[0x2]
             0x0001073a: 00 f0 4f d1: bl (lu10)       0x14f <XUD_DoGetRequest>
             0x0001073e: 05 5d:       ldw (ru6)       r4, sp[0x5]
             0x00010740: 46 5d:       ldw (ru6)       r5, sp[0x6]
             0x00010742: 87 5d:       ldw (ru6)       r6, sp[0x7]
             0x00010744: c8 5d:       ldw (ru6)       r7, sp[0x8]
             0x00010746: 09 5e:       ldw (ru6)       r8, sp[0x9]
             0x00010748: 4a 5e:       ldw (ru6)       r9, sp[0xa]
             0x0001074a: 8b 5e:       ldw (ru6)       r10, sp[0xb]
             0x0001074c: ea 77:       retsp (u6)      0x2a
.label39     0x0001074e: 4c 65:       ldaw (ru6)      r5, sp[0xc]
             0x00010750: d5 a6:       mkmsk (rus)     r1, 0x1
             0x00010752: d2 a6:       mkmsk (rus)     r0, 0x2
             0x00010754: c5 f8 ec 8f: st8 (l3r)       r0, r5[r1]
             0x00010758: 02 68:       ldc (ru6)       r0, 0x2
             0x0001075a: 90 81:       ld16s (3r)      r1, r8[r0]
             0x0001075c: 35 47:       zext (rus)      r1, 0x10
             0x0001075e: 30 a7:       mkmsk (rus)     r0, 0x8
             0x00010760: a4 38:       and (3r)        r10, r1, r0
             0x00010762: 02 68:       ldc (ru6)       r0, 0x2
             0x00010764: 90 81:       ld16s (3r)      r1, r8[r0]
             0x00010766: 35 47:       zext (rus)      r1, 0x10
             0x00010768: 0f f0 2e 68: ldc (lru6)      r0, 0x3ee
             0x0001076c: 04 30:       eq (3r)         r0, r1, r0
             0x0001076e: 2c 70:       bt (ru6)        r0, 0x2c <.label40>
.label44     0x00010770: 28 68:       ldc (ru6)       r0, 0x28
             0x00010772: 98 f9 ec 3f: mul (l3r)       r1, r10, r0
             0x00010776: 31 5c:       ldw (ru6)       r0, sp[0x31]
             0x00010778: 41 10:       add (3r)        r4, r0, r1
             0x0001077a: c0 90:       add (2rus)      r0, r4, 0x0
             0x0001077c: 68 68:       ldc (ru6)       r1, 0x28
             0x0001077e: 06 f0 b7 d1: bl (lu10)       0x19b7 <safestrlen>
             0x00010782: a4 7a:       bf (ru6)        r10, 0x24 <.label41>
             0x00010784: 01 a0:       shl (2rus)      r0, r0, 0x1
             0x00010786: 32 90:       add (2rus)      r3, r0, 0x2
             0x00010788: 40 68:       ldc (ru6)       r1, 0x0
             0x0001078a: f5 f8 ec 8f: st8 (l3r)       r3, r5[r1]
             0x0001078e: 44 68:       ldc (ru6)       r1, 0x4
             0x00010790: 91 81:       ld16s (3r)      r1, r8[r1]
             0x00010792: 35 47:       zext (rus)      r1, 0x10
             0x00010794: 17 c0:       lss (3r)        r1, r1, r3
             0x00010796: 72 70:       bt (ru6)        r1, 0x32 <.label42>
.label49     0x00010798: ec 90:       add (2rus)      r2, r7, 0x0
             0x0001079a: dc c0:       lss (3r)        r1, r7, r0
             0x0001079c: 74 70:       bt (ru6)        r1, 0x34 <.label43>
.label46     0x0001079e: 94 91:       add (2rus)      r1, r9, 0x0
             0x000107a0: 32 90:       add (2rus)      r3, r0, 0x2
             0x000107a2: 04 68:       ldc (ru6)       r0, 0x4
             0x000107a4: c0 81:       ld16s (3r)      r4, r8[r0]
             0x000107a6: 71 47:       zext (rus)      r4, 0x10
             0x000107a8: c8 90:       add (2rus)      r0, r6, 0x0
             0x000107aa: e4 90:       add (2rus)      r2, r5, 0x0
             0x000107ac: 01 55:       stw (ru6)       r4, sp[0x1]
             0x000107ae: 01 f0 38 69: ldc (lru6)      r4, 0x78
             0x000107b2: 02 55:       stw (ru6)       r4, sp[0x2]
             0x000107b4: 00 f0 12 d1: bl (lu10)       0x112 <XUD_DoGetRequest>
             0x000107b8: 05 5d:       ldw (ru6)       r4, sp[0x5]
             0x000107ba: 46 5d:       ldw (ru6)       r5, sp[0x6]
             0x000107bc: 87 5d:       ldw (ru6)       r6, sp[0x7]
             0x000107be: c8 5d:       ldw (ru6)       r7, sp[0x8]
             0x000107c0: 09 5e:       ldw (ru6)       r8, sp[0x9]
             0x000107c2: 4a 5e:       ldw (ru6)       r9, sp[0xa]
             0x000107c4: 8b 5e:       ldw (ru6)       r10, sp[0xb]
             0x000107c6: ea 77:       retsp (u6)      0x2a
.label40     0x000107c8: 82 6a:       ldc (ru6)       r10, 0x2
             0x000107ca: 2e 77:       bu (u6)         -0x2e <.label44>
.label41     0x000107cc: 32 90:       add (2rus)      r3, r0, 0x2
             0x000107ce: 40 68:       ldc (ru6)       r1, 0x0
             0x000107d0: f5 f8 ec 8f: st8 (l3r)       r3, r5[r1]
             0x000107d4: 44 68:       ldc (ru6)       r1, 0x4
             0x000107d6: 91 81:       ld16s (3r)      r1, r8[r1]
             0x000107d8: 35 47:       zext (rus)      r1, 0x10
             0x000107da: 17 c0:       lss (3r)        r1, r1, r3
             0x000107dc: 4a 70:       bt (ru6)        r1, 0xa <.label45>
.label48     0x000107de: dc c0:       lss (3r)        r1, r7, r0
             0x000107e0: 62 7c:       bf (ru6)        r1, -0x22 <.label46>
.label47     0x000107e2: 23 8b:       ld8u (3r)       r2, r4[r7]
             0x000107e4: de 90:       add (2rus)      r1, r7, 0x2
             0x000107e6: e5 f8 ec 8f: st8 (l3r)       r2, r5[r1]
             0x000107ea: 3d 91:       add (2rus)      r7, r7, 0x1
             0x000107ec: dc c0:       lss (3r)        r1, r7, r0
             0x000107ee: 47 74:       bt (ru6)        r1, -0x7 <.label47>
             0x000107f0: 2a 77:       bu (u6)         -0x2a <.label46>
.label45     0x000107f2: 04 68:       ldc (ru6)       r0, 0x4
             0x000107f4: 80 81:       ld16s (3r)      r0, r8[r0]
             0x000107f6: 31 47:       zext (rus)      r0, 0x10
             0x000107f8: 02 98:       sub (2rus)      r0, r0, 0x2
             0x000107fa: 0f 77:       bu (u6)         -0xf <.label48>
.label42     0x000107fc: 04 68:       ldc (ru6)       r0, 0x4
             0x000107fe: 80 81:       ld16s (3r)      r0, r8[r0]
             0x00010800: 31 47:       zext (rus)      r0, 0x10
             0x00010802: 02 98:       sub (2rus)      r0, r0, 0x2
             0x00010804: 37 77:       bu (u6)         -0x37 <.label49>
.label43     0x00010806: 19 f8 ec 97: ashr (l2rus)    r1, r2, 0x1
             0x0001080a: f1 88:       ld8u (3r)       r3, r4[r1]
             0x0001080c: 1a 90:       add (2rus)      r1, r2, 0x2
             0x0001080e: f5 f8 ec 8f: st8 (l3r)       r3, r5[r1]
             0x00010812: 2b 90:       add (2rus)      r2, r2, 0x3
             0x00010814: 36 f9 ec 8f: st8 (l3r)       r7, r5[r2]
             0x00010818: 24 90:       add (2rus)      r2, r1, 0x0
             0x0001081a: 14 c0:       lss (3r)        r1, r1, r0
             0x0001081c: 4c 74:       bt (ru6)        r1, -0xc <.label43>
             0x0001081e: 01 f0 02 77: bu (lu6)        -0x42 <.label46>
             0x00010822: 00 00:       stw (2rus)      r0, r0[0x0]
             0x00010824: 00 90:       add (2rus)      r0, r0, 0x0
             0x00010826: 00 90:       add (2rus)      r0, r0, 0x0

<XUD_ParseSetupPacket>:
             0x00010828: 41 77:       entsp (u6)      0x1
             0x0001082a: 00 55:       stw (ru6)       r4, sp[0x0]
             0x0001082c: c0 68:       ldc (ru6)       r3, 0x0
             0x0001082e: 4e c8:       lsu (3r)        r4, r3, r2
             0x00010830: e4 4f:       ecallf (1r)     r4
             0x00010832: c0 68:       ldc (ru6)       r3, 0x0
             0x00010834: b3 88:       ld8u (3r)       r11, r0[r3]
             0x00010836: 9d a7:       mkmsk (rus)     r3, 0x5
             0x00010838: 3f 3a:       and (3r)        r11, r11, r3
             0x0001083a: c0 68:       ldc (ru6)       r3, 0x0
             0x0001083c: b7 f8 ec 8f: st8 (l3r)       r11, r1[r3]
             0x00010840: e4 4f:       ecallf (1r)     r4
             0x00010842: c0 68:       ldc (ru6)       r3, 0x0
             0x00010844: b3 88:       ld8u (3r)       r11, r0[r3]
             0x00010846: 01 f0 e0 68: ldc (lru6)      r3, 0x60
             0x0001084a: bf 39:       and (3r)        r3, r11, r3
             0x0001084c: fd fa ec 97: ashr (l2rus)    r11, r3, 0x5
             0x00010850: dd a6:       mkmsk (rus)     r3, 0x1
             0x00010852: b7 f8 ec 8f: st8 (l3r)       r11, r1[r3]
             0x00010856: e4 4f:       ecallf (1r)     r4
             0x00010858: c0 68:       ldc (ru6)       r3, 0x0
             0x0001085a: 33 88:       ld8u (3r)       r3, r0[r3]
             0x0001085c: 8f fa ec 97: ashr (l2rus)    r4, r3, 0x7
             0x00010860: c2 68:       ldc (ru6)       r3, 0x2
             0x00010862: 47 f8 ec 8f: st8 (l3r)       r4, r1[r3]
             0x00010866: dd a6:       mkmsk (rus)     r3, 0x1
             0x00010868: 3e c8:       lsu (3r)        r3, r3, r2
             0x0001086a: e3 4f:       ecallf (1r)     r3
             0x0001086c: dd a6:       mkmsk (rus)     r3, 0x1
             0x0001086e: 43 88:       ld8u (3r)       r4, r0[r3]
             0x00010870: de a6:       mkmsk (rus)     r3, 0x2
             0x00010872: 47 f8 ec 8f: st8 (l3r)       r4, r1[r3]
             0x00010876: de a6:       mkmsk (rus)     r3, 0x2
             0x00010878: 3e c8:       lsu (3r)        r3, r3, r2
             0x0001087a: e3 4f:       ecallf (1r)     r3
             0x0001087c: de a6:       mkmsk (rus)     r3, 0x2
             0x0001087e: 33 88:       ld8u (3r)       r3, r0[r3]
             0x00010880: cc a4:       shl (2rus)      r4, r3, 0x8
             0x00010882: c2 68:       ldc (ru6)       r3, 0x2
             0x00010884: 3e c8:       lsu (3r)        r3, r3, r2
             0x00010886: e3 4f:       ecallf (1r)     r3
             0x00010888: c2 68:       ldc (ru6)       r3, 0x2
             0x0001088a: 33 88:       ld8u (3r)       r3, r0[r3]
             0x0001088c: 03 41:       or (3r)         r4, r4, r3
             0x0001088e: c2 68:       ldc (ru6)       r3, 0x2
             0x00010890: 47 f8 ec 87: st16 (l3r)      r4, r1[r3]
             0x00010894: c5 68:       ldc (ru6)       r3, 0x5
             0x00010896: 3e c8:       lsu (3r)        r3, r3, r2
             0x00010898: e3 4f:       ecallf (1r)     r3
             0x0001089a: c5 68:       ldc (ru6)       r3, 0x5
             0x0001089c: 33 88:       ld8u (3r)       r3, r0[r3]
             0x0001089e: cc a4:       shl (2rus)      r4, r3, 0x8
             0x000108a0: c4 68:       ldc (ru6)       r3, 0x4
             0x000108a2: 3e c8:       lsu (3r)        r3, r3, r2
             0x000108a4: e3 4f:       ecallf (1r)     r3
             0x000108a6: c4 68:       ldc (ru6)       r3, 0x4
             0x000108a8: 33 88:       ld8u (3r)       r3, r0[r3]
             0x000108aa: 03 41:       or (3r)         r4, r4, r3
             0x000108ac: de a6:       mkmsk (rus)     r3, 0x2
             0x000108ae: 47 f8 ec 87: st16 (l3r)      r4, r1[r3]
             0x000108b2: df a6:       mkmsk (rus)     r3, 0x3
             0x000108b4: 3e c8:       lsu (3r)        r3, r3, r2
             0x000108b6: e3 4f:       ecallf (1r)     r3
             0x000108b8: df a6:       mkmsk (rus)     r3, 0x3
             0x000108ba: 33 88:       ld8u (3r)       r3, r0[r3]
             0x000108bc: cc a4:       shl (2rus)      r4, r3, 0x8
             0x000108be: c6 68:       ldc (ru6)       r3, 0x6
             0x000108c0: 2e c8:       lsu (3r)        r2, r3, r2
             0x000108c2: e2 4f:       ecallf (1r)     r2
             0x000108c4: 86 68:       ldc (ru6)       r2, 0x6
             0x000108c6: 02 88:       ld8u (3r)       r0, r0[r2]
             0x000108c8: e0 40:       or (3r)         r2, r4, r0
             0x000108ca: 04 68:       ldc (ru6)       r0, 0x4
             0x000108cc: 24 f8 ec 87: st16 (l3r)      r2, r1[r0]
             0x000108d0: 00 5d:       ldw (ru6)       r4, sp[0x0]
             0x000108d2: c1 77:       retsp (u6)      0x1
             0x000108d4: 00 90:       add (2rus)      r0, r0, 0x0
             0x000108d6: 00 90:       add (2rus)      r0, r0, 0x0

<XUD_GetBuffer>:
             0x000108d8: 41 77:       entsp (u6)      0x1
             0x000108da: 04 f0 ea d2: bl (lu10)       0x12ea <XUD_GetData>
             0x000108de: c1 77:       retsp (u6)      0x1

<XUD_GetSetupBuffer>:
             0x000108e0: 41 77:       entsp (u6)      0x1
             0x000108e2: 04 f0 cf d2: bl (lu10)       0x12cf <XUD_GetSetupData>
             0x000108e6: c1 77:       retsp (u6)      0x1

<XUD_SetBuffer_ResetPid>:
             0x000108e8: 45 77:       entsp (u6)      0x5
             0x000108ea: 03 55:       stw (ru6)       r4, sp[0x3]
             0x000108ec: 44 55:       stw (ru6)       r5, sp[0x4]
             0x000108ee: 46 5d:       ldw (ru6)       r5, sp[0x6]
             0x000108f0: 4c 90:       add (2rus)      r4, r3, 0x0
             0x000108f2: c0 68:       ldc (ru6)       r3, 0x0
             0x000108f4: 01 55:       stw (ru6)       r4, sp[0x1]
             0x000108f6: 42 55:       stw (ru6)       r5, sp[0x2]
             0x000108f8: 04 f0 fa d2: bl (lu10)       0x12fa <XUD_SetData>
             0x000108fc: 03 5d:       ldw (ru6)       r4, sp[0x3]
             0x000108fe: 44 5d:       ldw (ru6)       r5, sp[0x4]
             0x00010900: c5 77:       retsp (u6)      0x5
             0x00010902: 00 90:       add (2rus)      r0, r0, 0x0

<XUD_SetBuffer_ResetPid_EpMax>:
             0x00010904: 4a 77:       entsp (u6)      0xa
             0x00010906: 03 55:       stw (ru6)       r4, sp[0x3]
             0x00010908: 44 55:       stw (ru6)       r5, sp[0x4]
             0x0001090a: 85 55:       stw (ru6)       r6, sp[0x5]
             0x0001090c: c6 55:       stw (ru6)       r7, sp[0x6]
             0x0001090e: 07 56:       stw (ru6)       r8, sp[0x7]
             0x00010910: 48 56:       stw (ru6)       r9, sp[0x8]
             0x00010912: 89 56:       stw (ru6)       r10, sp[0x9]
             0x00010914: 60 90:       add (2rus)      r6, r0, 0x0
             0x00010916: 78 90:       add (2rus)      r7, r2, 0x0
             0x00010918: ac 90:       add (2rus)      r10, r3, 0x0
             0x0001091a: 0b 5d:       ldw (ru6)       r4, sp[0xb]
             0x0001091c: 4c 5d:       ldw (ru6)       r5, sp[0xc]
             0x0001091e: 4d 5e:       ldw (ru6)       r9, sp[0xd]
             0x00010920: c3 c8:       lsu (3r)        r0, r4, r3
             0x00010922: 23 78:       bf (ru6)        r0, 0x23 <.label50>
             0x00010924: c8 90:       add (2rus)      r0, r6, 0x0
             0x00010926: 18 90:       add (2rus)      r1, r2, 0x0
             0x00010928: e0 90:       add (2rus)      r2, r4, 0x0
             0x0001092a: c0 68:       ldc (ru6)       r3, 0x0
             0x0001092c: 41 55:       stw (ru6)       r5, sp[0x1]
             0x0001092e: 42 56:       stw (ru6)       r9, sp[0x2]
             0x00010930: 04 f0 de d2: bl (lu10)       0x12de <XUD_SetData>
             0x00010934: 00 6a:       ldc (ru6)       r8, 0x0
             0x00010936: 80 c4:       lss (3r)        r0, r0, r8
             0x00010938: 28 70:       bt (ru6)        r0, 0x28 <.label51>
             0x0001093a: 10 91:       add (2rus)      r5, r4, 0x0
             0x0001093c: 68 1c:       sub (3r)        r10, r10, r4
.label55     0x0001093e: 42 cd:       lsu (3r)        r0, r4, r10
             0x00010940: 2d 70:       bt (ru6)        r0, 0x2d <.label52>
             0x00010942: c8 90:       add (2rus)      r0, r6, 0x0
             0x00010944: dc 90:       add (2rus)      r1, r7, 0x0
             0x00010946: a8 91:       add (2rus)      r2, r10, 0x0
             0x00010948: f4 90:       add (2rus)      r3, r5, 0x0
             0x0001094a: 00 69:       ldc (ru6)       r4, 0x0
             0x0001094c: 01 55:       stw (ru6)       r4, sp[0x1]
             0x0001094e: 42 56:       stw (ru6)       r9, sp[0x2]
             0x00010950: 04 f0 ce d2: bl (lu10)       0x12ce <XUD_SetData>
             0x00010954: 80 c4:       lss (3r)        r0, r0, r8
             0x00010956: 39 70:       bt (ru6)        r0, 0x39 <.label53>
             0x00010958: 00 68:       ldc (ru6)       r0, 0x0
             0x0001095a: 03 5d:       ldw (ru6)       r4, sp[0x3]
             0x0001095c: 44 5d:       ldw (ru6)       r5, sp[0x4]
             0x0001095e: 85 5d:       ldw (ru6)       r6, sp[0x5]
             0x00010960: c6 5d:       ldw (ru6)       r7, sp[0x6]
             0x00010962: 07 5e:       ldw (ru6)       r8, sp[0x7]
             0x00010964: 48 5e:       ldw (ru6)       r9, sp[0x8]
             0x00010966: 89 5e:       ldw (ru6)       r10, sp[0x9]
             0x00010968: ca 77:       retsp (u6)      0xa
.label50     0x0001096a: 2c 90:       add (2rus)      r2, r3, 0x0
             0x0001096c: c8 90:       add (2rus)      r0, r6, 0x0
             0x0001096e: dc 90:       add (2rus)      r1, r7, 0x0
             0x00010970: c0 68:       ldc (ru6)       r3, 0x0
             0x00010972: 41 55:       stw (ru6)       r5, sp[0x1]
             0x00010974: 42 56:       stw (ru6)       r9, sp[0x2]
             0x00010976: 04 f0 bb d2: bl (lu10)       0x12bb <XUD_SetData>
             0x0001097a: 03 5d:       ldw (ru6)       r4, sp[0x3]
             0x0001097c: 44 5d:       ldw (ru6)       r5, sp[0x4]
             0x0001097e: 85 5d:       ldw (ru6)       r6, sp[0x5]
             0x00010980: c6 5d:       ldw (ru6)       r7, sp[0x6]
             0x00010982: 07 5e:       ldw (ru6)       r8, sp[0x7]
             0x00010984: 48 5e:       ldw (ru6)       r9, sp[0x8]
             0x00010986: 89 5e:       ldw (ru6)       r10, sp[0x9]
             0x00010988: ca 77:       retsp (u6)      0xa
.label51     0x0001098a: d0 a6:       mkmsk (rus)     r0, 0x20
             0x0001098c: 03 5d:       ldw (ru6)       r4, sp[0x3]
             0x0001098e: 44 5d:       ldw (ru6)       r5, sp[0x4]
             0x00010990: 85 5d:       ldw (ru6)       r6, sp[0x5]
             0x00010992: c6 5d:       ldw (ru6)       r7, sp[0x6]
             0x00010994: 07 5e:       ldw (ru6)       r8, sp[0x7]
             0x00010996: 48 5e:       ldw (ru6)       r9, sp[0x8]
             0x00010998: 89 5e:       ldw (ru6)       r10, sp[0x9]
             0x0001099a: ca 77:       retsp (u6)      0xa
.label52     0x0001099c: c8 90:       add (2rus)      r0, r6, 0x0
             0x0001099e: dc 90:       add (2rus)      r1, r7, 0x0
             0x000109a0: e0 90:       add (2rus)      r2, r4, 0x0
             0x000109a2: f4 90:       add (2rus)      r3, r5, 0x0
             0x000109a4: c0 6a:       ldc (ru6)       r11, 0x0
             0x000109a6: c1 56:       stw (ru6)       r11, sp[0x1]
             0x000109a8: 42 56:       stw (ru6)       r9, sp[0x2]
             0x000109aa: 04 f0 a1 d2: bl (lu10)       0x12a1 <XUD_SetData>
             0x000109ae: 80 c4:       lss (3r)        r0, r0, r8
             0x000109b0: 03 70:       bt (ru6)        r0, 0x3 <.label54>
             0x000109b2: 68 1c:       sub (3r)        r10, r10, r4
             0x000109b4: 54 13:       add (3r)        r5, r5, r4
             0x000109b6: 3d 77:       bu (u6)         -0x3d <.label55>
.label54     0x000109b8: d0 a6:       mkmsk (rus)     r0, 0x20
             0x000109ba: 03 5d:       ldw (ru6)       r4, sp[0x3]
             0x000109bc: 44 5d:       ldw (ru6)       r5, sp[0x4]
             0x000109be: 85 5d:       ldw (ru6)       r6, sp[0x5]
             0x000109c0: c6 5d:       ldw (ru6)       r7, sp[0x6]
             0x000109c2: 07 5e:       ldw (ru6)       r8, sp[0x7]
             0x000109c4: 48 5e:       ldw (ru6)       r9, sp[0x8]
             0x000109c6: 89 5e:       ldw (ru6)       r10, sp[0x9]
             0x000109c8: ca 77:       retsp (u6)      0xa
.label53     0x000109ca: d0 a6:       mkmsk (rus)     r0, 0x20
             0x000109cc: 03 5d:       ldw (ru6)       r4, sp[0x3]
             0x000109ce: 44 5d:       ldw (ru6)       r5, sp[0x4]
             0x000109d0: 85 5d:       ldw (ru6)       r6, sp[0x5]
             0x000109d2: c6 5d:       ldw (ru6)       r7, sp[0x6]
             0x000109d4: 07 5e:       ldw (ru6)       r8, sp[0x7]
             0x000109d6: 48 5e:       ldw (ru6)       r9, sp[0x8]
             0x000109d8: 89 5e:       ldw (ru6)       r10, sp[0x9]
             0x000109da: ca 77:       retsp (u6)      0xa

<XUD_DoGetRequest>:
             0x000109dc: 04 f0 49 77: entsp (lu6)     0x109
             0x000109e0: 04 55:       stw (ru6)       r4, sp[0x4]
             0x000109e2: 45 55:       stw (ru6)       r5, sp[0x5]
             0x000109e4: 86 55:       stw (ru6)       r6, sp[0x6]
             0x000109e6: c7 55:       stw (ru6)       r7, sp[0x7]
             0x000109e8: 08 56:       stw (ru6)       r8, sp[0x8]
             0x000109ea: 50 90:       add (2rus)      r5, r0, 0x0
             0x000109ec: 74 90:       add (2rus)      r7, r1, 0x0
             0x000109ee: 4c 90:       add (2rus)      r4, r3, 0x0
             0x000109f0: 04 f0 8a 5d: ldw (lru6)      r6, sp[0x10a]
             0x000109f4: 04 f0 0b 5e: ldw (lru6)      r8, sp[0x10b]
             0x000109f8: 04 90:       add (2rus)      r0, r1, 0x0
             0x000109fa: f8 90:       add (2rus)      r3, r6, 0x0
             0x000109fc: 12 c3:       lss (3r)        r1, r4, r6
             0x000109fe: 5b 70:       bt (ru6)        r1, 0x1b <.label56>
.label59     0x00010a00: 40 68:       ldc (ru6)       r1, 0x0
             0x00010a02: 01 f0 c0 6a: ldc (lru6)      r11, 0x40
             0x00010a06: c1 56:       stw (ru6)       r11, sp[0x1]
             0x00010a08: 01 f0 cb 6a: ldc (lru6)      r11, 0x4b
             0x00010a0c: c2 56:       stw (ru6)       r11, sp[0x2]
             0x00010a0e: 03 56:       stw (ru6)       r8, sp[0x3]
             0x00010a10: 87 d4:       bl (u10)        -0x87 <XUD_SetBuffer_ResetPid_EpMax>
             0x00010a12: 40 68:       ldc (ru6)       r1, 0x0
             0x00010a14: 01 c0:       lss (3r)        r0, r0, r1
             0x00010a16: 11 70:       bt (ru6)        r0, 0x11 <.label57>
             0x00010a18: 02 cb:       lsu (3r)        r0, r4, r6
             0x00010a1a: 17 70:       bt (ru6)        r0, 0x17 <.label58>
.label60     0x00010a1c: c4 90:       add (2rus)      r0, r5, 0x0
             0x00010a1e: 49 64:       ldaw (ru6)      r1, sp[0x9]
             0x00010a20: 10 f0 80 68: ldc (lru6)      r2, 0x400
             0x00010a24: 04 f0 45 d2: bl (lu10)       0x1245 <XUD_GetData>
             0x00010a28: 04 5d:       ldw (ru6)       r4, sp[0x4]
             0x00010a2a: 45 5d:       ldw (ru6)       r5, sp[0x5]
             0x00010a2c: 86 5d:       ldw (ru6)       r6, sp[0x6]
             0x00010a2e: c7 5d:       ldw (ru6)       r7, sp[0x7]
             0x00010a30: 08 5e:       ldw (ru6)       r8, sp[0x8]
             0x00010a32: 04 f0 c9 77: retsp (lu6)     0x109
.label56     0x00010a36: f0 90:       add (2rus)      r3, r4, 0x0
             0x00010a38: 1d 77:       bu (u6)         -0x1d <.label59>
.label57     0x00010a3a: d0 a6:       mkmsk (rus)     r0, 0x20
             0x00010a3c: 04 5d:       ldw (ru6)       r4, sp[0x4]
             0x00010a3e: 45 5d:       ldw (ru6)       r5, sp[0x5]
             0x00010a40: 86 5d:       ldw (ru6)       r6, sp[0x6]
             0x00010a42: c7 5d:       ldw (ru6)       r7, sp[0x7]
             0x00010a44: 08 5e:       ldw (ru6)       r8, sp[0x8]
             0x00010a46: 04 f0 c9 77: retsp (lu6)     0x109
.label58     0x00010a4a: 92 a7:       mkmsk (rus)     r0, 0x6
             0x00010a4c: c0 38:       and (3r)        r0, r4, r0
             0x00010a4e: 1a 74:       bt (ru6)        r0, -0x1a <.label60>
             0x00010a50: 49 64:       ldaw (ru6)      r1, sp[0x9]
             0x00010a52: cc 90:       add (2rus)      r0, r7, 0x0
             0x00010a54: 80 68:       ldc (ru6)       r2, 0x0
             0x00010a56: c0 68:       ldc (ru6)       r3, 0x0
             0x00010a58: 00 69:       ldc (ru6)       r4, 0x0
             0x00010a5a: 01 55:       stw (ru6)       r4, sp[0x1]
             0x00010a5c: 10 f0 00 69: ldc (lru6)      r4, 0x400
             0x00010a60: 02 55:       stw (ru6)       r4, sp[0x2]
             0x00010a62: 04 f0 45 d2: bl (lu10)       0x1245 <XUD_SetData>
             0x00010a66: 26 77:       bu (u6)         -0x26 <.label60>

<XUD_DoSetRequestStatus>:
             0x00010a68: 45 77:       entsp (u6)      0x5
             0x00010a6a: 43 64:       ldaw (ru6)      r1, sp[0x3]
             0x00010a6c: 80 68:       ldc (ru6)       r2, 0x0
             0x00010a6e: c0 68:       ldc (ru6)       r3, 0x0
             0x00010a70: 01 f0 cb 6a: ldc (lru6)      r11, 0x4b
             0x00010a74: c1 56:       stw (ru6)       r11, sp[0x1]
             0x00010a76: c8 6a:       ldc (ru6)       r11, 0x8
             0x00010a78: c2 56:       stw (ru6)       r11, sp[0x2]
             0x00010a7a: 04 f0 39 d2: bl (lu10)       0x1239 <XUD_SetData>
             0x00010a7e: c5 77:       retsp (u6)      0x5

<XUD_ResetEndpoint0>:
             0x00010a80: d1 4e:       outct (rus)     res[r0], 0x1
             0x00010a82: d8 86:       inct (2r)       r2, res[r0]
             0x00010a84: 34 b0:       eq (2rus)       r3, r1, 0x0
             0x00010a86: c4 78:       bf (ru6)        r3, 0x4 <.label61>
.label63     0x00010a88: a8 b4:       eq (2rus)       r2, r2, 0x8
             0x00010a8a: 85 70:       bt (ru6)        r2, 0x5 <.label62>
             0x00010a8c: d2 a6:       mkmsk (rus)     r0, 0x2
             0x00010a8e: c0 77:       retsp (u6)      0x0
.label61     0x00010a90: d5 4e:       outct (rus)     res[r1], 0x1
             0x00010a92: 5d 87:       inct (2r)       r11, res[r1]
             0x00010a94: 07 77:       bu (u6)         -0x7 <.label63>
.label62     0x00010a96: c0 b6:       in (2r)         r0, res[r0]
             0x00010a98: c1 78:       bf (ru6)        r3, 0x1 <.label64>
.label65     0x00010a9a: c0 77:       retsp (u6)      0x0
.label64     0x00010a9c: c5 b6:       in (2r)         r1, res[r1]
             0x00010a9e: 03 77:       bu (u6)         -0x3 <.label65>

<XUD_Init_Ep>:
             0x00010aa0: c0 b6:       in (2r)         r0, res[r0]
             0x00010aa2: c0 77:       retsp (u6)      0x0

<deliver>:
             0x00010aa4: 4e 77:       entsp (u6)      0xe
             0x00010aa6: 01 55:       stw (ru6)       r4, sp[0x1]
             0x00010aa8: 42 55:       stw (ru6)       r5, sp[0x2]
             0x00010aaa: 83 55:       stw (ru6)       r6, sp[0x3]
             0x00010aac: c4 55:       stw (ru6)       r7, sp[0x4]
             0x00010aae: 05 56:       stw (ru6)       r8, sp[0x5]
             0x00010ab0: 46 56:       stw (ru6)       r9, sp[0x6]
             0x00010ab2: 87 56:       stw (ru6)       r10, sp[0x7]
             0x00010ab4: 80 54:       stw (ru6)       r2, sp[0x0]
             0x00010ab6: c0 68:       ldc (ru6)       r3, 0x0
             0x00010ab8: ca 65:       ldaw (ru6)      r7, sp[0xa]
             0x00010aba: 8c 64:       ldaw (ru6)      r2, sp[0xc]
             0x00010abc: 82 69:       ldc (ru6)       r6, 0x2
.label66     0x00010abe: 40 68:       ldc (ru6)       r1, 0x0
             0x00010ac0: df f8 ec 07: stw (l3r)       r1, r7[r3]
             0x00010ac4: 40 68:       ldc (ru6)       r1, 0x0
             0x00010ac6: 1b f8 ec 07: stw (l3r)       r1, r2[r3]
             0x00010aca: 3d 90:       add (2rus)      r3, r3, 0x1
             0x00010acc: 5e c2:       lss (3r)        r1, r3, r6
             0x00010ace: 49 74:       bt (ru6)        r1, -0x9 <.label66>
             0x00010ad0: 40 68:       ldc (ru6)       r1, 0x0
             0x00010ad2: c4 ae:       out (r2r)       res[r0], r1
             0x00010ad4: d4 be:       testct (2r)     r1, res[r0]
             0x00010ad6: 02 f0 75 70: bt (lru6)       r1, 0xb5 <.label67>
             0x00010ada: c4 b6:       in (2r)         r1, res[r0]
             0x00010adc: dc 08:       ldw (2rus)      r1, r7[0x0]
             0x00010ade: c4 ae:       out (r2r)       res[r0], r1
             0x00010ae0: dd 08:       ldw (2rus)      r1, r7[0x1]
             0x00010ae2: c4 ae:       out (r2r)       res[r0], r1
             0x00010ae4: c8 65:       ldaw (ru6)      r7, sp[0x8]
             0x00010ae6: c4 b6:       in (2r)         r1, res[r0]
             0x00010ae8: dc 00:       stw (2rus)      r1, r7[0x0]
             0x00010aea: c4 b6:       in (2r)         r1, res[r0]
             0x00010aec: dd 00:       stw (2rus)      r1, r7[0x1]
             0x00010aee: 10 f0 6a 59: ldw (lru6)      r5, dp[0x42a]
             0x00010af2: 57 e9:       setc (ru6)      res[r5], 0x17
             0x00010af4: c0 68:       ldc (ru6)       r3, 0x0
             0x00010af6: 00 f0 83 60: ldaw (lru6)     r2, dp[0x3]
.label68     0x00010afa: 1b 48:       ldw (3r)        r1, r2[r3]
             0x00010afc: 57 e8:       setc (ru6)      res[r1], 0x17
             0x00010afe: 3d 90:       add (2rus)      r3, r3, 0x1
             0x00010b00: d5 a6:       mkmsk (rus)     r1, 0x1
             0x00010b02: 1d c0:       lss (3r)        r1, r3, r1
             0x00010b04: 46 74:       bt (ru6)        r1, -0x6 <.label68>
             0x00010b06: c0 68:       ldc (ru6)       r3, 0x0
             0x00010b08: 00 f0 85 60: ldaw (lru6)     r2, dp[0x5]
.label69     0x00010b0c: 1b 48:       ldw (3r)        r1, r2[r3]
             0x00010b0e: 57 e8:       setc (ru6)      res[r1], 0x17
             0x00010b10: 3d 90:       add (2rus)      r3, r3, 0x1
             0x00010b12: d5 a6:       mkmsk (rus)     r1, 0x1
             0x00010b14: 1d c0:       lss (3r)        r1, r3, r1
             0x00010b16: 46 74:       bt (ru6)        r1, -0x6 <.label69>
             0x00010b18: 40 5c:       ldw (ru6)       r1, sp[0x0]
             0x00010b1a: 15 b0:       eq (2rus)       r1, r1, 0x1
             0x00010b1c: 02 f0 5c 70: bt (lru6)       r1, 0x9c <.label70>
             0x00010b20: 10 f0 6b 58: ldw (lru6)      r1, dp[0x42b]
             0x00010b24: 57 e8:       setc (ru6)      res[r1], 0x17
             0x00010b26: c0 69:       ldc (ru6)       r7, 0x0
             0x00010b28: 00 f0 03 61: ldaw (lru6)     r4, dp[0x3]
.label71     0x00010b2c: 33 4b:       ldw (3r)        r3, r4[r7]
             0x00010b2e: 80 68:       ldc (ru6)       r2, 0x0
             0x00010b30: cb ae:       out (r2r)       res[r3], r2
             0x00010b32: 3d 91:       add (2rus)      r7, r7, 0x1
             0x00010b34: d9 a6:       mkmsk (rus)     r2, 0x1
             0x00010b36: ee c0:       lss (3r)        r2, r7, r2
             0x00010b38: 87 74:       bt (ru6)        r2, -0x7 <.label71>
             0x00010b3a: 00 f0 0a 6d: ldw (lru6)      r4, cp[0xa]
             0x00010b3e: c1 af:       out (r2r)       res[r5], r4
             0x00010b40: 00 f0 8b 6c: ldw (lru6)      r2, cp[0xb]
             0x00010b44: c9 ae:       out (r2r)       res[r1], r2
             0x00010b46: c9 ae:       out (r2r)       res[r1], r2
.label95     0x00010b48: 10 f0 6b 58: ldw (lru6)      r1, dp[0x42b]
.label94     0x00010b4c: 80 68:       ldc (ru6)       r2, 0x0
             0x00010b4e: c8 ae:       out (r2r)       res[r0], r2
             0x00010b50: d8 be:       testct (2r)     r2, res[r0]
             0x00010b52: 02 f0 9b 70: bt (lru6)       r2, 0x9b <.label72>
             0x00010b56: c8 b6:       in (2r)         r2, res[r0]
             0x00010b58: ca 65:       ldaw (ru6)      r7, sp[0xa]
             0x00010b5a: ec 08:       ldw (2rus)      r2, r7[0x0]
             0x00010b5c: c8 ae:       out (r2r)       res[r0], r2
             0x00010b5e: ed 08:       ldw (2rus)      r2, r7[0x1]
             0x00010b60: c8 ae:       out (r2r)       res[r0], r2
             0x00010b62: c8 65:       ldaw (ru6)      r7, sp[0x8]
             0x00010b64: c8 b6:       in (2r)         r2, res[r0]
             0x00010b66: ec 00:       stw (2rus)      r2, r7[0x0]
             0x00010b68: c8 b6:       in (2r)         r2, res[r0]
             0x00010b6a: ed 00:       stw (2rus)      r2, r7[0x1]
             0x00010b6c: c0 68:       ldc (ru6)       r3, 0x0
             0x00010b6e: 00 f0 83 60: ldaw (lru6)     r2, dp[0x3]
             0x00010b72: 3b 48:       ldw (3r)        r3, r2[r3]
             0x00010b74: ec 08:       ldw (2rus)      r2, r7[0x0]
             0x00010b76: ca fe ec 07: bitrev (l2r)    r2, r2
             0x00010b7a: cb ae:       out (r2r)       res[r3], r2
             0x00010b7c: 80 5c:       ldw (ru6)       r2, sp[0x0]
             0x00010b7e: 39 98:       sub (2rus)      r3, r2, 0x1
             0x00010b80: db a6:       mkmsk (rus)     r2, 0x3
             0x00010b82: 2b c8:       lsu (3r)        r2, r2, r3
             0x00010b84: 91 70:       bt (ru6)        r2, 0x11 <.label73>
             0x00010b86: e3 2f:       bru (1r)        r3
             0x00010b88: 07 73:       bu (u6)         0x7 <.label74>
             0x00010b8a: 08 73:       bu (u6)         0x8 <.label75>
             0x00010b8c: 0d 73:       bu (u6)         0xd <.label73>
             0x00010b8e: 08 73:       bu (u6)         0x8 <.label76>
             0x00010b90: 0b 73:       bu (u6)         0xb <.label73>
             0x00010b92: 0a 73:       bu (u6)         0xa <.label73>
             0x00010b94: 09 73:       bu (u6)         0x9 <.label73>
             0x00010b96: 06 73:       bu (u6)         0x6 <.label77>
.label74     0x00010b98: 02 f0 25 73: bu (lu6)        0xa5 <.label78>
.label75     0x00010b9c: 02 f0 1a 73: bu (lu6)        0x9a <.label79>
.label76     0x00010ba0: 02 f0 0d 73: bu (lu6)        0x8d <.label80>
.label77     0x00010ba4: 01 f0 3c 73: bu (lu6)        0x7c <.label81>
.label73     0x00010ba8: c0 68:       ldc (ru6)       r3, 0x0
             0x00010baa: 59 a7:       mkmsk (rus)     r10, 0x1
             0x00010bac: 00 f0 45 62: ldaw (lru6)     r9, dp[0x5]
             0x00010bb0: ca 65:       ldaw (ru6)      r7, sp[0xa]
             0x00010bb2: 0c 66:       ldaw (ru6)      r8, sp[0xc]
.label82     0x00010bb4: 2c 90:       add (2rus)      r2, r3, 0x0
             0x00010bb6: 3d 90:       add (2rus)      r3, r3, 0x1
             0x00010bb8: 36 4a:       ldw (3r)        r11, r9[r2]
             0x00010bba: c1 ea:       setc (ru6)      res[r11], 0x1
             0x00010bbc: 2b b7:       in (2r)         r2, res[r11]
             0x00010bbe: ca fe ec 07: bitrev (l2r)    r2, r2
             0x00010bc2: 6e fd ec 07: stw (l3r)       r2, r7[r10]
             0x00010bc6: b2 4e:       ldw (3r)        r11, r8[r10]
             0x00010bc8: a9 99:       sub (2rus)      r2, r10, 0x1
             0x00010bca: 7e f9 ec 07: stw (l3r)       r11, r7[r2]
             0x00010bce: 2a 92:       add (2rus)      r10, r10, 0x2
             0x00010bd0: ea c3:       lss (3r)        r2, r10, r6
             0x00010bd2: 90 74:       bt (ru6)        r2, -0x10 <.label82>
             0x00010bd4: c0 68:       ldc (ru6)       r3, 0x0
             0x00010bd6: 55 a7:       mkmsk (rus)     r9, 0x1
             0x00010bd8: 00 f0 03 62: ldaw (lru6)     r8, dp[0x3]
             0x00010bdc: c8 65:       ldaw (ru6)      r7, sp[0x8]
.label83     0x00010bde: 2c 90:       add (2rus)      r2, r3, 0x0
             0x00010be0: 3d 90:       add (2rus)      r3, r3, 0x1
             0x00010be2: 22 4a:       ldw (3r)        r10, r8[r2]
             0x00010be4: 6d 4d:       ldw (3r)        r2, r7[r9]
             0x00010be6: ca fe ec 07: bitrev (l2r)    r2, r2
             0x00010bea: 2a af:       out (r2r)       res[r10], r2
             0x00010bec: 16 92:       add (2rus)      r9, r9, 0x2
             0x00010bee: e6 c3:       lss (3r)        r2, r9, r6
             0x00010bf0: 8a 74:       bt (ru6)        r2, -0xa <.label83>
             0x00010bf2: 80 5c:       ldw (ru6)       r2, sp[0x0]
             0x00010bf4: 39 98:       sub (2rus)      r3, r2, 0x1
             0x00010bf6: db a6:       mkmsk (rus)     r2, 0x3
             0x00010bf8: 2b c8:       lsu (3r)        r2, r2, r3
             0x00010bfa: 91 70:       bt (ru6)        r2, 0x11 <.label84>
             0x00010bfc: e3 2f:       bru (1r)        r3
             0x00010bfe: 07 73:       bu (u6)         0x7 <.label85>
             0x00010c00: 08 73:       bu (u6)         0x8 <.label86>
             0x00010c02: 0d 73:       bu (u6)         0xd <.label84>
             0x00010c04: 08 73:       bu (u6)         0x8 <.label87>
             0x00010c06: 0b 73:       bu (u6)         0xb <.label84>
             0x00010c08: 0a 73:       bu (u6)         0xa <.label84>
             0x00010c0a: 09 73:       bu (u6)         0x9 <.label84>
             0x00010c0c: 06 73:       bu (u6)         0x6 <.label88>
.label85     0x00010c0e: 02 f0 0c 73: bu (lu6)        0x8c <.label89>
.label86     0x00010c12: 02 f0 03 73: bu (lu6)        0x83 <.label90>
.label87     0x00010c16: 01 f0 38 73: bu (lu6)        0x78 <.label91>
.label88     0x00010c1a: 01 f0 29 73: bu (lu6)        0x69 <.label92>
.label84     0x00010c1e: c0 68:       ldc (ru6)       r3, 0x0
             0x00010c20: 55 a7:       mkmsk (rus)     r9, 0x1
             0x00010c22: 00 f0 05 62: ldaw (lru6)     r8, dp[0x5]
             0x00010c26: cc 65:       ldaw (ru6)      r7, sp[0xc]
.label93     0x00010c28: 2c 90:       add (2rus)      r2, r3, 0x0
             0x00010c2a: 3d 90:       add (2rus)      r3, r3, 0x1
             0x00010c2c: 22 4a:       ldw (3r)        r10, r8[r2]
             0x00010c2e: 81 ea:       setc (ru6)      res[r10], 0x1
             0x00010c30: 2a b7:       in (2r)         r2, res[r10]
             0x00010c32: ca fe ec 07: bitrev (l2r)    r2, r2
             0x00010c36: 6d fd ec 07: stw (l3r)       r2, r7[r9]
             0x00010c3a: 16 92:       add (2rus)      r9, r9, 0x2
             0x00010c3c: e6 c3:       lss (3r)        r2, r9, r6
             0x00010c3e: 8c 74:       bt (ru6)        r2, -0xc <.label93>
             0x00010c40: 01 f0 3c 77: bu (lu6)        -0x7c <.label94>
.label67     0x00010c44: d4 86:       inct (2r)       r1, res[r0]
             0x00010c46: c0 b6:       in (2r)         r0, res[r0]
             0x00010c48: 01 5d:       ldw (ru6)       r4, sp[0x1]
             0x00010c4a: 42 5d:       ldw (ru6)       r5, sp[0x2]
             0x00010c4c: 83 5d:       ldw (ru6)       r6, sp[0x3]
             0x00010c4e: c4 5d:       ldw (ru6)       r7, sp[0x4]
             0x00010c50: 05 5e:       ldw (ru6)       r8, sp[0x5]
             0x00010c52: 46 5e:       ldw (ru6)       r9, sp[0x6]
             0x00010c54: 87 5e:       ldw (ru6)       r10, sp[0x7]
             0x00010c56: ce 77:       retsp (u6)      0xe
.label70     0x00010c58: 40 68:       ldc (ru6)       r1, 0x0
             0x00010c5a: 85 af:       out (r2r)       res[r5], r1
             0x00010c5c: f5 87:       syncr (1r)      res[r5]
             0x00010c5e: 8d 3f:       getts (2r)      r3, res[r5]
             0x00010c60: 5e 68:       ldc (ru6)       r1, 0x1e
             0x00010c62: 3d 10:       add (3r)        r3, r3, r1
             0x00010c64: 00 f0 83 58: ldw (lru6)      r2, dp[0x3]
             0x00010c68: de 3e:       setpt (r2r)     res[r2], r3
             0x00010c6a: 40 68:       ldc (ru6)       r1, 0x0
             0x00010c6c: c6 ae:       out (r2r)       res[r2], r1
             0x00010c6e: 9d 3f:       setpt (r2r)     res[r5], r3
             0x00010c70: 00 f0 0a 6d: ldw (lru6)      r4, cp[0xa]
             0x00010c74: c1 af:       out (r2r)       res[r5], r4
             0x00010c76: 00 f0 85 58: ldw (lru6)      r2, dp[0x5]
             0x00010c7a: 1d 98:       sub (2rus)      r1, r3, 0x1
             0x00010c7c: d6 3e:       setpt (r2r)     res[r2], r1
             0x00010c7e: 81 e8:       setc (ru6)      res[r2], 0x1
             0x00010c80: c6 b6:       in (2r)         r1, res[r2]
             0x00010c82: 00 f0 45 58: ldw (lru6)      r1, dp[0x5]
             0x00010c86: 57 e8:       setc (ru6)      res[r1], 0x17
             0x00010c88: 02 f0 22 77: bu (lu6)        -0xa2 <.label95>
.label72     0x00010c8c: d4 86:       inct (2r)       r1, res[r0]
             0x00010c8e: c0 b6:       in (2r)         r0, res[r0]
             0x00010c90: 01 5d:       ldw (ru6)       r4, sp[0x1]
             0x00010c92: 42 5d:       ldw (ru6)       r5, sp[0x2]
             0x00010c94: 83 5d:       ldw (ru6)       r6, sp[0x3]
             0x00010c96: c4 5d:       ldw (ru6)       r7, sp[0x4]
             0x00010c98: 05 5e:       ldw (ru6)       r8, sp[0x5]
             0x00010c9a: 46 5e:       ldw (ru6)       r9, sp[0x6]
             0x00010c9c: 87 5e:       ldw (ru6)       r10, sp[0x7]
             0x00010c9e: ce 77:       retsp (u6)      0xe
.label81     0x00010ca0: 00 f0 8c 6c: ldw (lru6)      r2, cp[0xc]
             0x00010ca4: 89 af:       out (r2r)       res[r5], r2
             0x00010ca6: 00 f0 8d 6c: ldw (lru6)      r2, cp[0xd]
             0x00010caa: c9 ae:       out (r2r)       res[r1], r2
             0x00010cac: c9 ae:       out (r2r)       res[r1], r2
             0x00010cae: c9 ae:       out (r2r)       res[r1], r2
             0x00010cb0: c9 ae:       out (r2r)       res[r1], r2
             0x00010cb2: c9 ae:       out (r2r)       res[r1], r2
             0x00010cb4: c9 ae:       out (r2r)       res[r1], r2
             0x00010cb6: c9 ae:       out (r2r)       res[r1], r2
             0x00010cb8: c9 ae:       out (r2r)       res[r1], r2
             0x00010cba: 02 f0 0b 77: bu (lu6)        -0x8b <.label73>
.label80     0x00010cbe: 00 f0 8c 6c: ldw (lru6)      r2, cp[0xc]
             0x00010cc2: 89 af:       out (r2r)       res[r5], r2
             0x00010cc4: 00 f0 8e 6c: ldw (lru6)      r2, cp[0xe]
             0x00010cc8: c9 ae:       out (r2r)       res[r1], r2
             0x00010cca: c9 ae:       out (r2r)       res[r1], r2
             0x00010ccc: c9 ae:       out (r2r)       res[r1], r2
             0x00010cce: c9 ae:       out (r2r)       res[r1], r2
             0x00010cd0: 02 f0 16 77: bu (lu6)        -0x96 <.label73>
.label79     0x00010cd4: 00 f0 8c 6c: ldw (lru6)      r2, cp[0xc]
             0x00010cd8: 89 af:       out (r2r)       res[r5], r2
             0x00010cda: 00 f0 8b 6c: ldw (lru6)      r2, cp[0xb]
             0x00010cde: c9 ae:       out (r2r)       res[r1], r2
             0x00010ce0: c9 ae:       out (r2r)       res[r1], r2
             0x00010ce2: 02 f0 1f 77: bu (lu6)        -0x9f <.label73>
.label78     0x00010ce6: 00 f0 8c 6c: ldw (lru6)      r2, cp[0xc]
             0x00010cea: 89 af:       out (r2r)       res[r5], r2
             0x00010cec: 02 f0 24 77: bu (lu6)        -0xa4 <.label73>
.label92     0x00010cf0: c1 af:       out (r2r)       res[r5], r4
             0x00010cf2: 00 f0 8d 6c: ldw (lru6)      r2, cp[0xd]
             0x00010cf6: c9 ae:       out (r2r)       res[r1], r2
             0x00010cf8: c9 ae:       out (r2r)       res[r1], r2
             0x00010cfa: c9 ae:       out (r2r)       res[r1], r2
             0x00010cfc: c9 ae:       out (r2r)       res[r1], r2
             0x00010cfe: c9 ae:       out (r2r)       res[r1], r2
             0x00010d00: c9 ae:       out (r2r)       res[r1], r2
             0x00010d02: c9 ae:       out (r2r)       res[r1], r2
             0x00010d04: c9 ae:       out (r2r)       res[r1], r2
             0x00010d06: 01 f0 36 77: bu (lu6)        -0x76 <.label84>
.label91     0x00010d0a: c1 af:       out (r2r)       res[r5], r4
             0x00010d0c: 00 f0 8e 6c: ldw (lru6)      r2, cp[0xe]
             0x00010d10: c9 ae:       out (r2r)       res[r1], r2
             0x00010d12: c9 ae:       out (r2r)       res[r1], r2
             0x00010d14: c9 ae:       out (r2r)       res[r1], r2
             0x00010d16: c9 ae:       out (r2r)       res[r1], r2
             0x00010d18: 01 f0 3f 77: bu (lu6)        -0x7f <.label84>
.label90     0x00010d1c: c1 af:       out (r2r)       res[r5], r4
             0x00010d1e: 00 f0 8b 6c: ldw (lru6)      r2, cp[0xb]
             0x00010d22: c9 ae:       out (r2r)       res[r1], r2
             0x00010d24: c9 ae:       out (r2r)       res[r1], r2
             0x00010d26: 02 f0 06 77: bu (lu6)        -0x86 <.label84>
.label89     0x00010d2a: c1 af:       out (r2r)       res[r5], r4
             0x00010d2c: 02 f0 09 77: bu (lu6)        -0x89 <.label84>
             0x00010d30: 00 90:       add (2rus)      r0, r0, 0x0
             0x00010d32: 00 90:       add (2rus)      r0, r0, 0x0

<audio>:
             0x00010d34: 44 77:       entsp (u6)      0x4
             0x00010d36: 90 90:       add (2rus)      r9, r0, 0x0
             0x00010d38: 41 54:       stw (ru6)       r1, sp[0x1]
             0x00010d3a: 82 54:       stw (ru6)       r2, sp[0x2]
             0x00010d3c: c6 86:       getr (rus)      r1, 0x2
             0x00010d3e: fc f3 0c 68: ldc (lru6)      r0, 0xff0c
             0x00010d42: d1 16:       setd (r2r)      res[r1], r0
             0x00010d44: 43 54:       stw (ru6)       r1, sp[0x3]
             0x00010d46: 51 a7:       mkmsk (rus)     r8, 0x1
             0x00010d48: 01 f0 12 d4: bl (lu10)       -0x412 <ClockingInit>
             0x00010d4c: 02 5c:       ldw (ru6)       r0, sp[0x2]
             0x00010d4e: 01 f0 11 d4: bl (lu10)       -0x411 <CodecInit>
             0x00010d52: c0 69:       ldc (ru6)       r7, 0x0
             0x00010d54: 00 f0 4f 6d: ldw (lru6)      r5, cp[0xf]
             0x00010d58: 00 f0 90 6d: ldw (lru6)      r6, cp[0x10]
.label99     0x00010d5c: 00 f0 0f 58: ldw (lru6)      r0, dp[0xf]
             0x00010d60: 58 f1 62 68: ldc (lru6)      r1, 0x5622
             0x00010d64: 11 f8 ec cf: remu (l3r)      r1, r0, r1
             0x00010d68: 6b 78:       bf (ru6)        r1, 0x2b <.label96>
             0x00010d6a: 77 f1 40 68: ldc (lru6)      r1, 0x5dc0
             0x00010d6e: 11 f8 ec cf: remu (l3r)      r1, r0, r1
             0x00010d72: 69 78:       bf (ru6)        r1, 0x29 <.label97>
.label102    0x00010d74: 42 a2:       shl (2rus)      r0, r0, 0x6
             0x00010d76: 60 f9 ec 4f: divu (l3r)      r10, r4, r0
             0x00010d7a: c0 90:       add (2rus)      r0, r4, 0x0
             0x00010d7c: 01 f0 2a d4: bl (lu10)       -0x42a <ClockingConfig>
             0x00010d80: 25 7a:       bf (ru6)        r8, 0x25 <.label98>
.label104    0x00010d82: 4c 91:       add (2rus)      r8, r7, 0x0
             0x00010d84: 00 f0 0f 58: ldw (lru6)      r0, dp[0xf]
             0x00010d88: d0 90:       add (2rus)      r1, r4, 0x0
             0x00010d8a: 82 5c:       ldw (ru6)       r2, sp[0x2]
             0x00010d8c: 01 f0 2e d4: bl (lu10)       -0x42e <CodecConfig>
             0x00010d90: 88 91:       add (2rus)      r0, r10, 0x0
             0x00010d92: 02 f0 8f d1: bl (lu10)       0x98f <ConfigAudioPorts>
             0x00010d96: a8 91:       add (2rus)      r2, r10, 0x0
             0x00010d98: 84 91:       add (2rus)      r0, r9, 0x0
             0x00010d9a: 43 5c:       ldw (ru6)       r1, sp[0x3]
             0x00010d9c: c1 5c:       ldw (ru6)       r3, sp[0x1]
             0x00010d9e: 7e d5:       bl (u10)        -0x17e <deliver>
             0x00010da0: 00 f0 0f 50: stw (lru6)      r0, dp[0xf]
             0x00010da4: 00 f0 0f 58: ldw (lru6)      r0, dp[0xf]
             0x00010da8: 41 32:       eq (3r)         r0, r0, r5
             0x00010daa: 28 7c:       bf (ru6)        r0, -0x28 <.label99>
             0x00010dac: 55 4f:       outct (rus)     res[r9], 0x1
.label101    0x00010dae: 6d af:       out (r2r)       res[r9], r7
             0x00010db0: 31 bf:       testct (2r)     r0, res[r9]
             0x00010db2: 17 70:       bt (ru6)        r0, 0x17 <.label100>
             0x00010db4: 21 b7:       in (2r)         r0, res[r9]
             0x00010db6: 6d af:       out (r2r)       res[r9], r7
             0x00010db8: 6d af:       out (r2r)       res[r9], r7
             0x00010dba: 21 b7:       in (2r)         r0, res[r9]
             0x00010dbc: 21 b7:       in (2r)         r0, res[r9]
             0x00010dbe: 09 77:       bu (u6)         -0x9 <.label101>
.label96     0x00010dc0: 00 f0 11 6d: ldw (lru6)      r4, cp[0x11]
             0x00010dc4: 29 77:       bu (u6)         -0x29 <.label102>
.label97     0x00010dc6: 00 f0 12 6d: ldw (lru6)      r4, cp[0x12]
             0x00010dca: 2c 77:       bu (u6)         -0x2c <.label102>
.label98     0x00010dcc: 00 f0 0f 58: ldw (lru6)      r0, dp[0xf]
             0x00010dd0: 00 f0 53 6c: ldw (lru6)      r1, cp[0x13]
             0x00010dd4: 11 30:       eq (3r)         r1, r0, r1
             0x00010dd6: 41 78:       bf (ru6)        r1, 0x1 <.label103>
.label105    0x00010dd8: 2c 77:       bu (u6)         -0x2c <.label104>
.label103    0x00010dda: 41 32:       eq (3r)         r0, r0, r5
             0x00010ddc: 03 74:       bt (ru6)        r0, -0x3 <.label105>
             0x00010dde: 55 4f:       outct (rus)     res[r9], 0x1
             0x00010de0: 05 77:       bu (u6)         -0x5 <.label105>
.label100    0x00010de2: 31 87:       inct (2r)       r0, res[r9]
             0x00010de4: 21 b7:       in (2r)         r0, res[r9]
             0x00010de6: 00 f0 0f 50: stw (lru6)      r0, dp[0xf]
             0x00010dea: 00 f0 0f 58: ldw (lru6)      r0, dp[0xf]
             0x00010dee: 42 32:       eq (3r)         r0, r0, r6
             0x00010df0: 22 7c:       bf (ru6)        r0, -0x22 <.label101>
             0x00010df2: 55 4f:       outct (rus)     res[r9], 0x1
             0x00010df4: 01 f0 0e 77: bu (lu6)        -0x4e <.label99>
             0x00010df8: 00 90:       add (2rus)      r0, r0, 0x0
             0x00010dfa: 00 90:       add (2rus)      r0, r0, 0x0

<storeFreq>:
             0x00010dfc: 43 77:       entsp (u6)      0x3
             0x00010dfe: 00 55:       stw (ru6)       r4, sp[0x0]
             0x00010e00: 41 55:       stw (ru6)       r5, sp[0x1]
             0x00010e02: 82 55:       stw (ru6)       r6, sp[0x2]
             0x00010e04: 54 08:       ldw (2rus)      r5, r1[0x0]
             0x00010e06: ea fc ec 97: ashr (l2rus)    r6, r2, 0x18
             0x00010e0a: 07 91:       add (2rus)      r4, r5, 0x3
             0x00010e0c: 73 c9:       lsu (3r)        r11, r4, r3
             0x00010e0e: eb 4f:       ecallf (1r)     r11
             0x00010e10: a0 fa ec 8f: st8 (l3r)       r6, r0[r4]
             0x00010e14: e9 fc ec 97: ashr (l2rus)    r6, r2, 0x10
             0x00010e18: 06 91:       add (2rus)      r4, r5, 0x2
             0x00010e1a: 73 c9:       lsu (3r)        r11, r4, r3
             0x00010e1c: eb 4f:       ecallf (1r)     r11
             0x00010e1e: a0 fa ec 8f: st8 (l3r)       r6, r0[r4]
             0x00010e22: e8 fc ec 97: ashr (l2rus)    r6, r2, 0x8
             0x00010e26: 05 91:       add (2rus)      r4, r5, 0x1
             0x00010e28: 73 c9:       lsu (3r)        r11, r4, r3
             0x00010e2a: eb 4f:       ecallf (1r)     r11
             0x00010e2c: a0 fa ec 8f: st8 (l3r)       r6, r0[r4]
             0x00010e30: 07 c9:       lsu (3r)        r4, r5, r3
             0x00010e32: e4 4f:       ecallf (1r)     r4
             0x00010e34: 61 fa ec 8f: st8 (l3r)       r2, r0[r5]
             0x00010e38: 44 08:       ldw (2rus)      r4, r1[0x0]
             0x00010e3a: 40 93:       add (2rus)      r4, r4, 0x4
             0x00010e3c: 44 00:       stw (2rus)      r4, r1[0x0]
             0x00010e3e: 54 08:       ldw (2rus)      r5, r1[0x0]
             0x00010e40: ea fc ec 97: ashr (l2rus)    r6, r2, 0x18
             0x00010e44: 07 91:       add (2rus)      r4, r5, 0x3
             0x00010e46: 73 c9:       lsu (3r)        r11, r4, r3
             0x00010e48: eb 4f:       ecallf (1r)     r11
             0x00010e4a: a0 fa ec 8f: st8 (l3r)       r6, r0[r4]
             0x00010e4e: e9 fc ec 97: ashr (l2rus)    r6, r2, 0x10
             0x00010e52: 06 91:       add (2rus)      r4, r5, 0x2
             0x00010e54: 73 c9:       lsu (3r)        r11, r4, r3
             0x00010e56: eb 4f:       ecallf (1r)     r11
             0x00010e58: a0 fa ec 8f: st8 (l3r)       r6, r0[r4]
             0x00010e5c: e8 fc ec 97: ashr (l2rus)    r6, r2, 0x8
             0x00010e60: 05 91:       add (2rus)      r4, r5, 0x1
             0x00010e62: 73 c9:       lsu (3r)        r11, r4, r3
             0x00010e64: eb 4f:       ecallf (1r)     r11
             0x00010e66: a0 fa ec 8f: st8 (l3r)       r6, r0[r4]
             0x00010e6a: 07 c9:       lsu (3r)        r4, r5, r3
             0x00010e6c: e4 4f:       ecallf (1r)     r4
             0x00010e6e: 61 fa ec 8f: st8 (l3r)       r2, r0[r5]
             0x00010e72: 24 08:       ldw (2rus)      r2, r1[0x0]
             0x00010e74: 68 92:       add (2rus)      r2, r2, 0x4
             0x00010e76: 24 00:       stw (2rus)      r2, r1[0x0]
             0x00010e78: 44 08:       ldw (2rus)      r4, r1[0x0]
             0x00010e7a: 40 69:       ldc (ru6)       r5, 0x0
             0x00010e7c: a6 fd ec 97: ashr (l2rus)    r6, r5, 0x18
             0x00010e80: e3 90:       add (2rus)      r2, r4, 0x3
             0x00010e82: bb c8:       lsu (3r)        r11, r2, r3
             0x00010e84: eb 4f:       ecallf (1r)     r11
             0x00010e86: 62 f8 ec 8f: st8 (l3r)       r6, r0[r2]
             0x00010e8a: a5 fd ec 97: ashr (l2rus)    r6, r5, 0x10
             0x00010e8e: e2 90:       add (2rus)      r2, r4, 0x2
             0x00010e90: bb c8:       lsu (3r)        r11, r2, r3
             0x00010e92: eb 4f:       ecallf (1r)     r11
             0x00010e94: 62 f8 ec 8f: st8 (l3r)       r6, r0[r2]
             0x00010e98: a4 fd ec 97: ashr (l2rus)    r6, r5, 0x8
             0x00010e9c: e1 90:       add (2rus)      r2, r4, 0x1
             0x00010e9e: bb c8:       lsu (3r)        r11, r2, r3
             0x00010ea0: eb 4f:       ecallf (1r)     r11
             0x00010ea2: 62 f8 ec 8f: st8 (l3r)       r6, r0[r2]
             0x00010ea6: e3 c8:       lsu (3r)        r2, r4, r3
             0x00010ea8: e2 4f:       ecallf (1r)     r2
             0x00010eaa: 90 fa ec 8f: st8 (l3r)       r5, r0[r4]
             0x00010eae: 04 08:       ldw (2rus)      r0, r1[0x0]
             0x00010eb0: 40 92:       add (2rus)      r0, r0, 0x4
             0x00010eb2: 04 00:       stw (2rus)      r0, r1[0x0]
             0x00010eb4: 00 5d:       ldw (ru6)       r4, sp[0x0]
             0x00010eb6: 41 5d:       ldw (ru6)       r5, sp[0x1]
             0x00010eb8: 82 5d:       ldw (ru6)       r6, sp[0x2]
             0x00010eba: c3 77:       retsp (u6)      0x3
             0x00010ebc: 00 90:       add (2rus)      r0, r0, 0x0
             0x00010ebe: 00 90:       add (2rus)      r0, r0, 0x0

<updateMasterVol>:
             0x00010ec0: 48 77:       entsp (u6)      0x8
             0x00010ec2: 01 55:       stw (ru6)       r4, sp[0x1]
             0x00010ec4: 42 55:       stw (ru6)       r5, sp[0x2]
             0x00010ec6: 83 55:       stw (ru6)       r6, sp[0x3]
             0x00010ec8: c4 55:       stw (ru6)       r7, sp[0x4]
             0x00010eca: 05 56:       stw (ru6)       r8, sp[0x5]
             0x00010ecc: 46 56:       stw (ru6)       r9, sp[0x6]
             0x00010ece: 87 56:       stw (ru6)       r10, sp[0x7]
             0x00010ed0: 92 b4:       eq (2rus)       r1, r0, 0xa
             0x00010ed2: 4b 70:       bt (ru6)        r1, 0xb <.label106>
             0x00010ed4: 83 b4:       eq (2rus)       r0, r0, 0xb
             0x00010ed6: 01 f0 1a 70: bt (lru6)       r0, 0x5a <.label107>
.label111    0x00010eda: 01 5d:       ldw (ru6)       r4, sp[0x1]
             0x00010edc: 42 5d:       ldw (ru6)       r5, sp[0x2]
             0x00010ede: 83 5d:       ldw (ru6)       r6, sp[0x3]
             0x00010ee0: c4 5d:       ldw (ru6)       r7, sp[0x4]
             0x00010ee2: 05 5e:       ldw (ru6)       r8, sp[0x5]
             0x00010ee4: 46 5e:       ldw (ru6)       r9, sp[0x6]
             0x00010ee6: 87 5e:       ldw (ru6)       r10, sp[0x7]
             0x00010ee8: c8 77:       retsp (u6)      0x8
.label106    0x00010eea: 59 a7:       mkmsk (rus)     r10, 0x1
             0x00010eec: 80 69:       ldc (ru6)       r6, 0x0
             0x00010eee: 00 f2 40 69: ldc (lru6)      r5, 0x8000
             0x00010ef2: 12 f0 29 61: ldaw (lru6)     r4, dp[0x4a9]
             0x00010ef6: 12 f0 26 62: ldaw (lru6)     r8, dp[0x4a6]
             0x00010efa: 34 f0 ef 61: ldaw (lru6)     r7, dp[0xd2f]
.label110    0x00010efe: 00 f0 1d 6c: ldw (lru6)      r0, cp[0x1d]
             0x00010f02: c8 c8:       lsu (3r)        r0, r6, r0
             0x00010f04: e0 4f:       ecallf (1r)     r0
             0x00010f06: 12 f0 29 58: ldw (lru6)      r0, dp[0x4a9]
             0x00010f0a: 41 32:       eq (3r)         r0, r0, r5
             0x00010f0c: 3c 70:       bt (ru6)        r0, 0x3c <.label108>
             0x00010f0e: 00 f0 1d 6c: ldw (lru6)      r0, cp[0x1d]
             0x00010f12: c8 c8:       lsu (3r)        r0, r6, r0
             0x00010f14: e0 4f:       ecallf (1r)     r0
             0x00010f16: 12 f0 29 58: ldw (lru6)      r0, dp[0x4a9]
             0x00010f1a: 48 68:       ldc (ru6)       r1, 0x8
             0x00010f1c: 9d 68:       ldc (ru6)       r2, 0x1d
             0x00010f1e: 01 f0 17 d1: bl (lu10)       0x517 <db_to_mult>
             0x00010f22: 90 90:       add (2rus)      r9, r0, 0x0
.label112    0x00010f24: 00 f0 1d 6c: ldw (lru6)      r0, cp[0x1d]
             0x00010f28: 88 c9:       lsu (3r)        r0, r10, r0
             0x00010f2a: e0 4f:       ecallf (1r)     r0
             0x00010f2c: 42 4d:       ldw (3r)        r0, r4[r10]
             0x00010f2e: 41 32:       eq (3r)         r0, r0, r5
             0x00010f30: 2c 70:       bt (ru6)        r0, 0x2c <.label109>
             0x00010f32: 00 f0 1d 6c: ldw (lru6)      r0, cp[0x1d]
             0x00010f36: 88 c9:       lsu (3r)        r0, r10, r0
             0x00010f38: e0 4f:       ecallf (1r)     r0
             0x00010f3a: 42 4d:       ldw (3r)        r0, r4[r10]
             0x00010f3c: 48 68:       ldc (ru6)       r1, 0x8
             0x00010f3e: 9d 68:       ldc (ru6)       r2, 0x1d
             0x00010f40: 01 f0 06 d1: bl (lu10)       0x506 <db_to_mult>
.label113    0x00010f44: 84 f9 2a 03: lmul (l6r)      r0, r2, r9, r0, r6, r6
             0x00010f48: 13 a0:       shl (2rus)      r1, r0, 0x3
             0x00010f4a: 1d 68:       ldc (ru6)       r0, 0x1d
             0x00010f4c: 08 28:       shr (3r)        r0, r2, r0
             0x00010f4e: 14 40:       or (3r)         r1, r1, r0
             0x00010f50: 00 f0 1c 6c: ldw (lru6)      r0, cp[0x1c]
             0x00010f54: c8 c8:       lsu (3r)        r0, r6, r0
             0x00010f56: e0 4f:       ecallf (1r)     r0
             0x00010f58: 12 f0 26 58: ldw (lru6)      r0, dp[0x4a6]
             0x00010f5c: 00 b0:       eq (2rus)       r0, r0, 0x0
             0x00010f5e: 14 f8 ec 3f: mul (l3r)       r1, r1, r0
             0x00010f62: 00 f0 1c 6c: ldw (lru6)      r0, cp[0x1c]
             0x00010f66: 88 c9:       lsu (3r)        r0, r10, r0
             0x00010f68: e0 4f:       ecallf (1r)     r0
             0x00010f6a: 02 4e:       ldw (3r)        r0, r8[r10]
             0x00010f6c: 00 b0:       eq (2rus)       r0, r0, 0x0
             0x00010f6e: 04 f8 ec 3f: mul (l3r)       r0, r1, r0
             0x00010f72: 99 99:       sub (2rus)      r1, r10, 0x1
             0x00010f74: cd f8 ec 07: stw (l3r)       r0, r7[r1]
             0x00010f78: 29 92:       add (2rus)      r10, r10, 0x1
             0x00010f7a: d2 a6:       mkmsk (rus)     r0, 0x2
             0x00010f7c: 88 c1:       lss (3r)        r0, r10, r0
             0x00010f7e: 01 f0 02 74: bt (lru6)       r0, -0x42 <.label110>
             0x00010f82: 01 f0 16 77: bu (lu6)        -0x56 <.label111>
.label108    0x00010f86: 58 91:       add (2rus)      r9, r6, 0x0
             0x00010f88: 33 77:       bu (u6)         -0x33 <.label112>
.label109    0x00010f8a: c8 90:       add (2rus)      r0, r6, 0x0
             0x00010f8c: 25 77:       bu (u6)         -0x25 <.label113>
.label107    0x00010f8e: 51 a7:       mkmsk (rus)     r8, 0x1
             0x00010f90: 80 69:       ldc (ru6)       r6, 0x0
             0x00010f92: 00 f2 40 69: ldc (lru6)      r5, 0x8000
             0x00010f96: 12 f0 23 61: ldaw (lru6)     r4, dp[0x4a3]
             0x00010f9a: 12 f0 60 62: ldaw (lru6)     r9, dp[0x4a0]
             0x00010f9e: 34 f0 ec 61: ldaw (lru6)     r7, dp[0xd2c]
.label116    0x00010fa2: 00 f0 1b 6c: ldw (lru6)      r0, cp[0x1b]
             0x00010fa6: c8 c8:       lsu (3r)        r0, r6, r0
             0x00010fa8: e0 4f:       ecallf (1r)     r0
             0x00010faa: 12 f0 23 58: ldw (lru6)      r0, dp[0x4a3]
             0x00010fae: 41 32:       eq (3r)         r0, r0, r5
             0x00010fb0: 3c 70:       bt (ru6)        r0, 0x3c <.label114>
             0x00010fb2: 00 f0 1b 6c: ldw (lru6)      r0, cp[0x1b]
             0x00010fb6: c8 c8:       lsu (3r)        r0, r6, r0
             0x00010fb8: e0 4f:       ecallf (1r)     r0
             0x00010fba: 12 f0 23 58: ldw (lru6)      r0, dp[0x4a3]
             0x00010fbe: 48 68:       ldc (ru6)       r1, 0x8
             0x00010fc0: 9d 68:       ldc (ru6)       r2, 0x1d
             0x00010fc2: 01 f0 c5 d0: bl (lu10)       0x4c5 <db_to_mult>
             0x00010fc6: a0 90:       add (2rus)      r10, r0, 0x0
.label117    0x00010fc8: 00 f0 1b 6c: ldw (lru6)      r0, cp[0x1b]
             0x00010fcc: 80 c9:       lsu (3r)        r0, r8, r0
             0x00010fce: e0 4f:       ecallf (1r)     r0
             0x00010fd0: 40 4d:       ldw (3r)        r0, r4[r8]
             0x00010fd2: 41 32:       eq (3r)         r0, r0, r5
             0x00010fd4: 2c 70:       bt (ru6)        r0, 0x2c <.label115>
             0x00010fd6: 00 f0 1b 6c: ldw (lru6)      r0, cp[0x1b]
             0x00010fda: 80 c9:       lsu (3r)        r0, r8, r0
             0x00010fdc: e0 4f:       ecallf (1r)     r0
             0x00010fde: 40 4d:       ldw (3r)        r0, r4[r8]
             0x00010fe0: 48 68:       ldc (ru6)       r1, 0x8
             0x00010fe2: 9d 68:       ldc (ru6)       r2, 0x1d
             0x00010fe4: 01 f0 b4 d0: bl (lu10)       0x4b4 <db_to_mult>
.label118    0x00010fe8: 88 f9 2a 03: lmul (l6r)      r0, r2, r10, r0, r6, r6
             0x00010fec: 13 a0:       shl (2rus)      r1, r0, 0x3
             0x00010fee: 1d 68:       ldc (ru6)       r0, 0x1d
             0x00010ff0: 08 28:       shr (3r)        r0, r2, r0
             0x00010ff2: 14 40:       or (3r)         r1, r1, r0
             0x00010ff4: 00 f0 1a 6c: ldw (lru6)      r0, cp[0x1a]
             0x00010ff8: c8 c8:       lsu (3r)        r0, r6, r0
             0x00010ffa: e0 4f:       ecallf (1r)     r0
             0x00010ffc: 12 f0 20 58: ldw (lru6)      r0, dp[0x4a0]
             0x00011000: 00 b0:       eq (2rus)       r0, r0, 0x0
             0x00011002: 14 f8 ec 3f: mul (l3r)       r1, r1, r0
             0x00011006: 00 f0 1a 6c: ldw (lru6)      r0, cp[0x1a]
             0x0001100a: 80 c9:       lsu (3r)        r0, r8, r0
             0x0001100c: e0 4f:       ecallf (1r)     r0
             0x0001100e: 04 4e:       ldw (3r)        r0, r9[r8]
             0x00011010: 00 b0:       eq (2rus)       r0, r0, 0x0
             0x00011012: 04 f8 ec 3f: mul (l3r)       r0, r1, r0
             0x00011016: 91 99:       sub (2rus)      r1, r8, 0x1
             0x00011018: cd f8 ec 07: stw (l3r)       r0, r7[r1]
             0x0001101c: 01 92:       add (2rus)      r8, r8, 0x1
             0x0001101e: d2 a6:       mkmsk (rus)     r0, 0x2
             0x00011020: 80 c1:       lss (3r)        r0, r8, r0
             0x00011022: 01 f0 02 74: bt (lru6)       r0, -0x42 <.label116>
             0x00011026: 02 f0 28 77: bu (lu6)        -0xa8 <.label111>
.label114    0x0001102a: 68 91:       add (2rus)      r10, r6, 0x0
             0x0001102c: 33 77:       bu (u6)         -0x33 <.label117>
.label115    0x0001102e: c8 90:       add (2rus)      r0, r6, 0x0
             0x00011030: 25 77:       bu (u6)         -0x25 <.label118>
             0x00011032: 00 90:       add (2rus)      r0, r0, 0x0

<updateVol>:
             0x00011034: 45 77:       entsp (u6)      0x5
             0x00011036: 01 55:       stw (ru6)       r4, sp[0x1]
             0x00011038: 42 55:       stw (ru6)       r5, sp[0x2]
             0x0001103a: 83 55:       stw (ru6)       r6, sp[0x3]
             0x0001103c: c4 55:       stw (ru6)       r7, sp[0x4]
             0x0001103e: 74 90:       add (2rus)      r7, r1, 0x0
             0x00011040: 4a 78:       bf (ru6)        r1, 0xa <.label119>
             0x00011042: 92 b4:       eq (2rus)       r1, r0, 0xa
             0x00011044: 4b 70:       bt (ru6)        r1, 0xb <.label120>
             0x00011046: 83 b4:       eq (2rus)       r0, r0, 0xb
             0x00011048: 01 f0 14 70: bt (lru6)       r0, 0x54 <.label121>
.label122    0x0001104c: 01 5d:       ldw (ru6)       r4, sp[0x1]
             0x0001104e: 42 5d:       ldw (ru6)       r5, sp[0x2]
             0x00011050: 83 5d:       ldw (ru6)       r6, sp[0x3]
             0x00011052: c4 5d:       ldw (ru6)       r7, sp[0x4]
             0x00011054: c5 77:       retsp (u6)      0x5
.label119    0x00011056: 18 90:       add (2rus)      r1, r2, 0x0
             0x00011058: cd d4:       bl (u10)        -0xcd <updateMasterVol>
             0x0001105a: 08 77:       bu (u6)         -0x8 <.label122>
.label120    0x0001105c: 00 f0 1d 6c: ldw (lru6)      r0, cp[0x1d]
             0x00011060: 40 69:       ldc (ru6)       r5, 0x0
             0x00011062: c4 c8:       lsu (3r)        r0, r5, r0
             0x00011064: e0 4f:       ecallf (1r)     r0
             0x00011066: 12 f0 29 58: ldw (lru6)      r0, dp[0x4a9]
             0x0001106a: 00 f2 00 69: ldc (lru6)      r4, 0x8000
             0x0001106e: 40 32:       eq (3r)         r0, r0, r4
             0x00011070: 3d 70:       bt (ru6)        r0, 0x3d <.label123>
             0x00011072: 00 f0 1d 6c: ldw (lru6)      r0, cp[0x1d]
             0x00011076: c4 c8:       lsu (3r)        r0, r5, r0
             0x00011078: e0 4f:       ecallf (1r)     r0
             0x0001107a: 12 f0 29 58: ldw (lru6)      r0, dp[0x4a9]
             0x0001107e: 48 68:       ldc (ru6)       r1, 0x8
             0x00011080: 9d 68:       ldc (ru6)       r2, 0x1d
             0x00011082: 01 f0 65 d0: bl (lu10)       0x465 <db_to_mult>
             0x00011086: 60 90:       add (2rus)      r6, r0, 0x0
.label125    0x00011088: 12 f0 69 60: ldaw (lru6)     r1, dp[0x4a9]
             0x0001108c: 00 f0 9d 6c: ldw (lru6)      r2, cp[0x1d]
             0x00011090: ce c8:       lsu (3r)        r0, r7, r2
             0x00011092: e0 4f:       ecallf (1r)     r0
             0x00011094: 47 4a:       ldw (3r)        r0, r1[r7]
             0x00011096: 40 32:       eq (3r)         r0, r0, r4
             0x00011098: 2b 70:       bt (ru6)        r0, 0x2b <.label124>
             0x0001109a: 00 f0 9d 6c: ldw (lru6)      r2, cp[0x1d]
             0x0001109e: ce c8:       lsu (3r)        r0, r7, r2
             0x000110a0: e0 4f:       ecallf (1r)     r0
             0x000110a2: 47 4a:       ldw (3r)        r0, r1[r7]
             0x000110a4: 48 68:       ldc (ru6)       r1, 0x8
             0x000110a6: 9d 68:       ldc (ru6)       r2, 0x1d
             0x000110a8: 01 f0 52 d0: bl (lu10)       0x452 <db_to_mult>
.label126    0x000110ac: c8 f8 25 03: lmul (l6r)      r0, r2, r6, r0, r5, r5
             0x000110b0: 13 a0:       shl (2rus)      r1, r0, 0x3
             0x000110b2: 1d 68:       ldc (ru6)       r0, 0x1d
             0x000110b4: 08 28:       shr (3r)        r0, r2, r0
             0x000110b6: 14 40:       or (3r)         r1, r1, r0
             0x000110b8: 00 f0 1c 6c: ldw (lru6)      r0, cp[0x1c]
             0x000110bc: c4 c8:       lsu (3r)        r0, r5, r0
             0x000110be: e0 4f:       ecallf (1r)     r0
             0x000110c0: 12 f0 26 58: ldw (lru6)      r0, dp[0x4a6]
             0x000110c4: 00 b0:       eq (2rus)       r0, r0, 0x0
             0x000110c6: 24 f8 ec 3f: mul (l3r)       r2, r1, r0
             0x000110ca: 12 f0 66 60: ldaw (lru6)     r1, dp[0x4a6]
             0x000110ce: 00 f0 1c 6c: ldw (lru6)      r0, cp[0x1c]
             0x000110d2: cc c8:       lsu (3r)        r0, r7, r0
             0x000110d4: e0 4f:       ecallf (1r)     r0
             0x000110d6: 47 4a:       ldw (3r)        r0, r1[r7]
             0x000110d8: 00 b0:       eq (2rus)       r0, r0, 0x0
             0x000110da: 08 f8 ec 3f: mul (l3r)       r0, r2, r0
             0x000110de: 34 f0 af 60: ldaw (lru6)     r2, dp[0xd2f]
             0x000110e2: dd 98:       sub (2rus)      r1, r7, 0x1
             0x000110e4: 09 f8 ec 07: stw (l3r)       r0, r2[r1]
             0x000110e8: 01 f0 10 77: bu (lu6)        -0x50 <.label122>
.label123    0x000110ec: 24 91:       add (2rus)      r6, r5, 0x0
             0x000110ee: 34 77:       bu (u6)         -0x34 <.label125>
.label124    0x000110f0: c4 90:       add (2rus)      r0, r5, 0x0
             0x000110f2: 24 77:       bu (u6)         -0x24 <.label126>
.label121    0x000110f4: 00 f0 1b 6c: ldw (lru6)      r0, cp[0x1b]
             0x000110f8: 40 69:       ldc (ru6)       r5, 0x0
             0x000110fa: c4 c8:       lsu (3r)        r0, r5, r0
             0x000110fc: e0 4f:       ecallf (1r)     r0
             0x000110fe: 12 f0 23 58: ldw (lru6)      r0, dp[0x4a3]
             0x00011102: 00 f2 00 69: ldc (lru6)      r4, 0x8000
             0x00011106: 40 32:       eq (3r)         r0, r0, r4
             0x00011108: 3d 70:       bt (ru6)        r0, 0x3d <.label127>
             0x0001110a: 00 f0 1b 6c: ldw (lru6)      r0, cp[0x1b]
             0x0001110e: c4 c8:       lsu (3r)        r0, r5, r0
             0x00011110: e0 4f:       ecallf (1r)     r0
             0x00011112: 12 f0 23 58: ldw (lru6)      r0, dp[0x4a3]
             0x00011116: 48 68:       ldc (ru6)       r1, 0x8
             0x00011118: 9d 68:       ldc (ru6)       r2, 0x1d
             0x0001111a: 01 f0 19 d0: bl (lu10)       0x419 <db_to_mult>
             0x0001111e: 60 90:       add (2rus)      r6, r0, 0x0
.label129    0x00011120: 12 f0 63 60: ldaw (lru6)     r1, dp[0x4a3]
             0x00011124: 00 f0 1b 6c: ldw (lru6)      r0, cp[0x1b]
             0x00011128: cc c8:       lsu (3r)        r0, r7, r0
             0x0001112a: e0 4f:       ecallf (1r)     r0
             0x0001112c: 47 4a:       ldw (3r)        r0, r1[r7]
             0x0001112e: 40 32:       eq (3r)         r0, r0, r4
             0x00011130: 2b 70:       bt (ru6)        r0, 0x2b <.label128>
             0x00011132: 00 f0 1b 6c: ldw (lru6)      r0, cp[0x1b]
             0x00011136: cc c8:       lsu (3r)        r0, r7, r0
             0x00011138: e0 4f:       ecallf (1r)     r0
             0x0001113a: 47 4a:       ldw (3r)        r0, r1[r7]
             0x0001113c: 48 68:       ldc (ru6)       r1, 0x8
             0x0001113e: 9d 68:       ldc (ru6)       r2, 0x1d
             0x00011140: 01 f0 06 d0: bl (lu10)       0x406 <db_to_mult>
.label130    0x00011144: c8 f8 25 03: lmul (l6r)      r0, r2, r6, r0, r5, r5
             0x00011148: 13 a0:       shl (2rus)      r1, r0, 0x3
             0x0001114a: 1d 68:       ldc (ru6)       r0, 0x1d
             0x0001114c: 08 28:       shr (3r)        r0, r2, r0
             0x0001114e: 14 40:       or (3r)         r1, r1, r0
             0x00011150: 00 f0 1a 6c: ldw (lru6)      r0, cp[0x1a]
             0x00011154: c4 c8:       lsu (3r)        r0, r5, r0
             0x00011156: e0 4f:       ecallf (1r)     r0
             0x00011158: 12 f0 20 58: ldw (lru6)      r0, dp[0x4a0]
             0x0001115c: 00 b0:       eq (2rus)       r0, r0, 0x0
             0x0001115e: 24 f8 ec 3f: mul (l3r)       r2, r1, r0
             0x00011162: 12 f0 60 60: ldaw (lru6)     r1, dp[0x4a0]
             0x00011166: 00 f0 1a 6c: ldw (lru6)      r0, cp[0x1a]
             0x0001116a: cc c8:       lsu (3r)        r0, r7, r0
             0x0001116c: e0 4f:       ecallf (1r)     r0
             0x0001116e: 47 4a:       ldw (3r)        r0, r1[r7]
             0x00011170: 00 b0:       eq (2rus)       r0, r0, 0x0
             0x00011172: 08 f8 ec 3f: mul (l3r)       r0, r2, r0
             0x00011176: 34 f0 ac 60: ldaw (lru6)     r2, dp[0xd2c]
             0x0001117a: dd 98:       sub (2rus)      r1, r7, 0x1
             0x0001117c: 09 f8 ec 07: stw (l3r)       r0, r2[r1]
             0x00011180: 02 f0 1c 77: bu (lu6)        -0x9c <.label122>
.label127    0x00011184: 24 91:       add (2rus)      r6, r5, 0x0
             0x00011186: 34 77:       bu (u6)         -0x34 <.label129>
.label128    0x00011188: c4 90:       add (2rus)      r0, r5, 0x0
             0x0001118a: 24 77:       bu (u6)         -0x24 <.label130>

<AudioClassRequests_2>:
             0x0001118c: 04 f0 4c 77: entsp (lu6)     0x10c
             0x00011190: 04 55:       stw (ru6)       r4, sp[0x4]
             0x00011192: 45 55:       stw (ru6)       r5, sp[0x5]
             0x00011194: 86 55:       stw (ru6)       r6, sp[0x6]
             0x00011196: c7 55:       stw (ru6)       r7, sp[0x7]
             0x00011198: 08 56:       stw (ru6)       r8, sp[0x8]
             0x0001119a: 49 56:       stw (ru6)       r9, sp[0x9]
             0x0001119c: 8a 56:       stw (ru6)       r10, sp[0xa]
             0x0001119e: 80 90:       add (2rus)      r8, r0, 0x0
             0x000111a0: 74 90:       add (2rus)      r7, r1, 0x0
             0x000111a2: 68 90:       add (2rus)      r6, r2, 0x0
             0x000111a4: c3 54:       stw (ru6)       r3, sp[0x3]
             0x000111a6: 04 f0 8d 5e: ldw (lru6)      r10, sp[0x10d]
             0x000111aa: 04 f0 4e 5e: ldw (lru6)      r9, sp[0x10e]
             0x000111ae: d2 a6:       mkmsk (rus)     r0, 0x2
             0x000111b0: 08 88:       ld8u (3r)       r0, r2[r0]
             0x000111b2: 11 b0:       eq (2rus)       r1, r0, 0x1
             0x000111b4: 4d 70:       bt (ru6)        r1, 0xd <.label131>
             0x000111b6: 02 b0:       eq (2rus)       r0, r0, 0x2
             0x000111b8: 0b f0 3e 70: bt (lru6)       r0, 0x2fe <.label132>
.label136    0x000111bc: d1 a6:       mkmsk (rus)     r0, 0x1
             0x000111be: 04 5d:       ldw (ru6)       r4, sp[0x4]
             0x000111c0: 45 5d:       ldw (ru6)       r5, sp[0x5]
             0x000111c2: 86 5d:       ldw (ru6)       r6, sp[0x6]
             0x000111c4: c7 5d:       ldw (ru6)       r7, sp[0x7]
             0x000111c6: 08 5e:       ldw (ru6)       r8, sp[0x8]
             0x000111c8: 49 5e:       ldw (ru6)       r9, sp[0x9]
             0x000111ca: 8a 5e:       ldw (ru6)       r10, sp[0xa]
             0x000111cc: 04 f0 cc 77: retsp (lu6)     0x10c
.label131    0x000111d0: d2 a6:       mkmsk (rus)     r0, 0x2
             0x000111d2: 08 80:       ld16s (3r)      r0, r2[r0]
             0x000111d4: 31 47:       zext (rus)      r0, 0x10
             0x000111d6: c0 fc ec 97: ashr (l2rus)    r4, r0, 0x8
             0x000111da: 29 68:       ldc (ru6)       r0, 0x29
             0x000111dc: c0 30:       eq (3r)         r0, r4, r0
             0x000111de: 11 70:       bt (ru6)        r0, 0x11 <.label133>
             0x000111e0: 2a 68:       ldc (ru6)       r0, 0x2a
             0x000111e2: c0 30:       eq (3r)         r0, r4, r0
             0x000111e4: 0e 70:       bt (ru6)        r0, 0xe <.label133>
             0x000111e6: 2b 68:       ldc (ru6)       r0, 0x2b
             0x000111e8: c0 30:       eq (3r)         r0, r4, r0
             0x000111ea: 0b 70:       bt (ru6)        r0, 0xb <.label133>
             0x000111ec: 28 68:       ldc (ru6)       r0, 0x28
             0x000111ee: c0 30:       eq (3r)         r0, r4, r0
             0x000111f0: 03 f0 28 70: bt (lru6)       r0, 0xe8 <.label134>
             0x000111f4: 42 b5:       eq (2rus)       r0, r4, 0xa
             0x000111f6: 05 f0 03 70: bt (lru6)       r0, 0x143 <.label135>
             0x000111fa: 43 b5:       eq (2rus)       r0, r4, 0xb
             0x000111fc: 05 f0 00 70: bt (lru6)       r0, 0x140 <.label135>
             0x00011200: 23 77:       bu (u6)         -0x23 <.label136>
.label133    0x00011202: 02 68:       ldc (ru6)       r0, 0x2
             0x00011204: 08 80:       ld16s (3r)      r0, r2[r0]
             0x00011206: 31 47:       zext (rus)      r0, 0x10
             0x00011208: 80 fc ec 97: ashr (l2rus)    r0, r0, 0x8
             0x0001120c: 11 b0:       eq (2rus)       r1, r0, 0x1
             0x0001120e: 44 70:       bt (ru6)        r1, 0x4 <.label137>
             0x00011210: 02 b0:       eq (2rus)       r0, r0, 0x2
             0x00011212: 02 f0 13 70: bt (lru6)       r0, 0x93 <.label138>
             0x00011216: 2e 77:       bu (u6)         -0x2e <.label136>
.label137    0x00011218: 02 68:       ldc (ru6)       r0, 0x2
             0x0001121a: 08 88:       ld8u (3r)       r0, r2[r0]
             0x0001121c: 25 78:       bf (ru6)        r0, 0x25 <.label139>
             0x0001121e: 29 68:       ldc (ru6)       r0, 0x29
             0x00011220: c0 30:       eq (3r)         r0, r4, r0
             0x00011222: 02 f0 05 70: bt (lru6)       r0, 0x85 <.label140>
             0x00011226: 2a 68:       ldc (ru6)       r0, 0x2a
             0x00011228: c0 30:       eq (3r)         r0, r4, r0
             0x0001122a: 02 f0 01 70: bt (lru6)       r0, 0x81 <.label140>
             0x0001122e: 2b 68:       ldc (ru6)       r0, 0x2b
             0x00011230: c0 30:       eq (3r)         r0, r4, r0
             0x00011232: 01 f0 3d 70: bt (lru6)       r0, 0x7d <.label140>
.label146    0x00011236: 80 91:       add (2rus)      r0, r8, 0x0
             0x00011238: dc 90:       add (2rus)      r1, r7, 0x0
             0x0001123a: 4b 65:       ldaw (ru6)      r5, sp[0xb]
             0x0001123c: e4 90:       add (2rus)      r2, r5, 0x0
             0x0001123e: c4 68:       ldc (ru6)       r3, 0x4
             0x00011240: fb 80:       ld16s (3r)      r3, r6[r3]
             0x00011242: 3d 47:       zext (rus)      r3, 0x10
             0x00011244: 04 69:       ldc (ru6)       r4, 0x4
             0x00011246: 48 83:       ld16s (3r)      r4, r6[r4]
             0x00011248: 71 47:       zext (rus)      r4, 0x10
             0x0001124a: 01 55:       stw (ru6)       r4, sp[0x1]
             0x0001124c: 10 f0 00 69: ldc (lru6)      r4, 0x400
             0x00011250: 02 55:       stw (ru6)       r4, sp[0x2]
             0x00011252: 01 f0 3d d4: bl (lu10)       -0x43d <XUD_DoGetRequest>
             0x00011256: 04 5d:       ldw (ru6)       r4, sp[0x4]
             0x00011258: 45 5d:       ldw (ru6)       r5, sp[0x5]
             0x0001125a: 86 5d:       ldw (ru6)       r6, sp[0x6]
             0x0001125c: c7 5d:       ldw (ru6)       r7, sp[0x7]
             0x0001125e: 08 5e:       ldw (ru6)       r8, sp[0x8]
             0x00011260: 49 5e:       ldw (ru6)       r9, sp[0x9]
             0x00011262: 8a 5e:       ldw (ru6)       r10, sp[0xa]
             0x00011264: 04 f0 cc 77: retsp (lu6)     0x10c
.label139    0x00011268: 80 91:       add (2rus)      r0, r8, 0x0
             0x0001126a: 4b 65:       ldaw (ru6)      r5, sp[0xb]
             0x0001126c: d4 90:       add (2rus)      r1, r5, 0x0
             0x0001126e: 10 f0 80 68: ldc (lru6)      r2, 0x400
             0x00011272: 01 f0 cf d4: bl (lu10)       -0x4cf <XUD_GetBuffer>
             0x00011276: 40 68:       ldc (ru6)       r1, 0x0
             0x00011278: 11 c0:       lss (3r)        r1, r0, r1
             0x0001127a: 56 70:       bt (ru6)        r1, 0x16 <.label141>
             0x0001127c: 84 68:       ldc (ru6)       r2, 0x4
             0x0001127e: 02 30:       eq (3r)         r0, r0, r2
             0x00011280: 1c 70:       bt (ru6)        r0, 0x1c <.label142>
.label144    0x00011282: cc 90:       add (2rus)      r0, r7, 0x0
             0x00011284: d4 90:       add (2rus)      r1, r5, 0x0
             0x00011286: 80 68:       ldc (ru6)       r2, 0x0
             0x00011288: 01 f0 cb 68: ldc (lru6)      r3, 0x4b
             0x0001128c: 10 f0 00 69: ldc (lru6)      r4, 0x400
             0x00011290: 01 55:       stw (ru6)       r4, sp[0x1]
             0x00011292: 01 f0 d7 d4: bl (lu10)       -0x4d7 <XUD_SetBuffer_ResetPid>
             0x00011296: 04 5d:       ldw (ru6)       r4, sp[0x4]
             0x00011298: 45 5d:       ldw (ru6)       r5, sp[0x5]
             0x0001129a: 86 5d:       ldw (ru6)       r6, sp[0x6]
             0x0001129c: c7 5d:       ldw (ru6)       r7, sp[0x7]
             0x0001129e: 08 5e:       ldw (ru6)       r8, sp[0x8]
             0x000112a0: 49 5e:       ldw (ru6)       r9, sp[0x9]
             0x000112a2: 8a 5e:       ldw (ru6)       r10, sp[0xa]
             0x000112a4: 04 f0 cc 77: retsp (lu6)     0x10c
.label141    0x000112a8: 04 5d:       ldw (ru6)       r4, sp[0x4]
             0x000112aa: 45 5d:       ldw (ru6)       r5, sp[0x5]
             0x000112ac: 86 5d:       ldw (ru6)       r6, sp[0x6]
             0x000112ae: c7 5d:       ldw (ru6)       r7, sp[0x7]
             0x000112b0: 08 5e:       ldw (ru6)       r8, sp[0x8]
             0x000112b2: 49 5e:       ldw (ru6)       r9, sp[0x9]
             0x000112b4: 8a 5e:       ldw (ru6)       r10, sp[0xa]
             0x000112b6: 04 f0 cc 77: retsp (lu6)     0x10c
.label142    0x000112ba: 00 68:       ldc (ru6)       r0, 0x0
             0x000112bc: d4 88:       ld8u (3r)       r1, r5[r0]
             0x000112be: d1 a6:       mkmsk (rus)     r0, 0x1
             0x000112c0: c4 88:       ld8u (3r)       r0, r5[r0]
             0x000112c2: 80 a4:       shl (2rus)      r0, r0, 0x8
             0x000112c4: 14 40:       or (3r)         r1, r1, r0
             0x000112c6: 02 68:       ldc (ru6)       r0, 0x2
             0x000112c8: c4 88:       ld8u (3r)       r0, r5[r0]
             0x000112ca: 81 a4:       shl (2rus)      r0, r0, 0x10
             0x000112cc: 14 40:       or (3r)         r1, r1, r0
             0x000112ce: d2 a6:       mkmsk (rus)     r0, 0x2
             0x000112d0: c4 88:       ld8u (3r)       r0, r5[r0]
             0x000112d2: 82 a4:       shl (2rus)      r0, r0, 0x18
             0x000112d4: 04 40:       or (3r)         r0, r1, r0
             0x000112d6: 0b f0 05 50: stw (lru6)      r0, dp[0x2c5]
             0x000112da: 0b f0 45 58: ldw (lru6)      r1, dp[0x2c5]
             0x000112de: ee f2 00 68: ldc (lru6)      r0, 0xbb80
             0x000112e2: 04 f8 ec cf: remu (l3r)      r0, r1, r0
             0x000112e6: 00 b0:       eq (2rus)       r0, r0, 0x0
             0x000112e8: 0b f0 06 50: stw (lru6)      r0, dp[0x2c6]
             0x000112ec: 0b f0 06 58: ldw (lru6)      r0, dp[0x2c6]
             0x000112f0: 1c 70:       bt (ru6)        r0, 0x1c <.label143>
             0x000112f2: 00 f0 d1 6c: ldw (lru6)      r3, cp[0x11]
.label145    0x000112f6: 08 f0 00 68: ldc (lru6)      r0, 0x200
             0x000112fa: 0c f8 ec 47: divs (l3r)      r0, r3, r0
             0x000112fe: 04 f8 ec 4f: divu (l3r)      r0, r1, r0
             0x00011302: 0b f0 07 50: stw (lru6)      r0, dp[0x2c7]
             0x00011306: 03 5c:       ldw (ru6)       r0, sp[0x3]
             0x00011308: c8 ae:       out (r2r)       res[r0], r2
             0x0001130a: 03 5c:       ldw (ru6)       r0, sp[0x3]
             0x0001130c: c4 ae:       out (r2r)       res[r0], r1
             0x0001130e: 03 5c:       ldw (ru6)       r0, sp[0x3]
             0x00011310: d1 ce:       chkct (rus)     res[r0], 0x1
             0x00011312: c9 86:       getr (rus)      r2, 0x1
             0x00011314: 81 e8:       setc (ru6)      res[r2], 0x1
             0x00011316: c2 b6:       in (2r)         r0, res[r2]
             0x00011318: 00 f0 54 6c: ldw (lru6)      r1, cp[0x14]
             0x0001131c: 01 10:       add (3r)        r0, r0, r1
             0x0001131e: d2 16:       setd (r2r)      res[r2], r0
             0x00011320: 89 e8:       setc (ru6)      res[r2], 0x9
             0x00011322: c2 b6:       in (2r)         r0, res[r2]
             0x00011324: e2 17:       freer (1r)      res[r2]
             0x00011326: 01 f0 14 77: bu (lu6)        -0x54 <.label144>
.label143    0x0001132a: 00 f0 d2 6c: ldw (lru6)      r3, cp[0x12]
             0x0001132e: 1d 77:       bu (u6)         -0x1d <.label145>
.label140    0x00011330: 4b 65:       ldaw (ru6)      r5, sp[0xb]
             0x00011332: 0b f0 45 58: ldw (lru6)      r1, dp[0x2c5]
             0x00011336: d4 00:       stw (2rus)      r1, r5[0x0]
             0x00011338: 02 f0 03 77: bu (lu6)        -0x83 <.label146>
.label138    0x0001133c: 29 68:       ldc (ru6)       r0, 0x29
             0x0001133e: c0 30:       eq (3r)         r0, r4, r0
             0x00011340: 1f 70:       bt (ru6)        r0, 0x1f <.label147>
             0x00011342: 2a 68:       ldc (ru6)       r0, 0x2a
             0x00011344: c0 30:       eq (3r)         r0, r4, r0
             0x00011346: 22 70:       bt (ru6)        r0, 0x22 <.label148>
             0x00011348: 2b 68:       ldc (ru6)       r0, 0x2b
             0x0001134a: c0 30:       eq (3r)         r0, r4, r0
             0x0001134c: 2d 70:       bt (ru6)        r0, 0x2d <.label149>
.label150    0x0001134e: 80 91:       add (2rus)      r0, r8, 0x0
             0x00011350: dc 90:       add (2rus)      r1, r7, 0x0
             0x00011352: 4b 65:       ldaw (ru6)      r5, sp[0xb]
             0x00011354: e4 90:       add (2rus)      r2, r5, 0x0
             0x00011356: c4 68:       ldc (ru6)       r3, 0x4
             0x00011358: fb 80:       ld16s (3r)      r3, r6[r3]
             0x0001135a: 3d 47:       zext (rus)      r3, 0x10
             0x0001135c: 04 69:       ldc (ru6)       r4, 0x4
             0x0001135e: 48 83:       ld16s (3r)      r4, r6[r4]
             0x00011360: 71 47:       zext (rus)      r4, 0x10
             0x00011362: 01 55:       stw (ru6)       r4, sp[0x1]
             0x00011364: 10 f0 00 69: ldc (lru6)      r4, 0x400
             0x00011368: 02 55:       stw (ru6)       r4, sp[0x2]
             0x0001136a: 01 f0 c9 d4: bl (lu10)       -0x4c9 <XUD_DoGetRequest>
             0x0001136e: 04 5d:       ldw (ru6)       r4, sp[0x4]
             0x00011370: 45 5d:       ldw (ru6)       r5, sp[0x5]
             0x00011372: 86 5d:       ldw (ru6)       r6, sp[0x6]
             0x00011374: c7 5d:       ldw (ru6)       r7, sp[0x7]
             0x00011376: 08 5e:       ldw (ru6)       r8, sp[0x8]
             0x00011378: 49 5e:       ldw (ru6)       r9, sp[0x9]
             0x0001137a: 8a 5e:       ldw (ru6)       r10, sp[0xa]
             0x0001137c: 04 f0 cc 77: retsp (lu6)     0x10c
.label147    0x00011380: 4b 65:       ldaw (ru6)      r5, sp[0xb]
             0x00011382: 11 a7:       mkmsk (rus)     r4, 0x1
             0x00011384: 00 68:       ldc (ru6)       r0, 0x0
             0x00011386: 04 f9 ec 8f: st8 (l3r)       r4, r5[r0]
             0x0001138a: 1f 77:       bu (u6)         -0x1f <.label150>
.label148    0x0001138c: 84 b1:       eq (2rus)       r0, r9, 0x0
             0x0001138e: 21 74:       bt (ru6)        r0, -0x21 <.label150>
             0x00011390: d2 a6:       mkmsk (rus)     r0, 0x2
             0x00011392: 21 af:       out (r2r)       res[r9], r0
             0x00011394: 11 a7:       mkmsk (rus)     r4, 0x1
             0x00011396: 61 af:       out (r2r)       res[r9], r4
             0x00011398: 55 4f:       outct (rus)     res[r9], 0x1
             0x0001139a: 25 b7:       in (2r)         r1, res[r9]
             0x0001139c: 4b 65:       ldaw (ru6)      r5, sp[0xb]
             0x0001139e: 00 68:       ldc (ru6)       r0, 0x0
             0x000113a0: d4 f8 ec 8f: st8 (l3r)       r1, r5[r0]
             0x000113a4: 55 cf:       chkct (rus)     res[r9], 0x1
             0x000113a6: 2d 77:       bu (u6)         -0x2d <.label150>
.label149    0x000113a8: 84 b1:       eq (2rus)       r0, r9, 0x0
             0x000113aa: 2f 74:       bt (ru6)        r0, -0x2f <.label150>
             0x000113ac: d2 a6:       mkmsk (rus)     r0, 0x2
             0x000113ae: 21 af:       out (r2r)       res[r9], r0
             0x000113b0: 11 a7:       mkmsk (rus)     r4, 0x1
             0x000113b2: 61 af:       out (r2r)       res[r9], r4
             0x000113b4: 55 4f:       outct (rus)     res[r9], 0x1
             0x000113b6: 25 b7:       in (2r)         r1, res[r9]
             0x000113b8: 4b 65:       ldaw (ru6)      r5, sp[0xb]
             0x000113ba: 00 68:       ldc (ru6)       r0, 0x0
             0x000113bc: d4 f8 ec 8f: st8 (l3r)       r1, r5[r0]
             0x000113c0: 55 cf:       chkct (rus)     res[r9], 0x1
             0x000113c2: 3b 77:       bu (u6)         -0x3b <.label150>
.label134    0x000113c4: 02 68:       ldc (ru6)       r0, 0x2
             0x000113c6: 08 80:       ld16s (3r)      r0, r2[r0]
             0x000113c8: 31 47:       zext (rus)      r0, 0x10
             0x000113ca: 80 fc ec 97: ashr (l2rus)    r0, r0, 0x8
             0x000113ce: 11 a7:       mkmsk (rus)     r4, 0x1
             0x000113d0: 40 32:       eq (3r)         r0, r0, r4
             0x000113d2: 04 f0 0d 7c: bf (lru6)       r0, -0x10d <.label136>
             0x000113d6: 02 68:       ldc (ru6)       r0, 0x2
             0x000113d8: 08 88:       ld8u (3r)       r0, r2[r0]
             0x000113da: 1d 78:       bf (ru6)        r0, 0x1d <.label151>
             0x000113dc: 4b 65:       ldaw (ru6)      r5, sp[0xb]
             0x000113de: 00 68:       ldc (ru6)       r0, 0x0
             0x000113e0: 04 f9 ec 8f: st8 (l3r)       r4, r5[r0]
             0x000113e4: 84 b1:       eq (2rus)       r0, r9, 0x0
             0x000113e6: 01 f0 01 78: bf (lru6)       r0, 0x41 <.label152>
.label158    0x000113ea: 80 91:       add (2rus)      r0, r8, 0x0
             0x000113ec: dc 90:       add (2rus)      r1, r7, 0x0
             0x000113ee: e4 90:       add (2rus)      r2, r5, 0x0
             0x000113f0: c4 68:       ldc (ru6)       r3, 0x4
             0x000113f2: 0b 81:       ld16s (3r)      r4, r6[r3]
             0x000113f4: 71 47:       zext (rus)      r4, 0x10
             0x000113f6: dd a6:       mkmsk (rus)     r3, 0x1
             0x000113f8: 01 55:       stw (ru6)       r4, sp[0x1]
             0x000113fa: 10 f0 00 69: ldc (lru6)      r4, 0x400
             0x000113fe: 02 55:       stw (ru6)       r4, sp[0x2]
             0x00011400: 01 f0 14 d5: bl (lu10)       -0x514 <XUD_DoGetRequest>
             0x00011404: 04 5d:       ldw (ru6)       r4, sp[0x4]
             0x00011406: 45 5d:       ldw (ru6)       r5, sp[0x5]
             0x00011408: 86 5d:       ldw (ru6)       r6, sp[0x6]
             0x0001140a: c7 5d:       ldw (ru6)       r7, sp[0x7]
             0x0001140c: 08 5e:       ldw (ru6)       r8, sp[0x8]
             0x0001140e: 49 5e:       ldw (ru6)       r9, sp[0x9]
             0x00011410: 8a 5e:       ldw (ru6)       r10, sp[0xa]
             0x00011412: 04 f0 cc 77: retsp (lu6)     0x10c
.label151    0x00011416: 80 91:       add (2rus)      r0, r8, 0x0
             0x00011418: 4b 65:       ldaw (ru6)      r5, sp[0xb]
             0x0001141a: d4 90:       add (2rus)      r1, r5, 0x0
             0x0001141c: 10 f0 80 68: ldc (lru6)      r2, 0x400
             0x00011420: 01 f0 a6 d5: bl (lu10)       -0x5a6 <XUD_GetBuffer>
             0x00011424: 40 68:       ldc (ru6)       r1, 0x0
             0x00011426: 11 c0:       lss (3r)        r1, r0, r1
             0x00011428: 4f 70:       bt (ru6)        r1, 0xf <.label153>
             0x0001142a: 40 32:       eq (3r)         r0, r0, r4
             0x0001142c: 16 70:       bt (ru6)        r0, 0x16 <.label154>
.label156    0x0001142e: cc 90:       add (2rus)      r0, r7, 0x0
             0x00011430: 40 68:       ldc (ru6)       r1, 0x0
             0x00011432: 01 f0 e7 d4: bl (lu10)       -0x4e7 <XUD_DoSetRequestStatus>
             0x00011436: 04 5d:       ldw (ru6)       r4, sp[0x4]
             0x00011438: 45 5d:       ldw (ru6)       r5, sp[0x5]
             0x0001143a: 86 5d:       ldw (ru6)       r6, sp[0x6]
             0x0001143c: c7 5d:       ldw (ru6)       r7, sp[0x7]
             0x0001143e: 08 5e:       ldw (ru6)       r8, sp[0x8]
             0x00011440: 49 5e:       ldw (ru6)       r9, sp[0x9]
             0x00011442: 8a 5e:       ldw (ru6)       r10, sp[0xa]
             0x00011444: 04 f0 cc 77: retsp (lu6)     0x10c
.label153    0x00011448: 04 5d:       ldw (ru6)       r4, sp[0x4]
             0x0001144a: 45 5d:       ldw (ru6)       r5, sp[0x5]
             0x0001144c: 86 5d:       ldw (ru6)       r6, sp[0x6]
             0x0001144e: c7 5d:       ldw (ru6)       r7, sp[0x7]
             0x00011450: 08 5e:       ldw (ru6)       r8, sp[0x8]
             0x00011452: 49 5e:       ldw (ru6)       r9, sp[0x9]
             0x00011454: 8a 5e:       ldw (ru6)       r10, sp[0xa]
             0x00011456: 04 f0 cc 77: retsp (lu6)     0x10c
.label154    0x0001145a: 84 b1:       eq (2rus)       r0, r9, 0x0
             0x0001145c: 01 78:       bf (ru6)        r0, 0x1 <.label155>
.label157    0x0001145e: 19 77:       bu (u6)         -0x19 <.label156>
.label155    0x00011460: 61 af:       out (r2r)       res[r9], r4
             0x00011462: 00 68:       ldc (ru6)       r0, 0x0
             0x00011464: c4 88:       ld8u (3r)       r0, r5[r0]
             0x00011466: 21 af:       out (r2r)       res[r9], r0
             0x00011468: 55 4f:       outct (rus)     res[r9], 0x1
             0x0001146a: 07 77:       bu (u6)         -0x7 <.label157>
.label152    0x0001146c: 40 68:       ldc (ru6)       r1, 0x0
             0x0001146e: 25 af:       out (r2r)       res[r9], r1
             0x00011470: 55 4f:       outct (rus)     res[r9], 0x1
             0x00011472: 25 b7:       in (2r)         r1, res[r9]
             0x00011474: 00 68:       ldc (ru6)       r0, 0x0
             0x00011476: d4 f8 ec 8f: st8 (l3r)       r1, r5[r0]
             0x0001147a: 55 cf:       chkct (rus)     res[r9], 0x1
             0x0001147c: 01 f0 0b 77: bu (lu6)        -0x4b <.label158>
.label135    0x00011480: 02 68:       ldc (ru6)       r0, 0x2
             0x00011482: 08 80:       ld16s (3r)      r0, r2[r0]
             0x00011484: 31 47:       zext (rus)      r0, 0x10
             0x00011486: 80 fc ec 97: ashr (l2rus)    r0, r0, 0x8
             0x0001148a: 11 b0:       eq (2rus)       r1, r0, 0x1
             0x0001148c: 03 f0 70 70: bt (lru6)       r1, 0xf0 <.label159>
             0x00011490: 02 b0:       eq (2rus)       r0, r0, 0x2
             0x00011492: 02 70:       bt (ru6)        r0, 0x2 <.label160>
             0x00011494: 05 f0 2e 77: bu (lu6)        -0x16e <.label136>
.label160    0x00011498: 02 68:       ldc (ru6)       r0, 0x2
             0x0001149a: 08 88:       ld8u (3r)       r0, r2[r0]
             0x0001149c: 2e 78:       bf (ru6)        r0, 0x2e <.label161>
             0x0001149e: 42 b5:       eq (2rus)       r0, r4, 0xa
             0x000114a0: 02 f0 14 70: bt (lru6)       r0, 0x94 <.label162>
             0x000114a4: 02 68:       ldc (ru6)       r0, 0x2
             0x000114a6: 08 80:       ld16s (3r)      r0, r2[r0]
             0x000114a8: 31 47:       zext (rus)      r0, 0x10
             0x000114aa: 34 a7:       mkmsk (rus)     r1, 0x8
             0x000114ac: 21 38:       and (3r)        r2, r0, r1
             0x000114ae: 02 68:       ldc (ru6)       r0, 0x2
             0x000114b0: 02 c0:       lss (3r)        r0, r0, r2
             0x000114b2: 02 f0 3e 78: bf (lru6)       r0, 0xbe <.label163>
             0x000114b6: 4b 65:       ldaw (ru6)      r5, sp[0xb]
             0x000114b8: 40 68:       ldc (ru6)       r1, 0x0
             0x000114ba: d1 a6:       mkmsk (rus)     r0, 0x1
             0x000114bc: d4 f8 ec 8f: st8 (l3r)       r1, r5[r0]
             0x000114c0: d1 a6:       mkmsk (rus)     r0, 0x1
             0x000114c2: d4 88:       ld8u (3r)       r1, r5[r0]
             0x000114c4: 00 68:       ldc (ru6)       r0, 0x0
             0x000114c6: d4 f8 ec 8f: st8 (l3r)       r1, r5[r0]
.label169    0x000114ca: 80 91:       add (2rus)      r0, r8, 0x0
             0x000114cc: dc 90:       add (2rus)      r1, r7, 0x0
             0x000114ce: e4 90:       add (2rus)      r2, r5, 0x0
             0x000114d0: c4 68:       ldc (ru6)       r3, 0x4
             0x000114d2: fb 80:       ld16s (3r)      r3, r6[r3]
             0x000114d4: 3d 47:       zext (rus)      r3, 0x10
             0x000114d6: 04 69:       ldc (ru6)       r4, 0x4
             0x000114d8: 48 83:       ld16s (3r)      r4, r6[r4]
             0x000114da: 71 47:       zext (rus)      r4, 0x10
             0x000114dc: 01 55:       stw (ru6)       r4, sp[0x1]
             0x000114de: 10 f0 00 69: ldc (lru6)      r4, 0x400
             0x000114e2: 02 55:       stw (ru6)       r4, sp[0x2]
             0x000114e4: 01 f0 86 d5: bl (lu10)       -0x586 <XUD_DoGetRequest>
             0x000114e8: 04 5d:       ldw (ru6)       r4, sp[0x4]
             0x000114ea: 45 5d:       ldw (ru6)       r5, sp[0x5]
             0x000114ec: 86 5d:       ldw (ru6)       r6, sp[0x6]
             0x000114ee: c7 5d:       ldw (ru6)       r7, sp[0x7]
             0x000114f0: 08 5e:       ldw (ru6)       r8, sp[0x8]
             0x000114f2: 49 5e:       ldw (ru6)       r9, sp[0x9]
             0x000114f4: 8a 5e:       ldw (ru6)       r10, sp[0xa]
             0x000114f6: 04 f0 cc 77: retsp (lu6)     0x10c
.label161    0x000114fa: 80 91:       add (2rus)      r0, r8, 0x0
             0x000114fc: 4b 65:       ldaw (ru6)      r5, sp[0xb]
             0x000114fe: d4 90:       add (2rus)      r1, r5, 0x0
             0x00011500: 10 f0 80 68: ldc (lru6)      r2, 0x400
             0x00011504: 01 f0 18 d6: bl (lu10)       -0x618 <XUD_GetBuffer>
             0x00011508: 40 68:       ldc (ru6)       r1, 0x0
             0x0001150a: 11 c0:       lss (3r)        r1, r0, r1
             0x0001150c: 57 70:       bt (ru6)        r1, 0x17 <.label164>
             0x0001150e: 42 b5:       eq (2rus)       r0, r4, 0xa
             0x00011510: 1e 70:       bt (ru6)        r0, 0x1e <.label165>
             0x00011512: 02 68:       ldc (ru6)       r0, 0x2
             0x00011514: c8 80:       ld16s (3r)      r0, r6[r0]
             0x00011516: 31 47:       zext (rus)      r0, 0x10
             0x00011518: 34 a7:       mkmsk (rus)     r1, 0x8
             0x0001151a: 21 38:       and (3r)        r2, r0, r1
             0x0001151c: 02 68:       ldc (ru6)       r0, 0x2
             0x0001151e: 02 c0:       lss (3r)        r0, r0, r2
             0x00011520: 39 78:       bf (ru6)        r0, 0x39 <.label166>
.label167    0x00011522: cc 90:       add (2rus)      r0, r7, 0x0
             0x00011524: 40 68:       ldc (ru6)       r1, 0x0
             0x00011526: 01 f0 61 d5: bl (lu10)       -0x561 <XUD_DoSetRequestStatus>
             0x0001152a: 04 5d:       ldw (ru6)       r4, sp[0x4]
             0x0001152c: 45 5d:       ldw (ru6)       r5, sp[0x5]
             0x0001152e: 86 5d:       ldw (ru6)       r6, sp[0x6]
             0x00011530: c7 5d:       ldw (ru6)       r7, sp[0x7]
             0x00011532: 08 5e:       ldw (ru6)       r8, sp[0x8]
             0x00011534: 49 5e:       ldw (ru6)       r9, sp[0x9]
             0x00011536: 8a 5e:       ldw (ru6)       r10, sp[0xa]
             0x00011538: 04 f0 cc 77: retsp (lu6)     0x10c
.label164    0x0001153c: 04 5d:       ldw (ru6)       r4, sp[0x4]
             0x0001153e: 45 5d:       ldw (ru6)       r5, sp[0x5]
             0x00011540: 86 5d:       ldw (ru6)       r6, sp[0x6]
             0x00011542: c7 5d:       ldw (ru6)       r7, sp[0x7]
             0x00011544: 08 5e:       ldw (ru6)       r8, sp[0x8]
             0x00011546: 49 5e:       ldw (ru6)       r9, sp[0x9]
             0x00011548: 8a 5e:       ldw (ru6)       r10, sp[0xa]
             0x0001154a: 04 f0 cc 77: retsp (lu6)     0x10c
.label165    0x0001154e: 02 68:       ldc (ru6)       r0, 0x2
             0x00011550: c8 80:       ld16s (3r)      r0, r6[r0]
             0x00011552: 31 47:       zext (rus)      r0, 0x10
             0x00011554: 34 a7:       mkmsk (rus)     r1, 0x8
             0x00011556: 21 38:       and (3r)        r2, r0, r1
             0x00011558: 02 68:       ldc (ru6)       r0, 0x2
             0x0001155a: 02 c0:       lss (3r)        r0, r0, r2
             0x0001155c: 1e 74:       bt (ru6)        r0, -0x1e <.label167>
             0x0001155e: 00 68:       ldc (ru6)       r0, 0x0
             0x00011560: e4 88:       ld8u (3r)       r2, r5[r0]
             0x00011562: d1 a6:       mkmsk (rus)     r0, 0x1
             0x00011564: c4 88:       ld8u (3r)       r0, r5[r0]
             0x00011566: 30 37:       sext (rus)      r0, 0x8
             0x00011568: 80 a4:       shl (2rus)      r0, r0, 0x8
             0x0001156a: 58 40:       or (3r)         r5, r2, r0
             0x0001156c: 12 f0 a9 60: ldaw (lru6)     r2, dp[0x4a9]
             0x00011570: 00 f0 dd 6c: ldw (lru6)      r3, cp[0x1d]
             0x00011574: 02 68:       ldc (ru6)       r0, 0x2
             0x00011576: c8 80:       ld16s (3r)      r0, r6[r0]
             0x00011578: 31 47:       zext (rus)      r0, 0x10
             0x0001157a: 01 38:       and (3r)        r0, r0, r1
             0x0001157c: 33 c8:       lsu (3r)        r3, r0, r3
             0x0001157e: e3 4f:       ecallf (1r)     r3
             0x00011580: 58 f8 ec 07: stw (l3r)       r5, r2[r0]
             0x00011584: c0 90:       add (2rus)      r0, r4, 0x0
             0x00011586: 82 68:       ldc (ru6)       r2, 0x2
             0x00011588: ea 80:       ld16s (3r)      r2, r6[r2]
             0x0001158a: 39 47:       zext (rus)      r2, 0x10
             0x0001158c: 19 38:       and (3r)        r1, r2, r1
             0x0001158e: a8 91:       add (2rus)      r2, r10, 0x0
             0x00011590: af d6:       bl (u10)        -0x2af <updateVol>
             0x00011592: 39 77:       bu (u6)         -0x39 <.label167>
.label166    0x00011594: 00 68:       ldc (ru6)       r0, 0x0
             0x00011596: e4 88:       ld8u (3r)       r2, r5[r0]
             0x00011598: d1 a6:       mkmsk (rus)     r0, 0x1
             0x0001159a: c4 88:       ld8u (3r)       r0, r5[r0]
             0x0001159c: 30 37:       sext (rus)      r0, 0x8
             0x0001159e: 80 a4:       shl (2rus)      r0, r0, 0x8
             0x000115a0: 58 40:       or (3r)         r5, r2, r0
             0x000115a2: 12 f0 a3 60: ldaw (lru6)     r2, dp[0x4a3]
             0x000115a6: 00 f0 db 6c: ldw (lru6)      r3, cp[0x1b]
             0x000115aa: 02 68:       ldc (ru6)       r0, 0x2
             0x000115ac: c8 80:       ld16s (3r)      r0, r6[r0]
             0x000115ae: 31 47:       zext (rus)      r0, 0x10
             0x000115b0: 01 38:       and (3r)        r0, r0, r1
             0x000115b2: 33 c8:       lsu (3r)        r3, r0, r3
             0x000115b4: e3 4f:       ecallf (1r)     r3
             0x000115b6: 58 f8 ec 07: stw (l3r)       r5, r2[r0]
             0x000115ba: c0 90:       add (2rus)      r0, r4, 0x0
             0x000115bc: 82 68:       ldc (ru6)       r2, 0x2
             0x000115be: ea 80:       ld16s (3r)      r2, r6[r2]
             0x000115c0: 39 47:       zext (rus)      r2, 0x10
             0x000115c2: 19 38:       and (3r)        r1, r2, r1
             0x000115c4: a8 91:       add (2rus)      r2, r10, 0x0
             0x000115c6: ca d6:       bl (u10)        -0x2ca <updateVol>
             0x000115c8: 01 f0 15 77: bu (lu6)        -0x55 <.label167>
.label162    0x000115cc: 02 68:       ldc (ru6)       r0, 0x2
             0x000115ce: 08 80:       ld16s (3r)      r0, r2[r0]
             0x000115d0: 31 47:       zext (rus)      r0, 0x10
             0x000115d2: 34 a7:       mkmsk (rus)     r1, 0x8
             0x000115d4: 21 38:       and (3r)        r2, r0, r1
             0x000115d6: 02 68:       ldc (ru6)       r0, 0x2
             0x000115d8: 02 c0:       lss (3r)        r0, r0, r2
             0x000115da: 0c 78:       bf (ru6)        r0, 0xc <.label168>
             0x000115dc: 4b 65:       ldaw (ru6)      r5, sp[0xb]
             0x000115de: 40 68:       ldc (ru6)       r1, 0x0
             0x000115e0: d1 a6:       mkmsk (rus)     r0, 0x1
             0x000115e2: d4 f8 ec 8f: st8 (l3r)       r1, r5[r0]
             0x000115e6: d1 a6:       mkmsk (rus)     r0, 0x1
             0x000115e8: d4 88:       ld8u (3r)       r1, r5[r0]
             0x000115ea: 00 68:       ldc (ru6)       r0, 0x0
             0x000115ec: d4 f8 ec 8f: st8 (l3r)       r1, r5[r0]
             0x000115f0: 02 f0 15 77: bu (lu6)        -0x95 <.label169>
.label168    0x000115f4: 12 f0 a9 60: ldaw (lru6)     r2, dp[0x4a9]
             0x000115f8: 00 f0 dd 6c: ldw (lru6)      r3, cp[0x1d]
             0x000115fc: 02 68:       ldc (ru6)       r0, 0x2
             0x000115fe: c8 80:       ld16s (3r)      r0, r6[r0]
             0x00011600: 31 47:       zext (rus)      r0, 0x10
             0x00011602: 01 38:       and (3r)        r0, r0, r1
             0x00011604: 33 c8:       lsu (3r)        r3, r0, r3
             0x00011606: e3 4f:       ecallf (1r)     r3
             0x00011608: 38 48:       ldw (3r)        r3, r2[r0]
             0x0001160a: 4b 65:       ldaw (ru6)      r5, sp[0xb]
             0x0001160c: 00 68:       ldc (ru6)       r0, 0x0
             0x0001160e: f4 f8 ec 8f: st8 (l3r)       r3, r5[r0]
             0x00011612: 00 f0 dd 6c: ldw (lru6)      r3, cp[0x1d]
             0x00011616: 02 68:       ldc (ru6)       r0, 0x2
             0x00011618: c8 80:       ld16s (3r)      r0, r6[r0]
             0x0001161a: 31 47:       zext (rus)      r0, 0x10
             0x0001161c: 01 38:       and (3r)        r0, r0, r1
             0x0001161e: 13 c8:       lsu (3r)        r1, r0, r3
             0x00011620: e1 4f:       ecallf (1r)     r1
             0x00011622: 08 48:       ldw (3r)        r0, r2[r0]
             0x00011624: 90 fc ec 97: ashr (l2rus)    r1, r0, 0x8
             0x00011628: d1 a6:       mkmsk (rus)     r0, 0x1
             0x0001162a: d4 f8 ec 8f: st8 (l3r)       r1, r5[r0]
             0x0001162e: 02 f0 34 77: bu (lu6)        -0xb4 <.label169>
.label163    0x00011632: 12 f0 a3 60: ldaw (lru6)     r2, dp[0x4a3]
             0x00011636: 00 f0 db 6c: ldw (lru6)      r3, cp[0x1b]
             0x0001163a: 02 68:       ldc (ru6)       r0, 0x2
             0x0001163c: c8 80:       ld16s (3r)      r0, r6[r0]
             0x0001163e: 31 47:       zext (rus)      r0, 0x10
             0x00011640: 01 38:       and (3r)        r0, r0, r1
             0x00011642: 33 c8:       lsu (3r)        r3, r0, r3
             0x00011644: e3 4f:       ecallf (1r)     r3
             0x00011646: 38 48:       ldw (3r)        r3, r2[r0]
             0x00011648: 4b 65:       ldaw (ru6)      r5, sp[0xb]
             0x0001164a: 00 68:       ldc (ru6)       r0, 0x0
             0x0001164c: f4 f8 ec 8f: st8 (l3r)       r3, r5[r0]
             0x00011650: 00 f0 db 6c: ldw (lru6)      r3, cp[0x1b]
             0x00011654: 02 68:       ldc (ru6)       r0, 0x2
             0x00011656: c8 80:       ld16s (3r)      r0, r6[r0]
             0x00011658: 31 47:       zext (rus)      r0, 0x10
             0x0001165a: 01 38:       and (3r)        r0, r0, r1
             0x0001165c: 13 c8:       lsu (3r)        r1, r0, r3
             0x0001165e: e1 4f:       ecallf (1r)     r1
             0x00011660: 08 48:       ldw (3r)        r0, r2[r0]
             0x00011662: 90 fc ec 97: ashr (l2rus)    r1, r0, 0x8
             0x00011666: d1 a6:       mkmsk (rus)     r0, 0x1
             0x00011668: d4 f8 ec 8f: st8 (l3r)       r1, r5[r0]
             0x0001166c: 03 f0 13 77: bu (lu6)        -0xd3 <.label169>
.label159    0x00011670: 02 68:       ldc (ru6)       r0, 0x2
             0x00011672: 08 88:       ld8u (3r)       r0, r2[r0]
             0x00011674: 2b 78:       bf (ru6)        r0, 0x2b <.label170>
             0x00011676: 42 b5:       eq (2rus)       r0, r4, 0xa
             0x00011678: 01 f0 3e 70: bt (lru6)       r0, 0x7e <.label171>
             0x0001167c: 12 f0 a0 60: ldaw (lru6)     r2, dp[0x4a0]
             0x00011680: 00 f0 da 6c: ldw (lru6)      r3, cp[0x1a]
             0x00011684: 02 68:       ldc (ru6)       r0, 0x2
             0x00011686: c8 80:       ld16s (3r)      r0, r6[r0]
             0x00011688: 31 47:       zext (rus)      r0, 0x10
             0x0001168a: 34 a7:       mkmsk (rus)     r1, 0x8
             0x0001168c: 01 38:       and (3r)        r0, r0, r1
             0x0001168e: 13 c8:       lsu (3r)        r1, r0, r3
             0x00011690: e1 4f:       ecallf (1r)     r1
             0x00011692: 18 48:       ldw (3r)        r1, r2[r0]
             0x00011694: 4b 65:       ldaw (ru6)      r5, sp[0xb]
             0x00011696: 00 68:       ldc (ru6)       r0, 0x0
             0x00011698: d4 f8 ec 8f: st8 (l3r)       r1, r5[r0]
.label176    0x0001169c: 80 91:       add (2rus)      r0, r8, 0x0
             0x0001169e: dc 90:       add (2rus)      r1, r7, 0x0
             0x000116a0: e4 90:       add (2rus)      r2, r5, 0x0
             0x000116a2: c4 68:       ldc (ru6)       r3, 0x4
             0x000116a4: fb 80:       ld16s (3r)      r3, r6[r3]
             0x000116a6: 3d 47:       zext (rus)      r3, 0x10
             0x000116a8: 04 69:       ldc (ru6)       r4, 0x4
             0x000116aa: 48 83:       ld16s (3r)      r4, r6[r4]
             0x000116ac: 71 47:       zext (rus)      r4, 0x10
             0x000116ae: 01 55:       stw (ru6)       r4, sp[0x1]
             0x000116b0: 10 f0 00 69: ldc (lru6)      r4, 0x400
             0x000116b4: 02 55:       stw (ru6)       r4, sp[0x2]
             0x000116b6: 01 f0 6f d6: bl (lu10)       -0x66f <XUD_DoGetRequest>
             0x000116ba: 04 5d:       ldw (ru6)       r4, sp[0x4]
             0x000116bc: 45 5d:       ldw (ru6)       r5, sp[0x5]
             0x000116be: 86 5d:       ldw (ru6)       r6, sp[0x6]
             0x000116c0: c7 5d:       ldw (ru6)       r7, sp[0x7]
             0x000116c2: 08 5e:       ldw (ru6)       r8, sp[0x8]
             0x000116c4: 49 5e:       ldw (ru6)       r9, sp[0x9]
             0x000116c6: 8a 5e:       ldw (ru6)       r10, sp[0xa]
             0x000116c8: 04 f0 cc 77: retsp (lu6)     0x10c
.label170    0x000116cc: 80 91:       add (2rus)      r0, r8, 0x0
             0x000116ce: 4b 65:       ldaw (ru6)      r5, sp[0xb]
             0x000116d0: d4 90:       add (2rus)      r1, r5, 0x0
             0x000116d2: 10 f0 80 68: ldc (lru6)      r2, 0x400
             0x000116d6: 01 f0 01 d7: bl (lu10)       -0x701 <XUD_GetBuffer>
             0x000116da: 40 68:       ldc (ru6)       r1, 0x0
             0x000116dc: 11 c0:       lss (3r)        r1, r0, r1
             0x000116de: 65 70:       bt (ru6)        r1, 0x25 <.label172>
             0x000116e0: 42 b5:       eq (2rus)       r0, r4, 0xa
             0x000116e2: 2c 70:       bt (ru6)        r0, 0x2c <.label173>
             0x000116e4: 00 68:       ldc (ru6)       r0, 0x0
             0x000116e6: 14 89:       ld8u (3r)       r5, r5[r0]
             0x000116e8: 12 f0 e0 60: ldaw (lru6)     r3, dp[0x4a0]
             0x000116ec: 00 f0 9a 6c: ldw (lru6)      r2, cp[0x1a]
             0x000116f0: 02 68:       ldc (ru6)       r0, 0x2
             0x000116f2: c8 80:       ld16s (3r)      r0, r6[r0]
             0x000116f4: 31 47:       zext (rus)      r0, 0x10
             0x000116f6: 34 a7:       mkmsk (rus)     r1, 0x8
             0x000116f8: 01 38:       and (3r)        r0, r0, r1
             0x000116fa: 22 c8:       lsu (3r)        r2, r0, r2
             0x000116fc: e2 4f:       ecallf (1r)     r2
             0x000116fe: 5c f8 ec 07: stw (l3r)       r5, r3[r0]
             0x00011702: c0 90:       add (2rus)      r0, r4, 0x0
             0x00011704: 82 68:       ldc (ru6)       r2, 0x2
             0x00011706: ea 80:       ld16s (3r)      r2, r6[r2]
             0x00011708: 39 47:       zext (rus)      r2, 0x10
             0x0001170a: 19 38:       and (3r)        r1, r2, r1
             0x0001170c: a8 91:       add (2rus)      r2, r10, 0x0
             0x0001170e: 6e d7:       bl (u10)        -0x36e <updateVol>
.label174    0x00011710: cc 90:       add (2rus)      r0, r7, 0x0
             0x00011712: 40 68:       ldc (ru6)       r1, 0x0
             0x00011714: 01 f0 58 d6: bl (lu10)       -0x658 <XUD_DoSetRequestStatus>
             0x00011718: 04 5d:       ldw (ru6)       r4, sp[0x4]
             0x0001171a: 45 5d:       ldw (ru6)       r5, sp[0x5]
             0x0001171c: 86 5d:       ldw (ru6)       r6, sp[0x6]
             0x0001171e: c7 5d:       ldw (ru6)       r7, sp[0x7]
             0x00011720: 08 5e:       ldw (ru6)       r8, sp[0x8]
             0x00011722: 49 5e:       ldw (ru6)       r9, sp[0x9]
             0x00011724: 8a 5e:       ldw (ru6)       r10, sp[0xa]
             0x00011726: 04 f0 cc 77: retsp (lu6)     0x10c
.label172    0x0001172a: 04 5d:       ldw (ru6)       r4, sp[0x4]
             0x0001172c: 45 5d:       ldw (ru6)       r5, sp[0x5]
             0x0001172e: 86 5d:       ldw (ru6)       r6, sp[0x6]
             0x00011730: c7 5d:       ldw (ru6)       r7, sp[0x7]
             0x00011732: 08 5e:       ldw (ru6)       r8, sp[0x8]
             0x00011734: 49 5e:       ldw (ru6)       r9, sp[0x9]
             0x00011736: 8a 5e:       ldw (ru6)       r10, sp[0xa]
             0x00011738: 04 f0 cc 77: retsp (lu6)     0x10c
.label173    0x0001173c: 02 68:       ldc (ru6)       r0, 0x2
             0x0001173e: c8 80:       ld16s (3r)      r0, r6[r0]
             0x00011740: 31 47:       zext (rus)      r0, 0x10
             0x00011742: 34 a7:       mkmsk (rus)     r1, 0x8
             0x00011744: 21 38:       and (3r)        r2, r0, r1
             0x00011746: 02 68:       ldc (ru6)       r0, 0x2
             0x00011748: 02 c0:       lss (3r)        r0, r0, r2
             0x0001174a: 1e 74:       bt (ru6)        r0, -0x1e <.label174>
             0x0001174c: 00 68:       ldc (ru6)       r0, 0x0
             0x0001174e: 14 89:       ld8u (3r)       r5, r5[r0]
             0x00011750: 12 f0 e6 60: ldaw (lru6)     r3, dp[0x4a6]
             0x00011754: 00 f0 9c 6c: ldw (lru6)      r2, cp[0x1c]
             0x00011758: 02 68:       ldc (ru6)       r0, 0x2
             0x0001175a: c8 80:       ld16s (3r)      r0, r6[r0]
             0x0001175c: 31 47:       zext (rus)      r0, 0x10
             0x0001175e: 01 38:       and (3r)        r0, r0, r1
             0x00011760: 22 c8:       lsu (3r)        r2, r0, r2
             0x00011762: e2 4f:       ecallf (1r)     r2
             0x00011764: 5c f8 ec 07: stw (l3r)       r5, r3[r0]
             0x00011768: c0 90:       add (2rus)      r0, r4, 0x0
             0x0001176a: 82 68:       ldc (ru6)       r2, 0x2
             0x0001176c: ea 80:       ld16s (3r)      r2, r6[r2]
             0x0001176e: 39 47:       zext (rus)      r2, 0x10
             0x00011770: 19 38:       and (3r)        r1, r2, r1
             0x00011772: a8 91:       add (2rus)      r2, r10, 0x0
             0x00011774: a1 d7:       bl (u10)        -0x3a1 <updateVol>
             0x00011776: 34 77:       bu (u6)         -0x34 <.label174>
.label171    0x00011778: 02 68:       ldc (ru6)       r0, 0x2
             0x0001177a: 08 80:       ld16s (3r)      r0, r2[r0]
             0x0001177c: 31 47:       zext (rus)      r0, 0x10
             0x0001177e: 34 a7:       mkmsk (rus)     r1, 0x8
             0x00011780: 21 38:       and (3r)        r2, r0, r1
             0x00011782: 02 68:       ldc (ru6)       r0, 0x2
             0x00011784: 02 c0:       lss (3r)        r0, r0, r2
             0x00011786: 07 78:       bf (ru6)        r0, 0x7 <.label175>
             0x00011788: 4b 65:       ldaw (ru6)      r5, sp[0xb]
             0x0001178a: 40 68:       ldc (ru6)       r1, 0x0
             0x0001178c: 00 68:       ldc (ru6)       r0, 0x0
             0x0001178e: d4 f8 ec 8f: st8 (l3r)       r1, r5[r0]
             0x00011792: 01 f0 3d 77: bu (lu6)        -0x7d <.label176>
.label175    0x00011796: 12 f0 a6 60: ldaw (lru6)     r2, dp[0x4a6]
             0x0001179a: 00 f0 dc 6c: ldw (lru6)      r3, cp[0x1c]
             0x0001179e: 02 68:       ldc (ru6)       r0, 0x2
             0x000117a0: c8 80:       ld16s (3r)      r0, r6[r0]
             0x000117a2: 31 47:       zext (rus)      r0, 0x10
             0x000117a4: 01 38:       and (3r)        r0, r0, r1
             0x000117a6: 13 c8:       lsu (3r)        r1, r0, r3
             0x000117a8: e1 4f:       ecallf (1r)     r1
             0x000117aa: 18 48:       ldw (3r)        r1, r2[r0]
             0x000117ac: 4b 65:       ldaw (ru6)      r5, sp[0xb]
             0x000117ae: 00 68:       ldc (ru6)       r0, 0x0
             0x000117b0: d4 f8 ec 8f: st8 (l3r)       r1, r5[r0]
             0x000117b4: 02 f0 0e 77: bu (lu6)        -0x8e <.label176>
.label132    0x000117b8: d2 a6:       mkmsk (rus)     r0, 0x2
             0x000117ba: 08 80:       ld16s (3r)      r0, r2[r0]
             0x000117bc: 31 47:       zext (rus)      r0, 0x10
             0x000117be: 90 fc ec 97: ashr (l2rus)    r1, r0, 0x8
             0x000117c2: 2a 68:       ldc (ru6)       r0, 0x2a
             0x000117c4: 04 30:       eq (3r)         r0, r1, r0
             0x000117c6: 0e 70:       bt (ru6)        r0, 0xe <.label177>
             0x000117c8: 2b 68:       ldc (ru6)       r0, 0x2b
             0x000117ca: 04 30:       eq (3r)         r0, r1, r0
             0x000117cc: 0b 70:       bt (ru6)        r0, 0xb <.label177>
             0x000117ce: 29 68:       ldc (ru6)       r0, 0x29
             0x000117d0: 04 30:       eq (3r)         r0, r1, r0
             0x000117d2: 08 70:       bt (ru6)        r0, 0x8 <.label177>
             0x000117d4: 87 b4:       eq (2rus)       r0, r1, 0xb
             0x000117d6: 01 f0 35 70: bt (lru6)       r0, 0x75 <.label178>
             0x000117da: 86 b4:       eq (2rus)       r0, r1, 0xa
             0x000117dc: 01 f0 32 70: bt (lru6)       r0, 0x72 <.label178>
             0x000117e0: 0c f0 14 77: bu (lu6)        -0x314 <.label136>
.label177    0x000117e4: 02 68:       ldc (ru6)       r0, 0x2
             0x000117e6: 08 80:       ld16s (3r)      r0, r2[r0]
             0x000117e8: 31 47:       zext (rus)      r0, 0x10
             0x000117ea: 80 fc ec 97: ashr (l2rus)    r0, r0, 0x8
             0x000117ee: 01 b0:       eq (2rus)       r0, r0, 0x1
             0x000117f0: 02 70:       bt (ru6)        r0, 0x2 <.label179>
             0x000117f2: 0c f0 1d 77: bu (lu6)        -0x31d <.label136>
.label179    0x000117f6: 02 68:       ldc (ru6)       r0, 0x2
             0x000117f8: 04 f0 0b 54: stw (lru6)      r0, sp[0x10b]
             0x000117fc: 00 f0 1e 6c: ldw (lru6)      r0, cp[0x1e]
             0x00011800: 11 a7:       mkmsk (rus)     r4, 0x1
             0x00011802: c0 c8:       lsu (3r)        r0, r4, r0
             0x00011804: e0 4f:       ecallf (1r)     r0
             0x00011806: 11 f0 01 58: ldw (lru6)      r0, dp[0x441]
             0x0001180a: 01 f0 11 70: bt (lru6)       r0, 0x51 <.label180>
.label181    0x0001180e: 4b 65:       ldaw (ru6)      r5, sp[0xb]
             0x00011810: c4 90:       add (2rus)      r0, r5, 0x0
             0x00011812: 04 f0 4b 66: ldaw (lru6)     r9, sp[0x10b]
             0x00011816: 94 91:       add (2rus)      r1, r9, 0x0
             0x00011818: b1 f2 84 68: ldc (lru6)      r2, 0xac44
             0x0001181c: 10 f0 c0 68: ldc (lru6)      r3, 0x400
             0x00011820: 01 f0 14 d5: bl (lu10)       -0x514 <storeFreq>
             0x00011824: c4 90:       add (2rus)      r0, r5, 0x0
             0x00011826: 94 91:       add (2rus)      r1, r9, 0x0
             0x00011828: ee f2 80 68: ldc (lru6)      r2, 0xbb80
             0x0001182c: 10 f0 c0 68: ldc (lru6)      r3, 0x400
             0x00011830: 01 f0 1c d5: bl (lu10)       -0x51c <storeFreq>
             0x00011834: c4 90:       add (2rus)      r0, r5, 0x0
             0x00011836: 94 91:       add (2rus)      r1, r9, 0x0
             0x00011838: 00 f0 95 6c: ldw (lru6)      r2, cp[0x15]
             0x0001183c: 10 f0 c0 68: ldc (lru6)      r3, 0x400
             0x00011840: 01 f0 24 d5: bl (lu10)       -0x524 <storeFreq>
             0x00011844: c4 90:       add (2rus)      r0, r5, 0x0
             0x00011846: 94 91:       add (2rus)      r1, r9, 0x0
             0x00011848: 00 f0 96 6c: ldw (lru6)      r2, cp[0x16]
             0x0001184c: 10 f0 c0 68: ldc (lru6)      r3, 0x400
             0x00011850: 01 f0 2c d5: bl (lu10)       -0x52c <storeFreq>
             0x00011854: c4 90:       add (2rus)      r0, r5, 0x0
             0x00011856: 94 91:       add (2rus)      r1, r9, 0x0
             0x00011858: 00 f0 97 6c: ldw (lru6)      r2, cp[0x17]
             0x0001185c: 10 f0 c0 68: ldc (lru6)      r3, 0x400
             0x00011860: 01 f0 34 d5: bl (lu10)       -0x534 <storeFreq>
             0x00011864: c4 90:       add (2rus)      r0, r5, 0x0
             0x00011866: 94 91:       add (2rus)      r1, r9, 0x0
             0x00011868: 00 f0 98 6c: ldw (lru6)      r2, cp[0x18]
             0x0001186c: 10 f0 c0 68: ldc (lru6)      r3, 0x400
             0x00011870: 01 f0 3c d5: bl (lu10)       -0x53c <storeFreq>
             0x00011874: 86 68:       ldc (ru6)       r2, 0x6
             0x00011876: 40 68:       ldc (ru6)       r1, 0x0
             0x00011878: 00 68:       ldc (ru6)       r0, 0x0
             0x0001187a: 04 fb ec 8f: st8 (l3r)       r0, r5[r4]
             0x0001187e: e5 f8 ec 8f: st8 (l3r)       r2, r5[r1]
             0x00011882: 80 91:       add (2rus)      r0, r8, 0x0
             0x00011884: dc 90:       add (2rus)      r1, r7, 0x0
             0x00011886: e4 90:       add (2rus)      r2, r5, 0x0
             0x00011888: 04 f0 cb 5c: ldw (lru6)      r3, sp[0x10b]
             0x0001188c: 04 69:       ldc (ru6)       r4, 0x4
             0x0001188e: 48 83:       ld16s (3r)      r4, r6[r4]
             0x00011890: 71 47:       zext (rus)      r4, 0x10
             0x00011892: 01 55:       stw (ru6)       r4, sp[0x1]
             0x00011894: 10 f0 00 69: ldc (lru6)      r4, 0x400
             0x00011898: 02 55:       stw (ru6)       r4, sp[0x2]
             0x0001189a: 01 f0 61 d7: bl (lu10)       -0x761 <XUD_DoGetRequest>
             0x0001189e: 04 5d:       ldw (ru6)       r4, sp[0x4]
             0x000118a0: 45 5d:       ldw (ru6)       r5, sp[0x5]
             0x000118a2: 86 5d:       ldw (ru6)       r6, sp[0x6]
             0x000118a4: c7 5d:       ldw (ru6)       r7, sp[0x7]
             0x000118a6: 08 5e:       ldw (ru6)       r8, sp[0x8]
             0x000118a8: 49 5e:       ldw (ru6)       r9, sp[0x9]
             0x000118aa: 8a 5e:       ldw (ru6)       r10, sp[0xa]
             0x000118ac: 04 f0 cc 77: retsp (lu6)     0x10c
.label180    0x000118b0: 00 f0 1e 6c: ldw (lru6)      r0, cp[0x1e]
             0x000118b4: c0 c8:       lsu (3r)        r0, r4, r0
             0x000118b6: e0 4f:       ecallf (1r)     r0
             0x000118b8: 11 f0 01 58: ldw (lru6)      r0, dp[0x441]
             0x000118bc: 04 f0 4c d0: bl (lu10)       0x104c <printint>
             0x000118c0: 01 f0 1b 77: bu (lu6)        -0x5b <.label181>
.label178    0x000118c4: 02 68:       ldc (ru6)       r0, 0x2
             0x000118c6: 08 80:       ld16s (3r)      r0, r2[r0]
             0x000118c8: 31 47:       zext (rus)      r0, 0x10
             0x000118ca: 80 fc ec 97: ashr (l2rus)    r0, r0, 0x8
             0x000118ce: 02 b0:       eq (2rus)       r0, r0, 0x2
             0x000118d0: 02 70:       bt (ru6)        r0, 0x2 <.label182>
             0x000118d2: 0e f0 0d 77: bu (lu6)        -0x38d <.label136>
.label182    0x000118d6: 4b 65:       ldaw (ru6)      r5, sp[0xb]
             0x000118d8: 11 a7:       mkmsk (rus)     r4, 0x1
             0x000118da: 40 68:       ldc (ru6)       r1, 0x0
             0x000118dc: 00 68:       ldc (ru6)       r0, 0x0
             0x000118de: 04 fb ec 8f: st8 (l3r)       r0, r5[r4]
             0x000118e2: 05 f9 ec 8f: st8 (l3r)       r4, r5[r1]
             0x000118e6: 00 f0 19 6c: ldw (lru6)      r0, cp[0x19]
             0x000118ea: 02 69:       ldc (ru6)       r4, 0x2
             0x000118ec: b0 fc ec 97: ashr (l2rus)    r3, r0, 0x8
             0x000118f0: da a6:       mkmsk (rus)     r2, 0x2
             0x000118f2: f6 f8 ec 8f: st8 (l3r)       r3, r5[r2]
             0x000118f6: 04 fb ec 8f: st8 (l3r)       r0, r5[r4]
             0x000118fa: 84 68:       ldc (ru6)       r2, 0x4
             0x000118fc: b4 fc ec 97: ashr (l2rus)    r3, r1, 0x8
             0x00011900: 05 68:       ldc (ru6)       r0, 0x5
             0x00011902: f4 f8 ec 8f: st8 (l3r)       r3, r5[r0]
             0x00011906: d6 f8 ec 8f: st8 (l3r)       r1, r5[r2]
             0x0001190a: 04 f0 00 68: ldc (lru6)      r0, 0x100
             0x0001190e: c6 68:       ldc (ru6)       r3, 0x6
             0x00011910: a0 fc ec 97: ashr (l2rus)    r2, r0, 0x8
             0x00011914: d7 a6:       mkmsk (rus)     r1, 0x3
             0x00011916: e5 f8 ec 8f: st8 (l3r)       r2, r5[r1]
             0x0001191a: c7 f8 ec 8f: st8 (l3r)       r0, r5[r3]
             0x0001191e: 80 91:       add (2rus)      r0, r8, 0x0
             0x00011920: dc 90:       add (2rus)      r1, r7, 0x0
             0x00011922: e4 90:       add (2rus)      r2, r5, 0x0
             0x00011924: c4 68:       ldc (ru6)       r3, 0x4
             0x00011926: fb 80:       ld16s (3r)      r3, r6[r3]
             0x00011928: 3d 47:       zext (rus)      r3, 0x10
             0x0001192a: 04 69:       ldc (ru6)       r4, 0x4
             0x0001192c: 48 83:       ld16s (3r)      r4, r6[r4]
             0x0001192e: 71 47:       zext (rus)      r4, 0x10
             0x00011930: 01 55:       stw (ru6)       r4, sp[0x1]
             0x00011932: 10 f0 00 69: ldc (lru6)      r4, 0x400
             0x00011936: 02 55:       stw (ru6)       r4, sp[0x2]
             0x00011938: 01 f0 b0 d7: bl (lu10)       -0x7b0 <XUD_DoGetRequest>
             0x0001193c: 04 5d:       ldw (ru6)       r4, sp[0x4]
             0x0001193e: 45 5d:       ldw (ru6)       r5, sp[0x5]
             0x00011940: 86 5d:       ldw (ru6)       r6, sp[0x6]
             0x00011942: c7 5d:       ldw (ru6)       r7, sp[0x7]
             0x00011944: 08 5e:       ldw (ru6)       r8, sp[0x8]
             0x00011946: 49 5e:       ldw (ru6)       r9, sp[0x9]
             0x00011948: 8a 5e:       ldw (ru6)       r10, sp[0xa]
             0x0001194a: 04 f0 cc 77: retsp (lu6)     0x10c
             0x0001194e: 00 00:       stw (2rus)      r0, r0[0x0]

<db_to_mult>:
             0x00011950: 46 77:       entsp (u6)      0x6
             0x00011952: 00 55:       stw (ru6)       r4, sp[0x0]
             0x00011954: 41 55:       stw (ru6)       r5, sp[0x1]
             0x00011956: 82 55:       stw (ru6)       r6, sp[0x2]
             0x00011958: c3 55:       stw (ru6)       r7, sp[0x3]
             0x0001195a: 04 56:       stw (ru6)       r8, sp[0x4]
             0x0001195c: 45 56:       stw (ru6)       r9, sp[0x5]
             0x0001195e: 00 69:       ldc (ru6)       r4, 0x0
             0x00011960: f0 90:       add (2rus)      r3, r4, 0x0
             0x00011962: 20 91:       add (2rus)      r6, r4, 0x0
             0x00011964: 00 f0 5f 6d: ldw (lru6)      r5, cp[0x1f]
             0x00011968: c5 8f:       not (2r)        r5, r5
             0x0001196a: 2d 78:       bf (ru6)        r0, 0x2d <.label183>
             0x0001196c: d7 69:       ldc (ru6)       r7, 0x17
             0x0001196e: dd 18:       sub (3r)        r1, r7, r1
             0x00011970: 01 20:       shl (3r)        r0, r0, r1
             0x00011972: 0a 6a:       ldc (ru6)       r8, 0xa
             0x00011974: 80 fc ec 47: divs (l3r)      r0, r0, r8
             0x00011978: 40 a2:       shl (2rus)      r0, r0, 0x4
             0x0001197a: 50 c2:       lss (3r)        r1, r0, r4
             0x0001197c: 6d 70:       bt (ru6)        r1, 0x2d <.label184>
             0x0001197e: b1 3a:       and (3r)        r7, r0, r5
             0x00011980: 43 1a:       sub (3r)        r0, r0, r7
             0x00011982: 5c 69:       ldc (ru6)       r5, 0x1c
             0x00011984: 7d fb ec 17: ashr (l3r)      r7, r7, r5
             0x00011988: f9 71:       bt (ru6)        r7, 0x39 <.label185>
.label189    0x0001198a: d0 90:       add (2rus)      r1, r4, 0x0
             0x0001198c: 00 f0 10 62: ldaw (lru6)     r8, dp[0x10]
             0x00011990: ce 69:       ldc (ru6)       r7, 0xe
.label186    0x00011992: 70 91:       add (2rus)      r11, r4, 0x0
             0x00011994: 50 91:       add (2rus)      r9, r4, 0x0
             0x00011996: b3 f8 e9 0f: maccs (l4r)     r11, r9, r0, r3
             0x0001199a: 7c a4:       shl (2rus)      r11, r11, 0x4
             0x0001199c: f5 2b:       shr (3r)        r3, r9, r5
             0x0001199e: bf 41:       or (3r)         r3, r11, r3
             0x000119a0: d7 ca:       lsu (3r)        r9, r1, r7
             0x000119a2: e9 4f:       ecallf (1r)     r9
             0x000119a4: 11 4a:       ldw (3r)        r9, r8[r1]
             0x000119a6: bd 14:       add (3r)        r3, r3, r9
             0x000119a8: 15 90:       add (2rus)      r1, r1, 0x1
             0x000119aa: d7 c2:       lss (3r)        r9, r1, r7
             0x000119ac: 4e 76:       bt (ru6)        r9, -0xe <.label186>
             0x000119ae: b2 71:       bt (ru6)        r6, 0x32 <.label187>
.label193    0x000119b0: c6 c0:       lss (3r)        r0, r5, r2
             0x000119b2: 37 70:       bt (ru6)        r0, 0x37 <.label188>
             0x000119b4: c6 18:       sub (3r)        r0, r5, r2
             0x000119b6: 0c 28:       shr (3r)        r0, r3, r0
             0x000119b8: 00 5d:       ldw (ru6)       r4, sp[0x0]
             0x000119ba: 41 5d:       ldw (ru6)       r5, sp[0x1]
             0x000119bc: 82 5d:       ldw (ru6)       r6, sp[0x2]
             0x000119be: c3 5d:       ldw (ru6)       r7, sp[0x3]
             0x000119c0: 04 5e:       ldw (ru6)       r8, sp[0x4]
             0x000119c2: 45 5e:       ldw (ru6)       r9, sp[0x5]
             0x000119c4: c6 77:       retsp (u6)      0x6
.label183    0x000119c6: d1 a6:       mkmsk (rus)     r0, 0x1
             0x000119c8: 02 20:       shl (3r)        r0, r0, r2
             0x000119ca: 00 5d:       ldw (ru6)       r4, sp[0x0]
             0x000119cc: 41 5d:       ldw (ru6)       r5, sp[0x1]
             0x000119ce: 82 5d:       ldw (ru6)       r6, sp[0x2]
             0x000119d0: c3 5d:       ldw (ru6)       r7, sp[0x3]
             0x000119d2: 04 5e:       ldw (ru6)       r8, sp[0x4]
             0x000119d4: 45 5e:       ldw (ru6)       r9, sp[0x5]
             0x000119d6: c6 77:       retsp (u6)      0x6
.label184    0x000119d8: c4 96:       neg (2r)        r1, r0
             0x000119da: b5 3a:       and (3r)        r7, r1, r5
             0x000119dc: 43 12:       add (3r)        r0, r0, r7
             0x000119de: 5c 69:       ldc (ru6)       r5, 0x1c
             0x000119e0: 7d fb ec 17: ashr (l3r)      r7, r7, r5
             0x000119e4: ee 7d:       bf (ru6)        r7, -0x2e <.label189>
             0x000119e6: 00 f0 a0 6d: ldw (lru6)      r6, cp[0x20]
             0x000119ea: d0 90:       add (2rus)      r1, r4, 0x0
             0x000119ec: 93 c3:       lss (3r)        r9, r4, r7
             0x000119ee: 73 7e:       bf (ru6)        r9, -0x33 <.label189>
.label190    0x000119f0: a8 fd ec 47: divs (l3r)      r6, r6, r8
             0x000119f4: 15 90:       add (2rus)      r1, r1, 0x1
             0x000119f6: d7 c2:       lss (3r)        r9, r1, r7
             0x000119f8: 45 76:       bt (ru6)        r9, -0x5 <.label190>
             0x000119fa: 39 77:       bu (u6)         -0x39 <.label189>
.label185    0x000119fc: 00 f0 a0 6d: ldw (lru6)      r6, cp[0x20]
             0x00011a00: d0 90:       add (2rus)      r1, r4, 0x0
             0x00011a02: 93 c3:       lss (3r)        r9, r4, r7
             0x00011a04: 41 72:       bt (ru6)        r9, 0x1 <.label191>
.label192    0x00011a06: 3f 77:       bu (u6)         -0x3f <.label189>
.label191    0x00011a08: a8 fd ec 3f: mul (l3r)       r6, r6, r8
             0x00011a0c: 15 90:       add (2rus)      r1, r1, 0x1
             0x00011a0e: d7 c2:       lss (3r)        r9, r1, r7
             0x00011a10: 45 76:       bt (ru6)        r9, -0x5 <.label191>
             0x00011a12: 07 77:       bu (u6)         -0x7 <.label192>
.label187    0x00011a14: c0 90:       add (2rus)      r0, r4, 0x0
             0x00011a16: 0b f9 e0 0f: maccs (l4r)     r4, r0, r6, r3
             0x00011a1a: 10 a3:       shl (2rus)      r1, r4, 0x4
             0x00011a1c: 41 2a:       shr (3r)        r0, r0, r5
             0x00011a1e: 34 40:       or (3r)         r3, r1, r0
             0x00011a20: 39 77:       bu (u6)         -0x39 <.label193>
.label188    0x00011a22: 49 1a:       sub (3r)        r0, r2, r5
             0x00011a24: 0c 20:       shl (3r)        r0, r3, r0
             0x00011a26: 00 5d:       ldw (ru6)       r4, sp[0x0]
             0x00011a28: 41 5d:       ldw (ru6)       r5, sp[0x1]
             0x00011a2a: 82 5d:       ldw (ru6)       r6, sp[0x2]
             0x00011a2c: c3 5d:       ldw (ru6)       r7, sp[0x3]
             0x00011a2e: 04 5e:       ldw (ru6)       r8, sp[0x4]
             0x00011a30: 45 5e:       ldw (ru6)       r9, sp[0x5]
             0x00011a32: c6 77:       retsp (u6)      0x6

<Endpoint0>:
             0x00011a34: 02 f0 61 77: entsp (lu6)     0xa1
             0x00011a38: 44 90:       add (2rus)      r4, r1, 0x0
             0x00011a3a: a8 90:       add (2rus)      r10, r2, 0x0
             0x00011a3c: ce 54:       stw (ru6)       r3, sp[0xe]
             0x00011a3e: 01 f0 d1 d7: bl (lu10)       -0x7d1 <XUD_Init_Ep>
             0x00011a42: 02 f0 12 54: stw (lru6)      r0, sp[0x92]
             0x00011a46: c0 90:       add (2rus)      r0, r4, 0x0
             0x00011a48: 01 f0 d6 d7: bl (lu10)       -0x7d6 <XUD_Init_Ep>
             0x00011a4c: 40 90:       add (2rus)      r4, r0, 0x0
             0x00011a4e: 40 69:       ldc (ru6)       r5, 0x0
             0x00011a50: c4 90:       add (2rus)      r0, r5, 0x0
             0x00011a52: 12 f0 e9 60: ldaw (lru6)     r3, dp[0x4a9]
             0x00011a56: 1e a7:       mkmsk (rus)     r7, 0x2
             0x00011a58: 12 f0 a6 60: ldaw (lru6)     r2, dp[0x4a6]
.label194    0x00011a5c: 53 ca:       lsu (3r)        r1, r0, r7
             0x00011a5e: e1 4f:       ecallf (1r)     r1
             0x00011a60: 5c f8 ec 07: stw (l3r)       r5, r3[r0]
             0x00011a64: 53 ca:       lsu (3r)        r1, r0, r7
             0x00011a66: e1 4f:       ecallf (1r)     r1
             0x00011a68: 58 f8 ec 07: stw (l3r)       r5, r2[r0]
             0x00011a6c: 01 90:       add (2rus)      r0, r0, 0x1
             0x00011a6e: 53 c2:       lss (3r)        r1, r0, r7
             0x00011a70: 4b 74:       bt (ru6)        r1, -0xb <.label194>
             0x00011a72: c4 90:       add (2rus)      r0, r5, 0x0
             0x00011a74: 12 f0 e3 60: ldaw (lru6)     r3, dp[0x4a3]
             0x00011a78: 12 f0 a0 60: ldaw (lru6)     r2, dp[0x4a0]
.label195    0x00011a7c: 53 ca:       lsu (3r)        r1, r0, r7
             0x00011a7e: e1 4f:       ecallf (1r)     r1
             0x00011a80: 5c f8 ec 07: stw (l3r)       r5, r3[r0]
             0x00011a84: 53 ca:       lsu (3r)        r1, r0, r7
             0x00011a86: e1 4f:       ecallf (1r)     r1
             0x00011a88: 58 f8 ec 07: stw (l3r)       r5, r2[r0]
             0x00011a8c: 01 90:       add (2rus)      r0, r0, 0x1
             0x00011a8e: 53 c2:       lss (3r)        r1, r0, r7
             0x00011a90: 4b 74:       bt (ru6)        r1, -0xb <.label195>
             0x00011a92: c4 90:       add (2rus)      r0, r5, 0x0
             0x00011a94: 11 f0 97 60: ldaw (lru6)     r2, dp[0x457]
             0x00011a98: 02 f0 90 69: ldc (lru6)      r6, 0x90
             0x00011a9c: 00 f2 c1 68: ldc (lru6)      r3, 0x8001
.label196    0x00011aa0: 52 ca:       lsu (3r)        r1, r0, r6
             0x00011aa2: e1 4f:       ecallf (1r)     r1
             0x00011aa4: 38 f8 ec 87: st16 (l3r)      r3, r2[r0]
             0x00011aa8: 01 90:       add (2rus)      r0, r0, 0x1
             0x00011aaa: 52 c2:       lss (3r)        r1, r0, r6
             0x00011aac: 47 74:       bt (ru6)        r1, -0x7 <.label196>
             0x00011aae: 00 68:       ldc (ru6)       r0, 0x0
             0x00011ab0: 58 f8 ec 87: st16 (l3r)      r5, r2[r0]
             0x00011ab4: 09 68:       ldc (ru6)       r0, 0x9
             0x00011ab6: 58 f8 ec 87: st16 (l3r)      r5, r2[r0]
             0x00011aba: 52 68:       ldc (ru6)       r1, 0x12
             0x00011abc: 59 f8 ec 87: st16 (l3r)      r5, r2[r1]
             0x00011ac0: 1b 68:       ldc (ru6)       r0, 0x1b
             0x00011ac2: 58 f8 ec 87: st16 (l3r)      r5, r2[r0]
             0x00011ac6: 24 68:       ldc (ru6)       r0, 0x24
             0x00011ac8: 58 f8 ec 87: st16 (l3r)      r5, r2[r0]
             0x00011acc: 2d 68:       ldc (ru6)       r0, 0x2d
             0x00011ace: 58 f8 ec 87: st16 (l3r)      r5, r2[r0]
             0x00011ad2: 36 68:       ldc (ru6)       r0, 0x36
             0x00011ad4: 58 f8 ec 87: st16 (l3r)      r5, r2[r0]
             0x00011ad8: 92 a7:       mkmsk (rus)     r0, 0x6
             0x00011ada: 58 f8 ec 87: st16 (l3r)      r5, r2[r0]
             0x00011ade: c4 90:       add (2rus)      r0, r5, 0x0
             0x00011ae0: 11 f0 d3 60: ldaw (lru6)     r3, dp[0x453]
             0x00011ae4: 82 69:       ldc (ru6)       r6, 0x2
.label197    0x00011ae6: 62 ca:       lsu (3r)        r2, r0, r6
             0x00011ae8: e2 4f:       ecallf (1r)     r2
             0x00011aea: 0c f8 ec 8f: st8 (l3r)       r0, r3[r0]
             0x00011aee: 01 90:       add (2rus)      r0, r0, 0x1
             0x00011af0: 62 c2:       lss (3r)        r2, r0, r6
             0x00011af2: 87 74:       bt (ru6)        r2, -0x7 <.label197>
             0x00011af4: c4 90:       add (2rus)      r0, r5, 0x0
             0x00011af6: 11 f0 d2 60: ldaw (lru6)     r3, dp[0x452]
.label198    0x00011afa: 82 90:       add (2rus)      r8, r0, 0x2
             0x00011afc: 62 ca:       lsu (3r)        r2, r0, r6
             0x00011afe: e2 4f:       ecallf (1r)     r2
             0x00011b00: 8c f8 ec 8f: st8 (l3r)       r8, r3[r0]
             0x00011b04: 01 90:       add (2rus)      r0, r0, 0x1
             0x00011b06: 62 c2:       lss (3r)        r2, r0, r6
             0x00011b08: 88 74:       bt (ru6)        r2, -0x8 <.label198>
             0x00011b0a: c4 90:       add (2rus)      r0, r5, 0x0
             0x00011b0c: 11 f0 d4 60: ldaw (lru6)     r3, dp[0x454]
             0x00011b10: 8c 68:       ldc (ru6)       r2, 0xc
             0x00011b12: 44 6a:       ldc (ru6)       r9, 0x4
.label199    0x00011b14: 82 c8:       lsu (3r)        r8, r0, r2
             0x00011b16: e8 4f:       ecallf (1r)     r8
             0x00011b18: 0c f8 ec 8f: st8 (l3r)       r0, r3[r0]
             0x00011b1c: 01 90:       add (2rus)      r0, r0, 0x1
             0x00011b1e: 01 c5:       lss (3r)        r8, r0, r9
             0x00011b20: 07 76:       bt (ru6)        r8, -0x7 <.label199>
             0x00011b22: 44 91:       add (2rus)      r8, r5, 0x0
             0x00011b24: 48 6a:       ldc (ru6)       r9, 0x8
.label200    0x00011b26: c0 93:       add (2rus)      r0, r8, 0x4
             0x00011b28: b2 c8:       lsu (3r)        r11, r0, r2
             0x00011b2a: eb 4f:       ecallf (1r)     r11
             0x00011b2c: 8c f8 ec 8f: st8 (l3r)       r8, r3[r0]
             0x00011b30: 01 92:       add (2rus)      r8, r8, 0x1
             0x00011b32: 01 c6:       lss (3r)        r0, r8, r9
             0x00011b34: 08 74:       bt (ru6)        r0, -0x8 <.label200>
             0x00011b36: c4 90:       add (2rus)      r0, r5, 0x0
             0x00011b38: 11 f0 cd 60: ldaw (lru6)     r3, dp[0x44d]
.label201    0x00011b3c: 21 c8:       lsu (3r)        r2, r0, r1
             0x00011b3e: e2 4f:       ecallf (1r)     r2
             0x00011b40: 0c f8 ec 8f: st8 (l3r)       r0, r3[r0]
             0x00011b44: 01 90:       add (2rus)      r0, r0, 0x1
             0x00011b46: 21 c0:       lss (3r)        r2, r0, r1
             0x00011b48: 87 74:       bt (ru6)        r2, -0x7 <.label201>
             0x00011b4a: 01 f0 32 60: ldaw (lru6)     r0, dp[0x72]
             0x00011b4e: 0b f0 48 60: ldaw (lru6)     r1, dp[0x2c8]
             0x00011b52: da a6:       mkmsk (rus)     r2, 0x2
             0x00011b54: e8 68:       ldc (ru6)       r3, 0x28
             0x00011b56: 52 a7:       mkmsk (rus)     r8, 0x2
             0x00011b58: 01 56:       stw (ru6)       r8, sp[0x1]
             0x00011b5a: 03 f0 be d3: bl (lu10)       0xfbe <safememcpy>
             0x00011b5e: 02 f0 13 55: stw (lru6)      r4, sp[0x93]
             0x00011b62: 02 f0 14 55: stw (lru6)      r4, sp[0x94]
             0x00011b66: 02 f0 20 55: stw (lru6)      r4, sp[0xa0]
             0x00011b6a: 02 f0 17 55: stw (lru6)      r4, sp[0x97]
             0x00011b6e: 02 f0 1f 55: stw (lru6)      r4, sp[0x9f]
             0x00011b72: 02 f0 16 55: stw (lru6)      r4, sp[0x96]
             0x00011b76: 02 f0 15 55: stw (lru6)      r4, sp[0x95]
             0x00011b7a: 02 f0 18 55: stw (lru6)      r4, sp[0x98]
             0x00011b7e: 02 f0 19 55: stw (lru6)      r4, sp[0x99]
             0x00011b82: 02 f0 1a 55: stw (lru6)      r4, sp[0x9a]
             0x00011b86: 02 f0 1b 55: stw (lru6)      r4, sp[0x9b]
             0x00011b8a: d1 a6:       mkmsk (rus)     r0, 0x1
             0x00011b8c: 02 f0 1c 54: stw (lru6)      r0, sp[0x9c]
             0x00011b90: 02 f0 1d 55: stw (lru6)      r4, sp[0x9d]
             0x00011b94: 02 f0 1e 55: stw (lru6)      r4, sp[0x9e]
.label205    0x00011b98: 11 f0 04 58: ldw (lru6)      r0, dp[0x444]
             0x00011b9c: 42 32:       eq (3r)         r0, r0, r6
             0x00011b9e: 01 f0 09 70: bt (lru6)       r0, 0x49 <.label202>
             0x00011ba2: 0b f0 40 60: ldaw (lru6)     r1, dp[0x2c0]
             0x00011ba6: d1 a6:       mkmsk (rus)     r0, 0x1
             0x00011ba8: 64 f8 ec 8f: st8 (l3r)       r6, r1[r0]
             0x00011bac: 00 f0 ae 60: ldaw (lru6)     r2, dp[0x2e]
             0x00011bb0: dd a6:       mkmsk (rus)     r3, 0x1
             0x00011bb2: d3 a6:       mkmsk (rus)     r0, 0x3
             0x00011bb4: 0b f8 ec 8f: st8 (l3r)       r0, r2[r3]
             0x00011bb8: 02 f0 12 5c: ldw (lru6)      r0, sp[0x92]
             0x00011bbc: 84 90:       add (2rus)      r8, r1, 0x0
             0x00011bbe: 98 90:       add (2rus)      r9, r2, 0x0
             0x00011bc0: 02 f0 0f 65: ldaw (lru6)     r4, sp[0x8f]
             0x00011bc4: 02 f0 54 5c: ldw (lru6)      r1, sp[0x94]
             0x00011bc8: 00 f0 a3 60: ldaw (lru6)     r2, dp[0x23]
             0x00011bcc: d2 68:       ldc (ru6)       r3, 0x12
             0x00011bce: 01 56:       stw (ru6)       r8, sp[0x1]
             0x00011bd0: 13 6a:       ldc (ru6)       r8, 0x13
             0x00011bd2: 02 56:       stw (ru6)       r8, sp[0x2]
             0x00011bd4: 00 f0 28 62: ldaw (lru6)     r8, dp[0x28]
             0x00011bd8: 03 56:       stw (ru6)       r8, sp[0x3]
             0x00011bda: 0a 6a:       ldc (ru6)       r8, 0xa
             0x00011bdc: 04 56:       stw (ru6)       r8, sp[0x4]
             0x00011bde: 45 56:       stw (ru6)       r9, sp[0x5]
             0x00011be0: 04 f0 0d 6a: ldc (lru6)      r8, 0x10d
             0x00011be4: 06 56:       stw (ru6)       r8, sp[0x6]
             0x00011be6: 01 f0 32 62: ldaw (lru6)     r8, dp[0x72]
             0x00011bea: 07 56:       stw (ru6)       r8, sp[0x7]
             0x00011bec: 08 55:       stw (ru6)       r4, sp[0x8]
             0x00011bee: 12 6a:       ldc (ru6)       r8, 0x12
             0x00011bf0: 09 56:       stw (ru6)       r8, sp[0x9]
             0x00011bf2: 13 6a:       ldc (ru6)       r8, 0x13
             0x00011bf4: 0a 56:       stw (ru6)       r8, sp[0xa]
             0x00011bf6: 0a 6a:       ldc (ru6)       r8, 0xa
             0x00011bf8: 0b 56:       stw (ru6)       r8, sp[0xb]
             0x00011bfa: 04 f0 0d 6a: ldc (lru6)      r8, 0x10d
             0x00011bfe: 0c 56:       stw (ru6)       r8, sp[0xc]
             0x00011c00: 3b 6a:       ldc (ru6)       r8, 0x3b
             0x00011c02: 0d 56:       stw (ru6)       r8, sp[0xd]
             0x00011c04: 02 f0 06 d7: bl (lu10)       -0xb06 <DescriptorRequests>
             0x00011c08: 80 90:       add (2rus)      r8, r0, 0x0
.label206    0x00011c0a: 01 b0:       eq (2rus)       r0, r0, 0x1
             0x00011c0c: 01 f0 08 70: bt (lru6)       r0, 0x48 <.label203>
.label211    0x00011c10: 81 b1:       eq (2rus)       r0, r8, 0x1
             0x00011c12: 09 f0 06 70: bt (lru6)       r0, 0x246 <.label204>
.label250    0x00011c16: c1 c3:       lss (3r)        r0, r8, r5
             0x00011c18: 01 f0 02 7c: bf (lru6)       r0, -0x42 <.label205>
             0x00011c1c: 02 f0 20 5c: ldw (lru6)      r0, sp[0xa0]
             0x00011c20: 02 f0 52 64: ldaw (lru6)     r1, sp[0x92]
             0x00011c24: 02 f0 ad d1: bl (lu10)       0x9ad <XUD_ResetEndpoint>
             0x00011c28: 11 f0 04 50: stw (lru6)      r0, dp[0x444]
             0x00011c2c: 11 f0 43 51: stw (lru6)      r5, dp[0x443]
             0x00011c30: 01 f0 0e 77: bu (lu6)        -0x4e <.label205>
.label202    0x00011c34: 00 f0 ae 60: ldaw (lru6)     r2, dp[0x2e]
             0x00011c38: d1 a6:       mkmsk (rus)     r0, 0x1
             0x00011c3a: 68 f8 ec 8f: st8 (l3r)       r6, r2[r0]
             0x00011c3e: 0b f0 40 60: ldaw (lru6)     r1, dp[0x2c0]
             0x00011c42: dd a6:       mkmsk (rus)     r3, 0x1
             0x00011c44: d3 a6:       mkmsk (rus)     r0, 0x3
             0x00011c46: 07 f8 ec 8f: st8 (l3r)       r0, r1[r3]
             0x00011c4a: 02 f0 12 5c: ldw (lru6)      r0, sp[0x92]
             0x00011c4e: 88 90:       add (2rus)      r8, r2, 0x0
             0x00011c50: 94 90:       add (2rus)      r9, r1, 0x0
             0x00011c52: 02 f0 0f 65: ldaw (lru6)     r4, sp[0x8f]
             0x00011c56: 02 f0 53 5c: ldw (lru6)      r1, sp[0x93]
             0x00011c5a: 00 f0 9e 60: ldaw (lru6)     r2, dp[0x1e]
             0x00011c5e: d2 68:       ldc (ru6)       r3, 0x12
             0x00011c60: 01 56:       stw (ru6)       r8, sp[0x1]
             0x00011c62: 04 f0 0d 6a: ldc (lru6)      r8, 0x10d
             0x00011c66: 02 56:       stw (ru6)       r8, sp[0x2]
             0x00011c68: 00 f0 2b 62: ldaw (lru6)     r8, dp[0x2b]
             0x00011c6c: 03 56:       stw (ru6)       r8, sp[0x3]
             0x00011c6e: 0a 6a:       ldc (ru6)       r8, 0xa
             0x00011c70: 04 56:       stw (ru6)       r8, sp[0x4]
             0x00011c72: 45 56:       stw (ru6)       r9, sp[0x5]
             0x00011c74: 13 6a:       ldc (ru6)       r8, 0x13
             0x00011c76: 06 56:       stw (ru6)       r8, sp[0x6]
             0x00011c78: 01 f0 32 62: ldaw (lru6)     r8, dp[0x72]
             0x00011c7c: 07 56:       stw (ru6)       r8, sp[0x7]
             0x00011c7e: 08 55:       stw (ru6)       r4, sp[0x8]
             0x00011c80: 12 6a:       ldc (ru6)       r8, 0x12
             0x00011c82: 09 56:       stw (ru6)       r8, sp[0x9]
             0x00011c84: 04 f0 0d 6a: ldc (lru6)      r8, 0x10d
             0x00011c88: 0a 56:       stw (ru6)       r8, sp[0xa]
             0x00011c8a: 0a 6a:       ldc (ru6)       r8, 0xa
             0x00011c8c: 0b 56:       stw (ru6)       r8, sp[0xb]
             0x00011c8e: 13 6a:       ldc (ru6)       r8, 0x13
             0x00011c90: 0c 56:       stw (ru6)       r8, sp[0xc]
             0x00011c92: 3b 6a:       ldc (ru6)       r8, 0x3b
             0x00011c94: 0d 56:       stw (ru6)       r8, sp[0xd]
             0x00011c96: 02 f0 4f d7: bl (lu10)       -0xb4f <DescriptorRequests>
             0x00011c9a: 80 90:       add (2rus)      r8, r0, 0x0
             0x00011c9c: 01 f0 0b 77: bu (lu6)        -0x4b <.label206>
.label203    0x00011ca0: 40 68:       ldc (ru6)       r1, 0x0
             0x00011ca2: e1 88:       ld8u (3r)       r2, r4[r1]
             0x00011ca4: d5 a6:       mkmsk (rus)     r1, 0x1
             0x00011ca6: c1 88:       ld8u (3r)       r0, r4[r1]
             0x00011ca8: 41 a2:       shl (2rus)      r0, r0, 0x5
             0x00011caa: 18 40:       or (3r)         r1, r2, r0
             0x00011cac: 05 b0:       eq (2rus)       r0, r1, 0x1
             0x00011cae: 0f 70:       bt (ru6)        r0, 0xf <.label207>
             0x00011cb0: 02 f0 70 78: bf (lru6)       r1, 0xb0 <.label208>
             0x00011cb4: 06 b0:       eq (2rus)       r0, r1, 0x2
             0x00011cb6: 04 f0 23 70: bt (lru6)       r0, 0x123 <.label209>
             0x00011cba: 21 68:       ldc (ru6)       r0, 0x21
             0x00011cbc: 04 30:       eq (3r)         r0, r1, r0
             0x00011cbe: 07 f0 20 70: bt (lru6)       r0, 0x1e0 <.label210>
             0x00011cc2: 22 68:       ldc (ru6)       r0, 0x22
             0x00011cc4: 04 30:       eq (3r)         r0, r1, r0
             0x00011cc6: 07 f0 1c 70: bt (lru6)       r0, 0x1dc <.label210>
.label214    0x00011cca: 01 f0 1f 77: bu (lu6)        -0x5f <.label211>
.label207    0x00011cce: d2 a6:       mkmsk (rus)     r0, 0x2
             0x00011cd0: c0 88:       ld8u (3r)       r0, r4[r0]
             0x00011cd2: 92 b4:       eq (2rus)       r1, r0, 0xa
             0x00011cd4: 01 f0 78 70: bt (lru6)       r1, 0x78 <.label212>
             0x00011cd8: 83 b4:       eq (2rus)       r0, r0, 0xb
             0x00011cda: 1b 70:       bt (ru6)        r0, 0x1b <.label213>
             0x00011cdc: 00 f0 78 7f: ldaw (lu6)      r11, cp[0x38]
             0x00011ce0: 8c 91:       add (2rus)      r0, r11, 0x0
             0x00011ce2: 65 68:       ldc (ru6)       r1, 0x25
             0x00011ce4: 03 f0 a2 d2: bl (lu10)       0xea2 <printstr> <printstr.coersed..f.7bsi.7d.28.26.28a.28.3ac.3auc.29.29.29>
             0x00011ce8: d2 a6:       mkmsk (rus)     r0, 0x2
             0x00011cea: c0 88:       ld8u (3r)       r0, r4[r0]
             0x00011cec: 03 f0 80 d2: bl (lu10)       0xe80 <printhexln>
             0x00011cf0: d5 a6:       mkmsk (rus)     r1, 0x1
             0x00011cf2: c1 88:       ld8u (3r)       r0, r4[r1]
             0x00011cf4: 03 f0 7c d2: bl (lu10)       0xe7c <printhexln>
             0x00011cf8: 40 68:       ldc (ru6)       r1, 0x0
             0x00011cfa: c1 88:       ld8u (3r)       r0, r4[r1]
             0x00011cfc: 03 f0 78 d2: bl (lu10)       0xe78 <printhexln>
             0x00011d00: 40 68:       ldc (ru6)       r1, 0x0
             0x00011d02: e1 88:       ld8u (3r)       r2, r4[r1]
             0x00011d04: d5 a6:       mkmsk (rus)     r1, 0x1
             0x00011d06: c1 88:       ld8u (3r)       r0, r4[r1]
             0x00011d08: 41 a2:       shl (2rus)      r0, r0, 0x5
             0x00011d0a: 08 40:       or (3r)         r0, r2, r0
             0x00011d0c: 03 f0 70 d2: bl (lu10)       0xe70 <printhexln>
             0x00011d10: 24 77:       bu (u6)         -0x24 <.label214>
.label213    0x00011d12: 02 68:       ldc (ru6)       r0, 0x2
             0x00011d14: c0 80:       ld16s (3r)      r0, r4[r0]
             0x00011d16: 31 47:       zext (rus)      r0, 0x10
             0x00011d18: 1c 70:       bt (ru6)        r0, 0x1c <.label215>
.label220    0x00011d1a: d2 a6:       mkmsk (rus)     r0, 0x2
             0x00011d1c: c0 80:       ld16s (3r)      r0, r4[r0]
             0x00011d1e: 31 47:       zext (rus)      r0, 0x10
             0x00011d20: 01 b0:       eq (2rus)       r0, r0, 0x1
             0x00011d22: 20 70:       bt (ru6)        r0, 0x20 <.label216>
.label222    0x00011d24: d2 a6:       mkmsk (rus)     r0, 0x2
             0x00011d26: c0 80:       ld16s (3r)      r0, r4[r0]
             0x00011d28: 31 47:       zext (rus)      r0, 0x10
             0x00011d2a: 42 32:       eq (3r)         r0, r0, r6
             0x00011d2c: 28 70:       bt (ru6)        r0, 0x28 <.label217>
.label221    0x00011d2e: d2 a6:       mkmsk (rus)     r0, 0x2
             0x00011d30: c0 80:       ld16s (3r)      r0, r4[r0]
             0x00011d32: 31 47:       zext (rus)      r0, 0x10
             0x00011d34: 43 c2:       lss (3r)        r0, r0, r7
             0x00011d36: 30 70:       bt (ru6)        r0, 0x30 <.label218>
.label223    0x00011d38: d2 a6:       mkmsk (rus)     r0, 0x2
             0x00011d3a: c0 80:       ld16s (3r)      r0, r4[r0]
             0x00011d3c: 31 47:       zext (rus)      r0, 0x10
             0x00011d3e: 42 32:       eq (3r)         r0, r0, r6
             0x00011d40: 38 70:       bt (ru6)        r0, 0x38 <.label219>
.label226    0x00011d42: 02 f0 15 5c: ldw (lru6)      r0, sp[0x95]
             0x00011d46: 40 68:       ldc (ru6)       r1, 0x0
             0x00011d48: 02 f0 72 d5: bl (lu10)       -0x972 <XUD_DoSetRequestStatus>
             0x00011d4c: 80 90:       add (2rus)      r8, r0, 0x0
             0x00011d4e: 01 f0 04 77: bu (lu6)        -0x44 <.label214>
.label215    0x00011d52: 11 f0 01 58: ldw (lru6)      r0, dp[0x441]
             0x00011d56: 1f 74:       bt (ru6)        r0, -0x1f <.label220>
             0x00011d58: 11 f0 02 58: ldw (lru6)      r0, dp[0x442]
             0x00011d5c: 22 74:       bt (ru6)        r0, -0x22 <.label220>
             0x00011d5e: 02 f0 d7 d7: bl (lu10)       -0xbd7 <AudioStreamStart>
             0x00011d62: 1b 77:       bu (u6)         -0x1b <.label221>
.label216    0x00011d64: 02 68:       ldc (ru6)       r0, 0x2
             0x00011d66: c0 80:       ld16s (3r)      r0, r4[r0]
             0x00011d68: 31 47:       zext (rus)      r0, 0x10
             0x00011d6a: 24 74:       bt (ru6)        r0, -0x24 <.label222>
             0x00011d6c: 11 f0 01 58: ldw (lru6)      r0, dp[0x441]
             0x00011d70: 27 7c:       bf (ru6)        r0, -0x27 <.label222>
             0x00011d72: 11 f0 02 58: ldw (lru6)      r0, dp[0x442]
             0x00011d76: 2a 74:       bt (ru6)        r0, -0x2a <.label222>
             0x00011d78: 02 f0 dc d7: bl (lu10)       -0xbdc <AudioStreamStop>
             0x00011d7c: 28 77:       bu (u6)         -0x28 <.label221>
.label217    0x00011d7e: 02 68:       ldc (ru6)       r0, 0x2
             0x00011d80: c0 80:       ld16s (3r)      r0, r4[r0]
             0x00011d82: 31 47:       zext (rus)      r0, 0x10
             0x00011d84: 2c 74:       bt (ru6)        r0, -0x2c <.label221>
             0x00011d86: 11 f0 02 58: ldw (lru6)      r0, dp[0x442]
             0x00011d8a: 2f 7c:       bf (ru6)        r0, -0x2f <.label221>
             0x00011d8c: 11 f0 01 58: ldw (lru6)      r0, dp[0x441]
             0x00011d90: 32 74:       bt (ru6)        r0, -0x32 <.label221>
             0x00011d92: 02 f0 e9 d7: bl (lu10)       -0xbe9 <AudioStreamStop>
             0x00011d96: 35 77:       bu (u6)         -0x35 <.label221>
.label218    0x00011d98: 02 68:       ldc (ru6)       r0, 0x2
             0x00011d9a: e0 80:       ld16s (3r)      r2, r4[r0]
             0x00011d9c: 39 47:       zext (rus)      r2, 0x10
             0x00011d9e: d2 a6:       mkmsk (rus)     r0, 0x2
             0x00011da0: c0 80:       ld16s (3r)      r0, r4[r0]
             0x00011da2: 31 47:       zext (rus)      r0, 0x10
             0x00011da4: 53 ca:       lsu (3r)        r1, r0, r7
             0x00011da6: e1 4f:       ecallf (1r)     r1
             0x00011da8: 11 f0 40 60: ldaw (lru6)     r1, dp[0x440]
             0x00011dac: 24 f8 ec 07: stw (l3r)       r2, r1[r0]
             0x00011db0: 3d 77:       bu (u6)         -0x3d <.label223>
.label219    0x00011db2: 02 68:       ldc (ru6)       r0, 0x2
             0x00011db4: c0 80:       ld16s (3r)      r0, r4[r0]
             0x00011db6: 31 47:       zext (rus)      r0, 0x10
             0x00011db8: 02 78:       bf (ru6)        r0, 0x2 <.label224>
             0x00011dba: 01 b0:       eq (2rus)       r0, r0, 0x1
             0x00011dbc: 01 70:       bt (ru6)        r0, 0x1 <.label225>
.label224    0x00011dbe: 3f 77:       bu (u6)         -0x3f <.label226>
.label225    0x00011dc0: c5 68:       ldc (ru6)       r3, 0x5
             0x00011dc2: 2e af:       out (r2r)       res[r10], r3
             0x00011dc4: 6a af:       out (r2r)       res[r10], r6
             0x00011dc6: 05 77:       bu (u6)         -0x5 <.label224>
.label212    0x00011dc8: 8f 64:       ldaw (ru6)      r2, sp[0xf]
             0x00011dca: 00 68:       ldc (ru6)       r0, 0x0
             0x00011dcc: 58 f8 ec 8f: st8 (l3r)       r5, r2[r0]
             0x00011dd0: d2 a6:       mkmsk (rus)     r0, 0x2
             0x00011dd2: c0 80:       ld16s (3r)      r0, r4[r0]
             0x00011dd4: 31 47:       zext (rus)      r0, 0x10
             0x00011dd6: 43 c2:       lss (3r)        r0, r0, r7
             0x00011dd8: 11 70:       bt (ru6)        r0, 0x11 <.label227>
.label228    0x00011dda: 02 f0 12 5c: ldw (lru6)      r0, sp[0x92]
             0x00011dde: 44 68:       ldc (ru6)       r1, 0x4
             0x00011de0: 01 81:       ld16s (3r)      r4, r4[r1]
             0x00011de2: 71 47:       zext (rus)      r4, 0x10
             0x00011de4: 02 f0 56 5c: ldw (lru6)      r1, sp[0x96]
             0x00011de8: dd a6:       mkmsk (rus)     r3, 0x1
             0x00011dea: 01 55:       stw (ru6)       r4, sp[0x1]
             0x00011dec: 08 f0 00 69: ldc (lru6)      r4, 0x200
             0x00011df0: 02 55:       stw (ru6)       r4, sp[0x2]
             0x00011df2: 02 f0 0d d6: bl (lu10)       -0xa0d <XUD_DoGetRequest>
             0x00011df6: 80 90:       add (2rus)      r8, r0, 0x0
             0x00011df8: 02 f0 19 77: bu (lu6)        -0x99 <.label214>
.label227    0x00011dfc: d2 a6:       mkmsk (rus)     r0, 0x2
             0x00011dfe: c0 80:       ld16s (3r)      r0, r4[r0]
             0x00011e00: 31 47:       zext (rus)      r0, 0x10
             0x00011e02: 53 ca:       lsu (3r)        r1, r0, r7
             0x00011e04: e1 4f:       ecallf (1r)     r1
             0x00011e06: 11 f0 40 60: ldaw (lru6)     r1, dp[0x440]
             0x00011e0a: 14 48:       ldw (3r)        r1, r1[r0]
             0x00011e0c: 00 68:       ldc (ru6)       r0, 0x0
             0x00011e0e: 18 f8 ec 8f: st8 (l3r)       r1, r2[r0]
             0x00011e12: 1d 77:       bu (u6)         -0x1d <.label228>
.label208    0x00011e14: d2 a6:       mkmsk (rus)     r0, 0x2
             0x00011e16: c0 88:       ld8u (3r)       r0, r4[r0]
             0x00011e18: 49 68:       ldc (ru6)       r1, 0x9
             0x00011e1a: 14 c8:       lsu (3r)        r1, r1, r0
             0x00011e1c: 4d 70:       bt (ru6)        r1, 0xd <.label229>
             0x00011e1e: e0 2f:       bru (1r)        r0
             0x00011e20: 09 73:       bu (u6)         0x9 <.label230>
             0x00011e22: 0a 73:       bu (u6)         0xa <.label229>
             0x00011e24: 09 73:       bu (u6)         0x9 <.label229>
             0x00011e26: 08 73:       bu (u6)         0x8 <.label229>
             0x00011e28: 07 73:       bu (u6)         0x7 <.label229>
             0x00011e2a: 08 73:       bu (u6)         0x8 <.label231>
             0x00011e2c: 05 73:       bu (u6)         0x5 <.label229>
             0x00011e2e: 04 73:       bu (u6)         0x4 <.label229>
             0x00011e30: 38 73:       bu (u6)         0x38 <.label232>
             0x00011e32: 22 73:       bu (u6)         0x22 <.label233>
.label230    0x00011e34: 01 f0 0c 73: bu (lu6)        0x4c <.label234>
.label229    0x00011e38: 02 f0 39 77: bu (lu6)        -0xb9 <.label214>
.label231    0x00011e3c: 8f 64:       ldaw (ru6)      r2, sp[0xf]
             0x00011e3e: 02 f0 17 5c: ldw (lru6)      r0, sp[0x97]
             0x00011e42: 18 90:       add (2rus)      r1, r2, 0x0
             0x00011e44: 80 68:       ldc (ru6)       r2, 0x0
             0x00011e46: 01 f0 cb 68: ldc (lru6)      r3, 0x4b
             0x00011e4a: 08 f0 00 6a: ldc (lru6)      r8, 0x200
             0x00011e4e: 01 56:       stw (ru6)       r8, sp[0x1]
             0x00011e50: 02 f0 b6 d6: bl (lu10)       -0xab6 <XUD_SetBuffer_ResetPid>
             0x00011e54: 80 90:       add (2rus)      r8, r0, 0x0
             0x00011e56: c9 86:       getr (rus)      r2, 0x1
             0x00011e58: 81 e8:       setc (ru6)      res[r2], 0x1
             0x00011e5a: c2 b6:       in (2r)         r0, res[r2]
             0x00011e5c: 0d f3 50 68: ldc (lru6)      r1, 0xc350
             0x00011e60: 01 10:       add (3r)        r0, r0, r1
             0x00011e62: d2 16:       setd (r2r)      res[r2], r0
             0x00011e64: 89 e8:       setc (ru6)      res[r2], 0x9
             0x00011e66: c2 b6:       in (2r)         r0, res[r2]
             0x00011e68: e2 17:       freer (1r)      res[r2]
             0x00011e6a: 02 68:       ldc (ru6)       r0, 0x2
             0x00011e6c: c0 80:       ld16s (3r)      r0, r4[r0]
             0x00011e6e: 31 47:       zext (rus)      r0, 0x10
             0x00011e70: 03 f0 a4 d0: bl (lu10)       0xca4 <XUD_SetDevAddr>
             0x00011e74: 03 f0 17 77: bu (lu6)        -0xd7 <.label214>
.label233    0x00011e78: 02 68:       ldc (ru6)       r0, 0x2
             0x00011e7a: c0 80:       ld16s (3r)      r0, r4[r0]
             0x00011e7c: 31 47:       zext (rus)      r0, 0x10
             0x00011e7e: 11 f0 03 50: stw (lru6)      r0, dp[0x443]
             0x00011e82: 11 f0 03 58: ldw (lru6)      r0, dp[0x443]
             0x00011e86: 01 b0:       eq (2rus)       r0, r0, 0x1
             0x00011e88: 08 70:       bt (ru6)        r0, 0x8 <.label235>
.label236    0x00011e8a: 02 f0 18 5c: ldw (lru6)      r0, sp[0x98]
             0x00011e8e: 40 68:       ldc (ru6)       r1, 0x0
             0x00011e90: 02 f0 16 d6: bl (lu10)       -0xa16 <XUD_DoSetRequestStatus>
             0x00011e94: 80 90:       add (2rus)      r8, r0, 0x0
             0x00011e96: 03 f0 28 77: bu (lu6)        -0xe8 <.label214>
.label235    0x00011e9a: d1 a6:       mkmsk (rus)     r0, 0x1
             0x00011e9c: 03 f0 64 d4: bl (lu10)       -0xc64 <VendorHostActive>
             0x00011ea0: 0c 77:       bu (u6)         -0xc <.label236>
.label232    0x00011ea2: 8f 64:       ldaw (ru6)      r2, sp[0xf]
             0x00011ea4: 40 68:       ldc (ru6)       r1, 0x0
             0x00011ea6: 11 f0 03 58: ldw (lru6)      r0, dp[0x443]
             0x00011eaa: 09 f8 ec 8f: st8 (l3r)       r0, r2[r1]
             0x00011eae: 02 f0 12 5c: ldw (lru6)      r0, sp[0x92]
             0x00011eb2: 44 68:       ldc (ru6)       r1, 0x4
             0x00011eb4: 01 81:       ld16s (3r)      r4, r4[r1]
             0x00011eb6: 71 47:       zext (rus)      r4, 0x10
             0x00011eb8: 02 f0 59 5c: ldw (lru6)      r1, sp[0x99]
             0x00011ebc: dd a6:       mkmsk (rus)     r3, 0x1
             0x00011ebe: 01 55:       stw (ru6)       r4, sp[0x1]
             0x00011ec0: 08 f0 00 69: ldc (lru6)      r4, 0x200
             0x00011ec4: 02 55:       stw (ru6)       r4, sp[0x2]
             0x00011ec6: 02 f0 77 d6: bl (lu10)       -0xa77 <XUD_DoGetRequest>
             0x00011eca: 80 90:       add (2rus)      r8, r0, 0x0
             0x00011ecc: 04 f0 03 77: bu (lu6)        -0x103 <.label214>
.label234    0x00011ed0: 8f 64:       ldaw (ru6)      r2, sp[0xf]
             0x00011ed2: 00 68:       ldc (ru6)       r0, 0x0
             0x00011ed4: 58 f8 ec 8f: st8 (l3r)       r5, r2[r0]
             0x00011ed8: d1 a6:       mkmsk (rus)     r0, 0x1
             0x00011eda: 58 f8 ec 8f: st8 (l3r)       r5, r2[r0]
             0x00011ede: 02 f0 12 5c: ldw (lru6)      r0, sp[0x92]
             0x00011ee2: 44 68:       ldc (ru6)       r1, 0x4
             0x00011ee4: 01 81:       ld16s (3r)      r4, r4[r1]
             0x00011ee6: 71 47:       zext (rus)      r4, 0x10
             0x00011ee8: 02 f0 5a 5c: ldw (lru6)      r1, sp[0x9a]
             0x00011eec: c2 68:       ldc (ru6)       r3, 0x2
             0x00011eee: 01 55:       stw (ru6)       r4, sp[0x1]
             0x00011ef0: 08 f0 00 69: ldc (lru6)      r4, 0x200
             0x00011ef4: 02 55:       stw (ru6)       r4, sp[0x2]
             0x00011ef6: 02 f0 8f d6: bl (lu10)       -0xa8f <XUD_DoGetRequest>
             0x00011efa: 80 90:       add (2rus)      r8, r0, 0x0
             0x00011efc: 04 f0 1b 77: bu (lu6)        -0x11b <.label214>
.label209    0x00011f00: d2 a6:       mkmsk (rus)     r0, 0x2
             0x00011f02: c0 88:       ld8u (3r)       r0, r4[r0]
             0x00011f04: 01 f0 1e 78: bf (lru6)       r0, 0x5e <.label237>
             0x00011f08: 11 b0:       eq (2rus)       r1, r0, 0x1
             0x00011f0a: 44 70:       bt (ru6)        r1, 0x4 <.label238>
             0x00011f0c: 03 b0:       eq (2rus)       r0, r0, 0x3
             0x00011f0e: 2d 70:       bt (ru6)        r0, 0x2d <.label239>
             0x00011f10: 04 f0 25 77: bu (lu6)        -0x125 <.label214>
.label238    0x00011f14: 02 68:       ldc (ru6)       r0, 0x2
             0x00011f16: c0 80:       ld16s (3r)      r0, r4[r0]
             0x00011f18: 31 47:       zext (rus)      r0, 0x10
             0x00011f1a: 02 78:       bf (ru6)        r0, 0x2 <.label240>
             0x00011f1c: 04 f0 2b 77: bu (lu6)        -0x12b <.label214>
.label240    0x00011f20: d2 a6:       mkmsk (rus)     r0, 0x2
             0x00011f22: c0 80:       ld16s (3r)      r0, r4[r0]
             0x00011f24: 31 47:       zext (rus)      r0, 0x10
             0x00011f26: 02 f0 40 68: ldc (lru6)      r1, 0x80
             0x00011f2a: 11 38:       and (3r)        r1, r0, r1
             0x00011f2c: 4a 70:       bt (ru6)        r1, 0xa <.label241>
             0x00011f2e: 53 ca:       lsu (3r)        r1, r0, r7
             0x00011f30: 55 70:       bt (ru6)        r1, 0x15 <.label242>
.label243    0x00011f32: 02 f0 1b 5c: ldw (lru6)      r0, sp[0x9b]
             0x00011f36: 40 68:       ldc (ru6)       r1, 0x0
             0x00011f38: 02 f0 6a d6: bl (lu10)       -0xa6a <XUD_DoSetRequestStatus>
             0x00011f3c: 80 90:       add (2rus)      r8, r0, 0x0
             0x00011f3e: 04 f0 3c 77: bu (lu6)        -0x13c <.label214>
.label241    0x00011f42: f3 a6:       mkmsk (rus)     r8, 0x7
             0x00011f44: a0 3c:       and (3r)        r2, r0, r8
             0x00011f46: c5 68:       ldc (ru6)       r3, 0x5
             0x00011f48: 0b c8:       lsu (3r)        r0, r2, r3
             0x00011f4a: 0d 7c:       bf (ru6)        r0, -0xd <.label243>
             0x00011f4c: 11 f0 45 60: ldaw (lru6)     r1, dp[0x445]
             0x00011f50: a8 3c:       and (3r)        r2, r2, r8
             0x00011f52: 0b c8:       lsu (3r)        r0, r2, r3
             0x00011f54: e0 4f:       ecallf (1r)     r0
             0x00011f56: 56 f8 ec 07: stw (l3r)       r5, r1[r2]
             0x00011f5a: 15 77:       bu (u6)         -0x15 <.label243>
.label242    0x00011f5c: 11 f0 4a 60: ldaw (lru6)     r1, dp[0x44a]
             0x00011f60: 63 ca:       lsu (3r)        r2, r0, r7
             0x00011f62: e2 4f:       ecallf (1r)     r2
             0x00011f64: 54 f8 ec 07: stw (l3r)       r5, r1[r0]
             0x00011f68: 1c 77:       bu (u6)         -0x1c <.label243>
.label239    0x00011f6a: 02 68:       ldc (ru6)       r0, 0x2
             0x00011f6c: c0 80:       ld16s (3r)      r0, r4[r0]
             0x00011f6e: 31 47:       zext (rus)      r0, 0x10
             0x00011f70: 08 78:       bf (ru6)        r0, 0x8 <.label244>
.label246    0x00011f72: 02 f0 1d 5c: ldw (lru6)      r0, sp[0x9d]
             0x00011f76: 40 68:       ldc (ru6)       r1, 0x0
             0x00011f78: 02 f0 8a d6: bl (lu10)       -0xa8a <XUD_DoSetRequestStatus>
             0x00011f7c: 80 90:       add (2rus)      r8, r0, 0x0
             0x00011f7e: 05 f0 1c 77: bu (lu6)        -0x15c <.label214>
.label244    0x00011f82: d2 a6:       mkmsk (rus)     r0, 0x2
             0x00011f84: c0 80:       ld16s (3r)      r0, r4[r0]
             0x00011f86: 31 47:       zext (rus)      r0, 0x10
             0x00011f88: 02 f0 40 68: ldc (lru6)      r1, 0x80
             0x00011f8c: 11 38:       and (3r)        r1, r0, r1
             0x00011f8e: 4b 70:       bt (ru6)        r1, 0xb <.label245>
             0x00011f90: 53 ca:       lsu (3r)        r1, r0, r7
             0x00011f92: 51 7c:       bf (ru6)        r1, -0x11 <.label246>
             0x00011f94: 11 f0 4a 60: ldaw (lru6)     r1, dp[0x44a]
             0x00011f98: 63 ca:       lsu (3r)        r2, r0, r7
             0x00011f9a: e2 4f:       ecallf (1r)     r2
             0x00011f9c: 02 f0 9c 5c: ldw (lru6)      r2, sp[0x9c]
             0x00011fa0: 24 f8 ec 07: stw (l3r)       r2, r1[r0]
             0x00011fa4: 1a 77:       bu (u6)         -0x1a <.label246>
.label245    0x00011fa6: f3 a6:       mkmsk (rus)     r8, 0x7
             0x00011fa8: a0 3c:       and (3r)        r2, r0, r8
             0x00011faa: c5 68:       ldc (ru6)       r3, 0x5
             0x00011fac: 0b c8:       lsu (3r)        r0, r2, r3
             0x00011fae: 1f 7c:       bf (ru6)        r0, -0x1f <.label246>
             0x00011fb0: 11 f0 45 60: ldaw (lru6)     r1, dp[0x445]
             0x00011fb4: a8 3c:       and (3r)        r2, r2, r8
             0x00011fb6: 0b c8:       lsu (3r)        r0, r2, r3
             0x00011fb8: e0 4f:       ecallf (1r)     r0
             0x00011fba: 02 f0 1c 5c: ldw (lru6)      r0, sp[0x9c]
             0x00011fbe: 06 f8 ec 07: stw (l3r)       r0, r1[r2]
             0x00011fc2: 29 77:       bu (u6)         -0x29 <.label246>
.label237    0x00011fc4: 8f 64:       ldaw (ru6)      r2, sp[0xf]
             0x00011fc6: 00 68:       ldc (ru6)       r0, 0x0
             0x00011fc8: 58 f8 ec 8f: st8 (l3r)       r5, r2[r0]
             0x00011fcc: d1 a6:       mkmsk (rus)     r0, 0x1
             0x00011fce: 58 f8 ec 8f: st8 (l3r)       r5, r2[r0]
             0x00011fd2: d2 a6:       mkmsk (rus)     r0, 0x2
             0x00011fd4: d0 80:       ld16s (3r)      r1, r4[r0]
             0x00011fd6: 35 47:       zext (rus)      r1, 0x10
             0x00011fd8: 02 f0 00 68: ldc (lru6)      r0, 0x80
             0x00011fdc: 04 38:       and (3r)        r0, r1, r0
             0x00011fde: 16 70:       bt (ru6)        r0, 0x16 <.label247>
             0x00011fe0: d2 a6:       mkmsk (rus)     r0, 0x2
             0x00011fe2: c0 80:       ld16s (3r)      r0, r4[r0]
             0x00011fe4: 31 47:       zext (rus)      r0, 0x10
             0x00011fe6: 43 c2:       lss (3r)        r0, r0, r7
             0x00011fe8: 33 70:       bt (ru6)        r0, 0x33 <.label248>
.label249    0x00011fea: 02 f0 12 5c: ldw (lru6)      r0, sp[0x92]
             0x00011fee: 44 68:       ldc (ru6)       r1, 0x4
             0x00011ff0: 01 81:       ld16s (3r)      r4, r4[r1]
             0x00011ff2: 71 47:       zext (rus)      r4, 0x10
             0x00011ff4: 02 f0 5e 5c: ldw (lru6)      r1, sp[0x9e]
             0x00011ff8: c2 68:       ldc (ru6)       r3, 0x2
             0x00011ffa: 01 55:       stw (ru6)       r4, sp[0x1]
             0x00011ffc: 08 f0 00 69: ldc (lru6)      r4, 0x200
             0x00012000: 02 55:       stw (ru6)       r4, sp[0x2]
             0x00012002: 02 f0 15 d7: bl (lu10)       -0xb15 <XUD_DoGetRequest>
             0x00012006: 80 90:       add (2rus)      r8, r0, 0x0
             0x00012008: 06 f0 21 77: bu (lu6)        -0x1a1 <.label214>
.label247    0x0001200c: d2 a6:       mkmsk (rus)     r0, 0x2
             0x0001200e: c0 80:       ld16s (3r)      r0, r4[r0]
             0x00012010: 31 47:       zext (rus)      r0, 0x10
             0x00012012: f3 a6:       mkmsk (rus)     r8, 0x7
             0x00012014: 80 3c:       and (3r)        r0, r0, r8
             0x00012016: c5 68:       ldc (ru6)       r3, 0x5
             0x00012018: 03 c0:       lss (3r)        r0, r0, r3
             0x0001201a: 19 7c:       bf (ru6)        r0, -0x19 <.label249>
             0x0001201c: 11 f0 45 60: ldaw (lru6)     r1, dp[0x445]
             0x00012020: d2 a6:       mkmsk (rus)     r0, 0x2
             0x00012022: c0 80:       ld16s (3r)      r0, r4[r0]
             0x00012024: 31 47:       zext (rus)      r0, 0x10
             0x00012026: 80 3c:       and (3r)        r0, r0, r8
             0x00012028: 93 c8:       lsu (3r)        r9, r0, r3
             0x0001202a: e9 4f:       ecallf (1r)     r9
             0x0001202c: 94 48:       ldw (3r)        r9, r1[r0]
             0x0001202e: 30 a7:       mkmsk (rus)     r0, 0x8
             0x00012030: 14 3a:       and (3r)        r9, r9, r0
             0x00012032: 00 68:       ldc (ru6)       r0, 0x0
             0x00012034: 98 f8 ec 8f: st8 (l3r)       r9, r2[r0]
             0x00012038: d2 a6:       mkmsk (rus)     r0, 0x2
             0x0001203a: c0 80:       ld16s (3r)      r0, r4[r0]
             0x0001203c: 31 47:       zext (rus)      r0, 0x10
             0x0001203e: 80 3c:       and (3r)        r0, r0, r8
             0x00012040: 33 c8:       lsu (3r)        r3, r0, r3
             0x00012042: e3 4f:       ecallf (1r)     r3
             0x00012044: 04 48:       ldw (3r)        r0, r1[r0]
             0x00012046: 90 ac:       shr (2rus)      r1, r0, 0x8
             0x00012048: d1 a6:       mkmsk (rus)     r0, 0x1
             0x0001204a: 18 f8 ec 8f: st8 (l3r)       r1, r2[r0]
             0x0001204e: 33 77:       bu (u6)         -0x33 <.label249>
.label248    0x00012050: 11 f0 4a 60: ldaw (lru6)     r1, dp[0x44a]
             0x00012054: d2 a6:       mkmsk (rus)     r0, 0x2
             0x00012056: c0 80:       ld16s (3r)      r0, r4[r0]
             0x00012058: 31 47:       zext (rus)      r0, 0x10
             0x0001205a: 73 ca:       lsu (3r)        r3, r0, r7
             0x0001205c: e3 4f:       ecallf (1r)     r3
             0x0001205e: 34 48:       ldw (3r)        r3, r1[r0]
             0x00012060: 30 a7:       mkmsk (rus)     r0, 0x8
             0x00012062: 3c 38:       and (3r)        r3, r3, r0
             0x00012064: 00 68:       ldc (ru6)       r0, 0x0
             0x00012066: 38 f8 ec 8f: st8 (l3r)       r3, r2[r0]
             0x0001206a: d2 a6:       mkmsk (rus)     r0, 0x2
             0x0001206c: c0 80:       ld16s (3r)      r0, r4[r0]
             0x0001206e: 31 47:       zext (rus)      r0, 0x10
             0x00012070: 73 ca:       lsu (3r)        r3, r0, r7
             0x00012072: e3 4f:       ecallf (1r)     r3
             0x00012074: 04 48:       ldw (3r)        r0, r1[r0]
             0x00012076: 90 ac:       shr (2rus)      r1, r0, 0x8
             0x00012078: d1 a6:       mkmsk (rus)     r0, 0x1
             0x0001207a: 18 f8 ec 8f: st8 (l3r)       r1, r2[r0]
             0x0001207e: 01 f0 0c 77: bu (lu6)        -0x4c <.label249>
.label210    0x00012082: 02 f0 12 5c: ldw (lru6)      r0, sp[0x92]
             0x00012086: e0 90:       add (2rus)      r2, r4, 0x0
             0x00012088: 02 f0 5f 5c: ldw (lru6)      r1, sp[0x9f]
             0x0001208c: b8 91:       add (2rus)      r3, r10, 0x0
             0x0001208e: 0e 5d:       ldw (ru6)       r4, sp[0xe]
             0x00012090: 01 55:       stw (ru6)       r4, sp[0x1]
             0x00012092: 02 f0 22 5d: ldw (lru6)      r4, sp[0xa2]
             0x00012096: 02 55:       stw (ru6)       r4, sp[0x2]
             0x00012098: 01 f0 88 d7: bl (lu10)       -0x788 <AudioClassRequests_2>
             0x0001209c: 80 90:       add (2rus)      r8, r0, 0x0
             0x0001209e: 07 f0 2c 77: bu (lu6)        -0x1ec <.label214>
.label204    0x000120a2: 00 68:       ldc (ru6)       r0, 0x0
             0x000120a4: 01 f0 75 d3: bl (lu10)       0x775 <XUD_SetStall_Out>
             0x000120a8: 00 68:       ldc (ru6)       r0, 0x0
             0x000120aa: 01 f0 78 d3: bl (lu10)       0x778 <XUD_SetStall_In>
             0x000120ae: 09 f0 0e 77: bu (lu6)        -0x24e <.label250>
             0x000120b2: 00 00:       stw (2rus)      r0, r0[0x0]

<ConfigAudioPorts>:
             0x000120b4: 45 77:       entsp (u6)      0x5
             0x000120b6: 01 55:       stw (ru6)       r4, sp[0x1]
             0x000120b8: 42 55:       stw (ru6)       r5, sp[0x2]
             0x000120ba: 83 55:       stw (ru6)       r6, sp[0x3]
             0x000120bc: c4 55:       stw (ru6)       r7, sp[0x4]
             0x000120be: 70 90:       add (2rus)      r7, r0, 0x0
             0x000120c0: 10 f0 ab 58: ldw (lru6)      r2, dp[0x42b]
             0x000120c4: 08 90:       add (2rus)      r0, r2, 0x0
             0x000120c6: 10 f0 73 58: ldw (lru6)      r1, dp[0x433]
             0x000120ca: 80 68:       ldc (ru6)       r2, 0x0
             0x000120cc: 02 f0 b0 d3: bl (lu10)       0xbb0 <configure_out_port>
             0x000120d0: 10 f0 ab 58: ldw (lru6)      r2, dp[0x42b]
             0x000120d4: 40 69:       ldc (ru6)       r5, 0x0
             0x000120d6: 06 af:       out (r2r)       res[r2], r5
             0x000120d8: df a6:       mkmsk (rus)     r3, 0x3
             0x000120da: 10 f0 34 58: ldw (lru6)      r0, dp[0x434]
             0x000120de: d3 fe ec 2f: setc (l2r)      res[r0], r3
             0x000120e2: 10 f0 73 58: ldw (lru6)      r1, dp[0x433]
             0x000120e6: d7 fe ec 2f: setc (l2r)      res[r1], r3
             0x000120ea: 10 f0 2a 58: ldw (lru6)      r0, dp[0x42a]
             0x000120ee: 17 e8:       setc (ru6)      res[r0], 0x17
             0x000120f0: 97 e8:       setc (ru6)      res[r2], 0x17
             0x000120f2: c4 90:       add (2rus)      r0, r5, 0x0
             0x000120f4: 00 f0 c5 60: ldaw (lru6)     r3, dp[0x5]
             0x000120f8: 11 a7:       mkmsk (rus)     r4, 0x1
.label251    0x000120fa: 60 ca:       lsu (3r)        r2, r0, r4
             0x000120fc: e2 4f:       ecallf (1r)     r2
             0x000120fe: 2c 48:       ldw (3r)        r2, r3[r0]
             0x00012100: 97 e8:       setc (ru6)      res[r2], 0x17
             0x00012102: 01 90:       add (2rus)      r0, r0, 0x1
             0x00012104: 60 c2:       lss (3r)        r2, r0, r4
             0x00012106: 87 74:       bt (ru6)        r2, -0x7 <.label251>
             0x00012108: c4 90:       add (2rus)      r0, r5, 0x0
             0x0001210a: 00 f0 83 61: ldaw (lru6)     r6, dp[0x3]
.label252    0x0001210e: 60 ca:       lsu (3r)        r2, r0, r4
             0x00012110: e2 4f:       ecallf (1r)     r2
             0x00012112: e8 48:       ldw (3r)        r2, r6[r0]
             0x00012114: 97 e8:       setc (ru6)      res[r2], 0x17
             0x00012116: 01 90:       add (2rus)      r0, r0, 0x1
             0x00012118: 60 c2:       lss (3r)        r2, r0, r4
             0x0001211a: 87 74:       bt (ru6)        r2, -0x7 <.label252>
             0x0001211c: 04 90:       add (2rus)      r0, r1, 0x0
             0x0001211e: 10 f0 6c 58: ldw (lru6)      r1, dp[0x42c]
             0x00012122: 02 f0 9d d3: bl (lu10)       0xb9d <configure_clock_src>
             0x00012126: 0c 33:       eq (3r)         r0, r7, r4
             0x00012128: 01 f0 01 70: bt (lru6)       r0, 0x41 <.label253>
             0x0001212c: 10 f0 ab 58: ldw (lru6)      r2, dp[0x42b]
             0x00012130: 08 90:       add (2rus)      r0, r2, 0x0
             0x00012132: 10 f0 73 58: ldw (lru6)      r1, dp[0x433]
             0x00012136: 80 68:       ldc (ru6)       r2, 0x0
             0x00012138: 02 f0 7a d3: bl (lu10)       0xb7a <configure_out_port>
.label256    0x0001213c: 10 f0 34 58: ldw (lru6)      r0, dp[0x434]
             0x00012140: 10 f0 ab 58: ldw (lru6)      r2, dp[0x42b]
             0x00012144: 18 90:       add (2rus)      r1, r2, 0x0
             0x00012146: 02 f0 8b d3: bl (lu10)       0xb8b <configure_clock_src>
             0x0001214a: 34 91:       add (2rus)      r7, r5, 0x0
.label254    0x0001214c: 0c cb:       lsu (3r)        r0, r7, r4
             0x0001214e: e0 4f:       ecallf (1r)     r0
             0x00012150: 0b 4b:       ldw (3r)        r0, r6[r7]
             0x00012152: 10 f0 74 58: ldw (lru6)      r1, dp[0x434]
             0x00012156: 80 68:       ldc (ru6)       r2, 0x0
             0x00012158: 02 f0 6a d3: bl (lu10)       0xb6a <configure_out_port>
             0x0001215c: 3d 91:       add (2rus)      r7, r7, 0x1
             0x0001215e: 0c c3:       lss (3r)        r0, r7, r4
             0x00012160: 0b 74:       bt (ru6)        r0, -0xb <.label254>
             0x00012162: 00 f0 85 61: ldaw (lru6)     r6, dp[0x5]
.label255    0x00012166: 04 cb:       lsu (3r)        r0, r5, r4
             0x00012168: e0 4f:       ecallf (1r)     r0
             0x0001216a: 09 4b:       ldw (3r)        r0, r6[r5]
             0x0001216c: 10 f0 74 58: ldw (lru6)      r1, dp[0x434]
             0x00012170: 02 f0 4c d3: bl (lu10)       0xb4c <configure_in_port>
             0x00012174: 15 91:       add (2rus)      r5, r5, 0x1
             0x00012176: 04 c3:       lss (3r)        r0, r5, r4
             0x00012178: 0a 74:       bt (ru6)        r0, -0xa <.label255>
             0x0001217a: 10 f0 2a 58: ldw (lru6)      r0, dp[0x42a]
             0x0001217e: 10 f0 74 58: ldw (lru6)      r1, dp[0x434]
             0x00012182: 80 68:       ldc (ru6)       r2, 0x0
             0x00012184: 02 f0 54 d3: bl (lu10)       0xb54 <configure_out_port>
             0x00012188: 10 f0 73 58: ldw (lru6)      r1, dp[0x433]
             0x0001218c: 98 a7:       mkmsk (rus)     r2, 0x4
             0x0001218e: d6 fe ec 2f: setc (l2r)      res[r1], r2
             0x00012192: 10 f0 34 58: ldw (lru6)      r0, dp[0x434]
             0x00012196: d2 fe ec 2f: setc (l2r)      res[r0], r2
             0x0001219a: 10 f0 ab 58: ldw (lru6)      r2, dp[0x42b]
             0x0001219e: d0 a6:       mkmsk (rus)     r0, 0x20
             0x000121a0: c2 ae:       out (r2r)       res[r2], r0
             0x000121a2: f2 87:       syncr (1r)      res[r2]
             0x000121a4: 01 5d:       ldw (ru6)       r4, sp[0x1]
             0x000121a6: 42 5d:       ldw (ru6)       r5, sp[0x2]
             0x000121a8: 83 5d:       ldw (ru6)       r6, sp[0x3]
             0x000121aa: c4 5d:       ldw (ru6)       r7, sp[0x4]
             0x000121ac: c5 77:       retsp (u6)      0x5
.label253    0x000121ae: 10 f0 ab 58: ldw (lru6)      r2, dp[0x42b]
             0x000121b2: 08 90:       add (2rus)      r0, r2, 0x0
             0x000121b4: 10 f0 73 58: ldw (lru6)      r1, dp[0x433]
             0x000121b8: 02 f0 4c d3: bl (lu10)       0xb4c <configure_port_clock_output>
             0x000121bc: 01 f0 02 77: bu (lu6)        -0x42 <.label256>
             0x000121c0: 00 90:       add (2rus)      r0, r0, 0x0
             0x000121c2: 00 90:       add (2rus)      r0, r0, 0x0

<handle_audio_request>:
             0x000121c4: 49 77:       entsp (u6)      0x9
             0x000121c6: 00 55:       stw (ru6)       r4, sp[0x0]
             0x000121c8: 41 55:       stw (ru6)       r5, sp[0x1]
             0x000121ca: 82 55:       stw (ru6)       r6, sp[0x2]
             0x000121cc: c3 55:       stw (ru6)       r7, sp[0x3]
             0x000121ce: 04 56:       stw (ru6)       r8, sp[0x4]
             0x000121d0: 45 56:       stw (ru6)       r9, sp[0x5]
             0x000121d2: 86 56:       stw (ru6)       r10, sp[0x6]
             0x000121d4: c4 b6:       in (2r)         r1, res[r0]
             0x000121d6: c0 68:       ldc (ru6)       r3, 0x0
             0x000121d8: cc ae:       out (r2r)       res[r0], r3
             0x000121da: 11 f0 44 58: ldw (lru6)      r1, dp[0x444]
             0x000121de: 47 54:       stw (ru6)       r1, sp[0x7]
             0x000121e0: 12 f0 78 58: ldw (lru6)      r1, dp[0x4b8]
             0x000121e4: 01 f0 47 70: bt (lru6)       r1, 0x47 <.label257>
             0x000121e8: 12 f0 74 58: ldw (lru6)      r1, dp[0x4b4]
             0x000121ec: 48 54:       stw (ru6)       r1, sp[0x8]
             0x000121ee: 48 5c:       ldw (ru6)       r1, sp[0x8]
             0x000121f0: 01 f0 41 78: bf (lru6)       r1, 0x41 <.label257>
             0x000121f4: 47 5c:       ldw (ru6)       r1, sp[0x7]
             0x000121f6: 16 b0:       eq (2rus)       r1, r1, 0x2
             0x000121f8: 01 f0 51 70: bt (lru6)       r1, 0x51 <.label258>
             0x000121fc: 4c 90:       add (2rus)      r4, r3, 0x0
             0x000121fe: 0b f0 ca 59: ldw (lru6)      r7, dp[0x2ca]
             0x00012202: 5f ca:       lsu (3r)        r1, r3, r7
             0x00012204: 01 f0 65 70: bt (lru6)       r1, 0x65 <.label259>
.label271    0x00012208: 1c 90:       add (2rus)      r1, r3, 0x0
             0x0001220a: 02 69:       ldc (ru6)       r4, 0x2
             0x0001220c: 53 1b:       sub (3r)        r5, r4, r7
             0x0001220e: 8d ca:       lsu (3r)        r4, r3, r5
             0x00012210: 03 f0 01 71: bt (lru6)       r4, 0xc1 <.label260>
.label280    0x00012214: 48 5c:       ldw (ru6)       r1, sp[0x8]
             0x00012216: 15 98:       sub (2rus)      r1, r1, 0x1
             0x00012218: 12 f0 74 50: stw (lru6)      r1, dp[0x4b4]
.label268    0x0001221c: 0b f0 4b 58: ldw (lru6)      r1, dp[0x2cb]
             0x00012220: 02 f0 7f 70: bt (lru6)       r1, 0xbf <.label261>
             0x00012224: 47 5c:       ldw (ru6)       r1, sp[0x7]
             0x00012226: 16 b0:       eq (2rus)       r1, r1, 0x2
             0x00012228: 03 f0 55 70: bt (lru6)       r1, 0xd5 <.label262>
             0x0001222c: 4c 90:       add (2rus)      r4, r3, 0x0
             0x0001222e: 0b f0 c9 59: ldw (lru6)      r7, dp[0x2c9]
             0x00012232: 5f ca:       lsu (3r)        r1, r3, r7
             0x00012234: 03 f0 69 70: bt (lru6)       r1, 0xe9 <.label263>
.label285    0x00012238: 1c 90:       add (2rus)      r1, r3, 0x0
             0x0001223a: 82 68:       ldc (ru6)       r2, 0x2
             0x0001223c: 8b 1a:       sub (3r)        r4, r2, r7
             0x0001223e: 6c ca:       lsu (3r)        r2, r3, r4
             0x00012240: 04 f0 b2 70: bt (lru6)       r2, 0x132 <.label264>
.label293    0x00012244: 0b f0 0d 58: ldw (lru6)      r0, dp[0x2cd]
             0x00012248: cc f8 ec 3f: mul (l3r)       r0, r7, r0
             0x0001224c: 12 f0 76 58: ldw (lru6)      r1, dp[0x4b6]
             0x00012250: 04 18:       sub (3r)        r0, r1, r0
             0x00012252: 12 f0 36 50: stw (lru6)      r0, dp[0x4b6]
.label283    0x00012256: 12 f0 38 58: ldw (lru6)      r0, dp[0x4b8]
             0x0001225a: 04 f0 2b 78: bf (lru6)       r0, 0x12b <.label265>
.label295    0x0001225e: 0b f0 0b 58: ldw (lru6)      r0, dp[0x2cb]
             0x00012262: 07 f0 1d 78: bf (lru6)       r0, 0x1dd <.label266>
.label311    0x00012266: 00 5d:       ldw (ru6)       r4, sp[0x0]
             0x00012268: 41 5d:       ldw (ru6)       r5, sp[0x1]
             0x0001226a: 82 5d:       ldw (ru6)       r6, sp[0x2]
             0x0001226c: c3 5d:       ldw (ru6)       r7, sp[0x3]
             0x0001226e: 04 5e:       ldw (ru6)       r8, sp[0x4]
             0x00012270: 45 5e:       ldw (ru6)       r9, sp[0x5]
             0x00012272: 86 5e:       ldw (ru6)       r10, sp[0x6]
             0x00012274: c9 77:       retsp (u6)      0x9
.label257    0x00012276: c4 b6:       in (2r)         r1, res[r0]
             0x00012278: c4 b6:       in (2r)         r1, res[r0]
             0x0001227a: 12 f0 7f 59: ldw (lru6)      r5, dp[0x4bf]
             0x0001227e: 13 f0 01 59: ldw (lru6)      r4, dp[0x4c1]
             0x00012282: 14 1b:       sub (3r)        r1, r5, r4
             0x00012284: 4d c0:       lss (3r)        r4, r3, r1
             0x00012286: 07 79:       bf (ru6)        r4, 0x7 <.label267>
.label269    0x00012288: 18 f0 30 69: ldc (lru6)      r4, 0x630
             0x0001228c: d1 c0:       lss (3r)        r1, r4, r1
             0x0001228e: 7a 7c:       bf (ru6)        r1, -0x3a <.label268>
             0x00012290: 12 f0 f8 50: stw (lru6)      r3, dp[0x4b8]
             0x00012294: 3d 77:       bu (u6)         -0x3d <.label268>
.label267    0x00012296: 31 f0 20 69: ldc (lru6)      r4, 0xc60
             0x0001229a: 54 12:       add (3r)        r1, r1, r4
             0x0001229c: 0b 77:       bu (u6)         -0xb <.label269>
.label258    0x0001229e: 13 f0 40 58: ldw (lru6)      r1, dp[0x4c0]
             0x000122a2: ac 90:       add (2rus)      r10, r3, 0x0
             0x000122a4: 0b f0 ca 59: ldw (lru6)      r7, dp[0x2ca]
             0x000122a8: 8f ca:       lsu (3r)        r4, r3, r7
             0x000122aa: 04 71:       bt (ru6)        r4, 0x4 <.label270>
.label273    0x000122ac: 13 f0 40 50: stw (lru6)      r1, dp[0x4c0]
             0x000122b0: 01 f0 16 77: bu (lu6)        -0x56 <.label271>
.label270    0x000122b4: 34 f0 2c 62: ldaw (lru6)     r8, dp[0xd2c]
.label272    0x000122b8: 00 b7:       in (2r)         r4, res[r0]
             0x000122ba: 92 4e:       ldw (3r)        r9, r8[r10]
             0x000122bc: 6c 90:       add (2rus)      r6, r3, 0x0
             0x000122be: 5c 90:       add (2rus)      r5, r3, 0x0
             0x000122c0: 24 fc e5 0f: maccs (l4r)     r6, r5, r9, r4
             0x000122c4: 0b a1:       shl (2rus)      r4, r6, 0x3
             0x000122c6: 44 00:       stw (2rus)      r4, r1[0x0]
             0x000122c8: 54 92:       add (2rus)      r1, r1, 0x4
             0x000122ca: 29 92:       add (2rus)      r10, r10, 0x1
             0x000122cc: 0b cc:       lsu (3r)        r4, r10, r7
             0x000122ce: 0c 75:       bt (ru6)        r4, -0xc <.label272>
             0x000122d0: 13 77:       bu (u6)         -0x13 <.label273>
.label259    0x000122d2: 34 f0 6c 62: ldaw (lru6)     r9, dp[0xd2c]
             0x000122d6: 1a a7:       mkmsk (rus)     r6, 0x2
             0x000122d8: 00 f0 21 6e: ldw (lru6)      r8, cp[0x21]
.label279    0x000122dc: 04 b7:       in (2r)         r5, res[r0]
             0x000122de: 74 4c:       ldw (3r)        r11, r9[r4]
             0x000122e0: ac 90:       add (2rus)      r10, r3, 0x0
             0x000122e2: 1c 90:       add (2rus)      r1, r3, 0x0
             0x000122e4: 6d fc e1 0f: maccs (l4r)     r10, r1, r11, r5
             0x000122e8: db a1:       shl (2rus)      r5, r10, 0x3
             0x000122ea: 12 f0 bb 5a: ldw (lru6)      r10, dp[0x4bb]
             0x000122ee: da 3b:       and (3r)        r1, r10, r6
             0x000122f0: 5e a7:       mkmsk (rus)     r11, 0x2
             0x000122f2: 3d ca:       lsu (3r)        r11, r11, r1
             0x000122f4: c5 72:       bt (ru6)        r11, 0x5 <.label274>
             0x000122f6: e1 2f:       bru (1r)        r1
             0x000122f8: 0b 73:       bu (u6)         0xb <.label275>
             0x000122fa: 0d 73:       bu (u6)         0xd <.label276>
             0x000122fc: 26 73:       bu (u6)         0x26 <.label277>
             0x000122fe: 3a 73:       bu (u6)         0x3a <.label278>
.label274    0x00012300: 99 91:       add (2rus)      r1, r10, 0x1
             0x00012302: 12 f0 7b 50: stw (lru6)      r1, dp[0x4bb]
             0x00012306: 01 91:       add (2rus)      r4, r4, 0x1
             0x00012308: 13 cb:       lsu (3r)        r1, r4, r7
             0x0001230a: 58 74:       bt (ru6)        r1, -0x18 <.label279>
             0x0001230c: 02 f0 04 77: bu (lu6)        -0x84 <.label271>
.label275    0x00012310: 12 f0 7c 51: stw (lru6)      r5, dp[0x4bc]
             0x00012314: 0b 77:       bu (u6)         -0xb <.label274>
.label276    0x00012316: 12 f0 7c 58: ldw (lru6)      r1, dp[0x4bc]
             0x0001231a: 34 ad:       shr (2rus)      r11, r1, 0x8
             0x0001231c: fc f3 40 68: ldc (lru6)      r1, 0xff00
             0x00012320: d5 38:       and (3r)        r1, r5, r1
             0x00012322: 95 a4:       shl (2rus)      r1, r1, 0x10
             0x00012324: 9d 41:       or (3r)         r1, r11, r1
             0x00012326: 12 f0 7c 50: stw (lru6)      r1, dp[0x4bc]
             0x0001232a: 13 f0 40 58: ldw (lru6)      r1, dp[0x4c0]
             0x0001232e: 12 f0 fc 5a: ldw (lru6)      r11, dp[0x4bc]
             0x00012332: b4 00:       stw (2rus)      r11, r1[0x0]
             0x00012334: 54 92:       add (2rus)      r1, r1, 0x4
             0x00012336: 13 f0 40 50: stw (lru6)      r1, dp[0x4c0]
             0x0001233a: f5 fd ec 97: ashr (l2rus)    r11, r5, 0x10
             0x0001233e: 13 f0 40 58: ldw (lru6)      r1, dp[0x4c0]
             0x00012342: b4 00:       stw (2rus)      r11, r1[0x0]
             0x00012344: 12 f0 7c 51: stw (lru6)      r5, dp[0x4bc]
             0x00012348: 25 77:       bu (u6)         -0x25 <.label274>
.label277    0x0001234a: 12 f0 7c 58: ldw (lru6)      r1, dp[0x4bc]
             0x0001234e: 35 ad:       shr (2rus)      r11, r1, 0x10
             0x00012350: 00 f0 62 6c: ldw (lru6)      r1, cp[0x22]
             0x00012354: d5 38:       and (3r)        r1, r5, r1
             0x00012356: 94 a4:       shl (2rus)      r1, r1, 0x8
             0x00012358: 9d 41:       or (3r)         r1, r11, r1
             0x0001235a: 12 f0 7c 50: stw (lru6)      r1, dp[0x4bc]
             0x0001235e: 13 f0 40 58: ldw (lru6)      r1, dp[0x4c0]
             0x00012362: 12 f0 fc 5a: ldw (lru6)      r11, dp[0x4bc]
             0x00012366: b4 00:       stw (2rus)      r11, r1[0x0]
             0x00012368: 54 92:       add (2rus)      r1, r1, 0x4
             0x0001236a: 13 f0 40 50: stw (lru6)      r1, dp[0x4c0]
             0x0001236e: 12 f0 7c 51: stw (lru6)      r5, dp[0x4bc]
             0x00012372: 3a 77:       bu (u6)         -0x3a <.label274>
.label278    0x00012374: 12 f0 7c 58: ldw (lru6)      r1, dp[0x4bc]
             0x00012378: 36 ad:       shr (2rus)      r11, r1, 0x18
             0x0001237a: 54 3d:       and (3r)        r1, r5, r8
             0x0001237c: 9d 41:       or (3r)         r1, r11, r1
             0x0001237e: 12 f0 7c 50: stw (lru6)      r1, dp[0x4bc]
             0x00012382: 13 f0 40 58: ldw (lru6)      r1, dp[0x4c0]
             0x00012386: 12 f0 7c 59: ldw (lru6)      r5, dp[0x4bc]
             0x0001238a: 54 00:       stw (2rus)      r5, r1[0x0]
             0x0001238c: 54 92:       add (2rus)      r1, r1, 0x4
             0x0001238e: 13 f0 40 50: stw (lru6)      r1, dp[0x4c0]
             0x00012392: 01 f0 0b 77: bu (lu6)        -0x4b <.label274>
.label260    0x00012396: 00 b7:       in (2r)         r4, res[r0]
             0x00012398: 15 90:       add (2rus)      r1, r1, 0x1
             0x0001239a: 85 ca:       lsu (3r)        r4, r1, r5
             0x0001239c: 04 75:       bt (ru6)        r4, -0x4 <.label260>
             0x0001239e: 03 f0 07 77: bu (lu6)        -0xc7 <.label280>
.label261    0x000123a2: 1c 90:       add (2rus)      r1, r3, 0x0
.label281    0x000123a4: cc ae:       out (r2r)       res[r0], r3
             0x000123a6: 15 90:       add (2rus)      r1, r1, 0x1
             0x000123a8: 82 68:       ldc (ru6)       r2, 0x2
             0x000123aa: 26 c0:       lss (3r)        r2, r1, r2
             0x000123ac: 85 74:       bt (ru6)        r2, -0x5 <.label281>
             0x000123ae: 13 f0 44 5a: ldw (lru6)      r9, dp[0x4c4]
             0x000123b2: 13 f0 05 58: ldw (lru6)      r0, dp[0x4c5]
             0x000123b6: 81 1c:       sub (3r)        r0, r0, r9
             0x000123b8: 13 c0:       lss (3r)        r1, r0, r3
             0x000123ba: 49 70:       bt (ru6)        r1, 0x9 <.label282>
.label284    0x000123bc: 09 f0 56 68: ldc (lru6)      r1, 0x256
             0x000123c0: 01 c0:       lss (3r)        r0, r0, r1
             0x000123c2: 02 f0 38 74: bt (lru6)       r0, -0xb8 <.label283>
             0x000123c6: 0b f0 cb 50: stw (lru6)      r3, dp[0x2cb]
             0x000123ca: 02 f0 3c 77: bu (lu6)        -0xbc <.label283>
.label282    0x000123ce: 31 f0 60 68: ldc (lru6)      r1, 0xc60
             0x000123d2: 01 10:       add (3r)        r0, r0, r1
             0x000123d4: 0d 77:       bu (u6)         -0xd <.label284>
.label262    0x000123d6: 2c 90:       add (2rus)      r2, r3, 0x0
             0x000123d8: 0b f0 c9 59: ldw (lru6)      r7, dp[0x2c9]
             0x000123dc: 5f ca:       lsu (3r)        r1, r3, r7
             0x000123de: 03 f0 55 7c: bf (lru6)       r1, -0xd5 <.label285>
             0x000123e2: 34 f0 6f 61: ldaw (lru6)     r5, dp[0xd2f]
.label286    0x000123e6: 13 f0 44 5a: ldw (lru6)      r9, dp[0x4c4]
             0x000123ea: e4 09:       ldw (2rus)      r6, r9[0x0]
             0x000123ec: d4 93:       add (2rus)      r1, r9, 0x4
             0x000123ee: 13 f0 44 50: stw (lru6)      r1, dp[0x4c4]
             0x000123f2: 06 49:       ldw (3r)        r4, r5[r2]
             0x000123f4: 8c 90:       add (2rus)      r8, r3, 0x0
             0x000123f6: 1c 90:       add (2rus)      r1, r3, 0x0
             0x000123f8: 82 fb e1 0f: maccs (l4r)     r8, r1, r4, r6
             0x000123fc: 93 a1:       shl (2rus)      r1, r8, 0x3
             0x000123fe: c4 ae:       out (r2r)       res[r0], r1
             0x00012400: 29 90:       add (2rus)      r2, r2, 0x1
             0x00012402: 5b ca:       lsu (3r)        r1, r2, r7
             0x00012404: 50 74:       bt (ru6)        r1, -0x10 <.label286>
             0x00012406: 03 f0 29 77: bu (lu6)        -0xe9 <.label285>
.label263    0x0001240a: 1a a7:       mkmsk (rus)     r6, 0x2
             0x0001240c: 34 f0 2f 62: ldaw (lru6)     r8, dp[0xd2f]
             0x00012410: 00 f0 61 6d: ldw (lru6)      r5, cp[0x21]
.label292    0x00012414: 12 f0 79 58: ldw (lru6)      r1, dp[0x4b9]
             0x00012418: d6 3a:       and (3r)        r9, r1, r6
             0x0001241a: 5a a7:       mkmsk (rus)     r10, 0x2
             0x0001241c: a9 ce:       lsu (3r)        r10, r10, r9
             0x0001241e: 85 72:       bt (ru6)        r10, 0x5 <.label287>
             0x00012420: e9 2f:       bru (1r)        r9
             0x00012422: 12 73:       bu (u6)         0x12 <.label288>
             0x00012424: 1d 73:       bu (u6)         0x1d <.label289>
             0x00012426: 2c 73:       bu (u6)         0x2c <.label290>
             0x00012428: 3b 73:       bu (u6)         0x3b <.label291>
.label287    0x0001242a: 15 90:       add (2rus)      r1, r1, 0x1
             0x0001242c: 12 f0 79 50: stw (lru6)      r1, dp[0x4b9]
             0x00012430: 50 4c:       ldw (3r)        r9, r8[r4]
             0x00012432: ac 90:       add (2rus)      r10, r3, 0x0
             0x00012434: 1c 90:       add (2rus)      r1, r3, 0x0
             0x00012436: 26 fa e1 0f: maccs (l4r)     r10, r1, r9, r2
             0x0001243a: 9b a1:       shl (2rus)      r1, r10, 0x3
             0x0001243c: c4 ae:       out (r2r)       res[r0], r1
             0x0001243e: 01 91:       add (2rus)      r4, r4, 0x1
             0x00012440: 13 cb:       lsu (3r)        r1, r4, r7
             0x00012442: 58 74:       bt (ru6)        r1, -0x18 <.label292>
             0x00012444: 04 f0 08 77: bu (lu6)        -0x108 <.label285>
.label288    0x00012448: 13 f0 44 5a: ldw (lru6)      r9, dp[0x4c4]
             0x0001244c: a4 09:       ldw (2rus)      r2, r9[0x0]
             0x0001244e: 12 f0 ba 50: stw (lru6)      r2, dp[0x4ba]
             0x00012452: e4 93:       add (2rus)      r2, r9, 0x4
             0x00012454: 13 f0 84 50: stw (lru6)      r2, dp[0x4c4]
             0x00012458: 12 f0 ba 58: ldw (lru6)      r2, dp[0x4ba]
             0x0001245c: a8 a4:       shl (2rus)      r2, r2, 0x8
             0x0001245e: 1b 77:       bu (u6)         -0x1b <.label287>
.label289    0x00012460: 12 f0 ba 58: ldw (lru6)      r2, dp[0x4ba]
             0x00012464: a9 ac:       shr (2rus)      r2, r2, 0x10
             0x00012466: 13 f0 44 5a: ldw (lru6)      r9, dp[0x4c4]
             0x0001246a: 24 0a:       ldw (2rus)      r10, r9[0x0]
             0x0001246c: 12 f0 ba 52: stw (lru6)      r10, dp[0x4ba]
             0x00012470: 54 94:       add (2rus)      r9, r9, 0x4
             0x00012472: 13 f0 44 52: stw (lru6)      r9, dp[0x4c4]
             0x00012476: 12 f0 7a 5a: ldw (lru6)      r9, dp[0x4ba]
             0x0001247a: 95 a6:       shl (2rus)      r9, r9, 0x10
             0x0001247c: a9 44:       or (3r)         r2, r2, r9
             0x0001247e: 2b 77:       bu (u6)         -0x2b <.label287>
.label290    0x00012480: 12 f0 ba 58: ldw (lru6)      r2, dp[0x4ba]
             0x00012484: a8 ac:       shr (2rus)      r2, r2, 0x8
             0x00012486: 13 f0 44 5a: ldw (lru6)      r9, dp[0x4c4]
             0x0001248a: 24 0a:       ldw (2rus)      r10, r9[0x0]
             0x0001248c: 12 f0 ba 52: stw (lru6)      r10, dp[0x4ba]
             0x00012490: 54 94:       add (2rus)      r9, r9, 0x4
             0x00012492: 13 f0 44 52: stw (lru6)      r9, dp[0x4c4]
             0x00012496: 12 f0 7a 5a: ldw (lru6)      r9, dp[0x4ba]
             0x0001249a: 96 a6:       shl (2rus)      r9, r9, 0x18
             0x0001249c: a9 44:       or (3r)         r2, r2, r9
             0x0001249e: 3b 77:       bu (u6)         -0x3b <.label287>
.label291    0x000124a0: 12 f0 ba 58: ldw (lru6)      r2, dp[0x4ba]
             0x000124a4: 69 3a:       and (3r)        r2, r2, r5
             0x000124a6: 3f 77:       bu (u6)         -0x3f <.label287>
.label264    0x000124a8: cc ae:       out (r2r)       res[r0], r3
             0x000124aa: 15 90:       add (2rus)      r1, r1, 0x1
             0x000124ac: 64 ca:       lsu (3r)        r2, r1, r4
             0x000124ae: 84 74:       bt (ru6)        r2, -0x4 <.label264>
             0x000124b0: 04 f0 38 77: bu (lu6)        -0x138 <.label293>
.label265    0x000124b4: 12 f0 34 58: ldw (lru6)      r0, dp[0x4b4]
             0x000124b8: 08 54:       stw (ru6)       r0, sp[0x8]
             0x000124ba: 08 5c:       ldw (ru6)       r0, sp[0x8]
             0x000124bc: 02 78:       bf (ru6)        r0, 0x2 <.label294>
.label301    0x000124be: 04 f0 32 77: bu (lu6)        -0x132 <.label295>
.label294    0x000124c2: 12 f0 b5 58: ldw (lru6)      r2, dp[0x4b5]
             0x000124c6: 01 f0 87 70: bt (lru6)       r2, 0x47 <.label296>
.label304    0x000124ca: 34 f0 39 58: ldw (lru6)      r0, dp[0xd39]
             0x000124ce: 12 f0 73 58: ldw (lru6)      r1, dp[0x4b3]
             0x000124d2: 04 10:       add (3r)        r0, r1, r0
             0x000124d4: 12 f0 33 50: stw (lru6)      r0, dp[0x4b3]
             0x000124d8: 12 f0 73 58: ldw (lru6)      r1, dp[0x4b3]
             0x000124dc: 85 fc ec 97: ashr (l2rus)    r0, r1, 0x10
             0x000124e0: 12 f0 35 50: stw (lru6)      r0, dp[0x4b5]
             0x000124e4: 31 a7:       mkmsk (rus)     r0, 0x10
             0x000124e6: 04 38:       and (3r)        r0, r1, r0
             0x000124e8: 12 f0 33 50: stw (lru6)      r0, dp[0x4b3]
             0x000124ec: 07 5c:       ldw (ru6)       r0, sp[0x7]
             0x000124ee: 02 b0:       eq (2rus)       r0, r0, 0x2
             0x000124f0: 01 f0 20 70: bt (lru6)       r0, 0x60 <.label297>
             0x000124f4: 12 f0 b5 58: ldw (lru6)      r2, dp[0x4b5]
             0x000124f8: 0b c0:       lss (3r)        r0, r2, r3
             0x000124fa: 01 f0 2f 70: bt (lru6)       r0, 0x6f <.label298>
             0x000124fe: 1a a7:       mkmsk (rus)     r6, 0x2
             0x00012500: 4a fa ec 3f: mul (l3r)       r0, r2, r6
             0x00012504: 0b f0 ca 59: ldw (lru6)      r7, dp[0x2ca]
             0x00012508: 53 fa ec 3f: mul (l3r)       r1, r0, r7
             0x0001250c: 09 f0 0a 68: ldc (lru6)      r0, 0x24a
             0x00012510: 01 c8:       lsu (3r)        r0, r0, r1
             0x00012512: 01 f0 23 70: bt (lru6)       r0, 0x63 <.label298>
.label308    0x00012516: 12 f0 7f 59: ldw (lru6)      r5, dp[0x4bf]
             0x0001251a: 13 f0 01 59: ldw (lru6)      r4, dp[0x4c1]
             0x0001251e: 14 1b:       sub (3r)        r1, r5, r4
             0x00012520: 0d c0:       lss (3r)        r0, r3, r1
             0x00012522: 01 f0 1f 78: bf (lru6)       r0, 0x5f <.label299>
.label309    0x00012526: 0d c0:       lss (3r)        r0, r3, r1
             0x00012528: 01 f0 26 78: bf (lru6)       r0, 0x66 <.label300>
             0x0001252c: 12 f0 b5 58: ldw (lru6)      r2, dp[0x4b5]
             0x00012530: 0b f0 ca 59: ldw (lru6)      r7, dp[0x2ca]
             0x00012534: 4b fa ec 3f: mul (l3r)       r0, r2, r7
             0x00012538: 02 a0:       shl (2rus)      r0, r0, 0x2
             0x0001253a: 40 92:       add (2rus)      r0, r0, 0x4
             0x0001253c: 01 c8:       lsu (3r)        r0, r0, r1
             0x0001253e: 01 f0 1b 70: bt (lru6)       r0, 0x5b <.label300>
             0x00012542: d1 a6:       mkmsk (rus)     r0, 0x1
             0x00012544: 12 f0 38 50: stw (lru6)      r0, dp[0x4b8]
             0x00012548: 12 f0 f5 50: stw (lru6)      r3, dp[0x4b5]
.label310    0x0001254c: 12 f0 b5 58: ldw (lru6)      r2, dp[0x4b5]
             0x00012550: 12 f0 b4 50: stw (lru6)      r2, dp[0x4b4]
             0x00012554: 01 f0 0d 77: bu (lu6)        -0x4d <.label301>
.label296    0x00012558: 07 5c:       ldw (ru6)       r0, sp[0x7]
             0x0001255a: 02 b0:       eq (2rus)       r0, r0, 0x2
             0x0001255c: 18 70:       bt (ru6)        r0, 0x18 <.label302>
             0x0001255e: 1a a7:       mkmsk (rus)     r6, 0x2
             0x00012560: 4a fa ec 3f: mul (l3r)       r0, r2, r6
             0x00012564: 0b f0 ca 59: ldw (lru6)      r7, dp[0x2ca]
             0x00012568: 43 fa ec 3f: mul (l3r)       r0, r0, r7
             0x0001256c: 13 90:       add (2rus)      r1, r0, 0x3
             0x0001256e: 82 8f:       not (2r)        r0, r6
             0x00012570: 04 38:       and (3r)        r0, r1, r0
             0x00012572: 40 92:       add (2rus)      r0, r0, 0x4
             0x00012574: 13 f0 01 59: ldw (lru6)      r4, dp[0x4c1]
             0x00012578: c0 10:       add (3r)        r0, r4, r0
             0x0001257a: 13 f0 01 50: stw (lru6)      r0, dp[0x4c1]
.label305    0x0001257e: 13 f0 01 59: ldw (lru6)      r4, dp[0x4c1]
             0x00012582: 13 f0 02 58: ldw (lru6)      r0, dp[0x4c2]
             0x00012586: c0 c8:       lsu (3r)        r0, r4, r0
             0x00012588: 10 78:       bf (ru6)        r0, 0x10 <.label303>
.label306    0x0001258a: 01 f0 22 77: bu (lu6)        -0x62 <.label304>
.label302    0x0001258e: 04 68:       ldc (ru6)       r0, 0x4
             0x00012590: 08 f8 ec 3f: mul (l3r)       r0, r2, r0
             0x00012594: 0b f0 ca 59: ldw (lru6)      r7, dp[0x2ca]
             0x00012598: 43 fa ec 3f: mul (l3r)       r0, r0, r7
             0x0001259c: 40 92:       add (2rus)      r0, r0, 0x4
             0x0001259e: 13 f0 01 59: ldw (lru6)      r4, dp[0x4c1]
             0x000125a2: c0 10:       add (3r)        r0, r4, r0
             0x000125a4: 13 f0 01 50: stw (lru6)      r0, dp[0x4c1]
             0x000125a8: 16 77:       bu (u6)         -0x16 <.label305>
.label303    0x000125aa: 13 f0 03 58: ldw (lru6)      r0, dp[0x4c3]
             0x000125ae: 13 f0 01 50: stw (lru6)      r0, dp[0x4c1]
             0x000125b2: 15 77:       bu (u6)         -0x15 <.label306>
.label297    0x000125b4: 12 f0 b5 58: ldw (lru6)      r2, dp[0x4b5]
             0x000125b8: 0b c0:       lss (3r)        r0, r2, r3
             0x000125ba: 0c 70:       bt (ru6)        r0, 0xc <.label307>
             0x000125bc: 04 68:       ldc (ru6)       r0, 0x4
             0x000125be: 08 f8 ec 3f: mul (l3r)       r0, r2, r0
             0x000125c2: 0b f0 ca 59: ldw (lru6)      r7, dp[0x2ca]
             0x000125c6: 53 fa ec 3f: mul (l3r)       r1, r0, r7
             0x000125ca: 03 f0 08 68: ldc (lru6)      r0, 0xc8
             0x000125ce: 01 c8:       lsu (3r)        r0, r0, r1
             0x000125d0: 01 f0 1f 7c: bf (lru6)       r0, -0x5f <.label308>
.label307    0x000125d4: 12 f0 f5 50: stw (lru6)      r3, dp[0x4b5]
             0x000125d8: 01 f0 23 77: bu (lu6)        -0x63 <.label308>
.label298    0x000125dc: 12 f0 f5 50: stw (lru6)      r3, dp[0x4b5]
             0x000125e0: 01 f0 27 77: bu (lu6)        -0x67 <.label308>
.label299    0x000125e4: 13 f0 03 58: ldw (lru6)      r0, dp[0x4c3]
             0x000125e8: c4 30:       eq (3r)         r0, r5, r0
             0x000125ea: 01 f0 24 7c: bf (lru6)       r0, -0x64 <.label309>
             0x000125ee: 13 f0 02 58: ldw (lru6)      r0, dp[0x4c2]
             0x000125f2: 50 1a:       sub (3r)        r1, r0, r4
             0x000125f4: 01 f0 29 77: bu (lu6)        -0x69 <.label309>
.label300    0x000125f8: 12 f0 b5 58: ldw (lru6)      r2, dp[0x4b5]
             0x000125fc: 01 f0 9a 7c: bf (lru6)       r2, -0x5a <.label310>
             0x00012600: 0b f0 0d 58: ldw (lru6)      r0, dp[0x2cd]
             0x00012604: 08 f8 ec 3f: mul (l3r)       r0, r2, r0
             0x00012608: 0b f0 ca 59: ldw (lru6)      r7, dp[0x2ca]
             0x0001260c: 43 fa ec 3f: mul (l3r)       r0, r0, r7
             0x00012610: c0 00:       stw (2rus)      r0, r4[0x0]
             0x00012612: 12 f0 fb 50: stw (lru6)      r3, dp[0x4bb]
             0x00012616: 00 93:       add (2rus)      r0, r4, 0x4
             0x00012618: 13 f0 00 50: stw (lru6)      r0, dp[0x4c0]
             0x0001261c: 01 f0 2a 77: bu (lu6)        -0x6a <.label310>
.label266    0x00012620: 0b f0 c9 59: ldw (lru6)      r7, dp[0x2c9]
             0x00012624: 0b f0 0d 58: ldw (lru6)      r0, dp[0x2cd]
             0x00012628: 43 fa ec 3f: mul (l3r)       r0, r0, r7
             0x0001262c: 12 f0 76 58: ldw (lru6)      r1, dp[0x4b6]
             0x00012630: 04 c8:       lsu (3r)        r0, r1, r0
             0x00012632: 07 f0 28 7c: bf (lru6)       r0, -0x1e8 <.label311>
             0x00012636: 52 70:       bt (ru6)        r1, 0x12 <.label312>
.label315    0x00012638: 13 f0 44 5a: ldw (lru6)      r9, dp[0x4c4]
             0x0001263c: 13 f0 06 58: ldw (lru6)      r0, dp[0x4c6]
             0x00012640: 84 c9:       lsu (3r)        r0, r9, r0
             0x00012642: 20 78:       bf (ru6)        r0, 0x20 <.label313>
.label316    0x00012644: 13 f0 44 5a: ldw (lru6)      r9, dp[0x4c4]
             0x00012648: 13 f0 05 58: ldw (lru6)      r0, dp[0x4c5]
             0x0001264c: 84 31:       eq (3r)         r0, r9, r0
             0x0001264e: 0b f0 0b 50: stw (lru6)      r0, dp[0x2cb]
             0x00012652: 0b f0 0b 58: ldw (lru6)      r0, dp[0x2cb]
             0x00012656: 1b 78:       bf (ru6)        r0, 0x1b <.label314>
.label317    0x00012658: 07 f0 3b 77: bu (lu6)        -0x1fb <.label311>
.label312    0x0001265c: 07 90:       add (2rus)      r0, r1, 0x3
             0x0001265e: 12 f0 36 50: stw (lru6)      r0, dp[0x4b6]
             0x00012662: 1a a7:       mkmsk (rus)     r6, 0x2
             0x00012664: 82 8f:       not (2r)        r0, r6
             0x00012666: 12 f0 76 58: ldw (lru6)      r1, dp[0x4b6]
             0x0001266a: 04 38:       and (3r)        r0, r1, r0
             0x0001266c: 12 f0 36 50: stw (lru6)      r0, dp[0x4b6]
             0x00012670: 13 f0 44 5a: ldw (lru6)      r9, dp[0x4c4]
             0x00012674: 12 f0 76 58: ldw (lru6)      r1, dp[0x4b6]
             0x00012678: 85 11:       add (3r)        r0, r9, r1
             0x0001267a: 13 f0 04 50: stw (lru6)      r0, dp[0x4c4]
             0x0001267e: 12 f0 f6 50: stw (lru6)      r3, dp[0x4b6]
             0x00012682: 26 77:       bu (u6)         -0x26 <.label315>
.label313    0x00012684: 13 f0 07 58: ldw (lru6)      r0, dp[0x4c7]
             0x00012688: 13 f0 04 50: stw (lru6)      r0, dp[0x4c4]
             0x0001268c: 25 77:       bu (u6)         -0x25 <.label316>
.label314    0x0001268e: 84 09:       ldw (2rus)      r0, r9[0x0]
             0x00012690: 12 f0 36 50: stw (lru6)      r0, dp[0x4b6]
             0x00012694: 12 f0 f9 50: stw (lru6)      r3, dp[0x4b9]
             0x00012698: c4 93:       add (2rus)      r0, r9, 0x4
             0x0001269a: 13 f0 04 50: stw (lru6)      r0, dp[0x4c4]
             0x0001269e: 24 77:       bu (u6)         -0x24 <.label317>

<check_for_interrupt>:
             0x000126a0: ed 07:       clre (0r)       
             0x000126a2: 05 d8:       ldap (u10)      r11, 0x5 <.label318>
             0x000126a4: f0 47:       setv (1r)       res[r0], r11
             0x000126a6: f0 07:       eeu (1r)        res[r0]
             0x000126a8: 41 7b:       setsr (u6)      0x1
             0x000126aa: 01 7b:       clrsr (u6)      0x1
.label319    0x000126ac: c0 77:       retsp (u6)      0x0
.label318    0x000126ae: c4 b6:       in (2r)         r1, res[r0]
             0x000126b0: d1 ce:       chkct (rus)     res[r0], 0x1
             0x000126b2: 12 f0 3d 58: ldw (lru6)      r0, dp[0x4bd]
             0x000126b6: 06 74:       bt (ru6)        r0, -0x6 <.label319>
             0x000126b8: d1 a6:       mkmsk (rus)     r0, 0x1
             0x000126ba: 12 f0 3d 50: stw (lru6)      r0, dp[0x4bd]
             0x000126be: 34 f0 b7 60: ldaw (lru6)     r2, dp[0xd37]
             0x000126c2: 05 68:       ldc (ru6)       r0, 0x5
             0x000126c4: 18 f8 ec 8f: st8 (l3r)       r1, r2[r0]
             0x000126c8: 34 f0 37 60: ldaw (lru6)     r0, dp[0xd37]
             0x000126cc: 12 f0 ee 58: ldw (lru6)      r3, dp[0x4ae]
             0x000126d0: 5c 0a:       ldw (2rus)      r1, r3[0x4]
             0x000126d2: 02 f0 88 68: ldc (lru6)      r2, 0x88
             0x000126d6: 16 f8 ec 0f: xor (l3r)       r1, r1, r2
             0x000126da: 5c 02:       stw (2rus)      r1, r3[0x4]
             0x000126dc: bc 08:       ldw (2rus)      r11, r3[0x0]
             0x000126de: 2e 08:       ldw (2rus)      r2, r3[0x2]
             0x000126e0: c6 ae:       out (r2r)       res[r2], r1
             0x000126e2: 40 92:       add (2rus)      r0, r0, 0x4
             0x000126e4: 01 f0 40 68: ldc (lru6)      r1, 0x40
             0x000126e8: c9 4e:       outct (2r)      res[r2], r1
             0x000126ea: 1d 08:       ldw (2rus)      r1, r3[0x1]
             0x000126ec: d8 a6:       mkmsk (rus)     r2, 0x20
             0x000126ee: 4d 02:       stw (2rus)      r0, r3[0x5]
             0x000126f0: 2f 00:       stw (2rus)      r2, r3[0x3]
             0x000126f2: 9c 01:       stw (2rus)      r1, r11[0x0]
             0x000126f4: 25 77:       bu (u6)         -0x25 <.label319>
             0x000126f6: 00 90:       add (2rus)      r0, r0, 0x0

<decouple>:
             0x000126f8: 42 77:       entsp (u6)      0x2
             0x000126fa: 50 90:       add (2rus)      r5, r0, 0x0
             0x000126fc: 81 54:       stw (ru6)       r2, sp[0x1]
             0x000126fe: 24 f0 0f 60: ldaw (lru6)     r0, dp[0x90f]
             0x00012702: 00 90:       add (2rus)      r0, r0, 0x0
             0x00012704: c0 69:       ldc (ru6)       r7, 0x0
             0x00012706: 0c 91:       add (2rus)      r4, r7, 0x0
             0x00012708: 13 f0 07 50: stw (lru6)      r0, dp[0x4c7]
             0x0001270c: 13 f0 47 58: ldw (lru6)      r1, dp[0x4c7]
             0x00012710: 31 f0 20 68: ldc (lru6)      r0, 0xc60
             0x00012714: 04 10:       add (3r)        r0, r1, r0
             0x00012716: 13 f0 06 50: stw (lru6)      r0, dp[0x4c6]
             0x0001271a: 13 f0 45 50: stw (lru6)      r1, dp[0x4c5]
             0x0001271e: 13 f0 44 50: stw (lru6)      r1, dp[0x4c4]
             0x00012722: 15 f0 21 60: ldaw (lru6)     r0, dp[0x561]
             0x00012726: 00 90:       add (2rus)      r0, r0, 0x0
             0x00012728: 13 f0 03 50: stw (lru6)      r0, dp[0x4c3]
             0x0001272c: 13 f0 03 58: ldw (lru6)      r0, dp[0x4c3]
             0x00012730: 31 f0 60 68: ldc (lru6)      r1, 0xc60
             0x00012734: 11 10:       add (3r)        r1, r0, r1
             0x00012736: 13 f0 42 50: stw (lru6)      r1, dp[0x4c2]
             0x0001273a: 13 f0 01 50: stw (lru6)      r0, dp[0x4c1]
             0x0001273e: 12 f0 3f 50: stw (lru6)      r0, dp[0x4bf]
             0x00012742: 13 f0 0b 60: ldaw (lru6)     r0, dp[0x4cb]
             0x00012746: 00 90:       add (2rus)      r0, r0, 0x0
             0x00012748: 12 f0 3e 50: stw (lru6)      r0, dp[0x4be]
             0x0001274c: 34 f0 77 60: ldaw (lru6)     r1, dp[0xd37]
             0x00012750: 00 68:       ldc (ru6)       r0, 0x0
             0x00012752: 74 f8 ec 8f: st8 (l3r)       r7, r1[r0]
             0x00012756: d9 a6:       mkmsk (rus)     r2, 0x1
             0x00012758: d1 a6:       mkmsk (rus)     r0, 0x1
             0x0001275a: 24 f8 ec 8f: st8 (l3r)       r2, r1[r0]
             0x0001275e: 02 68:       ldc (ru6)       r0, 0x2
             0x00012760: 74 f8 ec 8f: st8 (l3r)       r7, r1[r0]
             0x00012764: d2 a6:       mkmsk (rus)     r0, 0x2
             0x00012766: 74 f8 ec 8f: st8 (l3r)       r7, r1[r0]
             0x0001276a: 04 68:       ldc (ru6)       r0, 0x4
             0x0001276c: 74 f8 ec 8f: st8 (l3r)       r7, r1[r0]
             0x00012770: 05 68:       ldc (ru6)       r0, 0x5
             0x00012772: 74 f8 ec 8f: st8 (l3r)       r7, r1[r0]
             0x00012776: cc 90:       add (2rus)      r0, r7, 0x0
             0x00012778: 34 f0 2f 62: ldaw (lru6)     r8, dp[0xd2f]
             0x0001277c: 00 f0 a3 6d: ldw (lru6)      r6, cp[0x23]
             0x00012780: de a6:       mkmsk (rus)     r3, 0x2
.label320    0x00012782: e0 f9 ec 07: stw (l3r)       r6, r8[r0]
             0x00012786: 01 90:       add (2rus)      r0, r0, 0x1
             0x00012788: 13 c0:       lss (3r)        r1, r0, r3
             0x0001278a: 45 74:       bt (ru6)        r1, -0x5 <.label320>
             0x0001278c: cc 90:       add (2rus)      r0, r7, 0x0
             0x0001278e: 34 f0 2c 62: ldaw (lru6)     r8, dp[0xd2c]
.label321    0x00012792: e0 f9 ec 07: stw (l3r)       r6, r8[r0]
             0x00012796: 01 90:       add (2rus)      r0, r0, 0x1
             0x00012798: 13 c0:       lss (3r)        r1, r0, r3
             0x0001279a: 45 74:       bt (ru6)        r1, -0x5 <.label321>
.label322    0x0001279c: 12 f0 30 58: ldw (lru6)      r0, dp[0x4b0]
             0x000127a0: 03 7c:       bf (ru6)        r0, -0x3 <.label322>
             0x000127a2: 03 f0 00 68: ldc (lru6)      r0, 0xc0
             0x000127a6: a0 90:       add (2rus)      r10, r0, 0x0
             0x000127a8: 0b f0 ce 62: ldaw (lru6)     r11, dp[0x2ce]
             0x000127ac: be 16:       add (3r)        r11, r11, r10
             0x000127ae: 80 66:       ldaw (ru6)      r10, sp[0x0]
             0x000127b0: fb 2f:       set (1r)        sp, r11
             0x000127b2: 80 56:       stw (ru6)       r10, sp[0x0]
             0x000127b4: c0 7b:       krestsp (u6)    0x0
             0x000127b6: 94 7b:       kentsp (u6)     0x14
             0x000127b8: 41 55:       stw (ru6)       r5, sp[0x1]
             0x000127ba: c2 55:       stw (ru6)       r7, sp[0x2]
             0x000127bc: d4 7b:       krestsp (u6)    0x14
             0x000127be: 20 73:       bu (u6)         0x20 <.label323>

<__handle_audio_request_handler>:
             0x000127c0: 94 7b:       kentsp (u6)     0x14

<__kent>:
             0x000127c2: 0d 54:       stw (ru6)       r0, sp[0xd]
             0x000127c4: 4e 54:       stw (ru6)       r1, sp[0xe]
             0x000127c6: 83 54:       stw (ru6)       r2, sp[0x3]
             0x000127c8: c4 54:       stw (ru6)       r3, sp[0x4]
             0x000127ca: 05 55:       stw (ru6)       r4, sp[0x5]
             0x000127cc: 46 55:       stw (ru6)       r5, sp[0x6]
             0x000127ce: 87 55:       stw (ru6)       r6, sp[0x7]
             0x000127d0: c8 55:       stw (ru6)       r7, sp[0x8]
             0x000127d2: 09 56:       stw (ru6)       r8, sp[0x9]
             0x000127d4: 4a 56:       stw (ru6)       r9, sp[0xa]
             0x000127d6: 8b 56:       stw (ru6)       r10, sp[0xb]
             0x000127d8: cc 56:       stw (ru6)       r11, sp[0xc]
             0x000127da: cf 57:       stw (ru6)       lr, sp[0xf]
             0x000127dc: 01 5c:       ldw (ru6)       r0, sp[0x1]
             0x000127de: 42 5c:       ldw (ru6)       r1, sp[0x2]
             0x000127e0: 0f d7:       bl (u10)        -0x30f <handle_audio_request>
             0x000127e2: 0d 5c:       ldw (ru6)       r0, sp[0xd]
             0x000127e4: 4e 5c:       ldw (ru6)       r1, sp[0xe]
             0x000127e6: 83 5c:       ldw (ru6)       r2, sp[0x3]
             0x000127e8: c4 5c:       ldw (ru6)       r3, sp[0x4]
             0x000127ea: 05 5d:       ldw (ru6)       r4, sp[0x5]
             0x000127ec: 46 5d:       ldw (ru6)       r5, sp[0x6]
             0x000127ee: 87 5d:       ldw (ru6)       r6, sp[0x7]
             0x000127f0: c8 5d:       ldw (ru6)       r7, sp[0x8]
             0x000127f2: 09 5e:       ldw (ru6)       r8, sp[0x9]
             0x000127f4: 4a 5e:       ldw (ru6)       r9, sp[0xa]
             0x000127f6: 8b 5e:       ldw (ru6)       r10, sp[0xb]
             0x000127f8: cc 5e:       ldw (ru6)       r11, sp[0xc]
             0x000127fa: cf 5f:       ldw (ru6)       lr, sp[0xf]
             0x000127fc: d4 7b:       krestsp (u6)    0x14

<__kret>:
             0x000127fe: fd 07:       kret (0r)       
.label323    0x00012800: 21 dc:       ldap (u10)      r11, -0x21 <__handle_audio_request_handler>
             0x00012802: f5 47:       setv (1r)       res[r5], r11
             0x00012804: 4a e9:       setc (ru6)      res[r5], 0xa
             0x00012806: f5 07:       eeu (1r)        res[r5]
             0x00012808: 42 7b:       setsr (u6)      0x2
.label324    0x0001280a: 12 f0 31 58: ldw (lru6)      r0, dp[0x4b1]
             0x0001280e: 03 7c:       bf (ru6)        r0, -0x3 <.label324>
             0x00012810: 12 f0 f1 51: stw (lru6)      r7, dp[0x4b1]
             0x00012814: 13 f0 05 58: ldw (lru6)      r0, dp[0x4c5]
             0x00012818: 13 f0 0a 50: stw (lru6)      r0, dp[0x4ca]
             0x0001281c: 12 f0 6c 58: ldw (lru6)      r1, dp[0x4ac]
             0x00012820: 04 08:       ldw (2rus)      r0, r1[0x0]
             0x00012822: 65 08:       ldw (2rus)      r6, r1[0x1]
             0x00012824: 16 08:       ldw (2rus)      r1, r1[0x2]
             0x00012826: c9 ae:       out (r2r)       res[r1], r2
             0x00012828: 60 00:       stw (2rus)      r6, r0[0x0]
.label325    0x0001282a: 12 f0 2f 58: ldw (lru6)      r0, dp[0x4af]
             0x0001282e: 03 7c:       bf (ru6)        r0, -0x3 <.label325>
             0x00012830: 12 f0 ef 51: stw (lru6)      r7, dp[0x4af]
             0x00012834: 12 f0 3e 58: ldw (lru6)      r0, dp[0x4be]
             0x00012838: 13 f0 09 50: stw (lru6)      r0, dp[0x4c9]
             0x0001283c: 13 f0 09 58: ldw (lru6)      r0, dp[0x4c9]
             0x00012840: 00 08:       ldw (2rus)      r0, r0[0x0]
             0x00012842: 12 f0 2d 5a: ldw (lru6)      r8, dp[0x4ad]
             0x00012846: 90 09:       ldw (2rus)      r1, r8[0x0]
             0x00012848: e2 09:       ldw (2rus)      r6, r8[0x2]
             0x0001284a: 03 f0 43 6a: ldc (lru6)      r9, 0xc3
             0x0001284e: e6 ae:       out (r2r)       res[r6], r9
             0x00012850: a3 38:       and (3r)        r10, r0, r3
             0x00012852: 32 1d:       sub (3r)        r11, r0, r10
             0x00012854: 13 f0 49 5a: ldw (lru6)      r9, dp[0x4c9]
             0x00012858: 97 16:       add (3r)        r9, r9, r11
             0x0001285a: 69 a4:       shl (2rus)      r10, r10, 0x5
             0x0001285c: 6a 4f:       outct (2r)      res[r6], r10
             0x0001285e: e1 09:       ldw (2rus)      r6, r8[0x1]
             0x00012860: 02 f8 ec 97: ashr (l2rus)    r0, r0, 0x2
             0x00012864: c0 96:       neg (2r)        r0, r0
             0x00012866: 51 04:       stw (2rus)      r9, r8[0x5]
             0x00012868: 83 01:       stw (2rus)      r0, r8[0x3]
             0x0001286a: 64 00:       stw (2rus)      r6, r1[0x0]
             0x0001286c: 0b 8f:       not (2r)        r6, r3
.label331    0x0001286e: 01 5c:       ldw (ru6)       r0, sp[0x1]
             0x00012870: 00 b0:       eq (2rus)       r0, r0, 0x0
             0x00012872: 01 f0 10 78: bf (lru6)       r0, 0x50 <.label326>
.label335    0x00012876: 12 f0 32 58: ldw (lru6)      r0, dp[0x4b2]
             0x0001287a: 50 b2:       eq (2rus)       r1, r0, 0x4
             0x0001287c: 01 f0 53 70: bt (lru6)       r1, 0x53 <.label327>
             0x00012880: 41 b2:       eq (2rus)       r0, r0, 0x5
             0x00012882: 02 f0 15 70: bt (lru6)       r0, 0x95 <.label328>
.label338    0x00012886: 12 f0 31 58: ldw (lru6)      r0, dp[0x4b1]
             0x0001288a: 02 f0 2f 70: bt (lru6)       r0, 0xaf <.label329>
             0x0001288e: 12 f0 37 58: ldw (lru6)      r0, dp[0x4b7]
             0x00012892: 03 f0 36 70: bt (lru6)       r0, 0xf6 <.label330>
.label348    0x00012896: 12 f0 2f 58: ldw (lru6)      r0, dp[0x4af]
             0x0001289a: 17 7c:       bf (ru6)        r0, -0x17 <.label331>
             0x0001289c: 12 f0 ef 51: stw (lru6)      r7, dp[0x4af]
             0x000128a0: 0b f0 0c 58: ldw (lru6)      r0, dp[0x2cc]
             0x000128a4: 04 f0 0a 70: bt (lru6)       r0, 0x10a <.label332>
             0x000128a8: 13 f0 41 58: ldw (lru6)      r1, dp[0x4c1]
             0x000128ac: 12 f0 3f 58: ldw (lru6)      r0, dp[0x4bf]
             0x000128b0: 40 08:       ldw (2rus)      r4, r0[0x0]
             0x000128b2: 03 91:       add (2rus)      r4, r4, 0x3
             0x000128b4: 42 3b:       and (3r)        r4, r4, r6
             0x000128b6: 40 12:       add (3r)        r0, r0, r4
             0x000128b8: 40 92:       add (2rus)      r0, r0, 0x4
             0x000128ba: 13 f0 02 59: ldw (lru6)      r4, dp[0x4c2]
             0x000128be: 80 ca:       lsu (3r)        r4, r0, r4
             0x000128c0: 04 f0 17 79: bf (lru6)       r4, 0x117 <.label333>
.label355    0x000128c4: 12 f0 3f 50: stw (lru6)      r0, dp[0x4bf]
             0x000128c8: 11 30:       eq (3r)         r1, r0, r1
             0x000128ca: 04 f0 56 78: bf (lru6)       r1, 0x116 <.label334>
             0x000128ce: 0b f0 8c 50: stw (lru6)      r2, dp[0x2cc]
             0x000128d2: 12 f0 3e 58: ldw (lru6)      r0, dp[0x4be]
             0x000128d6: 13 f0 09 50: stw (lru6)      r0, dp[0x4c9]
.label353    0x000128da: 13 f0 09 58: ldw (lru6)      r0, dp[0x4c9]
             0x000128de: 10 08:       ldw (2rus)      r1, r0[0x0]
             0x000128e0: 40 92:       add (2rus)      r0, r0, 0x4
             0x000128e2: b0 90:       add (2rus)      r11, r0, 0x0
             0x000128e4: a4 90:       add (2rus)      r10, r1, 0x0
             0x000128e6: 12 f0 6d 5a: ldw (lru6)      r9, dp[0x4ad]
             0x000128ea: 84 09:       ldw (2rus)      r0, r9[0x0]
             0x000128ec: 80 90:       add (2rus)      r8, r0, 0x0
             0x000128ee: 86 09:       ldw (2rus)      r0, r9[0x2]
             0x000128f0: 40 90:       add (2rus)      r4, r0, 0x0
             0x000128f2: 03 f0 03 68: ldc (lru6)      r0, 0xc3
             0x000128f6: 80 af:       out (r2r)       res[r4], r0
             0x000128f8: 17 38:       and (3r)        r1, r1, r3
             0x000128fa: 89 19:       sub (3r)        r0, r10, r1
             0x000128fc: 8c 11:       add (3r)        r0, r11, r0
             0x000128fe: 55 a2:       shl (2rus)      r1, r1, 0x5
             0x00012900: 01 4f:       outct (2r)      res[r4], r1
             0x00012902: 95 09:       ldw (2rus)      r1, r9[0x1]
             0x00012904: ca f9 ec 97: ashr (l2rus)    r4, r10, 0x2
             0x00012908: c0 97:       neg (2r)        r4, r4
             0x0001290a: c5 03:       stw (2rus)      r0, r9[0x5]
             0x0001290c: c7 01:       stw (2rus)      r4, r9[0x3]
             0x0001290e: 90 01:       stw (2rus)      r1, r8[0x0]
             0x00012910: 48 90:       add (2rus)      r4, r2, 0x0
             0x00012912: 01 f0 14 77: bu (lu6)        -0x54 <.label331>
.label326    0x00012916: 01 5c:       ldw (ru6)       r0, sp[0x1]
             0x00012918: 9c 90:       add (2rus)      r9, r3, 0x0
             0x0001291a: 88 90:       add (2rus)      r8, r2, 0x0
             0x0001291c: 3f d5:       bl (u10)        -0x13f <check_for_interrupt>
             0x0001291e: b4 91:       add (2rus)      r3, r9, 0x0
             0x00012920: a0 91:       add (2rus)      r2, r8, 0x0
             0x00012922: 01 f0 18 77: bu (lu6)        -0x58 <.label335>
.label327    0x00012926: 12 f0 f2 51: stw (lru6)      r7, dp[0x4b2]
             0x0001292a: 13 f0 48 58: ldw (lru6)      r1, dp[0x4c8]
             0x0001292e: 02 7b:       clrsr (u6)      0x2
             0x00012930: 81 b7:       in (2r)         r0, res[r5]
             0x00012932: 75 4f:       outct (rus)     res[r5], 0x9
             0x00012934: 85 af:       out (r2r)       res[r5], r1
             0x00012936: 12 f0 f8 51: stw (lru6)      r7, dp[0x4b8]
             0x0001293a: 0b f0 8c 50: stw (lru6)      r2, dp[0x2cc]
             0x0001293e: 13 f0 03 58: ldw (lru6)      r0, dp[0x4c3]
             0x00012942: 12 f0 3f 50: stw (lru6)      r0, dp[0x4bf]
             0x00012946: 13 f0 01 50: stw (lru6)      r0, dp[0x4c1]
             0x0001294a: 12 f0 f4 51: stw (lru6)      r7, dp[0x4b4]
             0x0001294e: 12 f0 f5 51: stw (lru6)      r7, dp[0x4b5]
             0x00012952: 12 f0 3e 58: ldw (lru6)      r0, dp[0x4be]
             0x00012956: 13 f0 09 50: stw (lru6)      r0, dp[0x4c9]
             0x0001295a: 17 71:       bt (ru6)        r4, 0x17 <.label336>
.label337    0x0001295c: 12 f0 f7 51: stw (lru6)      r7, dp[0x4b7]
             0x00012960: 0b f0 8b 50: stw (lru6)      r2, dp[0x2cb]
             0x00012964: 13 f0 47 58: ldw (lru6)      r1, dp[0x4c7]
             0x00012968: 13 f0 44 50: stw (lru6)      r1, dp[0x4c4]
             0x0001296c: 13 f0 45 50: stw (lru6)      r1, dp[0x4c5]
             0x00012970: 12 f0 f6 51: stw (lru6)      r7, dp[0x4b6]
             0x00012974: 15 cf:       chkct (rus)     res[r5], 0x1
             0x00012976: 34 f0 f2 51: stw (lru6)      r7, dp[0xd32]
             0x0001297a: 12 f0 30 58: ldw (lru6)      r0, dp[0x4b0]
             0x0001297e: c2 4e:       outct (2r)      res[r0], r2
             0x00012980: 42 7b:       setsr (u6)      0x2
             0x00012982: 12 f0 f3 51: stw (lru6)      r7, dp[0x4b3]
             0x00012986: 02 f0 0e 77: bu (lu6)        -0x8e <.label331>
.label336    0x0001298a: 13 f0 09 58: ldw (lru6)      r0, dp[0x4c9]
             0x0001298e: a0 08:       ldw (2rus)      r10, r0[0x0]
             0x00012990: 40 92:       add (2rus)      r0, r0, 0x4
             0x00012992: 12 f0 6d 5a: ldw (lru6)      r9, dp[0x4ad]
             0x00012996: 04 0a:       ldw (2rus)      r8, r9[0x0]
             0x00012998: 96 09:       ldw (2rus)      r1, r9[0x2]
             0x0001299a: 9b 39:       and (3r)        r1, r10, r3
             0x0001299c: 99 19:       sub (3r)        r1, r10, r1
             0x0001299e: 01 10:       add (3r)        r0, r0, r1
             0x000129a0: 95 09:       ldw (2rus)      r1, r9[0x1]
             0x000129a2: 2a fa ec 97: ashr (l2rus)    r10, r10, 0x2
             0x000129a6: aa 97:       neg (2r)        r10, r10
             0x000129a8: c5 03:       stw (2rus)      r0, r9[0x5]
             0x000129aa: 27 02:       stw (2rus)      r10, r9[0x3]
             0x000129ac: 90 01:       stw (2rus)      r1, r8[0x0]
             0x000129ae: 2a 77:       bu (u6)         -0x2a <.label337>
.label328    0x000129b0: 02 7b:       clrsr (u6)      0x2
             0x000129b2: 12 f0 f2 51: stw (lru6)      r7, dp[0x4b2]
             0x000129b6: 13 f0 08 58: ldw (lru6)      r0, dp[0x4c8]
             0x000129ba: 0b f0 0a 50: stw (lru6)      r0, dp[0x2ca]
             0x000129be: 12 f0 f8 51: stw (lru6)      r7, dp[0x4b8]
             0x000129c2: 0b f0 8c 50: stw (lru6)      r2, dp[0x2cc]
             0x000129c6: 13 f0 03 58: ldw (lru6)      r0, dp[0x4c3]
             0x000129ca: 12 f0 3f 50: stw (lru6)      r0, dp[0x4bf]
             0x000129ce: 13 f0 01 50: stw (lru6)      r0, dp[0x4c1]
             0x000129d2: 12 f0 f4 51: stw (lru6)      r7, dp[0x4b4]
             0x000129d6: 12 f0 f5 51: stw (lru6)      r7, dp[0x4b5]
             0x000129da: 12 f0 3e 58: ldw (lru6)      r0, dp[0x4be]
             0x000129de: 13 f0 09 50: stw (lru6)      r0, dp[0x4c9]
             0x000129e2: 34 f0 f2 51: stw (lru6)      r7, dp[0xd32]
             0x000129e6: 42 7b:       setsr (u6)      0x2
             0x000129e8: 02 f0 33 77: bu (lu6)        -0xb3 <.label338>
.label329    0x000129ec: 13 f0 05 58: ldw (lru6)      r0, dp[0x4c5]
             0x000129f0: a0 90:       add (2rus)      r10, r0, 0x0
             0x000129f2: 13 f0 04 58: ldw (lru6)      r0, dp[0x4c4]
             0x000129f6: 90 90:       add (2rus)      r9, r0, 0x0
             0x000129f8: 12 f0 f1 51: stw (lru6)      r7, dp[0x4b1]
             0x000129fc: 13 f0 0a 5a: ldw (lru6)      r8, dp[0x4ca]
             0x00012a00: 80 09:       ldw (2rus)      r0, r8[0x0]
             0x00012a02: b0 90:       add (2rus)      r11, r0, 0x0
             0x00012a04: 0b f0 49 58: ldw (lru6)      r1, dp[0x2c9]
             0x00012a08: 0b f0 0d 58: ldw (lru6)      r0, dp[0x2cd]
             0x00012a0c: 04 f8 ec 3f: mul (l3r)       r0, r1, r0
             0x00012a10: 8c c9:       lsu (3r)        r0, r11, r0
             0x00012a12: 0d 78:       bf (ru6)        r0, 0xd <.label339>
.label342    0x00012a14: 06 1e:       sub (3r)        r0, r9, r10
             0x00012a16: dc c0:       lss (3r)        r1, r7, r0
             0x00012a18: 5d 78:       bf (ru6)        r1, 0x1d <.label340>
.label345    0x00012a1a: dc c0:       lss (3r)        r1, r7, r0
             0x00012a1c: 67 78:       bf (ru6)        r1, 0x27 <.label341>
             0x00012a1e: 10 f0 44 68: ldc (lru6)      r1, 0x404
             0x00012a22: 01 c0:       lss (3r)        r0, r0, r1
             0x00012a24: 23 78:       bf (ru6)        r0, 0x23 <.label341>
             0x00012a26: 12 f0 b7 50: stw (lru6)      r2, dp[0x4b7]
             0x00012a2a: 03 f0 20 77: bu (lu6)        -0xe0 <.label331>
.label339    0x00012a2e: 13 f0 05 58: ldw (lru6)      r0, dp[0x4c5]
             0x00012a32: 80 31:       eq (3r)         r0, r8, r0
             0x00012a34: 11 7c:       bf (ru6)        r0, -0x11 <.label342>
             0x00012a36: 8f 91:       add (2rus)      r0, r11, 0x3
             0x00012a38: 42 3a:       and (3r)        r0, r0, r6
             0x00012a3a: 88 11:       add (3r)        r0, r10, r0
             0x00012a3c: e0 92:       add (2rus)      r10, r0, 0x4
             0x00012a3e: 13 f0 06 58: ldw (lru6)      r0, dp[0x4c6]
             0x00012a42: 88 c9:       lsu (3r)        r0, r10, r0
             0x00012a44: 03 78:       bf (ru6)        r0, 0x3 <.label343>
.label344    0x00012a46: 13 f0 85 52: stw (lru6)      r10, dp[0x4c5]
             0x00012a4a: 1c 77:       bu (u6)         -0x1c <.label342>
.label343    0x00012a4c: 13 f0 47 58: ldw (lru6)      r1, dp[0x4c7]
             0x00012a50: a4 90:       add (2rus)      r10, r1, 0x0
             0x00012a52: 07 77:       bu (u6)         -0x7 <.label344>
.label340    0x00012a54: 13 f0 47 58: ldw (lru6)      r1, dp[0x4c7]
             0x00012a58: 13 f0 04 5a: ldw (lru6)      r8, dp[0x4c4]
             0x00012a5c: 91 31:       eq (3r)         r1, r8, r1
             0x00012a5e: 63 7c:       bf (ru6)        r1, -0x23 <.label345>
             0x00012a60: 13 f0 46 58: ldw (lru6)      r1, dp[0x4c6]
             0x00012a64: 13 f0 05 58: ldw (lru6)      r0, dp[0x4c5]
             0x00012a68: 04 18:       sub (3r)        r0, r1, r0
             0x00012a6a: 29 77:       bu (u6)         -0x29 <.label345>
.label341    0x00012a6c: 13 f0 8a 52: stw (lru6)      r10, dp[0x4ca]
             0x00012a70: 12 f0 2c 58: ldw (lru6)      r0, dp[0x4ac]
             0x00012a74: 80 08:       ldw (2rus)      r8, r0[0x0]
             0x00012a76: 11 08:       ldw (2rus)      r1, r0[0x1]
             0x00012a78: 02 08:       ldw (2rus)      r0, r0[0x2]
             0x00012a7a: c8 ae:       out (r2r)       res[r0], r2
             0x00012a7c: 90 01:       stw (2rus)      r1, r8[0x0]
             0x00012a7e: 04 f0 0a 77: bu (lu6)        -0x10a <.label331>
.label330    0x00012a82: 13 f0 45 58: ldw (lru6)      r1, dp[0x4c5]
             0x00012a86: 13 f0 04 58: ldw (lru6)      r0, dp[0x4c4]
             0x00012a8a: 81 18:       sub (3r)        r8, r0, r1
             0x00012a8c: 4c c5:       lss (3r)        r0, r7, r8
             0x00012a8e: 06 78:       bf (ru6)        r0, 0x6 <.label346>
.label349    0x00012a90: 18 f0 30 68: ldc (lru6)      r0, 0x630
             0x00012a94: 80 c1:       lss (3r)        r0, r8, r0
             0x00012a96: 06 78:       bf (ru6)        r0, 0x6 <.label347>
.label350    0x00012a98: 04 f0 03 77: bu (lu6)        -0x103 <.label348>
.label346    0x00012a9c: 31 f0 20 68: ldc (lru6)      r0, 0xc60
             0x00012aa0: 00 12:       add (3r)        r8, r8, r0
             0x00012aa2: 0a 77:       bu (u6)         -0xa <.label349>
.label347    0x00012aa4: 12 f0 f7 51: stw (lru6)      r7, dp[0x4b7]
             0x00012aa8: 13 f0 4a 50: stw (lru6)      r1, dp[0x4ca]
             0x00012aac: 12 f0 6c 58: ldw (lru6)      r1, dp[0x4ac]
             0x00012ab0: 84 08:       ldw (2rus)      r8, r1[0x0]
             0x00012ab2: 05 08:       ldw (2rus)      r0, r1[0x1]
             0x00012ab4: 16 08:       ldw (2rus)      r1, r1[0x2]
             0x00012ab6: c9 ae:       out (r2r)       res[r1], r2
             0x00012ab8: 80 01:       stw (2rus)      r0, r8[0x0]
             0x00012aba: 12 77:       bu (u6)         -0x12 <.label350>
.label332    0x00012abc: 13 f0 41 58: ldw (lru6)      r1, dp[0x4c1]
             0x00012ac0: 12 f0 3f 58: ldw (lru6)      r0, dp[0x4bf]
             0x00012ac4: 44 18:       sub (3r)        r4, r1, r0
             0x00012ac6: 13 c3:       lss (3r)        r1, r4, r7
             0x00012ac8: 4a 70:       bt (ru6)        r1, 0xa <.label351>
.label354    0x00012aca: 09 f0 5a 68: ldc (lru6)      r1, 0x25a
             0x00012ace: d1 c0:       lss (3r)        r1, r4, r1
             0x00012ad0: 4a 78:       bf (ru6)        r1, 0xa <.label352>
             0x00012ad2: 12 f0 3e 58: ldw (lru6)      r0, dp[0x4be]
             0x00012ad6: 13 f0 09 50: stw (lru6)      r0, dp[0x4c9]
             0x00012ada: 04 f0 02 77: bu (lu6)        -0x102 <.label353>
.label351    0x00012ade: 31 f0 60 68: ldc (lru6)      r1, 0xc60
             0x00012ae2: 01 11:       add (3r)        r4, r4, r1
             0x00012ae4: 0e 77:       bu (u6)         -0xe <.label354>
.label352    0x00012ae6: 0b f0 cc 51: stw (lru6)      r7, dp[0x2cc]
             0x00012aea: 13 f0 09 50: stw (lru6)      r0, dp[0x4c9]
             0x00012aee: 04 f0 0c 77: bu (lu6)        -0x10c <.label353>
.label333    0x00012af2: 13 f0 03 58: ldw (lru6)      r0, dp[0x4c3]
             0x00012af6: 04 f0 1b 77: bu (lu6)        -0x11b <.label355>
.label334    0x00012afa: 13 f0 09 50: stw (lru6)      r0, dp[0x4c9]
             0x00012afe: 04 f0 14 77: bu (lu6)        -0x114 <.label353>
             0x00012b02: 00 00:       stw (2rus)      r0, r0[0x0]

<buffer>:
             0x00012b04: 51 77:       entsp (u6)      0x11
             0x00012b06: a0 90:       add (2rus)      r10, r0, 0x0
             0x00012b08: 94 90:       add (2rus)      r9, r1, 0x0
             0x00012b0a: 88 90:       add (2rus)      r8, r2, 0x0
             0x00012b0c: 12 5c:       ldw (ru6)       r0, sp[0x12]
             0x00012b0e: d3 5d:       ldw (ru6)       r7, sp[0x13]
             0x00012b10: 88 91:       add (2rus)      r0, r10, 0x0
             0x00012b12: 04 f0 3b d4: bl (lu10)       -0x103b <XUD_Init_Ep>
             0x00012b16: 01 54:       stw (ru6)       r0, sp[0x1]
             0x00012b18: 84 91:       add (2rus)      r0, r9, 0x0
             0x00012b1a: 04 f0 3f d4: bl (lu10)       -0x103f <XUD_Init_Ep>
             0x00012b1e: 03 54:       stw (ru6)       r0, sp[0x3]
             0x00012b20: 03 5c:       ldw (ru6)       r0, sp[0x3]
             0x00012b22: 02 54:       stw (ru6)       r0, sp[0x2]
             0x00012b24: 80 91:       add (2rus)      r0, r8, 0x0
             0x00012b26: 04 f0 45 d4: bl (lu10)       -0x1045 <XUD_Init_Ep>
             0x00012b2a: 60 90:       add (2rus)      r6, r0, 0x0
             0x00012b2c: cc 90:       add (2rus)      r0, r7, 0x0
             0x00012b2e: 04 f0 49 d4: bl (lu10)       -0x1049 <XUD_Init_Ep>
             0x00012b32: 05 54:       stw (ru6)       r0, sp[0x5]
             0x00012b34: 05 5c:       ldw (ru6)       r0, sp[0x5]
             0x00012b36: 04 54:       stw (ru6)       r0, sp[0x4]
             0x00012b38: 40 69:       ldc (ru6)       r5, 0x0
             0x00012b3a: 00 69:       ldc (ru6)       r4, 0x0
             0x00012b3c: 00 68:       ldc (ru6)       r0, 0x0
             0x00012b3e: 07 54:       stw (ru6)       r0, sp[0x7]
             0x00012b40: 02 f0 40 7b: setsr (lu6)     0x80
             0x00012b44: 05 5c:       ldw (ru6)       r0, sp[0x5]
             0x00012b46: 12 f0 2e 50: stw (lru6)      r0, dp[0x4ae]
             0x00012b4a: 01 5c:       ldw (ru6)       r0, sp[0x1]
             0x00012b4c: 12 f0 2c 50: stw (lru6)      r0, dp[0x4ac]
             0x00012b50: 03 5c:       ldw (ru6)       r0, sp[0x3]
             0x00012b52: 12 f0 2d 50: stw (lru6)      r0, dp[0x4ad]
             0x00012b56: 15 5c:       ldw (ru6)       r0, sp[0x15]
             0x00012b58: 12 f0 30 50: stw (lru6)      r0, dp[0x4b0]
.label356    0x00012b5c: 11 f0 04 58: ldw (lru6)      r0, dp[0x444]
             0x00012b60: 0b 54:       stw (ru6)       r0, sp[0xb]
             0x00012b62: 0b 5c:       ldw (ru6)       r0, sp[0xb]
             0x00012b64: 05 7c:       bf (ru6)        r0, -0x5 <.label356>
             0x00012b66: 48 64:       ldaw (ru6)      r1, sp[0x8]
             0x00012b68: 89 64:       ldaw (ru6)      r2, sp[0x9]
             0x00012b6a: ca 64:       ldaw (ru6)      r3, sp[0xa]
             0x00012b6c: ee f2 00 68: ldc (lru6)      r0, 0xbb80
             0x00012b70: 05 f0 64 d5: bl (lu10)       -0x1564 <GetADCCounts> <GetADCCounts.coersed..f.7b0.7d.28ui.2cp.28si.29.2cp.28si.29.2cp.28si.29.29>
             0x00012b74: 09 5c:       ldw (ru6)       r0, sp[0x9]
             0x00012b76: 81 a4:       shl (2rus)      r0, r0, 0x10
             0x00012b78: 34 f0 39 50: stw (lru6)      r0, dp[0xd39]
             0x00012b7c: 0b 5c:       ldw (ru6)       r0, sp[0xb]
             0x00012b7e: 02 b0:       eq (2rus)       r0, r0, 0x2
             0x00012b80: 01 f0 0b 70: bt (lru6)       r0, 0x4b <.label357>
             0x00012b84: 49 5c:       ldw (ru6)       r1, sp[0x9]
             0x00012b86: 06 68:       ldc (ru6)       r0, 0x6
             0x00012b88: 04 f8 ec 3f: mul (l3r)       r0, r1, r0
             0x00012b8c: 09 54:       stw (ru6)       r0, sp[0x9]
.label365    0x00012b8e: 13 f0 4b 60: ldaw (lru6)     r1, dp[0x4cb]
             0x00012b92: 09 5c:       ldw (ru6)       r0, sp[0x9]
             0x00012b94: 04 00:       stw (2rus)      r0, r1[0x0]
             0x00012b96: d1 a6:       mkmsk (rus)     r0, 0x1
             0x00012b98: 12 f0 31 50: stw (lru6)      r0, dp[0x4b1]
             0x00012b9c: d1 a6:       mkmsk (rus)     r0, 0x1
             0x00012b9e: 12 f0 2f 50: stw (lru6)      r0, dp[0x4af]
             0x00012ba2: 34 f0 73 60: ldaw (lru6)     r1, dp[0xd33]
             0x00012ba6: 00 68:       ldc (ru6)       r0, 0x0
             0x00012ba8: 04 00:       stw (2rus)      r0, r1[0x0]
             0x00012baa: 34 f0 33 60: ldaw (lru6)     r0, dp[0xd33]
             0x00012bae: 11 f0 44 58: ldw (lru6)      r1, dp[0x444]
             0x00012bb2: 16 b0:       eq (2rus)       r1, r1, 0x2
             0x00012bb4: 79 70:       bt (ru6)        r1, 0x39 <.label358>
             0x00012bb6: e8 08:       ldw (2rus)      r2, r6[0x0]
             0x00012bb8: da 08:       ldw (2rus)      r1, r6[0x2]
             0x00012bba: 03 f0 c3 68: ldc (lru6)      r3, 0xc3
             0x00012bbe: cd ae:       out (r2r)       res[r1], r3
             0x00012bc0: 01 f0 e0 68: ldc (lru6)      r3, 0x60
             0x00012bc4: c7 4e:       outct (2r)      res[r1], r3
             0x00012bc6: d9 08:       ldw (2rus)      r1, r6[0x1]
             0x00012bc8: c0 68:       ldc (ru6)       r3, 0x0
             0x00012bca: 09 03:       stw (2rus)      r0, r6[0x5]
             0x00012bcc: fb 00:       stw (2rus)      r3, r6[0x3]
             0x00012bce: 18 00:       stw (2rus)      r1, r2[0x0]
.label366    0x00012bd0: 39 d8:       ldap (u10)      r11, 0x39 <.label359>
             0x00012bd2: f7 47:       setv (1r)       res[r7], r11
             0x00012bd4: 50 d8:       ldap (u10)      r11, 0x50 <.label360>
             0x00012bd6: 15 5c:       ldw (ru6)       r0, sp[0x15]
             0x00012bd8: f0 47:       setv (1r)       res[r0], r11
             0x00012bda: 89 d8:       ldap (u10)      r11, 0x89 <.label361>
             0x00012bdc: 14 5c:       ldw (ru6)       r0, sp[0x14]
             0x00012bde: f0 47:       setv (1r)       res[r0], r11
             0x00012be0: c1 d8:       ldap (u10)      r11, 0xc1 <.label362>
             0x00012be2: fa 47:       setv (1r)       res[r10], r11
             0x00012be4: de d8:       ldap (u10)      r11, 0xde <.label363>
             0x00012be6: f9 47:       setv (1r)       res[r9], r11
             0x00012be8: f6 d8:       ldap (u10)      r11, 0xf6 <.label364>
             0x00012bea: f8 47:       setv (1r)       res[r8], r11
             0x00012bec: 02 68:       ldc (ru6)       r0, 0x2
             0x00012bee: 0c 54:       stw (ru6)       r0, sp[0xc]
             0x00012bf0: 34 f0 f3 60: ldaw (lru6)     r3, dp[0xd33]
             0x00012bf4: 00 68:       ldc (ru6)       r0, 0x0
             0x00012bf6: 0d 54:       stw (ru6)       r0, sp[0xd]
             0x00012bf8: d0 a6:       mkmsk (rus)     r0, 0x20
             0x00012bfa: 0e 54:       stw (ru6)       r0, sp[0xe]
             0x00012bfc: 01 f0 20 68: ldc (lru6)      r0, 0x60
             0x00012c00: 0f 54:       stw (ru6)       r0, sp[0xf]
             0x00012c02: 00 68:       ldc (ru6)       r0, 0x0
             0x00012c04: 10 54:       stw (ru6)       r0, sp[0x10]
.label368    0x00012c06: ed 07:       clre (0r)       
             0x00012c08: f7 07:       eeu (1r)        res[r7]
             0x00012c0a: 15 5c:       ldw (ru6)       r0, sp[0x15]
             0x00012c0c: f0 07:       eeu (1r)        res[r0]
             0x00012c0e: 14 5c:       ldw (ru6)       r0, sp[0x14]
             0x00012c10: f0 07:       eeu (1r)        res[r0]
             0x00012c12: fa 07:       eeu (1r)        res[r10]
             0x00012c14: f9 07:       eeu (1r)        res[r9]
             0x00012c16: f8 07:       eeu (1r)        res[r8]
             0x00012c18: ec 07:       waiteu (0r)     
.label357    0x00012c1a: 49 5c:       ldw (ru6)       r1, sp[0x9]
             0x00012c1c: 08 68:       ldc (ru6)       r0, 0x8
             0x00012c1e: 04 f8 ec 3f: mul (l3r)       r0, r1, r0
             0x00012c22: 09 54:       stw (ru6)       r0, sp[0x9]
             0x00012c24: 01 f0 0d 77: bu (lu6)        -0x4d <.label365>
.label358    0x00012c28: e8 08:       ldw (2rus)      r2, r6[0x0]
             0x00012c2a: da 08:       ldw (2rus)      r1, r6[0x2]
             0x00012c2c: 03 f0 c3 68: ldc (lru6)      r3, 0xc3
             0x00012c30: cd ae:       out (r2r)       res[r1], r3
             0x00012c32: 70 92:       add (2rus)      r3, r0, 0x4
             0x00012c34: 00 68:       ldc (ru6)       r0, 0x0
             0x00012c36: c4 4e:       outct (2r)      res[r1], r0
             0x00012c38: c9 08:       ldw (2rus)      r0, r6[0x1]
             0x00012c3a: d4 a6:       mkmsk (rus)     r1, 0x20
             0x00012c3c: 39 03:       stw (2rus)      r3, r6[0x5]
             0x00012c3e: db 00:       stw (2rus)      r1, r6[0x3]
             0x00012c40: 08 00:       stw (2rus)      r0, r2[0x0]
             0x00012c42: 3a 77:       bu (u6)         -0x3a <.label366>
.label359    0x00012c44: 8b b7:       in (2r)         r2, res[r7]
             0x00012c46: 04 5c:       ldw (ru6)       r0, sp[0x4]
             0x00012c48: 00 08:       ldw (2rus)      r0, r0[0x0]
             0x00012c4a: 04 5c:       ldw (ru6)       r0, sp[0x4]
             0x00012c4c: 51 0a:       ldw (2rus)      r1, r0[0x5]
             0x00012c4e: 04 5c:       ldw (ru6)       r0, sp[0x4]
             0x00012c50: 03 08:       ldw (2rus)      r0, r0[0x3]
             0x00012c52: 24 48:       ldw (3r)        r2, r1[r0]
             0x00012c54: 0b 70:       bt (ru6)        r0, 0xb <.label367>
.label369    0x00012c56: 1c 4f:       outct (rus)     res[r7], 0x0
             0x00012c58: 8b af:       out (r2r)       res[r7], r2
             0x00012c5a: 83 b7:       in (2r)         r0, res[r7]
             0x00012c5c: 00 68:       ldc (ru6)       r0, 0x0
             0x00012c5e: 12 f0 3d 50: stw (lru6)      r0, dp[0x4bd]
             0x00012c62: 05 5c:       ldw (ru6)       r0, sp[0x5]
             0x00012c64: 00 08:       ldw (2rus)      r0, r0[0x0]
             0x00012c66: 40 68:       ldc (ru6)       r1, 0x0
             0x00012c68: 10 00:       stw (2rus)      r1, r0[0x0]
             0x00012c6a: 33 77:       bu (u6)         -0x33 <.label368>
.label367    0x00012c6c: 01 90:       add (2rus)      r0, r0, 0x1
             0x00012c6e: 8b af:       out (r2r)       res[r7], r2
             0x00012c70: 24 48:       ldw (3r)        r2, r1[r0]
             0x00012c72: 04 74:       bt (ru6)        r0, -0x4 <.label367>
             0x00012c74: 10 77:       bu (u6)         -0x10 <.label369>
.label360    0x00012c76: 15 5c:       ldw (ru6)       r0, sp[0x15]
             0x00012c78: c8 b6:       in (2r)         r2, res[r0]
             0x00012c7a: 11 f0 04 58: ldw (lru6)      r0, dp[0x444]
             0x00012c7e: 10 90:       add (2rus)      r1, r0, 0x0
             0x00012c80: 04 68:       ldc (ru6)       r0, 0x4
             0x00012c82: b8 30:       eq (3r)         r11, r2, r0
             0x00012c84: ca 72:       bt (ru6)        r11, 0xa <.label370>
             0x00012c86: 15 5c:       ldw (ru6)       r0, sp[0x15]
             0x00012c88: c0 b6:       in (2r)         r0, res[r0]
             0x00012c8a: 34 f0 b2 50: stw (lru6)      r2, dp[0xd32]
             0x00012c8e: 13 f0 08 50: stw (lru6)      r0, dp[0x4c8]
             0x00012c92: 12 f0 b2 50: stw (lru6)      r2, dp[0x4b2]
             0x00012c96: 01 f0 0a 77: bu (lu6)        -0x4a <.label368>
.label370    0x00012c9a: 95 5c:       ldw (ru6)       r2, sp[0x15]
             0x00012c9c: ca b6:       in (2r)         r2, res[r2]
             0x00012c9e: 46 b0:       eq (2rus)       r4, r1, 0x2
             0x00012ca0: 1e 71:       bt (ru6)        r4, 0x1e <.label371>
             0x00012ca2: 0f f0 28 69: ldc (lru6)      r4, 0x3e8
.label374    0x00012ca6: 98 fa ec 4f: divu (l3r)      r5, r2, r4
             0x00012caa: 88 fa ec cf: remu (l3r)      r4, r2, r4
             0x00012cae: 1a 79:       bf (ru6)        r4, 0x1a <.label372>
.label375    0x00012cb0: 85 a5:       shl (2rus)      r4, r5, 0x10
             0x00012cb2: 34 f0 39 51: stw (lru6)      r4, dp[0xd39]
             0x00012cb6: 16 b0:       eq (2rus)       r1, r1, 0x2
             0x00012cb8: 56 70:       bt (ru6)        r1, 0x16 <.label373>
             0x00012cba: 46 68:       ldc (ru6)       r1, 0x6
             0x00012cbc: 05 f9 ec 3f: mul (l3r)       r4, r5, r1
.label376    0x00012cc0: 13 f0 4b 60: ldaw (lru6)     r1, dp[0x4cb]
             0x00012cc4: 44 00:       stw (2rus)      r4, r1[0x0]
             0x00012cc6: 40 68:       ldc (ru6)       r1, 0x0
             0x00012cc8: 47 54:       stw (ru6)       r1, sp[0x7]
             0x00012cca: 40 69:       ldc (ru6)       r5, 0x0
             0x00012ccc: 00 69:       ldc (ru6)       r4, 0x0
             0x00012cce: 34 f0 32 50: stw (lru6)      r0, dp[0xd32]
             0x00012cd2: 13 f0 88 50: stw (lru6)      r2, dp[0x4c8]
             0x00012cd6: 12 f0 32 50: stw (lru6)      r0, dp[0x4b2]
             0x00012cda: 01 f0 2c 77: bu (lu6)        -0x6c <.label368>
.label371    0x00012cde: 7d f0 00 69: ldc (lru6)      r4, 0x1f40
             0x00012ce2: 1f 77:       bu (u6)         -0x1f <.label374>
.label372    0x00012ce4: 1b 77:       bu (u6)         -0x1b <.label375>
.label373    0x00012ce6: 48 68:       ldc (ru6)       r1, 0x8
             0x00012ce8: 05 f9 ec 3f: mul (l3r)       r4, r5, r1
             0x00012cec: 17 77:       bu (u6)         -0x17 <.label376>
.label361    0x00012cee: 14 5c:       ldw (ru6)       r0, sp[0x14]
             0x00012cf0: c8 b6:       in (2r)         r2, res[r0]
             0x00012cf2: 16 5c:       ldw (ru6)       r0, sp[0x16]
             0x00012cf4: c8 3e:       getts (2r)      r2, res[r0]
             0x00012cf6: 34 f0 72 58: ldw (lru6)      r1, dp[0xd32]
             0x00012cfa: 04 68:       ldc (ru6)       r0, 0x4
             0x00012cfc: 04 30:       eq (3r)         r0, r1, r0
             0x00012cfe: 1f 70:       bt (ru6)        r0, 0x1f <.label377>
             0x00012d00: d7 a6:       mkmsk (rus)     r1, 0x3
             0x00012d02: 11 f0 04 58: ldw (lru6)      r0, dp[0x444]
             0x00012d06: 02 b0:       eq (2rus)       r0, r0, 0x2
             0x00012d08: 1d 78:       bf (ru6)        r0, 0x1d <.label378>
.label380    0x00012d0a: 0b f0 c7 5a: ldw (lru6)      r11, dp[0x2c7]
             0x00012d0e: 06 5c:       ldw (ru6)       r0, sp[0x6]
             0x00012d10: 08 18:       sub (3r)        r0, r2, r0
             0x00012d12: 31 37:       sext (rus)      r0, 0x10
             0x00012d14: 33 fd ec 3f: mul (l3r)       r11, r0, r11
             0x00012d18: 8d 39:       and (3r)        r0, r11, r1
             0x00012d1a: 00 11:       add (3r)        r4, r4, r0
             0x00012d1c: c1 8e:       not (2r)        r0, r1
             0x00012d1e: 3c 3a:       and (3r)        r11, r11, r0
             0x00012d20: c0 38:       and (3r)        r0, r4, r0
             0x00012d22: 8c 11:       add (3r)        r0, r11, r0
             0x00012d24: 14 11:       add (3r)        r5, r5, r0
             0x00012d26: 01 39:       and (3r)        r4, r4, r1
             0x00012d28: 86 54:       stw (ru6)       r2, sp[0x6]
             0x00012d2a: 47 5c:       ldw (ru6)       r1, sp[0x7]
             0x00012d2c: 02 f0 00 68: ldc (lru6)      r0, 0x80
             0x00012d30: 04 30:       eq (3r)         r0, r1, r0
             0x00012d32: 0a 70:       bt (ru6)        r0, 0xa <.label379>
.label382    0x00012d34: 07 5c:       ldw (ru6)       r0, sp[0x7]
             0x00012d36: 01 90:       add (2rus)      r0, r0, 0x1
             0x00012d38: 07 54:       stw (ru6)       r0, sp[0x7]
             0x00012d3a: 02 f0 1c 77: bu (lu6)        -0x9c <.label368>
.label377    0x00012d3e: 86 54:       stw (ru6)       r2, sp[0x6]
             0x00012d40: 02 f0 1f 77: bu (lu6)        -0x9f <.label368>
.label378    0x00012d44: 97 a7:       mkmsk (rus)     r1, 0x7
             0x00012d46: 1f 77:       bu (u6)         -0x1f <.label380>
.label379    0x00012d48: 00 68:       ldc (ru6)       r0, 0x0
             0x00012d4a: 07 54:       stw (ru6)       r0, sp[0x7]
             0x00012d4c: 34 f0 79 51: stw (lru6)      r5, dp[0xd39]
             0x00012d50: 11 f0 04 58: ldw (lru6)      r0, dp[0x444]
             0x00012d54: 02 b0:       eq (2rus)       r0, r0, 0x2
             0x00012d56: 04 70:       bt (ru6)        r0, 0x4 <.label381>
             0x00012d58: c6 a8:       shr (2rus)      r0, r5, 0x2
             0x00012d5a: 0c 00:       stw (2rus)      r0, r3[0x0]
.label383    0x00012d5c: 40 69:       ldc (ru6)       r5, 0x0
             0x00012d5e: 16 77:       bu (u6)         -0x16 <.label382>
.label381    0x00012d60: 5c 00:       stw (2rus)      r5, r3[0x0]
             0x00012d62: 04 77:       bu (u6)         -0x4 <.label383>
.label362    0x00012d64: 2a b7:       in (2r)         r2, res[r10]
             0x00012d66: 13 f0 ca 5a: ldw (lru6)      r11, dp[0x4ca]
             0x00012d6a: ec 93:       add (2rus)      r2, r11, 0x4
             0x00012d6c: 18 90:       add (2rus)      r1, r2, 0x0
             0x00012d6e: 32 bf:       testct (2r)     r0, res[r10]
             0x00012d70: 10 78:       bf (ru6)        r0, 0x10 <.label384>
.label386    0x00012d72: 32 87:       inct (2r)       r0, res[r10]
             0x00012d74: 19 18:       sub (3r)        r1, r2, r1
             0x00012d76: 54 9a:       sub (2rus)      r1, r1, 0x4
             0x00012d78: 82 b4:       eq (2rus)       r0, r0, 0xa
             0x00012d7a: 11 70:       bt (ru6)        r0, 0x11 <.label385>
.label387    0x00012d7c: 01 5c:       ldw (ru6)       r0, sp[0x1]
             0x00012d7e: 00 08:       ldw (2rus)      r0, r0[0x0]
             0x00012d80: 20 90:       add (2rus)      r2, r0, 0x0
             0x00012d82: 00 68:       ldc (ru6)       r0, 0x0
             0x00012d84: 08 00:       stw (2rus)      r0, r2[0x0]
             0x00012d86: 9c 01:       stw (2rus)      r1, r11[0x0]
             0x00012d88: d1 a6:       mkmsk (rus)     r0, 0x1
             0x00012d8a: 12 f0 31 50: stw (lru6)      r0, dp[0x4b1]
             0x00012d8e: 03 f0 06 77: bu (lu6)        -0xc6 <.label368>
.label384    0x00012d92: 22 b7:       in (2r)         r0, res[r10]
             0x00012d94: 08 00:       stw (2rus)      r0, r2[0x0]
             0x00012d96: 68 92:       add (2rus)      r2, r2, 0x4
             0x00012d98: 32 bf:       testct (2r)     r0, res[r10]
             0x00012d9a: 05 7c:       bf (ru6)        r0, -0x5 <.label384>
             0x00012d9c: 16 77:       bu (u6)         -0x16 <.label386>
.label385    0x00012d9e: 16 98:       sub (2rus)      r1, r1, 0x2
             0x00012da0: 13 77:       bu (u6)         -0x13 <.label387>
.label363    0x00012da2: 29 b7:       in (2r)         r2, res[r9]
             0x00012da4: 02 5c:       ldw (ru6)       r0, sp[0x2]
             0x00012da6: 00 08:       ldw (2rus)      r0, r0[0x0]
             0x00012da8: 02 5c:       ldw (ru6)       r0, sp[0x2]
             0x00012daa: 41 0a:       ldw (2rus)      r0, r0[0x5]
             0x00012dac: 42 5c:       ldw (ru6)       r1, sp[0x2]
             0x00012dae: 17 08:       ldw (2rus)      r1, r1[0x3]
             0x00012db0: 21 48:       ldw (3r)        r2, r0[r1]
             0x00012db2: 4c 70:       bt (ru6)        r1, 0xc <.label388>
.label389    0x00012db4: 54 4f:       outct (rus)     res[r9], 0x0
             0x00012db6: 29 af:       out (r2r)       res[r9], r2
             0x00012db8: 21 b7:       in (2r)         r0, res[r9]
             0x00012dba: 03 5c:       ldw (ru6)       r0, sp[0x3]
             0x00012dbc: 00 08:       ldw (2rus)      r0, r0[0x0]
             0x00012dbe: 40 68:       ldc (ru6)       r1, 0x0
             0x00012dc0: 10 00:       stw (2rus)      r1, r0[0x0]
             0x00012dc2: 0c 5c:       ldw (ru6)       r0, sp[0xc]
             0x00012dc4: 12 f0 2f 50: stw (lru6)      r0, dp[0x4af]
             0x00012dc8: 03 f0 23 77: bu (lu6)        -0xe3 <.label368>
.label388    0x00012dcc: 15 90:       add (2rus)      r1, r1, 0x1
             0x00012dce: 29 af:       out (r2r)       res[r9], r2
             0x00012dd0: 21 48:       ldw (3r)        r2, r0[r1]
             0x00012dd2: 44 74:       bt (ru6)        r1, -0x4 <.label388>
             0x00012dd4: 11 77:       bu (u6)         -0x11 <.label389>
.label364    0x00012dd6: 28 b7:       in (2r)         r2, res[r8]
             0x00012dd8: c8 08:       ldw (2rus)      r0, r6[0x0]
             0x00012dda: 09 0b:       ldw (2rus)      r0, r6[0x5]
             0x00012ddc: db 08:       ldw (2rus)      r1, r6[0x3]
             0x00012dde: 21 48:       ldw (3r)        r2, r0[r1]
             0x00012de0: 5a 70:       bt (ru6)        r1, 0x1a <.label390>
.label392    0x00012de2: 50 4f:       outct (rus)     res[r8], 0x0
             0x00012de4: 28 af:       out (r2r)       res[r8], r2
             0x00012de6: 20 b7:       in (2r)         r0, res[r8]
             0x00012de8: 34 f0 33 60: ldaw (lru6)     r0, dp[0xd33]
             0x00012dec: 11 f0 44 58: ldw (lru6)      r1, dp[0x444]
             0x00012df0: 16 b0:       eq (2rus)       r1, r1, 0x2
             0x00012df2: 56 70:       bt (ru6)        r1, 0x16 <.label391>
             0x00012df4: b0 90:       add (2rus)      r11, r0, 0x0
             0x00012df6: c8 08:       ldw (2rus)      r0, r6[0x0]
             0x00012df8: 20 90:       add (2rus)      r2, r0, 0x0
             0x00012dfa: ca 08:       ldw (2rus)      r0, r6[0x2]
             0x00012dfc: 10 90:       add (2rus)      r1, r0, 0x0
             0x00012dfe: 03 f0 03 68: ldc (lru6)      r0, 0xc3
             0x00012e02: c1 ae:       out (r2r)       res[r1], r0
             0x00012e04: 0f 5c:       ldw (ru6)       r0, sp[0xf]
             0x00012e06: c4 4e:       outct (2r)      res[r1], r0
             0x00012e08: c9 08:       ldw (2rus)      r0, r6[0x1]
             0x00012e0a: b9 03:       stw (2rus)      r11, r6[0x5]
             0x00012e0c: 50 5c:       ldw (ru6)       r1, sp[0x10]
             0x00012e0e: db 00:       stw (2rus)      r1, r6[0x3]
             0x00012e10: 08 00:       stw (2rus)      r0, r2[0x0]
             0x00012e12: 04 f0 08 77: bu (lu6)        -0x108 <.label368>
.label390    0x00012e16: 15 90:       add (2rus)      r1, r1, 0x1
             0x00012e18: 28 af:       out (r2r)       res[r8], r2
             0x00012e1a: 21 48:       ldw (3r)        r2, r0[r1]
             0x00012e1c: 44 74:       bt (ru6)        r1, -0x4 <.label390>
             0x00012e1e: 1f 77:       bu (u6)         -0x1f <.label392>
.label391    0x00012e20: b0 90:       add (2rus)      r11, r0, 0x0
             0x00012e22: c8 08:       ldw (2rus)      r0, r6[0x0]
             0x00012e24: 20 90:       add (2rus)      r2, r0, 0x0
             0x00012e26: ca 08:       ldw (2rus)      r0, r6[0x2]
             0x00012e28: 10 90:       add (2rus)      r1, r0, 0x0
             0x00012e2a: 03 f0 03 68: ldc (lru6)      r0, 0xc3
             0x00012e2e: c1 ae:       out (r2r)       res[r1], r0
             0x00012e30: 7c 94:       add (2rus)      r11, r11, 0x4
             0x00012e32: 0d 5c:       ldw (ru6)       r0, sp[0xd]
             0x00012e34: c4 4e:       outct (2r)      res[r1], r0
             0x00012e36: c9 08:       ldw (2rus)      r0, r6[0x1]
             0x00012e38: b9 03:       stw (2rus)      r11, r6[0x5]
             0x00012e3a: 4e 5c:       ldw (ru6)       r1, sp[0xe]
             0x00012e3c: db 00:       stw (2rus)      r1, r6[0x3]
             0x00012e3e: 08 00:       stw (2rus)      r0, r2[0x0]
             0x00012e40: 04 f0 1f 77: bu (lu6)        -0x11f <.label368>

<XUD_UserSuspend>:
             0x00012e44: 41 77:       entsp (u6)      0x1
             0x00012e46: 00 68:       ldc (ru6)       r0, 0x0
             0x00012e48: 05 f0 3a d4: bl (lu10)       -0x143a <VendorHostActive>
             0x00012e4c: c1 77:       retsp (u6)      0x1
             0x00012e4e: 00 90:       add (2rus)      r0, r0, 0x0

<XUD_UserResume>:
             0x00012e50: 41 77:       entsp (u6)      0x1
             0x00012e52: 11 f0 03 58: ldw (lru6)      r0, dp[0x443]
             0x00012e56: 01 b0:       eq (2rus)       r0, r0, 0x1
             0x00012e58: 01 70:       bt (ru6)        r0, 0x1 <.label393>
.label394    0x00012e5a: c1 77:       retsp (u6)      0x1
.label393    0x00012e5c: d1 a6:       mkmsk (rus)     r0, 0x1
             0x00012e5e: 05 f0 45 d4: bl (lu10)       -0x1445 <VendorHostActive>
             0x00012e62: 05 77:       bu (u6)         -0x5 <.label394>

<GetLockResource>:
             0x00012e64: 81 87:       getr (rus)      r0, 0x5
             0x00012e66: c0 77:       retsp (u6)      0x0

<ClaimLock>:
             0x00012e68: c0 b6:       in (2r)         r0, res[r0]
             0x00012e6a: c0 77:       retsp (u6)      0x0

<FreeLock>:
             0x00012e6c: c0 ae:       out (r2r)       res[r0], r0
             0x00012e6e: c0 77:       retsp (u6)      0x0

<FreeLockResource>:
             0x00012e70: e0 17:       freer (1r)      res[r0]
             0x00012e72: c0 77:       retsp (u6)      0x0

<port32A_out>:
             0x00012e74: 00 f0 e4 6e: ldw (lru6)      r11, cp[0x24]
             0x00012e78: 23 af:       out (r2r)       res[r11], r0
             0x00012e7a: c0 77:       retsp (u6)      0x0

<port32A_peek>:
             0x00012e7c: 00 f0 e4 6e: ldw (lru6)      r11, cp[0x24]
             0x00012e80: 23 bf:       peek (2r)       r0, res[r11]
             0x00012e82: c0 77:       retsp (u6)      0x0

<XUD_GetSetupData>:
             0x00012e84: 20 08:       ldw (2rus)      r2, r0[0x0]
             0x00012e86: b1 08:       ldw (2rus)      r11, r0[0x1]
             0x00012e88: b8 00:       stw (2rus)      r11, r2[0x0]
             0x00012e8a: 02 08:       ldw (2rus)      r0, r0[0x2]

<XUD_GetSetupData_Retry>:
             0x00012e8c: c4 ae:       out (r2r)       res[r0], r1
             0x00012e8e: 5c bf:       testct (2r)     r11, res[r0]
             0x00012e90: ea 72:       bt (ru6)        r11, 0x2a <ResetSuspend>
             0x00012e92: 4c b7:       in (2r)         r11, res[r0]

<SetupDataLoop>:
             0x00012e94: 5c bf:       testct (2r)     r11, res[r0]
             0x00012e96: c6 76:       bt (ru6)        r11, -0x6 <XUD_GetSetupData_Retry>
             0x00012e98: 4c b7:       in (2r)         r11, res[r0]
             0x00012e9a: b4 00:       stw (2rus)      r11, r1[0x0]
             0x00012e9c: 5c bf:       testct (2r)     r11, res[r0]
             0x00012e9e: ca 76:       bt (ru6)        r11, -0xa <XUD_GetSetupData_Retry>
             0x00012ea0: 4c b7:       in (2r)         r11, res[r0]
             0x00012ea2: b5 00:       stw (2rus)      r11, r1[0x1]
             0x00012ea4: 5c 87:       inct (2r)       r11, res[r0]
             0x00012ea6: bd 9e:       sub (2rus)      r11, r11, 0x9
             0x00012ea8: cf 7e:       bf (ru6)        r11, -0xf <XUD_GetSetupData_Retry>
             0x00012eaa: c0 6a:       ldc (ru6)       r11, 0x0
             0x00012eac: b8 00:       stw (2rus)      r11, r2[0x0]
             0x00012eae: 08 68:       ldc (ru6)       r0, 0x8
             0x00012eb0: c0 77:       retsp (u6)      0x0

<XUD_GetData>:
             0x00012eb2: 20 08:       ldw (2rus)      r2, r0[0x0]
             0x00012eb4: b1 08:       ldw (2rus)      r11, r0[0x1]
             0x00012eb6: b8 00:       stw (2rus)      r11, r2[0x0]
             0x00012eb8: 02 08:       ldw (2rus)      r0, r0[0x2]

<XUD_GetDataRetry>:
             0x00012eba: c4 ae:       out (r2r)       res[r0], r1
             0x00012ebc: 5c bf:       testct (2r)     r11, res[r0]
             0x00012ebe: d3 72:       bt (ru6)        r11, 0x13 <ResetSuspend>
             0x00012ec0: 4c b7:       in (2r)         r11, res[r0]

<XUD_GetData_NoReq>:
             0x00012ec2: dc be:       testct (2r)     r3, res[r0]
             0x00012ec4: c6 70:       bt (ru6)        r3, 0x6 <DataEnd>

<DataLoop>:
             0x00012ec6: 4c b7:       in (2r)         r11, res[r0]
             0x00012ec8: b7 f8 ec 07: stw (l3r)       r11, r1[r3]
             0x00012ecc: 3d 90:       add (2rus)      r3, r3, 0x1
             0x00012ece: 5c bf:       testct (2r)     r11, res[r0]
             0x00012ed0: c6 7e:       bf (ru6)        r11, -0x6 <DataLoop>

<DataEnd>:
             0x00012ed2: 5c 87:       inct (2r)       r11, res[r0]
             0x00012ed4: be 9e:       sub (2rus)      r11, r11, 0xa

<CalcdataLength>:
             0x00012ed6: 3e a0:       shl (2rus)      r3, r3, 0x2
             0x00012ed8: bf 11:       add (3r)        r3, r11, r3
             0x00012eda: 3d 92:       add (2rus)      r11, r11, 0x1
             0x00012edc: c8 7a:       bf (ru6)        r11, 0x8 <XUD_GetDataBadCRC>
             0x00012ede: c0 6a:       ldc (ru6)       r11, 0x0
             0x00012ee0: b8 00:       stw (2rus)      r11, r2[0x0]
             0x00012ee2: 4e 9a:       sub (2rus)      r0, r3, 0x6
             0x00012ee4: c0 77:       retsp (u6)      0x0

<ResetSuspend>:
             0x00012ee6: c0 6a:       ldc (ru6)       r11, 0x0
             0x00012ee8: b8 00:       stw (2rus)      r11, r2[0x0]
             0x00012eea: d0 a6:       mkmsk (rus)     r0, 0x20

<Return>:
             0x00012eec: c0 77:       retsp (u6)      0x0

<XUD_GetDataBadCRC>:
             0x00012eee: 1b 77:       bu (u6)         -0x1b <XUD_GetDataRetry>

<XUD_SetData>:
             0x00012ef0: 47 77:       entsp (u6)      0x7
             0x00012ef2: 01 54:       stw (ru6)       r0, sp[0x1]
             0x00012ef4: 42 54:       stw (ru6)       r1, sp[0x2]
             0x00012ef6: 83 54:       stw (ru6)       r2, sp[0x3]
             0x00012ef8: c4 54:       stw (ru6)       r3, sp[0x4]
             0x00012efa: 45 55:       stw (ru6)       r5, sp[0x5]

<XUD_SetDataRetry>:
             0x00012efc: 00 55:       stw (ru6)       r4, sp[0x0]
             0x00012efe: c8 5e:       ldw (ru6)       r11, sp[0x8]
             0x00012f00: c6 72:       bt (ru6)        r11, 0x6 <XUD_SetData_PidReset>

<XUD_SetData_PidToggle>:
             0x00012f02: f0 0a:       ldw (2rus)      r11, r0[0x4]
             0x00012f04: 02 f0 08 69: ldc (lru6)      r4, 0x88
             0x00012f08: 7c fc ec 0f: xor (l3r)       r11, r11, r4
             0x00012f0c: f0 02:       stw (2rus)      r11, r0[0x4]

<XUD_SetData_PidReset>:
             0x00012f0e: f0 02:       stw (2rus)      r11, r0[0x4]

<XUD_SetData_NoReq>:
             0x00012f10: 17 10:       add (3r)        r1, r1, r3

<CalcTailLength>:
             0x00012f12: 79 a2:       shl (2rus)      r3, r2, 0x5
             0x00012f14: 9f 47:       zext (rus)      r3, 0x7

<SetupLoopTerm>:
             0x00012f16: 2a a8:       shr (2rus)      r2, r2, 0x2

<AdjustBufferPointer>:
             0x00012f18: 5a a0:       shl (2rus)      r5, r2, 0x2
             0x00012f1a: 55 12:       add (3r)        r1, r1, r5

<NegativeIndex>:
             0x00012f1c: ca 96:       neg (2r)        r2, r2

<LoadFirstWord>:
             0x00012f1e: 56 48:       ldw (3r)        r5, r1[r2]
             0x00012f20: 42 08:       ldw (2rus)      r4, r0[0x2]
             0x00012f22: ec ae:       out (r2r)       res[r4], r11
             0x00012f24: 40 08:       ldw (2rus)      r4, r0[0x0]
             0x00012f26: b1 08:       ldw (2rus)      r11, r0[0x1]
             0x00012f28: 02 08:       ldw (2rus)      r0, r0[0x2]
             0x00012f2a: c3 4e:       outct (2r)      res[r0], r3
             0x00012f2c: 9a 78:       bf (ru6)        r2, 0x1a <XUD_SetData_ShortPacket>

<XUD_SetData_DataRdy>:
             0x00012f2e: 70 01:       stw (2rus)      r11, r4[0x0]
             0x00012f30: 5c bf:       testct (2r)     r11, res[r0]
             0x00012f32: d5 72:       bt (ru6)        r11, 0x15 <ResetSuspend2>
             0x00012f34: 4c b7:       in (2r)         r11, res[r0]

<XUD_SetData_OutputLoop_Out>:
<OutputLoop>:
             0x00012f36: 04 af:       out (r2r)       res[r0], r5
             0x00012f38: 29 90:       add (2rus)      r2, r2, 0x1
             0x00012f3a: 56 48:       ldw (3r)        r5, r1[r2]
             0x00012f3c: 84 74:       bt (ru6)        r2, -0x4 <XUD_SetData_OutputLoop_Out> <OutputLoop>

<XUD_SetData_OutputLoop_End>:
             0x00012f3e: c3 4e:       outct (2r)      res[r0], r3

<SendTail>:
             0x00012f40: 04 af:       out (r2r)       res[r0], r5
             0x00012f42: c4 b6:       in (2r)         r1, res[r0]
             0x00012f44: 00 68:       ldc (ru6)       r0, 0x0
             0x00012f46: 46 78:       bf (ru6)        r1, 0x6 <Return2>
             0x00012f48: 01 5c:       ldw (ru6)       r0, sp[0x1]
             0x00012f4a: 42 5c:       ldw (ru6)       r1, sp[0x2]
             0x00012f4c: 83 5c:       ldw (ru6)       r2, sp[0x3]
             0x00012f4e: c4 5c:       ldw (ru6)       r3, sp[0x4]
             0x00012f50: 45 5d:       ldw (ru6)       r5, sp[0x5]
             0x00012f52: 2c 77:       bu (u6)         -0x2c <XUD_SetDataRetry>

<Return2>:
             0x00012f54: c0 6a:       ldc (ru6)       r11, 0x0
             0x00012f56: 70 01:       stw (2rus)      r11, r4[0x0]
             0x00012f58: 00 5d:       ldw (ru6)       r4, sp[0x0]
             0x00012f5a: 45 5d:       ldw (ru6)       r5, sp[0x5]
             0x00012f5c: c7 77:       retsp (u6)      0x7

<ResetSuspend2>:
             0x00012f5e: d0 a6:       mkmsk (rus)     r0, 0x20
             0x00012f60: 07 77:       bu (u6)         -0x7 <Return2>

<XUD_SetData_ShortPacket>:
             0x00012f62: 70 01:       stw (2rus)      r11, r4[0x0]
             0x00012f64: 5c bf:       testct (2r)     r11, res[r0]
             0x00012f66: c5 76:       bt (ru6)        r11, -0x5 <ResetSuspend2>
             0x00012f68: 4c b7:       in (2r)         r11, res[r0]

<XUD_SetData_OutTail_Short>:
             0x00012f6a: c3 4e:       outct (2r)      res[r0], r3
             0x00012f6c: 04 af:       out (r2r)       res[r0], r5
             0x00012f6e: c4 b6:       in (2r)         r1, res[r0]
             0x00012f70: 00 68:       ldc (ru6)       r0, 0x0
             0x00012f72: 50 7c:       bf (ru6)        r1, -0x10 <Return2>
             0x00012f74: 01 5c:       ldw (ru6)       r0, sp[0x1]
             0x00012f76: 42 5c:       ldw (ru6)       r1, sp[0x2]
             0x00012f78: 83 5c:       ldw (ru6)       r2, sp[0x3]
             0x00012f7a: c4 5c:       ldw (ru6)       r3, sp[0x4]
             0x00012f7c: 45 5d:       ldw (ru6)       r5, sp[0x5]
             0x00012f7e: 01 f0 03 77: bu (lu6)        -0x43 <XUD_SetDataRetry>

<XUD_ResetEndpoint>:
             0x00012f82: 41 77:       entsp (u6)      0x1
             0x00012f84: 02 08:       ldw (2rus)      r0, r0[0x2]
             0x00012f86: 42 78:       bf (ru6)        r1, 0x2 <.label395>
             0x00012f88: 14 08:       ldw (2rus)      r1, r1[0x0]
             0x00012f8a: 16 08:       ldw (2rus)      r1, r1[0x2]
.label395    0x00012f8c: 04 f0 88 d6: bl (lu10)       -0x1288 <XUD_ResetEndpoint0>
             0x00012f90: c1 77:       retsp (u6)      0x1

<XUD_SetStall_Out>:
             0x00012f92: 38 f0 7c 60: ldaw (lru6)     r1, dp[0xe3c]
             0x00012f96: 9e 68:       ldc (ru6)       r2, 0x1e
             0x00012f98: 24 f8 ec 07: stw (l3r)       r2, r1[r0]
             0x00012f9c: c0 77:       retsp (u6)      0x0

<XUD_SetStall_In>:
             0x00012f9e: 39 f0 4c 60: ldaw (lru6)     r1, dp[0xe4c]
             0x00012fa2: 9e 68:       ldc (ru6)       r2, 0x1e
             0x00012fa4: 24 f8 ec 07: stw (l3r)       r2, r1[r0]
             0x00012fa8: c0 77:       retsp (u6)      0x0
             0x00012faa: 00 00:       stw (2rus)      r0, r0[0x0]
             0x00012fac: 07 c0:       lss (3r)        r0, r1, r3
             0x00012fae: 03 70:       bt (ru6)        r0, 0x3 <.label396>
             0x00012fb0: 00 f0 25 6c: ldw (lru6)      r0, cp[0x25]
             0x00012fb4: c0 77:       retsp (u6)      0x0
.label396    0x00012fb6: 00 f0 0c 6c: ldw (lru6)      r0, cp[0xc]
             0x00012fba: c0 77:       retsp (u6)      0x0
             0x00012fbc: 00 90:       add (2rus)      r0, r0, 0x0
             0x00012fbe: 00 90:       add (2rus)      r0, r0, 0x0

<drain>:
             0x00012fc0: 42 77:       entsp (u6)      0x2
             0x00012fc2: 00 55:       stw (ru6)       r4, sp[0x0]
             0x00012fc4: c0 6a:       ldc (ru6)       r11, 0x0
             0x00012fc6: 41 55:       stw (ru6)       r5, sp[0x1]
             0x00012fc8: 03 5d:       ldw (ru6)       r4, sp[0x3]
             0x00012fca: 04 5d:       ldw (ru6)       r4, sp[0x4]
             0x00012fcc: cd c1:       lss (3r)        r4, r11, r1
             0x00012fce: 03 71:       bt (ru6)        r4, 0x3 <.label397>
.label400    0x00012fd0: 00 5d:       ldw (ru6)       r4, sp[0x0]
             0x00012fd2: 41 5d:       ldw (ru6)       r5, sp[0x1]
             0x00012fd4: c2 77:       retsp (u6)      0x2
.label397    0x00012fd6: 44 69:       ldc (ru6)       r5, 0x4
.label399    0x00012fd8: cf 4c:       ldw (3r)        r4, r3[r11]
             0x00012fda: 41 33:       eq (3r)         r4, r4, r5
             0x00012fdc: 04 79:       bf (ru6)        r4, 0x4 <.label398>
.label404    0x00012fde: 3d 92:       add (2rus)      r11, r11, 0x1
             0x00012fe0: cd c1:       lss (3r)        r4, r11, r1
             0x00012fe2: 06 75:       bt (ru6)        r4, -0x6 <.label399>
             0x00012fe4: 0b 77:       bu (u6)         -0xb <.label400>
.label398    0x00012fe6: 85 78:       bf (ru6)        r2, 0x5 <.label401>
             0x00012fe8: 49 b0:       eq (2rus)       r4, r2, 0x1
             0x00012fea: 06 71:       bt (ru6)        r4, 0x6 <.label402>
             0x00012fec: 4a b0:       eq (2rus)       r4, r2, 0x2
             0x00012fee: 0d 71:       bt (ru6)        r4, 0xd <.label403>
.label405    0x00012ff0: 0a 77:       bu (u6)         -0xa <.label404>
.label401    0x00012ff2: c3 4c:       ldw (3r)        r4, r0[r11]
             0x00012ff4: 11 4f:       outct (rus)     res[r4], 0x1
             0x00012ff6: 04 77:       bu (u6)         -0x4 <.label405>
.label402    0x00012ff8: c3 4c:       ldw (3r)        r4, r0[r11]
             0x00012ffa: d0 bf:       testct (2r)     r4, res[r4]
             0x00012ffc: 07 75:       bt (ru6)        r4, -0x7 <.label405>
.label406    0x00012ffe: c3 4c:       ldw (3r)        r4, r0[r11]
             0x00013000: d0 8f:       int (2r)        r4, res[r4]
             0x00013002: c3 4c:       ldw (3r)        r4, r0[r11]
             0x00013004: d0 bf:       testct (2r)     r4, res[r4]
             0x00013006: 05 7d:       bf (ru6)        r4, -0x5 <.label406>
             0x00013008: 0d 77:       bu (u6)         -0xd <.label405>
.label403    0x0001300a: c3 4c:       ldw (3r)        r4, r0[r11]
             0x0001300c: 11 cf:       chkct (rus)     res[r4], 0x1
             0x0001300e: 10 77:       bu (u6)         -0x10 <.label405>

<XUD_Manager>:
             0x00013010: 66 77:       entsp (u6)      0x26
             0x00013012: 11 55:       stw (ru6)       r4, sp[0x11]
             0x00013014: 52 55:       stw (ru6)       r5, sp[0x12]
             0x00013016: 93 55:       stw (ru6)       r6, sp[0x13]
             0x00013018: d4 55:       stw (ru6)       r7, sp[0x14]
             0x0001301a: 15 56:       stw (ru6)       r8, sp[0x15]
             0x0001301c: 56 56:       stw (ru6)       r9, sp[0x16]
             0x0001301e: 97 56:       stw (ru6)       r10, sp[0x17]
             0x00013020: 0e 54:       stw (ru6)       r0, sp[0xe]
             0x00013022: 8f 54:       stw (ru6)       r2, sp[0xf]
             0x00013024: d0 54:       stw (ru6)       r3, sp[0x10]
             0x00013026: 2d 5c:       ldw (ru6)       r0, sp[0x2d]
             0x00013028: 39 f0 3d 50: stw (lru6)      r0, dp[0xe7d]
             0x0001302c: 00 68:       ldc (ru6)       r0, 0x0
             0x0001302e: 34 f0 3a 50: stw (lru6)      r0, dp[0xd3a]
             0x00013032: 00 68:       ldc (ru6)       r0, 0x0
             0x00013034: 44 90:       add (2rus)      r4, r1, 0x0
.label407    0x00013036: 60 68:       ldc (ru6)       r1, 0x20
             0x00013038: 38 f0 9b 60: ldaw (lru6)     r2, dp[0xe1b]
             0x0001303c: 11 c8:       lsu (3r)        r1, r0, r1
             0x0001303e: e1 4f:       ecallf (1r)     r1
             0x00013040: 40 68:       ldc (ru6)       r1, 0x0
             0x00013042: 18 f8 ec 07: stw (l3r)       r1, r2[r0]
             0x00013046: 60 68:       ldc (ru6)       r1, 0x20
             0x00013048: 01 90:       add (2rus)      r0, r0, 0x1
             0x0001304a: 11 c0:       lss (3r)        r1, r0, r1
             0x0001304c: 4c 74:       bt (ru6)        r1, -0xc <.label407>
             0x0001304e: 00 68:       ldc (ru6)       r0, 0x0
             0x00013050: 40 c2:       lss (3r)        r0, r0, r4
             0x00013052: 00 6a:       ldc (ru6)       r8, 0x0
             0x00013054: 03 f0 18 70: bt (lru6)       r0, 0xd8 <.label408>
.label414    0x00013058: 10 5c:       ldw (ru6)       r0, sp[0x10]
             0x0001305a: 40 68:       ldc (ru6)       r1, 0x0
             0x0001305c: 04 c0:       lss (3r)        r0, r1, r0
             0x0001305e: 40 6a:       ldc (ru6)       r9, 0x0
             0x00013060: 04 f0 39 70: bt (lru6)       r0, 0x139 <.label409>
.label416    0x00013064: 00 68:       ldc (ru6)       r0, 0x0
             0x00013066: 71 5c:       ldw (ru6)       r1, sp[0x31]
             0x00013068: 01 c8:       lsu (3r)        r0, r0, r1
             0x0001306a: e0 4f:       ecallf (1r)     r0
             0x0001306c: 28 5c:       ldw (ru6)       r0, sp[0x28]
             0x0001306e: 00 08:       ldw (2rus)      r0, r0[0x0]
             0x00013070: 03 b0:       eq (2rus)       r0, r0, 0x3
             0x00013072: 06 f0 29 78: bf (lru6)       r0, 0x1a9 <.label410>
             0x00013076: 00 68:       ldc (ru6)       r0, 0x0
             0x00013078: 72 5c:       ldw (ru6)       r1, sp[0x32]
             0x0001307a: 01 c8:       lsu (3r)        r0, r0, r1
             0x0001307c: e0 4f:       ecallf (1r)     r0
             0x0001307e: 29 5c:       ldw (ru6)       r0, sp[0x29]
             0x00013080: 00 08:       ldw (2rus)      r0, r0[0x0]
             0x00013082: 03 b0:       eq (2rus)       r0, r0, 0x3
             0x00013084: 06 f0 20 78: bf (lru6)       r0, 0x1a0 <.label410>
.label417    0x00013088: 08 6a:       ldc (ru6)       r8, 0x8
             0x0001308a: 2b 5c:       ldw (ru6)       r0, sp[0x2b]
             0x0001308c: 30 ff ec 2f: setc (l2r)      res[r0], r8
             0x00013090: 19 a7:       mkmsk (rus)     r6, 0x1
             0x00013092: 2b 5c:       ldw (ru6)       r0, sp[0x2b]
             0x00013094: 18 ff ec 0f: setclk (lr2r)   res[r0], r6
             0x00013098: 6a 5c:       ldw (ru6)       r1, sp[0x2a]
             0x0001309a: 10 91:       add (2rus)      r5, r4, 0x0
             0x0001309c: 2b 5c:       ldw (ru6)       r0, sp[0x2b]
             0x0001309e: e0 68:       ldc (ru6)       r3, 0x20
             0x000130a0: d1 fe ec 0f: setclk (lr2r)   res[r1], r0
             0x000130a4: 2b 5c:       ldw (ru6)       r0, sp[0x2b]
             0x000130a6: 0f e8:       setc (ru6)      res[r0], 0xf
             0x000130a8: 37 f0 7b 62: ldaw (lru6)     r9, dp[0xdfb]
             0x000130ac: 2e 5c:       ldw (ru6)       r0, sp[0x2e]
             0x000130ae: d0 90:       add (2rus)      r1, r4, 0x0
             0x000130b0: 02 f0 40 7b: setsr (lu6)     0x80
             0x000130b4: 18 54:       stw (ru6)       r0, sp[0x18]
             0x000130b6: 2a 5c:       ldw (ru6)       r0, sp[0x2a]
             0x000130b8: 19 54:       stw (ru6)       r0, sp[0x19]
             0x000130ba: 10 5c:       ldw (ru6)       r0, sp[0x10]
             0x000130bc: 1a 54:       stw (ru6)       r0, sp[0x1a]
             0x000130be: 29 5c:       ldw (ru6)       r0, sp[0x29]
             0x000130c0: 1b 54:       stw (ru6)       r0, sp[0x1b]
             0x000130c2: 32 5c:       ldw (ru6)       r0, sp[0x32]
             0x000130c4: 1c 54:       stw (ru6)       r0, sp[0x1c]
             0x000130c6: 28 5c:       ldw (ru6)       r0, sp[0x28]
             0x000130c8: 1d 54:       stw (ru6)       r0, sp[0x1d]
             0x000130ca: 31 5c:       ldw (ru6)       r0, sp[0x31]
             0x000130cc: 1e 54:       stw (ru6)       r0, sp[0x1e]
             0x000130ce: 27 5c:       ldw (ru6)       r0, sp[0x27]
             0x000130d0: 1f 54:       stw (ru6)       r0, sp[0x1f]
             0x000130d2: 00 68:       ldc (ru6)       r0, 0x0
             0x000130d4: 34 f0 3a 50: stw (lru6)      r0, dp[0xd3a]
             0x000130d8: 84 91:       add (2rus)      r0, r9, 0x0
             0x000130da: 90 5c:       ldw (ru6)       r2, sp[0x10]
             0x000130dc: 01 f0 50 d1: bl (lu10)       0x550 <SetupChannelVectors>
             0x000130e0: 10 f0 37 58: ldw (lru6)      r0, dp[0x437]
             0x000130e4: 30 ff ec 2f: setc (l2r)      res[r0], r8
             0x000130e8: 00 f0 46 68: ldc (lru6)      r1, 0x6
             0x000130ec: d4 fe ec 0f: setclk (lr2r)   res[r0], r1
             0x000130f0: 6b 5c:       ldw (ru6)       r1, sp[0x2b]
             0x000130f2: d4 fe ec 0f: setclk (lr2r)   res[r0], r1
             0x000130f6: 10 f0 fd 59: ldw (lru6)      r7, dp[0x43d]
             0x000130fa: 7c ff ec 2f: setc (l2r)      res[r7], r8
             0x000130fe: 00 f0 06 68: ldc (lru6)      r0, 0x6
             0x00013102: 93 ff ec 0f: setclk (lr2r)   res[r7], r0
             0x00013106: 10 f0 fe 59: ldw (lru6)      r7, dp[0x43e]
             0x0001310a: 7c ff ec 2f: setc (l2r)      res[r7], r8
             0x0001310e: 00 f0 06 68: ldc (lru6)      r0, 0x6
             0x00013112: 93 ff ec 0f: setclk (lr2r)   res[r7], r0
             0x00013116: 10 f0 fa 59: ldw (lru6)      r7, dp[0x43a]
             0x0001311a: 7c ff ec 2f: setc (l2r)      res[r7], r8
             0x0001311e: 00 f0 06 68: ldc (lru6)      r0, 0x6
             0x00013122: 93 ff ec 0f: setclk (lr2r)   res[r7], r0
             0x00013126: 10 f0 fb 59: ldw (lru6)      r7, dp[0x43b]
             0x0001312a: 7c ff ec 2f: setc (l2r)      res[r7], r8
             0x0001312e: 00 f0 06 68: ldc (lru6)      r0, 0x6
             0x00013132: 93 ff ec 0f: setclk (lr2r)   res[r7], r0
             0x00013136: 10 f0 fc 59: ldw (lru6)      r7, dp[0x43c]
             0x0001313a: 00 f0 06 68: ldc (lru6)      r0, 0x6
             0x0001313e: 7c ff ec 2f: setc (l2r)      res[r7], r8
             0x00013142: 93 ff ec 0f: setclk (lr2r)   res[r7], r0
             0x00013146: 00 f0 06 68: ldc (lru6)      r0, 0x6
             0x0001314a: 10 f0 f9 59: ldw (lru6)      r7, dp[0x439]
             0x0001314e: 7c ff ec 2f: setc (l2r)      res[r7], r8
             0x00013152: 93 ff ec 0f: setclk (lr2r)   res[r7], r0
             0x00013156: 00 f0 06 68: ldc (lru6)      r0, 0x6
             0x0001315a: 10 f0 f8 59: ldw (lru6)      r7, dp[0x438]
             0x0001315e: 7c ff ec 2f: setc (l2r)      res[r7], r8
             0x00013162: 93 ff ec 0f: setclk (lr2r)   res[r7], r0
             0x00013166: 34 f0 ba 58: ldw (lru6)      r2, dp[0xd3a]
             0x0001316a: 04 f0 af 78: bf (lru6)       r2, 0x12f <.label411>
.label456    0x0001316e: 00 68:       ldc (ru6)       r0, 0x0
             0x00013170: 02 f0 20 d2: bl (lu10)       0xa20 <XUD_UIFM_Enable>
             0x00013174: 10 f0 fd 59: ldw (lru6)      r7, dp[0x43d]
             0x00013178: c0 e9:       setc (ru6)      res[r7], 0x0
             0x0001317a: 10 f0 fe 59: ldw (lru6)      r7, dp[0x43e]
             0x0001317e: c0 e9:       setc (ru6)      res[r7], 0x0
             0x00013180: 10 f0 fa 59: ldw (lru6)      r7, dp[0x43a]
             0x00013184: c0 e9:       setc (ru6)      res[r7], 0x0
             0x00013186: 10 f0 fb 59: ldw (lru6)      r7, dp[0x43b]
             0x0001318a: c0 e9:       setc (ru6)      res[r7], 0x0
             0x0001318c: 80 69:       ldc (ru6)       r6, 0x0
             0x0001318e: 10 f0 fc 59: ldw (lru6)      r7, dp[0x43c]
             0x00013192: c0 e9:       setc (ru6)      res[r7], 0x0
             0x00013194: 10 f0 f9 59: ldw (lru6)      r7, dp[0x439]
             0x00013198: c0 e9:       setc (ru6)      res[r7], 0x0
             0x0001319a: 10 f0 f8 59: ldw (lru6)      r7, dp[0x438]
             0x0001319e: c0 e9:       setc (ru6)      res[r7], 0x0
             0x000131a0: 10 f0 37 58: ldw (lru6)      r0, dp[0x437]
             0x000131a4: 00 e8:       setc (ru6)      res[r0], 0x0
             0x000131a6: 00 68:       ldc (ru6)       r0, 0x0
             0x000131a8: 6f 5c:       ldw (ru6)       r1, sp[0x2f]
             0x000131aa: 21 c8:       lsu (3r)        r2, r0, r1
             0x000131ac: e2 4f:       ecallf (1r)     r2
             0x000131ae: 0e 5c:       ldw (ru6)       r0, sp[0xe]
             0x000131b0: d4 a6:       mkmsk (rus)     r1, 0x20
             0x000131b2: 00 08:       ldw (2rus)      r0, r0[0x0]
             0x000131b4: c4 ae:       out (r2r)       res[r0], r1
             0x000131b6: e2 4f:       ecallf (1r)     r2
             0x000131b8: 0e 5c:       ldw (ru6)       r0, sp[0xe]
             0x000131ba: 00 08:       ldw (2rus)      r0, r0[0x0]
             0x000131bc: c4 ae:       out (r2r)       res[r0], r1
             0x000131be: 0e 5c:       ldw (ru6)       r0, sp[0xe]
             0x000131c0: 25 54:       stw (ru6)       r0, sp[0x25]
             0x000131c2: 68 5e:       ldw (ru6)       r9, sp[0x28]
             0x000131c4: 0f 5e:       ldw (ru6)       r8, sp[0xf]
             0x000131c6: 50 5d:       ldw (ru6)       r5, sp[0x10]
             0x000131c8: e9 5d:       ldw (ru6)       r7, sp[0x29]
.label412    0x000131ca: 25 5c:       ldw (ru6)       r0, sp[0x25]
             0x000131cc: e8 90:       add (2rus)      r2, r6, 0x0
             0x000131ce: af 5e:       ldw (ru6)       r10, sp[0x2f]
             0x000131d0: d0 90:       add (2rus)      r1, r4, 0x0
             0x000131d2: 81 56:       stw (ru6)       r10, sp[0x1]
             0x000131d4: b4 91:       add (2rus)      r3, r9, 0x0
             0x000131d6: b1 5e:       ldw (ru6)       r10, sp[0x31]
             0x000131d8: 82 56:       stw (ru6)       r10, sp[0x2]
             0x000131da: 0e d5:       bl (u10)        -0x10e <drain>
             0x000131dc: 80 91:       add (2rus)      r0, r8, 0x0
             0x000131de: b0 5e:       ldw (ru6)       r10, sp[0x30]
             0x000131e0: d4 90:       add (2rus)      r1, r5, 0x0
             0x000131e2: 81 56:       stw (ru6)       r10, sp[0x1]
             0x000131e4: e8 90:       add (2rus)      r2, r6, 0x0
             0x000131e6: b2 5e:       ldw (ru6)       r10, sp[0x32]
             0x000131e8: 82 56:       stw (ru6)       r10, sp[0x2]
             0x000131ea: fc 90:       add (2rus)      r3, r7, 0x0
             0x000131ec: 17 d5:       bl (u10)        -0x117 <drain>
             0x000131ee: d2 a6:       mkmsk (rus)     r0, 0x2
             0x000131f0: 29 91:       add (2rus)      r6, r6, 0x1
             0x000131f2: c8 c0:       lss (3r)        r0, r6, r0
             0x000131f4: 16 74:       bt (ru6)        r0, -0x16 <.label412>
             0x000131f6: 11 5d:       ldw (ru6)       r4, sp[0x11]
             0x000131f8: 52 5d:       ldw (ru6)       r5, sp[0x12]
             0x000131fa: 93 5d:       ldw (ru6)       r6, sp[0x13]
             0x000131fc: d4 5d:       ldw (ru6)       r7, sp[0x14]
             0x000131fe: 15 5e:       ldw (ru6)       r8, sp[0x15]
             0x00013200: 56 5e:       ldw (ru6)       r9, sp[0x16]
             0x00013202: 00 68:       ldc (ru6)       r0, 0x0
             0x00013204: 97 5e:       ldw (ru6)       r10, sp[0x17]
             0x00013206: e6 77:       retsp (u6)      0x26
.label408    0x00013208: 38 f0 7c 62: ldaw (lru6)     r9, dp[0xe3c]
             0x0001320c: d0 69:       ldc (ru6)       r7, 0x10
             0x0001320e: 58 69:       ldc (ru6)       r5, 0x18
             0x00013210: 34 f0 bb 61: ldaw (lru6)     r6, dp[0xd3b]
.label413    0x00013214: 2f 5c:       ldw (ru6)       r0, sp[0x2f]
             0x00013216: 80 c9:       lsu (3r)        r0, r8, r0
             0x00013218: e0 4f:       ecallf (1r)     r0
             0x0001321a: 0e 5c:       ldw (ru6)       r0, sp[0xe]
             0x0001321c: 80 4c:       ldw (3r)        r0, r0[r8]
             0x0001321e: 02 f0 b9 d1: bl (lu10)       0x9b9 <XUD_Sup_GetResourceId>
             0x00013222: 60 68:       ldc (ru6)       r1, 0x20
             0x00013224: 91 c9:       lsu (3r)        r1, r8, r1
             0x00013226: e1 4f:       ecallf (1r)     r1
             0x00013228: 37 f0 7b 60: ldaw (lru6)     r1, dp[0xdfb]
             0x0001322c: 84 fc ec 07: stw (l3r)       r0, r1[r8]
             0x00013230: 38 f0 1b 60: ldaw (lru6)     r0, dp[0xe1b]
             0x00013234: 80 fc ec 1f: ldaw (l3r)      r0, r0[r8]
             0x00013238: 60 68:       ldc (ru6)       r1, 0x20
             0x0001323a: 91 c9:       lsu (3r)        r1, r8, r1
             0x0001323c: e1 4f:       ecallf (1r)     r1
             0x0001323e: d1 fb ec 3f: mul (l3r)       r1, r8, r5
             0x00013242: e9 10:       add (3r)        r2, r6, r1
             0x00013244: 08 00:       stw (2rus)      r0, r2[0x0]
             0x00013246: a0 68:       ldc (ru6)       r2, 0x20
             0x00013248: 2f 5c:       ldw (ru6)       r0, sp[0x2f]
             0x0001324a: 80 c9:       lsu (3r)        r0, r8, r0
             0x0001324c: e0 4f:       ecallf (1r)     r0
             0x0001324e: 0e 5c:       ldw (ru6)       r0, sp[0xe]
             0x00013250: 80 4c:       ldw (3r)        r0, r0[r8]
             0x00013252: 00 90:       add (2rus)      r0, r0, 0x0
             0x00013254: a2 c9:       lsu (3r)        r2, r8, r2
             0x00013256: e2 4f:       ecallf (1r)     r2
             0x00013258: e9 10:       add (3r)        r2, r6, r1
             0x0001325a: 09 00:       stw (2rus)      r0, r2[0x1]
             0x0001325c: 2f 5c:       ldw (ru6)       r0, sp[0x2f]
             0x0001325e: 80 c9:       lsu (3r)        r0, r8, r0
             0x00013260: e0 4f:       ecallf (1r)     r0
             0x00013262: 0e 5c:       ldw (ru6)       r0, sp[0xe]
             0x00013264: 80 4c:       ldw (3r)        r0, r0[r8]
             0x00013266: a0 68:       ldc (ru6)       r2, 0x20
             0x00013268: d0 fe ec 1f: getd (l2r)      r0, res[r0]
             0x0001326c: a2 c9:       lsu (3r)        r2, r8, r2
             0x0001326e: e2 4f:       ecallf (1r)     r2
             0x00013270: e9 10:       add (3r)        r2, r6, r1
             0x00013272: 0a 00:       stw (2rus)      r0, r2[0x2]
             0x00013274: 06 a8:       shr (2rus)      r0, r1, 0x2
             0x00013276: 6f 5c:       ldw (ru6)       r1, sp[0x2f]
             0x00013278: 91 c9:       lsu (3r)        r1, r8, r1
             0x0001327a: c8 f8 ec 1f: ldaw (l3r)      r0, r6[r0]
             0x0001327e: e1 4f:       ecallf (1r)     r1
             0x00013280: 4e 5c:       ldw (ru6)       r1, sp[0xe]
             0x00013282: 94 4c:       ldw (3r)        r1, r1[r8]
             0x00013284: c1 ae:       out (r2r)       res[r1], r0
             0x00013286: 31 5c:       ldw (ru6)       r0, sp[0x31]
             0x00013288: 80 c9:       lsu (3r)        r0, r8, r0
             0x0001328a: e0 4f:       ecallf (1r)     r0
             0x0001328c: 28 5c:       ldw (ru6)       r0, sp[0x28]
             0x0001328e: 90 4c:       ldw (3r)        r1, r0[r8]
             0x00013290: 00 f0 0c 6c: ldw (lru6)      r0, cp[0xc]
             0x00013294: 14 38:       and (3r)        r1, r1, r0
             0x00013296: c3 cb:       lsu (3r)        r0, r8, r7
             0x00013298: e0 4f:       ecallf (1r)     r0
             0x0001329a: 39 f0 1c 60: ldaw (lru6)     r0, dp[0xe5c]
             0x0001329e: 90 fc ec 07: stw (l3r)       r1, r0[r8]
             0x000132a2: 31 5c:       ldw (ru6)       r0, sp[0x31]
             0x000132a4: 80 c9:       lsu (3r)        r0, r8, r0
             0x000132a6: e0 4f:       ecallf (1r)     r0
             0x000132a8: 28 5c:       ldw (ru6)       r0, sp[0x28]
             0x000132aa: 90 4c:       ldw (3r)        r1, r0[r8]
             0x000132ac: 00 f0 0a 6c: ldw (lru6)      r0, cp[0xa]
             0x000132b0: 14 38:       and (3r)        r1, r1, r0
             0x000132b2: 31 5c:       ldw (ru6)       r0, sp[0x31]
             0x000132b4: 80 c9:       lsu (3r)        r0, r8, r0
             0x000132b6: e0 4f:       ecallf (1r)     r0
             0x000132b8: 28 5c:       ldw (ru6)       r0, sp[0x28]
             0x000132ba: 90 fc ec 07: stw (l3r)       r1, r0[r8]
             0x000132be: c3 cb:       lsu (3r)        r0, r8, r7
             0x000132c0: e0 4f:       ecallf (1r)     r0
             0x000132c2: 01 f0 1a 68: ldc (lru6)      r0, 0x5a
             0x000132c6: 04 fe ec 07: stw (l3r)       r0, r9[r8]
             0x000132ca: 01 92:       add (2rus)      r8, r8, 0x1
             0x000132cc: c0 c3:       lss (3r)        r0, r8, r4
             0x000132ce: 01 f0 1f 74: bt (lru6)       r0, -0x5f <.label413>
             0x000132d2: 04 f0 3f 77: bu (lu6)        -0x13f <.label414>
.label409    0x000132d6: 58 69:       ldc (ru6)       r5, 0x18
             0x000132d8: 34 f0 bb 61: ldaw (lru6)     r6, dp[0xd3b]
             0x000132dc: 01 f0 0b 6a: ldc (lru6)      r8, 0x4b
             0x000132e0: d0 69:       ldc (ru6)       r7, 0x10
.label415    0x000132e2: 30 5c:       ldw (ru6)       r0, sp[0x30]
             0x000132e4: 84 c9:       lsu (3r)        r0, r9, r0
             0x000132e6: e0 4f:       ecallf (1r)     r0
             0x000132e8: 0f 5c:       ldw (ru6)       r0, sp[0xf]
             0x000132ea: 81 4c:       ldw (3r)        r0, r0[r9]
             0x000132ec: 02 f0 52 d1: bl (lu10)       0x952 <XUD_Sup_GetResourceId>
             0x000132f0: d4 13:       add (3r)        r1, r9, r4
             0x000132f2: a0 68:       ldc (ru6)       r2, 0x20
             0x000132f4: 26 c8:       lsu (3r)        r2, r1, r2
             0x000132f6: e2 4f:       ecallf (1r)     r2
             0x000132f8: 37 f0 bb 60: ldaw (lru6)     r2, dp[0xdfb]
             0x000132fc: 09 f8 ec 07: stw (l3r)       r0, r2[r1]
             0x00013300: 41 15:       add (3r)        r0, r4, r9
             0x00013302: 38 f0 5b 60: ldaw (lru6)     r1, dp[0xe1b]
             0x00013306: a0 68:       ldc (ru6)       r2, 0x20
             0x00013308: 14 f8 ec 1f: ldaw (l3r)      r1, r1[r0]
             0x0001330c: 22 c8:       lsu (3r)        r2, r0, r2
             0x0001330e: e2 4f:       ecallf (1r)     r2
             0x00013310: 61 fa ec 3f: mul (l3r)       r2, r0, r5
             0x00013314: ea 10:       add (3r)        r2, r6, r2
             0x00013316: 18 00:       stw (2rus)      r1, r2[0x0]
             0x00013318: 70 5c:       ldw (ru6)       r1, sp[0x30]
             0x0001331a: 95 c9:       lsu (3r)        r1, r9, r1
             0x0001331c: e1 4f:       ecallf (1r)     r1
             0x0001331e: 4f 5c:       ldw (ru6)       r1, sp[0xf]
             0x00013320: 95 4c:       ldw (3r)        r1, r1[r9]
             0x00013322: 14 90:       add (2rus)      r1, r1, 0x0
             0x00013324: a0 68:       ldc (ru6)       r2, 0x20
             0x00013326: 22 c8:       lsu (3r)        r2, r0, r2
             0x00013328: e2 4f:       ecallf (1r)     r2
             0x0001332a: 61 fa ec 3f: mul (l3r)       r2, r0, r5
             0x0001332e: ea 10:       add (3r)        r2, r6, r2
             0x00013330: 19 00:       stw (2rus)      r1, r2[0x1]
             0x00013332: a0 68:       ldc (ru6)       r2, 0x20
             0x00013334: 70 5c:       ldw (ru6)       r1, sp[0x30]
             0x00013336: 95 c9:       lsu (3r)        r1, r9, r1
             0x00013338: e1 4f:       ecallf (1r)     r1
             0x0001333a: 4f 5c:       ldw (ru6)       r1, sp[0xf]
             0x0001333c: 95 4c:       ldw (3r)        r1, r1[r9]
             0x0001333e: 22 c8:       lsu (3r)        r2, r0, r2
             0x00013340: d5 fe ec 1f: getd (l2r)      r1, res[r1]
             0x00013344: e2 4f:       ecallf (1r)     r2
             0x00013346: 61 fa ec 3f: mul (l3r)       r2, r0, r5
             0x0001334a: ea 10:       add (3r)        r2, r6, r2
             0x0001334c: 1a 00:       stw (2rus)      r1, r2[0x2]
             0x0001334e: b0 5c:       ldw (ru6)       r2, sp[0x30]
             0x00013350: 51 fa ec 3f: mul (l3r)       r1, r0, r5
             0x00013354: 16 a8:       shr (2rus)      r1, r1, 0x2
             0x00013356: d9 f8 ec 1f: ldaw (l3r)      r1, r6[r1]
             0x0001335a: a6 c9:       lsu (3r)        r2, r9, r2
             0x0001335c: e2 4f:       ecallf (1r)     r2
             0x0001335e: 8f 5c:       ldw (ru6)       r2, sp[0xf]
             0x00013360: a9 4c:       ldw (3r)        r2, r2[r9]
             0x00013362: c6 ae:       out (r2r)       res[r2], r1
             0x00013364: 60 68:       ldc (ru6)       r1, 0x20
             0x00013366: 11 c8:       lsu (3r)        r1, r0, r1
             0x00013368: e1 4f:       ecallf (1r)     r1
             0x0001336a: 41 fa ec 3f: mul (l3r)       r0, r0, r5
             0x0001336e: c8 10:       add (3r)        r0, r6, r0
             0x00013370: c0 02:       stw (2rus)      r8, r0[0x4]
             0x00013372: 32 5c:       ldw (ru6)       r0, sp[0x32]
             0x00013374: 84 c9:       lsu (3r)        r0, r9, r0
             0x00013376: e0 4f:       ecallf (1r)     r0
             0x00013378: 29 5c:       ldw (ru6)       r0, sp[0x29]
             0x0001337a: 91 4c:       ldw (3r)        r1, r0[r9]
             0x0001337c: 00 f0 0c 6c: ldw (lru6)      r0, cp[0xc]
             0x00013380: 14 38:       and (3r)        r1, r1, r0
             0x00013382: c7 cb:       lsu (3r)        r0, r9, r7
             0x00013384: e0 4f:       ecallf (1r)     r0
             0x00013386: 39 f0 2c 60: ldaw (lru6)     r0, dp[0xe6c]
             0x0001338a: 91 fc ec 07: stw (l3r)       r1, r0[r9]
             0x0001338e: 32 5c:       ldw (ru6)       r0, sp[0x32]
             0x00013390: 84 c9:       lsu (3r)        r0, r9, r0
             0x00013392: e0 4f:       ecallf (1r)     r0
             0x00013394: 29 5c:       ldw (ru6)       r0, sp[0x29]
             0x00013396: 91 4c:       ldw (3r)        r1, r0[r9]
             0x00013398: 00 f0 0a 6c: ldw (lru6)      r0, cp[0xa]
             0x0001339c: 14 38:       and (3r)        r1, r1, r0
             0x0001339e: 32 5c:       ldw (ru6)       r0, sp[0x32]
             0x000133a0: 84 c9:       lsu (3r)        r0, r9, r0
             0x000133a2: e0 4f:       ecallf (1r)     r0
             0x000133a4: 29 5c:       ldw (ru6)       r0, sp[0x29]
             0x000133a6: 91 fc ec 07: stw (l3r)       r1, r0[r9]
             0x000133aa: c7 cb:       lsu (3r)        r0, r9, r7
             0x000133ac: 39 f0 4c 60: ldaw (lru6)     r1, dp[0xe4c]
             0x000133b0: e0 4f:       ecallf (1r)     r0
             0x000133b2: 01 f0 1a 68: ldc (lru6)      r0, 0x5a
             0x000133b6: 85 fc ec 07: stw (l3r)       r0, r1[r9]
             0x000133ba: 15 92:       add (2rus)      r9, r9, 0x1
             0x000133bc: 10 5c:       ldw (ru6)       r0, sp[0x10]
             0x000133be: 84 c1:       lss (3r)        r0, r9, r0
             0x000133c0: 01 f0 31 74: bt (lru6)       r0, -0x71 <.label415>
             0x000133c4: 06 f0 32 77: bu (lu6)        -0x1b2 <.label416>
.label410    0x000133c8: 06 f0 22 77: bu (lu6)        -0x1a2 <.label417>
.label411    0x000133cc: 2c 5c:       ldw (ru6)       r0, sp[0x2c]
             0x000133ce: 20 54:       stw (ru6)       r0, sp[0x20]
             0x000133d0: 00 68:       ldc (ru6)       r0, 0x0
             0x000133d2: a1 55:       stw (ru6)       r6, sp[0x21]
             0x000133d4: 22 54:       stw (ru6)       r0, sp[0x22]
             0x000133d6: 00 68:       ldc (ru6)       r0, 0x0
             0x000133d8: 23 54:       stw (ru6)       r0, sp[0x23]
.label455    0x000133da: 19 5c:       ldw (ru6)       r0, sp[0x19]
             0x000133dc: 4e f0 48 68: ldc (lru6)      r1, 0x1388
             0x000133e0: a0 5c:       ldw (ru6)       r2, sp[0x20]
             0x000133e2: 01 f0 e7 d3: bl (lu10)       0x7e7 <XUD_PhyReset>
             0x000133e6: 10 f0 37 58: ldw (lru6)      r0, dp[0x437]
             0x000133ea: 61 5c:       ldw (ru6)       r1, sp[0x21]
             0x000133ec: d4 16:       setd (r2r)      res[r0], r1
             0x000133ee: 11 e8:       setc (ru6)      res[r0], 0x11
             0x000133f0: c4 b6:       in (2r)         r1, res[r0]
             0x000133f2: 62 5c:       ldw (ru6)       r1, sp[0x22]
             0x000133f4: d4 16:       setd (r2r)      res[r0], r1
             0x000133f6: c4 b6:       in (2r)         r1, res[r0]
             0x000133f8: 18 17:       setd (r2r)      res[r0], r6
             0x000133fa: c4 b6:       in (2r)         r1, res[r0]
             0x000133fc: 63 5c:       ldw (ru6)       r1, sp[0x23]
             0x000133fe: d4 16:       setd (r2r)      res[r0], r1
             0x00013400: c4 b6:       in (2r)         r1, res[r0]
             0x00013402: 10 f0 f8 59: ldw (lru6)      r7, dp[0x438]
             0x00013406: dc 90:       add (2rus)      r1, r7, 0x0
             0x00013408: 10 f0 f9 59: ldw (lru6)      r7, dp[0x439]
             0x0001340c: ec 90:       add (2rus)      r2, r7, 0x0
             0x0001340e: 10 f0 fa 59: ldw (lru6)      r7, dp[0x43a]
             0x00013412: fc 90:       add (2rus)      r3, r7, 0x0
             0x00013414: 10 f0 fb 59: ldw (lru6)      r7, dp[0x43b]
             0x00013418: c1 55:       stw (ru6)       r7, sp[0x1]
             0x0001341a: 10 f0 fc 59: ldw (lru6)      r7, dp[0x43c]
             0x0001341e: c2 55:       stw (ru6)       r7, sp[0x2]
             0x00013420: 10 f0 fd 59: ldw (lru6)      r7, dp[0x43d]
             0x00013424: c3 55:       stw (ru6)       r7, sp[0x3]
             0x00013426: 10 f0 fe 59: ldw (lru6)      r7, dp[0x43e]
             0x0001342a: c4 55:       stw (ru6)       r7, sp[0x4]
             0x0001342c: 02 f0 e6 d0: bl (lu10)       0x8e6 <XUD_UIFM_PortConfig>
             0x00013430: 02 68:       ldc (ru6)       r0, 0x2
             0x00013432: 02 f0 bf d0: bl (lu10)       0x8bf <XUD_UIFM_Enable>
             0x00013436: 84 68:       ldc (ru6)       r2, 0x4
             0x00013438: d5 a6:       mkmsk (rus)     r1, 0x1
             0x0001343a: 10 f0 f8 59: ldw (lru6)      r7, dp[0x438]
             0x0001343e: cc 90:       add (2rus)      r0, r7, 0x0
             0x00013440: 02 f0 ca d0: bl (lu10)       0x8ca <XUD_UIFM_RegWrite>
.label421    0x00013444: d6 a6:       mkmsk (rus)     r1, 0x2
             0x00013446: 10 f0 f8 59: ldw (lru6)      r7, dp[0x438]
             0x0001344a: cc 90:       add (2rus)      r0, r7, 0x0
             0x0001344c: db a6:       mkmsk (rus)     r2, 0x3
             0x0001344e: 02 f0 c3 d0: bl (lu10)       0x8c3 <XUD_UIFM_RegWrite>
             0x00013452: 49 68:       ldc (ru6)       r1, 0x9
             0x00013454: 88 68:       ldc (ru6)       r2, 0x8
             0x00013456: 10 f0 f8 59: ldw (lru6)      r7, dp[0x438]
             0x0001345a: cc 90:       add (2rus)      r0, r7, 0x0
             0x0001345c: 02 f0 bc d0: bl (lu10)       0x8bc <XUD_UIFM_RegWrite>
             0x00013460: 4a 68:       ldc (ru6)       r1, 0xa
             0x00013462: 10 f0 f8 59: ldw (lru6)      r7, dp[0x438]
             0x00013466: cc 90:       add (2rus)      r0, r7, 0x0
             0x00013468: 90 68:       ldc (ru6)       r2, 0x10
             0x0001346a: 02 f0 b5 d0: bl (lu10)       0x8b5 <XUD_UIFM_RegWrite>
             0x0001346e: 4b 68:       ldc (ru6)       r1, 0xb
             0x00013470: a0 68:       ldc (ru6)       r2, 0x20
             0x00013472: 10 f0 f8 59: ldw (lru6)      r7, dp[0x438]
             0x00013476: cc 90:       add (2rus)      r0, r7, 0x0
             0x00013478: 02 f0 ae d0: bl (lu10)       0x8ae <XUD_UIFM_RegWrite>
             0x0001347c: 0c f0 09 58: ldw (lru6)      r0, dp[0x309]
             0x00013480: 01 f0 2d 70: bt (lru6)       r0, 0x6d <.label418>
             0x00013484: d4 f1 30 68: ldc (lru6)      r0, 0x7530
             0x00013488: 02 f0 78 d0: bl (lu10)       0x878 <XUD_Sup_Delay>
             0x0001348c: 10 f0 fc 59: ldw (lru6)      r7, dp[0x43c]
             0x00013490: c1 e9:       setc (ru6)      res[r7], 0x1
             0x00013492: cf b7:       in (2r)         r7, res[r7]
.label422    0x00013494: 01 f0 eb 79: bf (lru6)       r7, 0x6b <.label419>
.label423    0x00013498: 01 f0 f2 71: bt (lru6)       r7, 0x72 <.label420>
.label433    0x0001349c: d5 a6:       mkmsk (rus)     r1, 0x1
             0x0001349e: 10 f0 f8 59: ldw (lru6)      r7, dp[0x438]
             0x000134a2: cc 90:       add (2rus)      r0, r7, 0x0
             0x000134a4: 86 68:       ldc (ru6)       r2, 0x6
             0x000134a6: 02 f0 97 d0: bl (lu10)       0x897 <XUD_UIFM_RegWrite>
             0x000134aa: 77 68:       ldc (ru6)       r1, 0x37
             0x000134ac: 90 68:       ldc (ru6)       r2, 0x10
             0x000134ae: 10 f0 f8 59: ldw (lru6)      r7, dp[0x438]
             0x000134b2: cc 90:       add (2rus)      r0, r7, 0x0
             0x000134b4: 02 f0 90 d0: bl (lu10)       0x890 <XUD_UIFM_RegWrite>
             0x000134b8: 49 68:       ldc (ru6)       r1, 0x9
             0x000134ba: 10 f0 f8 59: ldw (lru6)      r7, dp[0x438]
             0x000134be: cc 90:       add (2rus)      r0, r7, 0x0
             0x000134c0: 01 f0 80 68: ldc (lru6)      r2, 0x40
             0x000134c4: 02 f0 88 d0: bl (lu10)       0x888 <XUD_UIFM_RegWrite>
             0x000134c8: 4a 68:       ldc (ru6)       r1, 0xa
             0x000134ca: 10 f0 f8 59: ldw (lru6)      r7, dp[0x438]
             0x000134ce: cc 90:       add (2rus)      r0, r7, 0x0
             0x000134d0: 82 68:       ldc (ru6)       r2, 0x2
             0x000134d2: 02 f0 81 d0: bl (lu10)       0x881 <XUD_UIFM_RegWrite>
             0x000134d6: 4b 68:       ldc (ru6)       r1, 0xb
             0x000134d8: d9 a6:       mkmsk (rus)     r2, 0x1
             0x000134da: 10 f0 f8 59: ldw (lru6)      r7, dp[0x438]
             0x000134de: cc 90:       add (2rus)      r0, r7, 0x0
             0x000134e0: 02 f0 7a d0: bl (lu10)       0x87a <XUD_UIFM_RegWrite>
             0x000134e4: a8 5e:       ldw (ru6)       r10, sp[0x28]
             0x000134e6: 29 5e:       ldw (ru6)       r8, sp[0x29]
             0x000134e8: 38 f0 1b 60: ldaw (lru6)     r0, dp[0xe1b]
             0x000134ec: 24 54:       stw (ru6)       r0, sp[0x24]
             0x000134ee: 10 f0 fe 59: ldw (lru6)      r7, dp[0x43e]
             0x000134f2: cc 90:       add (2rus)      r0, r7, 0x0
             0x000134f4: 10 f0 fb 59: ldw (lru6)      r7, dp[0x43b]
             0x000134f8: dc 90:       add (2rus)      r1, r7, 0x0
             0x000134fa: 10 f0 fd 59: ldw (lru6)      r7, dp[0x43d]
             0x000134fe: ec 90:       add (2rus)      r2, r7, 0x0
             0x00013500: 10 f0 fc 59: ldw (lru6)      r7, dp[0x43c]
             0x00013504: fc 90:       add (2rus)      r3, r7, 0x0
             0x00013506: 10 f0 fa 59: ldw (lru6)      r7, dp[0x43a]
             0x0001350a: c1 55:       stw (ru6)       r7, sp[0x1]
             0x0001350c: 10 f0 f9 59: ldw (lru6)      r7, dp[0x439]
             0x00013510: c2 55:       stw (ru6)       r7, sp[0x2]
             0x00013512: 10 f0 f8 59: ldw (lru6)      r7, dp[0x438]
             0x00013516: c3 55:       stw (ru6)       r7, sp[0x3]
             0x00013518: c0 69:       ldc (ru6)       r7, 0x0
             0x0001351a: c4 55:       stw (ru6)       r7, sp[0x4]
             0x0001351c: 85 56:       stw (ru6)       r10, sp[0x5]
             0x0001351e: 06 56:       stw (ru6)       r8, sp[0x6]
             0x00013520: e4 5d:       ldw (ru6)       r7, sp[0x24]
             0x00013522: c7 55:       stw (ru6)       r7, sp[0x7]
             0x00013524: 08 55:       stw (ru6)       r4, sp[0x8]
             0x00013526: df 5d:       ldw (ru6)       r7, sp[0x1f]
             0x00013528: c9 55:       stw (ru6)       r7, sp[0x9]
             0x0001352a: d8 5d:       ldw (ru6)       r7, sp[0x18]
             0x0001352c: ca 55:       stw (ru6)       r7, sp[0xa]
             0x0001352e: de 5d:       ldw (ru6)       r7, sp[0x1e]
             0x00013530: cb 55:       stw (ru6)       r7, sp[0xb]
             0x00013532: dc 5d:       ldw (ru6)       r7, sp[0x1c]
             0x00013534: cc 55:       stw (ru6)       r7, sp[0xc]
             0x00013536: e0 69:       ldc (ru6)       r7, 0x20
             0x00013538: cd 55:       stw (ru6)       r7, sp[0xd]
             0x0001353a: 01 f0 eb d1: bl (lu10)       0x5eb <XUD_LLD_IoLoop> <utmi_io>
             0x0001353e: 77 68:       ldc (ru6)       r1, 0x37
             0x00013540: 80 68:       ldc (ru6)       r2, 0x0
             0x00013542: 10 f0 f8 59: ldw (lru6)      r7, dp[0x438]
             0x00013546: cc 90:       add (2rus)      r0, r7, 0x0
             0x00013548: 02 f0 46 d0: bl (lu10)       0x846 <XUD_UIFM_RegWrite>
             0x0001354c: 84 68:       ldc (ru6)       r2, 0x4
             0x0001354e: 10 f0 f8 59: ldw (lru6)      r7, dp[0x438]
             0x00013552: d5 a6:       mkmsk (rus)     r1, 0x1
             0x00013554: cc 90:       add (2rus)      r0, r7, 0x0
             0x00013556: 02 f0 3f d0: bl (lu10)       0x83f <XUD_UIFM_RegWrite>
             0x0001355a: 02 f0 0d 77: bu (lu6)        -0x8d <.label421>
.label418    0x0001355e: 01 f0 41 d3: bl (lu10)       0x741 <XUD_Init>
             0x00013562: 70 90:       add (2rus)      r7, r0, 0x0
             0x00013564: 00 68:       ldc (ru6)       r0, 0x0
             0x00013566: 0c f0 09 50: stw (lru6)      r0, dp[0x309]
             0x0001356a: 01 f0 2d 77: bu (lu6)        -0x6d <.label422>
.label419    0x0001356e: 00 f0 97 d7: bl (lu10)       -0x397 <XUD_UserSuspend>
             0x00013572: 01 f0 9f d3: bl (lu10)       0x79f <XUD_Suspend>
             0x00013576: 70 90:       add (2rus)      r7, r0, 0x0
             0x00013578: 00 f0 96 d7: bl (lu10)       -0x396 <XUD_UserResume>
             0x0001357c: 01 f0 34 77: bu (lu6)        -0x74 <.label423>
.label420    0x00013580: 00 6a:       ldc (ru6)       r8, 0x0
             0x00013582: 00 68:       ldc (ru6)       r0, 0x0
             0x00013584: 41 c2:       lss (3r)        r0, r0, r5
             0x00013586: 01 f0 01 70: bt (lru6)       r0, 0x41 <.label424>
.label436    0x0001358a: 00 6a:       ldc (ru6)       r8, 0x0
             0x0001358c: 40 68:       ldc (ru6)       r1, 0x0
             0x0001358e: 1a 5c:       ldw (ru6)       r0, sp[0x1a]
             0x00013590: 04 c0:       lss (3r)        r0, r1, r0
             0x00013592: 01 f0 0e 70: bt (lru6)       r0, 0x4e <.label425>
.label440    0x00013596: 00 68:       ldc (ru6)       r0, 0x0
             0x00013598: 41 c2:       lss (3r)        r0, r0, r5
             0x0001359a: 00 6a:       ldc (ru6)       r8, 0x0
             0x0001359c: 01 f0 1e 70: bt (lru6)       r0, 0x5e <.label426>
.label444    0x000135a0: 1a 5c:       ldw (ru6)       r0, sp[0x1a]
             0x000135a2: 40 68:       ldc (ru6)       r1, 0x0
             0x000135a4: 04 c0:       lss (3r)        r0, r1, r0
             0x000135a6: 80 6a:       ldc (ru6)       r10, 0x0
             0x000135a8: 01 f0 36 70: bt (lru6)       r0, 0x76 <.label427>
.label450    0x000135ac: 34 f0 ba 58: ldw (lru6)      r2, dp[0xd3a]
             0x000135b0: 02 f0 94 70: bt (lru6)       r2, 0x94 <.label428>
             0x000135b4: 50 5c:       ldw (ru6)       r1, sp[0x10]
             0x000135b6: 80 68:       ldc (ru6)       r2, 0x0
             0x000135b8: 19 c0:       lss (3r)        r1, r2, r1
             0x000135ba: 00 68:       ldc (ru6)       r0, 0x0
             0x000135bc: 02 f0 55 70: bt (lru6)       r1, 0x95 <.label429>
.label458    0x000135c0: 42 68:       ldc (ru6)       r1, 0x2
             0x000135c2: 10 f0 f8 59: ldw (lru6)      r7, dp[0x438]
             0x000135c6: cc 90:       add (2rus)      r0, r7, 0x0
             0x000135c8: 80 68:       ldc (ru6)       r2, 0x0
             0x000135ca: 02 f0 05 d0: bl (lu10)       0x805 <XUD_UIFM_RegWrite>
             0x000135ce: c2 69:       ldc (ru6)       r7, 0x2
             0x000135d0: 39 f0 3d 58: ldw (lru6)      r0, dp[0xe7d]
             0x000135d4: 43 32:       eq (3r)         r0, r0, r7
             0x000135d6: 02 f0 1d 70: bt (lru6)       r0, 0x9d <.label430>
             0x000135da: 2e f0 38 68: ldc (lru6)      r0, 0xbb8
             0x000135de: 39 f0 be 51: stw (lru6)      r6, dp[0xe7e]
             0x000135e2: 39 f0 3c 50: stw (lru6)      r0, dp[0xe7c]
.label460    0x000135e6: 00 68:       ldc (ru6)       r0, 0x0
             0x000135e8: 41 c2:       lss (3r)        r0, r0, r5
             0x000135ea: 39 f0 be 5a: ldw (lru6)      r10, dp[0xe7e]
             0x000135ee: 00 6a:       ldc (ru6)       r8, 0x0
             0x000135f0: 02 f0 23 70: bt (lru6)       r0, 0xa3 <.label431>
.label463    0x000135f4: 1a 5c:       ldw (ru6)       r0, sp[0x1a]
             0x000135f6: 40 68:       ldc (ru6)       r1, 0x0
             0x000135f8: 04 c0:       lss (3r)        r0, r1, r0
             0x000135fa: 00 6a:       ldc (ru6)       r8, 0x0
             0x000135fc: 02 f0 38 70: bt (lru6)       r0, 0xb8 <.label432>
.label467    0x00013600: 60 68:       ldc (ru6)       r1, 0x20
             0x00013602: 84 91:       add (2rus)      r0, r9, 0x0
             0x00013604: 01 f0 fc d1: bl (lu10)       0x5fc <SetupChannelVectorsOverride>
             0x00013608: 02 f0 38 77: bu (lu6)        -0xb8 <.label433>
.label424    0x0001360c: c4 69:       ldc (ru6)       r7, 0x4
.label435    0x0001360e: 1d 5c:       ldw (ru6)       r0, sp[0x1d]
             0x00013610: 80 4c:       ldw (3r)        r0, r0[r8]
             0x00013612: 43 32:       eq (3r)         r0, r0, r7
             0x00013614: 05 78:       bf (ru6)        r0, 0x5 <.label434>
.label437    0x00013616: 01 92:       add (2rus)      r8, r8, 0x1
             0x00013618: c1 c3:       lss (3r)        r0, r8, r5
             0x0001361a: 07 74:       bt (ru6)        r0, -0x7 <.label435>
             0x0001361c: 01 f0 0b 77: bu (lu6)        -0x4b <.label436>
.label434    0x00013620: 39 f0 1c 60: ldaw (lru6)     r0, dp[0xe5c]
             0x00013624: 80 4c:       ldw (3r)        r0, r0[r8]
             0x00013626: 09 7c:       bf (ru6)        r0, -0x9 <.label437>
             0x00013628: 48 68:       ldc (ru6)       r1, 0x8
             0x0001362a: 04 4e:       ldw (3r)        r0, r9[r8]
             0x0001362c: 01 f0 b5 d3: bl (lu10)       0x7b5 <XUD_Sup_outct>
             0x00013630: 0e 77:       bu (u6)         -0xe <.label437>
.label425    0x00013632: c4 69:       ldc (ru6)       r7, 0x4
.label439    0x00013634: 1b 5c:       ldw (ru6)       r0, sp[0x1b]
             0x00013636: 80 4c:       ldw (3r)        r0, r0[r8]
             0x00013638: 43 32:       eq (3r)         r0, r0, r7
             0x0001363a: 06 78:       bf (ru6)        r0, 0x6 <.label438>
.label441    0x0001363c: 01 92:       add (2rus)      r8, r8, 0x1
             0x0001363e: 1a 5c:       ldw (ru6)       r0, sp[0x1a]
             0x00013640: 80 c1:       lss (3r)        r0, r8, r0
             0x00013642: 08 74:       bt (ru6)        r0, -0x8 <.label439>
             0x00013644: 01 f0 19 77: bu (lu6)        -0x59 <.label440>
.label438    0x00013648: 39 f0 2c 60: ldaw (lru6)     r0, dp[0xe6c]
             0x0001364c: 80 4c:       ldw (3r)        r0, r0[r8]
             0x0001364e: 0a 7c:       bf (ru6)        r0, -0xa <.label441>
             0x00013650: c1 13:       add (3r)        r0, r8, r5
             0x00013652: 84 49:       ldw (3r)        r0, r9[r0]
             0x00013654: 48 68:       ldc (ru6)       r1, 0x8
             0x00013656: 01 f0 a0 d3: bl (lu10)       0x7a0 <XUD_Sup_outct>
             0x0001365a: 10 77:       bu (u6)         -0x10 <.label441>
.label426    0x0001365c: c4 69:       ldc (ru6)       r7, 0x4
.label443    0x0001365e: 1d 5c:       ldw (ru6)       r0, sp[0x1d]
             0x00013660: 80 4c:       ldw (3r)        r0, r0[r8]
             0x00013662: 43 32:       eq (3r)         r0, r0, r7
             0x00013664: 05 78:       bf (ru6)        r0, 0x5 <.label442>
.label445    0x00013666: 01 92:       add (2rus)      r8, r8, 0x1
             0x00013668: c1 c3:       lss (3r)        r0, r8, r5
             0x0001366a: 07 74:       bt (ru6)        r0, -0x7 <.label443>
             0x0001366c: 01 f0 28 77: bu (lu6)        -0x68 <.label444>
.label442    0x00013670: 39 f0 1c 60: ldaw (lru6)     r0, dp[0xe5c]
             0x00013674: 80 4c:       ldw (3r)        r0, r0[r8]
             0x00013676: 09 7c:       bf (ru6)        r0, -0x9 <.label445>
             0x00013678: 04 4e:       ldw (3r)        r0, r9[r8]
             0x0001367a: 01 f0 99 d3: bl (lu10)       0x799 <XUD_Sup_testct>
             0x0001367e: 04 78:       bf (ru6)        r0, 0x4 <.label446>
.label447    0x00013680: 04 4e:       ldw (3r)        r0, r9[r8]
             0x00013682: 01 f0 93 d3: bl (lu10)       0x793 <XUD_Sup_inct>
             0x00013686: 11 77:       bu (u6)         -0x11 <.label445>
.label446    0x00013688: 04 4e:       ldw (3r)        r0, r9[r8]
             0x0001368a: 01 f0 8d d3: bl (lu10)       0x78d <XUD_Sup_int>
             0x0001368e: 04 4e:       ldw (3r)        r0, r9[r8]
             0x00013690: 01 f0 8e d3: bl (lu10)       0x78e <XUD_Sup_testct>
             0x00013694: 07 7c:       bf (ru6)        r0, -0x7 <.label446>
             0x00013696: 0c 77:       bu (u6)         -0xc <.label447>
.label427    0x00013698: c4 69:       ldc (ru6)       r7, 0x4
.label449    0x0001369a: 1b 5c:       ldw (ru6)       r0, sp[0x1b]
             0x0001369c: 82 4c:       ldw (3r)        r0, r0[r10]
             0x0001369e: 43 32:       eq (3r)         r0, r0, r7
             0x000136a0: 06 78:       bf (ru6)        r0, 0x6 <.label448>
.label451    0x000136a2: 29 92:       add (2rus)      r10, r10, 0x1
             0x000136a4: 1a 5c:       ldw (ru6)       r0, sp[0x1a]
             0x000136a6: 88 c1:       lss (3r)        r0, r10, r0
             0x000136a8: 08 74:       bt (ru6)        r0, -0x8 <.label449>
             0x000136aa: 02 f0 01 77: bu (lu6)        -0x81 <.label450>
.label448    0x000136ae: 39 f0 2c 60: ldaw (lru6)     r0, dp[0xe6c]
             0x000136b2: 82 4c:       ldw (3r)        r0, r0[r10]
             0x000136b4: 0a 7c:       bf (ru6)        r0, -0xa <.label451>
             0x000136b6: 49 14:       add (3r)        r8, r10, r5
.label453    0x000136b8: 04 4e:       ldw (3r)        r0, r9[r8]
             0x000136ba: 01 f0 79 d3: bl (lu10)       0x779 <XUD_Sup_testct>
             0x000136be: 06 78:       bf (ru6)        r0, 0x6 <.label452>
.label454    0x000136c0: 04 4e:       ldw (3r)        r0, r9[r8]
             0x000136c2: 01 f0 73 d3: bl (lu10)       0x773 <XUD_Sup_inct>
             0x000136c6: 42 32:       eq (3r)         r0, r0, r6
             0x000136c8: 09 7c:       bf (ru6)        r0, -0x9 <.label453>
             0x000136ca: 15 77:       bu (u6)         -0x15 <.label451>
.label452    0x000136cc: 04 4e:       ldw (3r)        r0, r9[r8]
             0x000136ce: 01 f0 6b d3: bl (lu10)       0x76b <XUD_Sup_int>
             0x000136d2: 04 4e:       ldw (3r)        r0, r9[r8]
             0x000136d4: 01 f0 6c d3: bl (lu10)       0x76c <XUD_Sup_testct>
             0x000136d8: 07 7c:       bf (ru6)        r0, -0x7 <.label452>
             0x000136da: 0e 77:       bu (u6)         -0xe <.label454>
.label428    0x000136dc: 6a 5c:       ldw (ru6)       r1, sp[0x2a]
             0x000136de: 00 68:       ldc (ru6)       r0, 0x0
             0x000136e0: c1 ae:       out (r2r)       res[r1], r0
             0x000136e2: 06 f0 86 7c: bf (lru6)       r2, -0x186 <.label455>
             0x000136e6: 0a f0 3e 77: bu (lu6)        -0x2be <.label456>
.label429    0x000136ea: d0 69:       ldc (ru6)       r7, 0x10
             0x000136ec: 0c f0 45 60: ldaw (lru6)     r1, dp[0x305]
             0x000136f0: 01 f0 0b 6a: ldc (lru6)      r8, 0x4b
             0x000136f4: 0c f0 81 60: ldaw (lru6)     r2, dp[0x301]
.label457    0x000136f8: 73 ca:       lsu (3r)        r3, r0, r7
             0x000136fa: e3 4f:       ecallf (1r)     r3
             0x000136fc: 73 ca:       lsu (3r)        r3, r0, r7
             0x000136fe: 88 f8 ec 8f: st8 (l3r)       r8, r2[r0]
             0x00013702: e3 4f:       ecallf (1r)     r3
             0x00013704: 84 f8 ec 8f: st8 (l3r)       r8, r1[r0]
             0x00013708: d0 5c:       ldw (ru6)       r3, sp[0x10]
             0x0001370a: 01 90:       add (2rus)      r0, r0, 0x1
             0x0001370c: 33 c0:       lss (3r)        r3, r0, r3
             0x0001370e: cc 74:       bt (ru6)        r3, -0xc <.label457>
             0x00013710: 02 f0 2a 77: bu (lu6)        -0xaa <.label458>
.label430    0x00013714: 01 f0 76 d1: bl (lu10)       0x576 <XUD_DeviceAttachHS>
             0x00013718: 08 78:       bf (ru6)        r0, 0x8 <.label459>
             0x0001371a: 01 f0 24 68: ldc (lru6)      r0, 0x64
             0x0001371e: 39 f0 fe 51: stw (lru6)      r7, dp[0xe7e]
             0x00013722: 39 f0 3c 50: stw (lru6)      r0, dp[0xe7c]
             0x00013726: 02 f0 22 77: bu (lu6)        -0xa2 <.label460>
.label459    0x0001372a: 2e f0 38 68: ldc (lru6)      r0, 0xbb8
             0x0001372e: 39 f0 be 51: stw (lru6)      r6, dp[0xe7e]
             0x00013732: 39 f0 3c 50: stw (lru6)      r0, dp[0xe7c]
             0x00013736: 02 f0 2a 77: bu (lu6)        -0xaa <.label460>
.label431    0x0001373a: d0 69:       ldc (ru6)       r7, 0x10
.label462    0x0001373c: 71 5c:       ldw (ru6)       r1, sp[0x31]
             0x0001373e: 81 c9:       lsu (3r)        r0, r8, r1
             0x00013740: e0 4f:       ecallf (1r)     r0
             0x00013742: 28 5c:       ldw (ru6)       r0, sp[0x28]
             0x00013744: 80 4c:       ldw (3r)        r0, r0[r8]
             0x00013746: 40 b2:       eq (2rus)       r0, r0, 0x4
             0x00013748: 05 78:       bf (ru6)        r0, 0x5 <.label461>
.label464    0x0001374a: 01 92:       add (2rus)      r8, r8, 0x1
             0x0001374c: c1 c3:       lss (3r)        r0, r8, r5
             0x0001374e: 0a 74:       bt (ru6)        r0, -0xa <.label462>
             0x00013750: 02 f0 30 77: bu (lu6)        -0xb0 <.label463>
.label461    0x00013754: c3 cb:       lsu (3r)        r0, r8, r7
             0x00013756: e0 4f:       ecallf (1r)     r0
             0x00013758: 39 f0 5c 60: ldaw (lru6)     r1, dp[0xe5c]
             0x0001375c: 84 4c:       ldw (3r)        r0, r1[r8]
             0x0001375e: 0b 7c:       bf (ru6)        r0, -0xb <.label464>
             0x00013760: 60 68:       ldc (ru6)       r1, 0x20
             0x00013762: 81 c9:       lsu (3r)        r0, r8, r1
             0x00013764: e0 4f:       ecallf (1r)     r0
             0x00013766: 04 4e:       ldw (3r)        r0, r9[r8]
             0x00013768: 98 91:       add (2rus)      r1, r10, 0x0
             0x0001376a: 01 f0 14 d3: bl (lu10)       0x714 <XUD_Sup_outuint>
             0x0001376e: 13 77:       bu (u6)         -0x13 <.label464>
.label432    0x00013770: d0 69:       ldc (ru6)       r7, 0x10
.label466    0x00013772: 72 5c:       ldw (ru6)       r1, sp[0x32]
             0x00013774: 81 c9:       lsu (3r)        r0, r8, r1
             0x00013776: e0 4f:       ecallf (1r)     r0
             0x00013778: 29 5c:       ldw (ru6)       r0, sp[0x29]
             0x0001377a: 80 4c:       ldw (3r)        r0, r0[r8]
             0x0001377c: 40 b2:       eq (2rus)       r0, r0, 0x4
             0x0001377e: 06 78:       bf (ru6)        r0, 0x6 <.label465>
.label468    0x00013780: 01 92:       add (2rus)      r8, r8, 0x1
             0x00013782: 1a 5c:       ldw (ru6)       r0, sp[0x1a]
             0x00013784: 80 c1:       lss (3r)        r0, r8, r0
             0x00013786: 0b 74:       bt (ru6)        r0, -0xb <.label466>
             0x00013788: 03 f0 06 77: bu (lu6)        -0xc6 <.label467>
.label465    0x0001378c: c3 cb:       lsu (3r)        r0, r8, r7
             0x0001378e: e0 4f:       ecallf (1r)     r0
             0x00013790: 39 f0 6c 60: ldaw (lru6)     r1, dp[0xe6c]
             0x00013794: 84 4c:       ldw (3r)        r0, r1[r8]
             0x00013796: 0c 7c:       bf (ru6)        r0, -0xc <.label468>
             0x00013798: 60 68:       ldc (ru6)       r1, 0x20
             0x0001379a: c1 13:       add (3r)        r0, r8, r5
             0x0001379c: 11 c8:       lsu (3r)        r1, r0, r1
             0x0001379e: e1 4f:       ecallf (1r)     r1
             0x000137a0: 98 91:       add (2rus)      r1, r10, 0x0
             0x000137a2: 84 49:       ldw (3r)        r0, r9[r0]
             0x000137a4: 01 f0 f7 d2: bl (lu10)       0x6f7 <XUD_Sup_outuint>
             0x000137a8: 15 77:       bu (u6)         -0x15 <.label468>
             0x000137aa: 00 90:       add (2rus)      r0, r0, 0x0

<ERR_SetupBuffFull>:
             0x000137ac: c0 77:       retsp (u6)      0x0
             0x000137ae: 00 90:       add (2rus)      r0, r0, 0x0

<ERR_OutDataTimeout>:
             0x000137b0: c0 77:       retsp (u6)      0x0
             0x000137b2: 00 90:       add (2rus)      r0, r0, 0x0

<ERR_EndIn4>:
             0x000137b4: c0 77:       retsp (u6)      0x0
             0x000137b6: 00 90:       add (2rus)      r0, r0, 0x0

<ERR_EndIn5>:
             0x000137b8: c0 77:       retsp (u6)      0x0
             0x000137ba: 00 00:       stw (2rus)      r0, r0[0x0]

<XUD_SetDevAddr>:
             0x000137bc: 10 90:       add (2rus)      r1, r0, 0x0
             0x000137be: 41 77:       entsp (u6)      0x1
             0x000137c0: 02 68:       ldc (ru6)       r0, 0x2
             0x000137c2: 01 f0 11 d3: bl (lu10)       0x711 <XUD_UIFM_RegWrite_>
             0x000137c6: c1 77:       retsp (u6)      0x1

<_DoException>:
             0x000137c8: ed 07:       clre (0r)       
             0x000137ca: ec 07:       waiteu (0r)     

<__libc_done>:
             0x000137cc: 40 68:       ldc (ru6)       r1, 0x0
             0x000137ce: 41 77:       entsp (u6)      0x1
             0x000137d0: 04 90:       add (2rus)      r0, r1, 0x0
             0x000137d2: 01 f0 8b d3: bl (lu10)       0x78b <__call_exitprocs>
             0x000137d6: 01 f0 f9 d3: bl (lu10)       0x7f9 <_cleanup>
             0x000137da: 02 f0 30 d3: bl (lu10)       0xb30 <.label469>
             0x000137de: 01 f0 f9 d3: bl (lu10)       0x7f9 <_done>
             0x000137e2: 00 00:       stw (2rus)      r0, r0[0x0]

<_exit>:
             0x000137e4: 10 90:       add (2rus)      r1, r0, 0x0
             0x000137e6: 00 68:       ldc (ru6)       r0, 0x0
             0x000137e8: 01 f0 7e d3: bl (lu10)       0x77e <_DoSyscall>
             0x000137ec: ed 07:       clre (0r)       
             0x000137ee: ec 07:       waiteu (0r)     

<_exit_unlocked>:
             0x000137f0: 40 68:       ldc (ru6)       r1, 0x0
             0x000137f2: 42 77:       entsp (u6)      0x2
             0x000137f4: 01 55:       stw (ru6)       r4, sp[0x1]
             0x000137f6: 40 90:       add (2rus)      r4, r0, 0x0
             0x000137f8: c0 90:       add (2rus)      r0, r4, 0x0
             0x000137fa: 01 f0 77 d3: bl (lu10)       0x777 <__call_exitprocs>
             0x000137fe: 01 f0 e5 d3: bl (lu10)       0x7e5 <_cleanup>
             0x00013802: 02 f0 1c d3: bl (lu10)       0xb1c <.label469>
             0x00013806: c0 90:       add (2rus)      r0, r4, 0x0
             0x00013808: 00 f0 14 d4: bl (lu10)       -0x14 <_exit>

<configure_in_port>:
             0x0001380c: 43 77:       entsp (u6)      0x3
             0x0001380e: 01 55:       stw (ru6)       r4, sp[0x1]
             0x00013810: 42 55:       stw (ru6)       r5, sp[0x2]
             0x00013812: 40 90:       add (2rus)      r4, r0, 0x0
             0x00013814: 54 90:       add (2rus)      r5, r1, 0x0
             0x00013816: 40 f1 07 e8: setc (lru6)     res[r0], 0x5007
             0x0001381a: 01 f0 6b d3: bl (lu10)       0x76b <__set_port_in>
             0x0001381e: d4 ff ec 0f: setclk (lr2r)   res[r4], r5
             0x00013822: c0 f0 07 e9: setc (lru6)     res[r4], 0x3007
             0x00013826: 17 e9:       setc (ru6)      res[r4], 0x17
             0x00013828: 01 5d:       ldw (ru6)       r4, sp[0x1]
             0x0001382a: 42 5d:       ldw (ru6)       r5, sp[0x2]
             0x0001382c: c3 77:       retsp (u6)      0x3
             0x0001382e: 00 90:       add (2rus)      r0, r0, 0x0

<configure_out_port>:
             0x00013830: 43 77:       entsp (u6)      0x3
             0x00013832: 01 55:       stw (ru6)       r4, sp[0x1]
             0x00013834: 42 55:       stw (ru6)       r5, sp[0x2]
             0x00013836: 40 90:       add (2rus)      r4, r0, 0x0
             0x00013838: 54 90:       add (2rus)      r5, r1, 0x0
             0x0001383a: 40 f1 07 e8: setc (lru6)     res[r0], 0x5007
             0x0001383e: 18 90:       add (2rus)      r1, r2, 0x0
             0x00013840: 01 f0 63 d3: bl (lu10)       0x763 <__set_port_out>
             0x00013844: d4 ff ec 0f: setclk (lr2r)   res[r4], r5
             0x00013848: c0 f0 07 e9: setc (lru6)     res[r4], 0x3007
             0x0001384c: 01 5d:       ldw (ru6)       r4, sp[0x1]
             0x0001384e: 42 5d:       ldw (ru6)       r5, sp[0x2]
             0x00013850: c3 77:       retsp (u6)      0x3
             0x00013852: 00 90:       add (2rus)      r0, r0, 0x0

<configure_port_clock_output>:
             0x00013854: d4 fe ec 0f: setclk (lr2r)   res[r0], r1
             0x00013858: 40 f1 0f e8: setc (lru6)     res[r0], 0x500f
             0x0001385c: c0 77:       retsp (u6)      0x0
             0x0001385e: 00 90:       add (2rus)      r0, r0, 0x0

<configure_clock_src>:
             0x00013860: d9 a6:       mkmsk (rus)     r2, 0x1
             0x00013862: d8 fe ec 0f: setclk (lr2r)   res[r0], r2
             0x00013866: 80 68:       ldc (ru6)       r2, 0x0
             0x00013868: d8 16:       setd (r2r)      res[r0], r2
             0x0001386a: d8 16:       setd (r2r)      res[r0], r2
             0x0001386c: d4 fe ec 0f: setclk (lr2r)   res[r0], r1
             0x00013870: c0 77:       retsp (u6)      0x0
             0x00013872: 00 00:       stw (2rus)      r0, r0[0x0]

<memcpy>:
             0x00013874: d0 68:       ldc (ru6)       r3, 0x10
             0x00013876: 43 77:       entsp (u6)      0x3
             0x00013878: 02 55:       stw (ru6)       r4, sp[0x2]
             0x0001387a: 41 55:       stw (ru6)       r5, sp[0x1]
             0x0001387c: 80 55:       stw (ru6)       r6, sp[0x0]
             0x0001387e: 3b c8:       lsu (3r)        r3, r2, r3
             0x00013880: c2 78:       bf (ru6)        r3, 0x2 <.label470>
             0x00013882: 30 90:       add (2rus)      r3, r0, 0x0
             0x00013884: 2a 73:       bu (u6)         0x2a <.label471>
.label470    0x00013886: 34 40:       or (3r)         r3, r1, r0
             0x00013888: de 46:       zext (rus)      r3, 0x2
             0x0001388a: c2 78:       bf (ru6)        r3, 0x2 <.label472>
             0x0001388c: 30 90:       add (2rus)      r3, r0, 0x0
             0x0001388e: 25 73:       bu (u6)         0x25 <.label471>
.label472    0x00013890: 9c a7:       mkmsk (rus)     r3, 0x4
             0x00013892: c0 6a:       ldc (ru6)       r11, 0x0
.label473    0x00013894: d7 14:       add (3r)        r5, r1, r11
             0x00013896: 24 09:       ldw (2rus)      r6, r5[0x0]
             0x00013898: c3 14:       add (3r)        r4, r0, r11
             0x0001389a: 20 01:       stw (2rus)      r6, r4[0x0]
             0x0001389c: 68 fa ec a7: ldaw (l2rus)    r2, r2[-0x4]
             0x000138a0: 25 09:       ldw (2rus)      r6, r5[0x1]
             0x000138a2: 21 01:       stw (2rus)      r6, r4[0x1]
             0x000138a4: 26 09:       ldw (2rus)      r6, r5[0x2]
             0x000138a6: 22 01:       stw (2rus)      r6, r4[0x2]
             0x000138a8: 7c fc ec 9f: ldaw (l2rus)    r11, r11[0x4]
             0x000138ac: 17 09:       ldw (2rus)      r5, r5[0x3]
             0x000138ae: 13 01:       stw (2rus)      r5, r4[0x3]
             0x000138b0: 4e c8:       lsu (3r)        r4, r3, r2
             0x000138b2: 10 75:       bt (ru6)        r4, -0x10 <.label473>
             0x000138b4: c4 68:       ldc (ru6)       r3, 0x4
             0x000138b6: 3b c8:       lsu (3r)        r3, r2, r3
             0x000138b8: c2 78:       bf (ru6)        r3, 0x2 <.label474>
             0x000138ba: b3 14:       add (3r)        r3, r0, r11
             0x000138bc: 0d 73:       bu (u6)         0xd <.label475>
.label474    0x000138be: b3 14:       add (3r)        r3, r0, r11
             0x000138c0: 97 14:       add (3r)        r1, r1, r11
             0x000138c2: c0 6a:       ldc (ru6)       r11, 0x0
             0x000138c4: 12 a7:       mkmsk (rus)     r4, 0x2
.label476    0x000138c6: df 14:       add (3r)        r5, r3, r11
             0x000138c8: e7 14:       add (3r)        r6, r1, r11
             0x000138ca: 28 09:       ldw (2rus)      r6, r6[0x0]
             0x000138cc: 7c 94:       add (2rus)      r11, r11, 0x4
             0x000138ce: 68 9a:       sub (2rus)      r2, r2, 0x4
             0x000138d0: 24 01:       stw (2rus)      r6, r5[0x0]
             0x000138d2: 12 c9:       lsu (3r)        r5, r4, r2
             0x000138d4: 48 75:       bt (ru6)        r5, -0x8 <.label476>
             0x000138d6: bf 14:       add (3r)        r3, r3, r11
.label475    0x000138d8: 97 14:       add (3r)        r1, r1, r11
.label471    0x000138da: 88 78:       bf (ru6)        r2, 0x8 <.label477>
             0x000138dc: c0 6a:       ldc (ru6)       r11, 0x0
.label478    0x000138de: c7 8c:       ld8u (3r)       r4, r1[r11]
             0x000138e0: 15 90:       add (2rus)      r1, r1, 0x1
             0x000138e2: cf fc ec 8f: st8 (l3r)       r4, r3[r11]
             0x000138e6: 3d 90:       add (2rus)      r3, r3, 0x1
             0x000138e8: 29 98:       sub (2rus)      r2, r2, 0x1
             0x000138ea: 87 74:       bt (ru6)        r2, -0x7 <.label478>
.label477    0x000138ec: 80 5d:       ldw (ru6)       r6, sp[0x0]
             0x000138ee: 41 5d:       ldw (ru6)       r5, sp[0x1]
             0x000138f0: 02 5d:       ldw (ru6)       r4, sp[0x2]
             0x000138f2: c3 77:       retsp (u6)      0x3

<memset>:
.label616    0x000138f4: bb a8:       shr (2rus)      r11, r2, 0x3
             0x000138f6: dd 7a:       bf (ru6)        r11, 0x1d <.label479>
             0x000138f8: 34 47:       zext (rus)      r1, 0x8
             0x000138fa: 34 a5:       shl (2rus)      r11, r1, 0x8
             0x000138fc: 97 44:       or (3r)         r1, r1, r11
             0x000138fe: 35 a5:       shl (2rus)      r11, r1, 0x10
             0x00013900: 97 44:       or (3r)         r1, r1, r11
             0x00013902: 33 90:       add (2rus)      r3, r0, 0x3
             0x00013904: c3 6a:       ldc (ru6)       r11, 0x3
             0x00013906: 2f 2f:       andnot (2r)     r3, r11
             0x00013908: bc 18:       sub (3r)        r11, r3, r0
             0x0001390a: c5 7a:       bf (ru6)        r11, 0x5 <.label480>
             0x0001390c: ab 1c:       sub (3r)        r2, r2, r11
.label481    0x0001390e: 3d 9a:       sub (2rus)      r11, r11, 0x1
             0x00013910: 93 fc ec 8f: st8 (l3r)       r1, r0[r11]
             0x00013914: c4 76:       bt (ru6)        r11, -0x4 <.label481>
.label480    0x00013916: ba a8:       shr (2rus)      r11, r2, 0x2
.label482    0x00013918: 3d 9a:       sub (2rus)      r11, r11, 0x1
             0x0001391a: 9f fc ec 07: stw (l3r)       r1, r3[r11]
             0x0001391e: c4 76:       bt (ru6)        r11, -0x4 <.label482>
             0x00013920: 3e 10:       add (3r)        r3, r3, r2
             0x00013922: da 46:       zext (rus)      r2, 0x2
             0x00013924: 85 78:       bf (ru6)        r2, 0x5 <.label483>
             0x00013926: 3e 18:       sub (3r)        r3, r3, r2
.label484    0x00013928: 29 98:       sub (2rus)      r2, r2, 0x1
             0x0001392a: 1e f8 ec 8f: st8 (l3r)       r1, r3[r2]
             0x0001392e: 84 74:       bt (ru6)        r2, -0x4 <.label484>
.label483    0x00013930: c0 77:       retsp (u6)      0x0
.label479    0x00013932: 84 78:       bf (ru6)        r2, 0x4 <.label485>
.label486    0x00013934: 29 98:       sub (2rus)      r2, r2, 0x1
             0x00013936: 12 f8 ec 8f: st8 (l3r)       r1, r0[r2]
             0x0001393a: 84 74:       bt (ru6)        r2, -0x4 <.label486>
.label485    0x0001393c: c0 77:       retsp (u6)      0x0
             0x0001393e: 00 00:       stw (2rus)      r0, r0[0x0]

<printchar>:
             0x00013940: 42 77:       entsp (u6)      0x2
             0x00013942: 41 64:       ldaw (ru6)      r1, sp[0x1]
             0x00013944: 80 68:       ldc (ru6)       r2, 0x0
             0x00013946: 06 f8 ec 8f: st8 (l3r)       r0, r1[r2]
             0x0001394a: d1 a6:       mkmsk (rus)     r0, 0x1
             0x0001394c: d9 a6:       mkmsk (rus)     r2, 0x1
             0x0001394e: dd a6:       mkmsk (rus)     r3, 0x1
             0x00013950: 01 f0 45 d3: bl (lu10)       0x745 <_write> <_write.coersed..f.7bsi.7d.28si.2cp.28c.3auc.29.2cui.29>
             0x00013954: c2 77:       retsp (u6)      0x2
             0x00013956: 00 90:       add (2rus)      r0, r0, 0x0

<printint>:
             0x00013958: 44 77:       entsp (u6)      0x4
             0x0001395a: 01 55:       stw (ru6)       r4, sp[0x1]
             0x0001395c: 42 55:       stw (ru6)       r5, sp[0x2]
             0x0001395e: 83 55:       stw (ru6)       r6, sp[0x3]
             0x00013960: 60 90:       add (2rus)      r6, r0, 0x0
             0x00013962: 40 69:       ldc (ru6)       r5, 0x0
             0x00013964: 04 91:       add (2rus)      r4, r5, 0x0
             0x00013966: 41 c2:       lss (3r)        r0, r0, r5
             0x00013968: 09 70:       bt (ru6)        r0, 0x9 <.label487>
.label490    0x0001396a: c8 90:       add (2rus)      r0, r6, 0x0
             0x0001396c: 37 d0:       bl (u10)        0x37 <printuint>
             0x0001396e: 51 c2:       lss (3r)        r1, r0, r5
             0x00013970: 53 70:       bt (ru6)        r1, 0x13 <.label488>
             0x00013972: c0 10:       add (3r)        r0, r4, r0
             0x00013974: 01 5d:       ldw (ru6)       r4, sp[0x1]
             0x00013976: 42 5d:       ldw (ru6)       r5, sp[0x2]
             0x00013978: 83 5d:       ldw (ru6)       r6, sp[0x3]
             0x0001397a: c4 77:       retsp (u6)      0x4
.label487    0x0001397c: c9 90:       add (2rus)      r0, r6, 0x1
             0x0001397e: c0 96:       neg (2r)        r0, r0
             0x00013980: 61 90:       add (2rus)      r6, r0, 0x1
             0x00013982: 2d 68:       ldc (ru6)       r0, 0x2d
             0x00013984: 23 d4:       bl (u10)        -0x23 <printchar>
             0x00013986: 40 90:       add (2rus)      r4, r0, 0x0
             0x00013988: 01 c3:       lss (3r)        r0, r4, r5
             0x0001398a: 01 70:       bt (ru6)        r0, 0x1 <.label489>
             0x0001398c: 12 77:       bu (u6)         -0x12 <.label490>
.label489    0x0001398e: c0 90:       add (2rus)      r0, r4, 0x0
             0x00013990: 01 5d:       ldw (ru6)       r4, sp[0x1]
             0x00013992: 42 5d:       ldw (ru6)       r5, sp[0x2]
             0x00013994: 83 5d:       ldw (ru6)       r6, sp[0x3]
             0x00013996: c4 77:       retsp (u6)      0x4
.label488    0x00013998: 01 5d:       ldw (ru6)       r4, sp[0x1]
             0x0001399a: 42 5d:       ldw (ru6)       r5, sp[0x2]
             0x0001399c: 83 5d:       ldw (ru6)       r6, sp[0x3]
             0x0001399e: c4 77:       retsp (u6)      0x4

<printintln>:
             0x000139a0: 43 77:       entsp (u6)      0x3
             0x000139a2: 01 55:       stw (ru6)       r4, sp[0x1]
             0x000139a4: 42 55:       stw (ru6)       r5, sp[0x2]
             0x000139a6: 28 d4:       bl (u10)        -0x28 <printint>
             0x000139a8: 40 90:       add (2rus)      r4, r0, 0x0
             0x000139aa: 40 69:       ldc (ru6)       r5, 0x0
             0x000139ac: 41 c2:       lss (3r)        r0, r0, r5
             0x000139ae: 0e 70:       bt (ru6)        r0, 0xe <.label491>
             0x000139b0: 00 f0 41 7f: ldaw (lu6)      r11, cp[0x1]
             0x000139b4: 9c 91:       add (2rus)      r1, r11, 0x0
             0x000139b6: d1 a6:       mkmsk (rus)     r0, 0x1
             0x000139b8: d9 a6:       mkmsk (rus)     r2, 0x1
             0x000139ba: dd a6:       mkmsk (rus)     r3, 0x1
             0x000139bc: 01 f0 0f d3: bl (lu10)       0x70f <_write> <_write.coersed..f.7bsi.7d.28si.2cp.28c.3auc.29.2cui.29>
             0x000139c0: 51 c2:       lss (3r)        r1, r0, r5
             0x000139c2: 48 70:       bt (ru6)        r1, 0x8 <.label492>
             0x000139c4: c0 10:       add (3r)        r0, r4, r0
             0x000139c6: 01 5d:       ldw (ru6)       r4, sp[0x1]
             0x000139c8: 42 5d:       ldw (ru6)       r5, sp[0x2]
             0x000139ca: c3 77:       retsp (u6)      0x3
.label491    0x000139cc: c0 90:       add (2rus)      r0, r4, 0x0
             0x000139ce: 01 5d:       ldw (ru6)       r4, sp[0x1]
             0x000139d0: 42 5d:       ldw (ru6)       r5, sp[0x2]
             0x000139d2: c3 77:       retsp (u6)      0x3
.label492    0x000139d4: 01 5d:       ldw (ru6)       r4, sp[0x1]
             0x000139d6: 42 5d:       ldw (ru6)       r5, sp[0x2]
             0x000139d8: c3 77:       retsp (u6)      0x3
             0x000139da: 00 90:       add (2rus)      r0, r0, 0x0

<printuint>:
             0x000139dc: 41 77:       entsp (u6)      0x1
             0x000139de: 4a 68:       ldc (ru6)       r1, 0xa
             0x000139e0: 75 d0:       bl (u10)        0x75 <printuint_base>
             0x000139e2: c1 77:       retsp (u6)      0x1
             0x000139e4: 00 90:       add (2rus)      r0, r0, 0x0
             0x000139e6: 00 90:       add (2rus)      r0, r0, 0x0

<printhex>:
             0x000139e8: 41 77:       entsp (u6)      0x1
             0x000139ea: 50 68:       ldc (ru6)       r1, 0x10
             0x000139ec: 6f d0:       bl (u10)        0x6f <printuint_base>
             0x000139ee: c1 77:       retsp (u6)      0x1

<printhexln>:
             0x000139f0: 43 77:       entsp (u6)      0x3
             0x000139f2: 01 55:       stw (ru6)       r4, sp[0x1]
             0x000139f4: 42 55:       stw (ru6)       r5, sp[0x2]
             0x000139f6: 08 d4:       bl (u10)        -0x8 <printhex>
             0x000139f8: 40 90:       add (2rus)      r4, r0, 0x0
             0x000139fa: 40 69:       ldc (ru6)       r5, 0x0
             0x000139fc: 41 c2:       lss (3r)        r0, r0, r5
             0x000139fe: 0e 70:       bt (ru6)        r0, 0xe <.label493>
             0x00013a00: 00 f0 41 7f: ldaw (lu6)      r11, cp[0x1]
             0x00013a04: 9c 91:       add (2rus)      r1, r11, 0x0
             0x00013a06: d1 a6:       mkmsk (rus)     r0, 0x1
             0x00013a08: d9 a6:       mkmsk (rus)     r2, 0x1
             0x00013a0a: dd a6:       mkmsk (rus)     r3, 0x1
             0x00013a0c: 01 f0 e7 d2: bl (lu10)       0x6e7 <_write> <_write.coersed..f.7bsi.7d.28si.2cp.28c.3auc.29.2cui.29>
             0x00013a10: 51 c2:       lss (3r)        r1, r0, r5
             0x00013a12: 48 70:       bt (ru6)        r1, 0x8 <.label494>
             0x00013a14: c0 10:       add (3r)        r0, r4, r0
             0x00013a16: 01 5d:       ldw (ru6)       r4, sp[0x1]
             0x00013a18: 42 5d:       ldw (ru6)       r5, sp[0x2]
             0x00013a1a: c3 77:       retsp (u6)      0x3
.label493    0x00013a1c: c0 90:       add (2rus)      r0, r4, 0x0
             0x00013a1e: 01 5d:       ldw (ru6)       r4, sp[0x1]
             0x00013a20: 42 5d:       ldw (ru6)       r5, sp[0x2]
             0x00013a22: c3 77:       retsp (u6)      0x3
.label494    0x00013a24: 01 5d:       ldw (ru6)       r4, sp[0x1]
             0x00013a26: 42 5d:       ldw (ru6)       r5, sp[0x2]
             0x00013a28: c3 77:       retsp (u6)      0x3
             0x00013a2a: 00 90:       add (2rus)      r0, r0, 0x0

<printstr>:
<printstr.coersed..f.7bsi.7d.28.26.28a.28.3ac.3auc.29.29.29>:
             0x00013a2c: 43 77:       entsp (u6)      0x3
             0x00013a2e: 01 55:       stw (ru6)       r4, sp[0x1]
             0x00013a30: 42 55:       stw (ru6)       r5, sp[0x2]
             0x00013a32: 40 90:       add (2rus)      r4, r0, 0x0
             0x00013a34: 54 90:       add (2rus)      r5, r1, 0x0
             0x00013a36: c0 90:       add (2rus)      r0, r4, 0x0
             0x00013a38: 00 f0 5a d0: bl (lu10)       0x5a <safestrlen>
             0x00013a3c: 20 90:       add (2rus)      r2, r0, 0x0
             0x00013a3e: d1 a6:       mkmsk (rus)     r0, 0x1
             0x00013a40: d0 90:       add (2rus)      r1, r4, 0x0
             0x00013a42: f4 90:       add (2rus)      r3, r5, 0x0
             0x00013a44: 01 f0 cb d2: bl (lu10)       0x6cb <_write> <_write.coersed..f.7bsi.7d.28si.2cp.28c.3auc.29.2cui.29>
             0x00013a48: 01 5d:       ldw (ru6)       r4, sp[0x1]
             0x00013a4a: 42 5d:       ldw (ru6)       r5, sp[0x2]
             0x00013a4c: c3 77:       retsp (u6)      0x3
             0x00013a4e: 00 90:       add (2rus)      r0, r0, 0x0

<printuint_base_aux>:
             0x00013a50: 4c 77:       entsp (u6)      0xc
             0x00013a52: 01 55:       stw (ru6)       r4, sp[0x1]
             0x00013a54: 42 55:       stw (ru6)       r5, sp[0x2]
             0x00013a56: 83 55:       stw (ru6)       r6, sp[0x3]
             0x00013a58: c0 68:       ldc (ru6)       r3, 0x0
             0x00013a5a: 2c 90:       add (2rus)      r2, r3, 0x0
             0x00013a5c: 4c c8:       lsu (3r)        r4, r3, r0
             0x00013a5e: 0d 71:       bt (ru6)        r4, 0xd <.label495>
.label497    0x00013a60: 44 64:       ldaw (ru6)      r1, sp[0x4]
             0x00013a62: 09 98:       sub (2rus)      r0, r2, 0x1
             0x00013a64: 4c c0:       lss (3r)        r4, r3, r0
             0x00013a66: 1e 71:       bt (ru6)        r4, 0x1e <.label496>
.label498    0x00013a68: 44 64:       ldaw (ru6)      r1, sp[0x4]
             0x00013a6a: d1 a6:       mkmsk (rus)     r0, 0x1
             0x00013a6c: e0 68:       ldc (ru6)       r3, 0x20
             0x00013a6e: 01 f0 b6 d2: bl (lu10)       0x6b6 <_write> <_write.coersed..f.7bsi.7d.28si.2cp.28c.3auc.29.2cui.29>
             0x00013a72: 01 5d:       ldw (ru6)       r4, sp[0x1]
             0x00013a74: 42 5d:       ldw (ru6)       r5, sp[0x2]
             0x00013a76: 83 5d:       ldw (ru6)       r6, sp[0x3]
             0x00013a78: cc 77:       retsp (u6)      0xc
.label495    0x00013a7a: 51 f8 ec 4f: divu (l3r)      r5, r0, r1
             0x00013a7e: 01 f8 ec cf: remu (l3r)      r0, r0, r1
             0x00013a82: 00 f0 42 7f: ldaw (lu6)      r11, cp[0x2]
             0x00013a86: 11 69:       ldc (ru6)       r4, 0x11
             0x00013a88: 80 ca:       lsu (3r)        r4, r0, r4
             0x00013a8a: e4 4f:       ecallf (1r)     r4
             0x00013a8c: ec 89:       ld8u (3r)       r6, r11[r0]
             0x00013a8e: 04 64:       ldaw (ru6)      r0, sp[0x4]
             0x00013a90: 20 69:       ldc (ru6)       r4, 0x20
             0x00013a92: 88 ca:       lsu (3r)        r4, r2, r4
             0x00013a94: e4 4f:       ecallf (1r)     r4
             0x00013a96: 62 f8 ec 8f: st8 (l3r)       r6, r0[r2]
             0x00013a9a: 29 90:       add (2rus)      r2, r2, 0x1
             0x00013a9c: c4 90:       add (2rus)      r0, r5, 0x0
             0x00013a9e: 8d ca:       lsu (3r)        r4, r3, r5
             0x00013aa0: 14 75:       bt (ru6)        r4, -0x14 <.label495>
             0x00013aa2: 22 77:       bu (u6)         -0x22 <.label497>
.label496    0x00013aa4: 20 69:       ldc (ru6)       r4, 0x20
             0x00013aa6: 9c ca:       lsu (3r)        r5, r3, r4
             0x00013aa8: e5 4f:       ecallf (1r)     r5
             0x00013aaa: 57 88:       ld8u (3r)       r5, r1[r3]
             0x00013aac: a0 ca:       lsu (3r)        r6, r0, r4
             0x00013aae: e6 4f:       ecallf (1r)     r6
             0x00013ab0: 64 88:       ld8u (3r)       r6, r1[r0]
             0x00013ab2: fc ca:       lsu (3r)        r11, r3, r4
             0x00013ab4: eb 4f:       ecallf (1r)     r11
             0x00013ab6: 67 f8 ec 8f: st8 (l3r)       r6, r1[r3]
             0x00013aba: 80 ca:       lsu (3r)        r4, r0, r4
             0x00013abc: e4 4f:       ecallf (1r)     r4
             0x00013abe: 54 f8 ec 8f: st8 (l3r)       r5, r1[r0]
             0x00013ac2: 3d 90:       add (2rus)      r3, r3, 0x1
             0x00013ac4: 01 98:       sub (2rus)      r0, r0, 0x1
             0x00013ac6: 4c c0:       lss (3r)        r4, r3, r0
             0x00013ac8: 13 75:       bt (ru6)        r4, -0x13 <.label496>
             0x00013aca: 32 77:       bu (u6)         -0x32 <.label498>

<printuint_base>:
             0x00013acc: 41 77:       entsp (u6)      0x1
             0x00013ace: 02 78:       bf (ru6)        r0, 0x2 <.label499>
             0x00013ad0: 41 d4:       bl (u10)        -0x41 <printuint_base_aux>
             0x00013ad2: c1 77:       retsp (u6)      0x1
.label499    0x00013ad4: 30 68:       ldc (ru6)       r0, 0x30
             0x00013ad6: cc d4:       bl (u10)        -0xcc <printchar>
             0x00013ad8: c1 77:       retsp (u6)      0x1

<safememcpy>:
             0x00013ada: be c8:       lsu (3r)        r11, r3, r2
             0x00013adc: fb 4f:       ecallt (1r)     r11
             0x00013ade: c1 5e:       ldw (ru6)       r11, sp[0x1]
             0x00013ae0: 3e ca:       lsu (3r)        r11, r11, r2
             0x00013ae2: fb 4f:       ecallt (1r)     r11
             0x00013ae4: 04 f0 3a 77: bu (lu6)        -0x13a <memcpy>

<safememset>:
             0x00013ae8: be c8:       lsu (3r)        r11, r3, r2
             0x00013aea: fb 4f:       ecallt (1r)     r11
             0x00013aec: 03 f0 3e 77: bu (lu6)        -0xfe <memset>

<safestrlen>:
             0x00013af0: 80 68:       ldc (ru6)       r2, 0x0
             0x00013af2: 39 c8:       lsu (3r)        r3, r2, r1
             0x00013af4: e3 4f:       ecallf (1r)     r3
             0x00013af6: 32 88:       ld8u (3r)       r3, r0[r2]
             0x00013af8: c2 70:       bt (ru6)        r3, 0x2 <.label500>
.label501    0x00013afa: 08 90:       add (2rus)      r0, r2, 0x0
             0x00013afc: c0 77:       retsp (u6)      0x0
.label500    0x00013afe: 29 90:       add (2rus)      r2, r2, 0x1
             0x00013b00: 39 c8:       lsu (3r)        r3, r2, r1
             0x00013b02: e3 4f:       ecallf (1r)     r3
             0x00013b04: 32 88:       ld8u (3r)       r3, r0[r2]
             0x00013b06: c5 74:       bt (ru6)        r3, -0x5 <.label500>
             0x00013b08: 08 77:       bu (u6)         -0x8 <.label501>
             0x00013b0a: 00 00:       stw (2rus)      r0, r0[0x0]
             0x00013b0c: 00 00:       stw (2rus)      r0, r0[0x0]
             0x00013b0e: 00 00:       stw (2rus)      r0, r0[0x0]
             0x00013b10: 00 00:       stw (2rus)      r0, r0[0x0]
             0x00013b12: 00 00:       stw (2rus)      r0, r0[0x0]
             0x00013b14: 00 00:       stw (2rus)      r0, r0[0x0]
             0x00013b16: 00 00:       stw (2rus)      r0, r0[0x0]
             0x00013b18: 00 00:       stw (2rus)      r0, r0[0x0]
             0x00013b1a: 00 00:       stw (2rus)      r0, r0[0x0]
             0x00013b1c: 00 00:       stw (2rus)      r0, r0[0x0]
             0x00013b1e: 00 00:       stw (2rus)      r0, r0[0x0]
             0x00013b20: 00 00:       stw (2rus)      r0, r0[0x0]
             0x00013b22: 00 00:       stw (2rus)      r0, r0[0x0]
             0x00013b24: 00 00:       stw (2rus)      r0, r0[0x0]
             0x00013b26: 00 00:       stw (2rus)      r0, r0[0x0]
             0x00013b28: 00 00:       stw (2rus)      r0, r0[0x0]
             0x00013b2a: 00 00:       stw (2rus)      r0, r0[0x0]
             0x00013b2c: 00 00:       stw (2rus)      r0, r0[0x0]
             0x00013b2e: 00 00:       stw (2rus)      r0, r0[0x0]
             0x00013b30: 00 00:       stw (2rus)      r0, r0[0x0]
             0x00013b32: 00 00:       stw (2rus)      r0, r0[0x0]
             0x00013b34: 00 00:       stw (2rus)      r0, r0[0x0]
             0x00013b36: 00 00:       stw (2rus)      r0, r0[0x0]
             0x00013b38: 00 00:       stw (2rus)      r0, r0[0x0]
             0x00013b3a: 00 00:       stw (2rus)      r0, r0[0x0]
             0x00013b3c: 00 00:       stw (2rus)      r0, r0[0x0]
             0x00013b3e: 00 00:       stw (2rus)      r0, r0[0x0]
             0x00013b40: 00 00:       stw (2rus)      r0, r0[0x0]
             0x00013b42: 00 00:       stw (2rus)      r0, r0[0x0]
             0x00013b44: 00 00:       stw (2rus)      r0, r0[0x0]
             0x00013b46: 00 00:       stw (2rus)      r0, r0[0x0]
             0x00013b48: 00 00:       stw (2rus)      r0, r0[0x0]
             0x00013b4a: 00 00:       stw (2rus)      r0, r0[0x0]
             0x00013b4c: 00 00:       stw (2rus)      r0, r0[0x0]
             0x00013b4e: 00 00:       stw (2rus)      r0, r0[0x0]
             0x00013b50: 00 00:       stw (2rus)      r0, r0[0x0]
             0x00013b52: 00 00:       stw (2rus)      r0, r0[0x0]
             0x00013b54: 00 00:       stw (2rus)      r0, r0[0x0]
             0x00013b56: 00 00:       stw (2rus)      r0, r0[0x0]
             0x00013b58: 00 00:       stw (2rus)      r0, r0[0x0]
             0x00013b5a: 00 00:       stw (2rus)      r0, r0[0x0]
             0x00013b5c: 00 00:       stw (2rus)      r0, r0[0x0]
             0x00013b5e: 00 00:       stw (2rus)      r0, r0[0x0]
             0x00013b60: 00 00:       stw (2rus)      r0, r0[0x0]
             0x00013b62: 00 00:       stw (2rus)      r0, r0[0x0]
             0x00013b64: 00 00:       stw (2rus)      r0, r0[0x0]
             0x00013b66: 00 00:       stw (2rus)      r0, r0[0x0]
             0x00013b68: 00 00:       stw (2rus)      r0, r0[0x0]
             0x00013b6a: 00 00:       stw (2rus)      r0, r0[0x0]
             0x00013b6c: 00 00:       stw (2rus)      r0, r0[0x0]
             0x00013b6e: 00 00:       stw (2rus)      r0, r0[0x0]
             0x00013b70: 00 00:       stw (2rus)      r0, r0[0x0]
             0x00013b72: 00 00:       stw (2rus)      r0, r0[0x0]
             0x00013b74: 00 00:       stw (2rus)      r0, r0[0x0]
             0x00013b76: 00 00:       stw (2rus)      r0, r0[0x0]
             0x00013b78: 00 00:       stw (2rus)      r0, r0[0x0]
             0x00013b7a: 00 00:       stw (2rus)      r0, r0[0x0]
             0x00013b7c: 00 00:       stw (2rus)      r0, r0[0x0]
             0x00013b7e: 00 00:       stw (2rus)      r0, r0[0x0]

<SetupChannelVectors>:
             0x00013b80: 50 77:       entsp (u6)      0x10
             0x00013b82: 41 55:       stw (ru6)       r5, sp[0x1]
             0x00013b84: 82 55:       stw (ru6)       r6, sp[0x2]

<EnableEpChanEvents_Out2>:
             0x00013b86: 34 90:       add (2rus)      r3, r1, 0x0
             0x00013b88: 83 54:       stw (ru6)       r2, sp[0x3]

<OutEventLoop>:
             0x00013b8a: 45 78:       bf (ru6)        r1, 0x5 <InEventLoop>
             0x00013b8c: 15 98:       sub (2rus)      r1, r1, 0x1
             0x00013b8e: 51 48:       ldw (3r)        r5, r0[r1]
             0x00013b90: 19 d8:       ldap (u10)      r11, 0x19 <OutReady>
             0x00013b92: f5 47:       setv (1r)       res[r5], r11
             0x00013b94: 06 77:       bu (u6)         -0x6 <OutEventLoop>

<InEventLoop>:
             0x00013b96: 86 78:       bf (ru6)        r2, 0x6 <InEventLoopEnd>
             0x00013b98: 29 98:       sub (2rus)      r2, r2, 0x1
             0x00013b9a: 6b 10:       add (3r)        r6, r2, r3
             0x00013b9c: 92 4a:       ldw (3r)        r5, r0[r6]
             0x00013b9e: a9 d8:       ldap (u10)      r11, 0xa9 <InReady>
             0x00013ba0: f5 47:       setv (1r)       res[r5], r11
             0x00013ba2: 07 77:       bu (u6)         -0x7 <InEventLoop>

<InEventLoopEnd>:
             0x00013ba4: 1c 90:       add (2rus)      r1, r3, 0x0
             0x00013ba6: 82 5c:       ldw (ru6)       r2, sp[0x2]
             0x00013ba8: 00 f0 2a d3: bl (lu10)       0x32a <SetupChannelVectorsOverride>
             0x00013bac: 41 5d:       ldw (ru6)       r5, sp[0x1]
             0x00013bae: 82 5d:       ldw (ru6)       r6, sp[0x2]
             0x00013bb0: d0 77:       retsp (u6)      0x10
             0x00013bb2: 00 90:       add (2rus)      r0, r0, 0x0

<Pid_Out>:
             0x00013bb4: 20 fd ee 97: inpw (l2rus)    r10, res[r0], 0x8
             0x00013bb8: aa ae:       shr (2rus)      r10, r10, 0x18
             0x00013bba: 4d b7:       in (2r)         r11, res[r1]
             0x00013bbc: 0c f0 cc 7a: bf (lru6)       r11, 0x30c <Pid_Reserved> <Pid_Ack> <Pid_NYet> <Pid_Nyet> <Pid_Data2> <Pid_Split> <Pid_Nak> <Pid_Pre> <Pid_Stall> <Pid_MData> <Pid_Datam> <Pid_Data0> <Pid_Data1> <Pid_Bad> <InvalidToken>
             0x00013bc0: 96 4d:       ldw (3r)        r5, r5[r10]
             0x00013bc2: 5d 79:       bf (ru6)        r5, 0x1d <PrimaryBufferFull>

<OutReady>:
             0x00013bc4: ed b6:       in (2r)         r11, res[r5]
             0x00013bc6: 15 5d:       ldw (ru6)       r4, sp[0x15]
             0x00013bc8: 82 4d:       ldw (3r)        r4, r4[r10]
             0x00013bca: 8a 5e:       ldw (ru6)       r10, sp[0xa]

<ReadDataPidByte>:
             0x00013bcc: d1 d1:       bl (u10)        0x1d1 <doRXData>

<CheckEpTypeOut>:
             0x00013bce: 06 79:       bf (ru6)        r4, 0x6 <CalcDataLength> <StoreTailDataOut>
             0x00013bd0: cb 79:       bf (ru6)        r7, 0xb <ReportBadCrc>

<DoOutHandShakeOut>:
             0x00013bd2: 03 f0 d2 6a: ldc (lru6)      r11, 0xd2
             0x00013bd6: 38 fd ed 97: outpw (l2rus)   res[r2], r11, 0x8
             0x00013bda: f2 87:       syncr (1r)      res[r2]

<CalcDataLength>:
<StoreTailDataOut>:
             0x00013bdc: 03 aa:       shr (2rus)      r8, r8, 0x3
             0x00013bde: 82 96:       add (2rus)      r8, r8, 0xa
             0x00013be0: c9 af:       out (r2r)       res[r5], r6
             0x00013be2: 64 4f:       outct (2r)      res[r5], r8

<PidSequenceCheck>:
<TriggerBufferManager>:
<BadDataCrcOut>:
             0x00013be4: 0b f0 2c 73: bu (lu6)        0x2ec <NextTokenAfterOut>

<ReportBadCrc>:
             0x00013be8: 75 4f:       outct (rus)     res[r5], 0x9
             0x00013bea: 0b f0 27 73: bu (lu6)        0x2e7 <Loop> <NextToken> <PreLoads>

<Err_RxErr>:
             0x00013bee: 8a 5e:       ldw (ru6)       r10, sp[0xa]
             0x00013bf0: ae b7:       in (2r)         r11, res[r10]
             0x00013bf2: 0b f0 23 73: bu (lu6)        0x2e3 <Loop> <NextToken> <PreLoads>

<Err_EndpointProblem>:
             0x00013bf6: 0b f0 21 73: bu (lu6)        0x2e1 <Loop> <NextToken> <PreLoads>

<Err_BadPidSeq>:
             0x00013bfa: 0b f0 1f 73: bu (lu6)        0x2df <Loop> <NextToken> <PreLoads>

<PrimaryBufferFull>:
             0x00013bfe: 00 90:       add (2rus)      r0, r0, 0x0
             0x00013c00: 00 90:       add (2rus)      r0, r0, 0x0
             0x00013c02: 10 f0 7b 5a: ldw (lru6)      r9, dp[0x43b]
             0x00013c06: 57 ea:       setc (ru6)      res[r9], 0x17
             0x00013c08: 59 ea:       setc (ru6)      res[r9], 0x19
             0x00013c0a: ad b7:       in (2r)         r11, res[r9]
             0x00013c0c: 00 90:       add (2rus)      r0, r0, 0x0
             0x00013c0e: 51 ea:       setc (ru6)      res[r9], 0x11
             0x00013c10: ad b7:       in (2r)         r11, res[r9]
             0x00013c12: 15 5d:       ldw (ru6)       r4, sp[0x15]
             0x00013c14: 82 4d:       ldw (3r)        r4, r4[r10]
             0x00013c16: 06 79:       bf (ru6)        r4, 0x6 <PrimaryBufferFull_NoNak>
             0x00013c18: 38 f0 7c 61: ldaw (lru6)     r5, dp[0xe3c]
             0x00013c1c: f6 4d:       ldw (3r)        r11, r5[r10]
             0x00013c1e: 38 fd ed 97: outpw (l2rus)   res[r2], r11, 0x8
             0x00013c22: f2 87:       syncr (1r)      res[r2]

<PrimaryBufferFull_NoNak>:
             0x00013c24: 17 e8:       setc (ru6)      res[r0], 0x17
             0x00013c26: 0b f0 09 73: bu (lu6)        0x2c9 <Loop> <NextToken> <PreLoads>

<OutDataTimeOut>:
             0x00013c2a: 00 f0 3f d6: bl (lu10)       -0x23f <ERR_OutDataTimeout>
             0x00013c2e: 0b f0 05 73: bu (lu6)        0x2c5 <Loop> <NextToken> <PreLoads>
             0x00013c32: 00 90:       add (2rus)      r0, r0, 0x0

<Pid_Ping>:
             0x00013c34: 20 fd ee 97: inpw (l2rus)    r10, res[r0], 0x8
             0x00013c38: 4d b7:       in (2r)         r11, res[r1]
             0x00013c3a: aa ae:       shr (2rus)      r10, r10, 0x18
             0x00013c3c: 0b f0 cc 7a: bf (lru6)       r11, 0x2cc <Pid_Reserved> <Pid_Ack> <Pid_NYet> <Pid_Nyet> <Pid_Data2> <Pid_Split> <Pid_Nak> <Pid_Pre> <Pid_Stall> <Pid_MData> <Pid_Datam> <Pid_Data0> <Pid_Data1> <Pid_Bad> <InvalidToken>

<LoadStatTablePing>:
<LoadEPStatus_PING>:
<CheckSpaceAvail_PING>:
<PrimaryBufferEmpty_PING>:
             0x00013c40: 03 f0 d2 6a: ldc (lru6)      r11, 0xd2
             0x00013c44: 38 fd ed 97: outpw (l2rus)   res[r2], r11, 0x8
             0x00013c48: 00 90:       add (2rus)      r0, r0, 0x0
             0x00013c4a: 00 90:       add (2rus)      r0, r0, 0x0
             0x00013c4c: 02 73:       bu (u6)         0x2 <Err_EndpointProblem_PING> <Return_PING>

<PrimaryBufferFull_PING>:
             0x00013c4e: 00 90:       add (2rus)      r0, r0, 0x0
             0x00013c50: 00 90:       add (2rus)      r0, r0, 0x0

<Err_EndpointProblem_PING>:
<Return_PING>:
             0x00013c52: 0a f0 33 73: bu (lu6)        0x2b3 <Loop> <NextToken> <PreLoads>
             0x00013c56: 00 90:       add (2rus)      r0, r0, 0x0

<InNotReady>:
             0x00013c58: 39 f0 4c 61: ldaw (lru6)     r5, dp[0xe4c]
             0x00013c5c: f6 4d:       ldw (3r)        r11, r5[r10]

<XUD_IN_TxNak>:
             0x00013c5e: 38 fd ed 97: outpw (l2rus)   res[r2], r11, 0x8
             0x00013c62: 0a f0 2f 73: bu (lu6)        0x2af <NextTokenAfterIn>
             0x00013c66: 00 90:       add (2rus)      r0, r0, 0x0
             0x00013c68: 00 90:       add (2rus)      r0, r0, 0x0
             0x00013c6a: 00 90:       add (2rus)      r0, r0, 0x0
             0x00013c6c: 00 90:       add (2rus)      r0, r0, 0x0
             0x00013c6e: 00 90:       add (2rus)      r0, r0, 0x0
             0x00013c70: 00 90:       add (2rus)      r0, r0, 0x0
             0x00013c72: 00 90:       add (2rus)      r0, r0, 0x0
             0x00013c74: 00 90:       add (2rus)      r0, r0, 0x0
             0x00013c76: 00 90:       add (2rus)      r0, r0, 0x0
             0x00013c78: 00 90:       add (2rus)      r0, r0, 0x0
             0x00013c7a: 00 90:       add (2rus)      r0, r0, 0x0
             0x00013c7c: 00 90:       add (2rus)      r0, r0, 0x0
             0x00013c7e: 00 90:       add (2rus)      r0, r0, 0x0
             0x00013c80: 00 00:       stw (2rus)      r0, r0[0x0]
             0x00013c82: 00 00:       stw (2rus)      r0, r0[0x0]
             0x00013c84: 00 00:       stw (2rus)      r0, r0[0x0]
             0x00013c86: 00 00:       stw (2rus)      r0, r0[0x0]
             0x00013c88: 00 00:       stw (2rus)      r0, r0[0x0]
             0x00013c8a: 00 00:       stw (2rus)      r0, r0[0x0]
             0x00013c8c: 00 00:       stw (2rus)      r0, r0[0x0]
             0x00013c8e: 00 00:       stw (2rus)      r0, r0[0x0]
             0x00013c90: 00 00:       stw (2rus)      r0, r0[0x0]
             0x00013c92: 00 00:       stw (2rus)      r0, r0[0x0]
             0x00013c94: 00 00:       stw (2rus)      r0, r0[0x0]
             0x00013c96: 00 00:       stw (2rus)      r0, r0[0x0]
             0x00013c98: 00 00:       stw (2rus)      r0, r0[0x0]
             0x00013c9a: 00 00:       stw (2rus)      r0, r0[0x0]
             0x00013c9c: 00 00:       stw (2rus)      r0, r0[0x0]
             0x00013c9e: 00 00:       stw (2rus)      r0, r0[0x0]
             0x00013ca0: 00 00:       stw (2rus)      r0, r0[0x0]
             0x00013ca2: 00 00:       stw (2rus)      r0, r0[0x0]
             0x00013ca4: 00 00:       stw (2rus)      r0, r0[0x0]
             0x00013ca6: 00 00:       stw (2rus)      r0, r0[0x0]
             0x00013ca8: 00 00:       stw (2rus)      r0, r0[0x0]
             0x00013caa: 00 00:       stw (2rus)      r0, r0[0x0]
             0x00013cac: 00 00:       stw (2rus)      r0, r0[0x0]
             0x00013cae: 00 00:       stw (2rus)      r0, r0[0x0]
             0x00013cb0: 00 00:       stw (2rus)      r0, r0[0x0]
             0x00013cb2: 00 00:       stw (2rus)      r0, r0[0x0]
             0x00013cb4: 00 00:       stw (2rus)      r0, r0[0x0]
             0x00013cb6: 00 00:       stw (2rus)      r0, r0[0x0]
             0x00013cb8: 00 00:       stw (2rus)      r0, r0[0x0]
             0x00013cba: 00 00:       stw (2rus)      r0, r0[0x0]
             0x00013cbc: 00 00:       stw (2rus)      r0, r0[0x0]
             0x00013cbe: 00 00:       stw (2rus)      r0, r0[0x0]
             0x00013cc0: 00 00:       stw (2rus)      r0, r0[0x0]
             0x00013cc2: 00 00:       stw (2rus)      r0, r0[0x0]
             0x00013cc4: 00 00:       stw (2rus)      r0, r0[0x0]
             0x00013cc6: 00 00:       stw (2rus)      r0, r0[0x0]
             0x00013cc8: 00 00:       stw (2rus)      r0, r0[0x0]
             0x00013cca: 00 00:       stw (2rus)      r0, r0[0x0]
             0x00013ccc: 00 00:       stw (2rus)      r0, r0[0x0]
             0x00013cce: 00 00:       stw (2rus)      r0, r0[0x0]
             0x00013cd0: 00 00:       stw (2rus)      r0, r0[0x0]
             0x00013cd2: 00 00:       stw (2rus)      r0, r0[0x0]
             0x00013cd4: 00 00:       stw (2rus)      r0, r0[0x0]
             0x00013cd6: 00 00:       stw (2rus)      r0, r0[0x0]
             0x00013cd8: 00 00:       stw (2rus)      r0, r0[0x0]
             0x00013cda: 00 00:       stw (2rus)      r0, r0[0x0]
             0x00013cdc: 00 00:       stw (2rus)      r0, r0[0x0]

<Pid_In>:
             0x00013cde: 20 fd ee 97: inpw (l2rus)    r10, res[r0], 0x8
             0x00013ce2: aa ae:       shr (2rus)      r10, r10, 0x18
             0x00013ce4: 4d b7:       in (2r)         r11, res[r1]
             0x00013ce6: 09 f0 f7 7a: bf (lru6)       r11, 0x277 <Pid_Reserved> <Pid_Ack> <Pid_NYet> <Pid_Nyet> <Pid_Data2> <Pid_Split> <Pid_Nak> <Pid_Pre> <Pid_Stall> <Pid_MData> <Pid_Datam> <Pid_Data0> <Pid_Data1> <Pid_Bad> <InvalidToken>
             0x00013cea: f2 15:       add (3r)        r11, r4, r10
             0x00013cec: 97 4d:       ldw (3r)        r5, r5[r11]
             0x00013cee: 01 f0 4d 7d: bf (lru6)       r5, -0x4d <InNotReady>

<InReady>:
             0x00013cf2: 8d af:       out (r2r)       res[r5], r3
             0x00013cf4: ed b6:       in (2r)         r11, res[r5]
             0x00013cf6: f1 86:       inct (2r)       r8, res[r5]
             0x00013cf8: d9 bf:       testct (2r)     r6, res[r5]
             0x00013cfa: 02 f0 be 71: bt (lru6)       r6, 0xbe <SmallTxPacket>
             0x00013cfe: e8 2f:       bru (1r)        r8

<TxTail0>:
             0x00013d00: c9 b7:       in (2r)         r6, res[r5]
             0x00013d02: f1 be:       testct (2r)     r8, res[r5]

<XUD_IN_TxPid_Tail0>:
             0x00013d04: 38 fd ed 97: outpw (l2rus)   res[r2], r11, 0x8
             0x00013d08: b9 fd ec af: crc32 (l3r)     r7, r6, r9
             0x00013d0c: 0a af:       out (r2r)       res[r2], r6
             0x00013d0e: 06 72:       bt (ru6)        r8, 0x6 <TxLoop0End>

<TxLoop0>:
             0x00013d10: c9 b7:       in (2r)         r6, res[r5]
             0x00013d12: fd be:       testct (2r)     r11, res[r5]
             0x00013d14: b9 fd ec af: crc32 (l3r)     r7, r6, r9

<TxLoop0_Out>:
             0x00013d18: 0a af:       out (r2r)       res[r2], r6
             0x00013d1a: c6 7e:       bf (ru6)        r11, -0x6 <TxLoop0>

<TxLoop0End>:
             0x00013d1c: fd fc ec af: crc32 (l3r)     r7, r3, r9
             0x00013d20: cf 8f:       not (2r)        r7, r7

<XUD_IN_TxCrc_Tail0>:
             0x00013d22: f9 fc ed 97: outpw (l2rus)   res[r2], r7, 0x10
             0x00013d26: d9 87:       inct (2r)       r6, res[r5]
             0x00013d28: c9 b7:       in (2r)         r6, res[r5]
             0x00013d2a: 01 f0 26 73: bu (lu6)        0x66 <DoneTail>
             0x00013d2e: 00 90:       add (2rus)      r0, r0, 0x0
             0x00013d30: 00 90:       add (2rus)      r0, r0, 0x0
             0x00013d32: 00 90:       add (2rus)      r0, r0, 0x0
             0x00013d34: 00 90:       add (2rus)      r0, r0, 0x0
             0x00013d36: 00 90:       add (2rus)      r0, r0, 0x0
             0x00013d38: 00 90:       add (2rus)      r0, r0, 0x0
             0x00013d3a: 00 90:       add (2rus)      r0, r0, 0x0
             0x00013d3c: 00 90:       add (2rus)      r0, r0, 0x0
             0x00013d3e: 00 90:       add (2rus)      r0, r0, 0x0

<TxTail1>:
             0x00013d40: c9 b7:       in (2r)         r6, res[r5]
             0x00013d42: f1 be:       testct (2r)     r8, res[r5]

<XUD_IN_TxPid_Tail1>:
             0x00013d44: 38 fd ed 97: outpw (l2rus)   res[r2], r11, 0x8
             0x00013d48: b9 fd ec af: crc32 (l3r)     r7, r6, r9
             0x00013d4c: 0a af:       out (r2r)       res[r2], r6
             0x00013d4e: 06 72:       bt (ru6)        r8, 0x6 <TxLoop1End>

<TxLoop1>:
             0x00013d50: c9 b7:       in (2r)         r6, res[r5]
             0x00013d52: fd be:       testct (2r)     r11, res[r5]
             0x00013d54: b9 fd ec af: crc32 (l3r)     r7, r6, r9
             0x00013d58: 0a af:       out (r2r)       res[r2], r6
             0x00013d5a: c6 7e:       bf (ru6)        r11, -0x6 <TxLoop1>

<TxLoop1End>:
             0x00013d5c: d9 87:       inct (2r)       r6, res[r5]
             0x00013d5e: c9 b7:       in (2r)         r6, res[r5]
             0x00013d60: 89 fd e7 07: crc8 (l4r)      r7, r4, r6, r9
             0x00013d64: e8 fc ed 97: outpw (l2rus)   res[r2], r6, 0x8
             0x00013d68: fd fc ec af: crc32 (l3r)     r7, r3, r9
             0x00013d6c: cf 8f:       not (2r)        r7, r7

<XUD_IN_TxCrc_Tail1>:
             0x00013d6e: f9 fc ed 97: outpw (l2rus)   res[r2], r7, 0x10
             0x00013d72: 01 f0 02 73: bu (lu6)        0x42 <DoneTail>
             0x00013d76: 00 90:       add (2rus)      r0, r0, 0x0
             0x00013d78: 00 90:       add (2rus)      r0, r0, 0x0
             0x00013d7a: 00 90:       add (2rus)      r0, r0, 0x0
             0x00013d7c: 00 90:       add (2rus)      r0, r0, 0x0
             0x00013d7e: 00 90:       add (2rus)      r0, r0, 0x0

<TxTail2>:
             0x00013d80: c9 b7:       in (2r)         r6, res[r5]
             0x00013d82: f1 be:       testct (2r)     r8, res[r5]

<XUD_IN_TxPid_Tail2>:
             0x00013d84: 38 fd ed 97: outpw (l2rus)   res[r2], r11, 0x8
             0x00013d88: b9 fd ec af: crc32 (l3r)     r7, r6, r9
             0x00013d8c: 0a af:       out (r2r)       res[r2], r6
             0x00013d8e: 06 72:       bt (ru6)        r8, 0x6 <TxLoop2End>

<TxLoop2>:
             0x00013d90: c9 b7:       in (2r)         r6, res[r5]
             0x00013d92: fd be:       testct (2r)     r11, res[r5]
             0x00013d94: b9 fd ec af: crc32 (l3r)     r7, r6, r9
             0x00013d98: 0a af:       out (r2r)       res[r2], r6
             0x00013d9a: c6 7e:       bf (ru6)        r11, -0x6 <TxLoop2>

<TxLoop2End>:
             0x00013d9c: d9 87:       inct (2r)       r6, res[r5]
             0x00013d9e: c9 b7:       in (2r)         r6, res[r5]
             0x00013da0: e9 fc ed 97: outpw (l2rus)   res[r2], r6, 0x10
             0x00013da4: a9 fd e7 07: crc8 (l4r)      r7, r6, r6, r9
             0x00013da8: a9 fd e7 07: crc8 (l4r)      r7, r6, r6, r9
             0x00013dac: fd fc ec af: crc32 (l3r)     r7, r3, r9
             0x00013db0: cf 8f:       not (2r)        r7, r7

<XUD_IN_TxCrc_Tail2>:
             0x00013db2: f9 fc ed 97: outpw (l2rus)   res[r2], r7, 0x10
             0x00013db6: 21 73:       bu (u6)         0x21 <DoneTail>
             0x00013db8: 00 90:       add (2rus)      r0, r0, 0x0
             0x00013dba: 00 90:       add (2rus)      r0, r0, 0x0
             0x00013dbc: 00 90:       add (2rus)      r0, r0, 0x0
             0x00013dbe: 00 90:       add (2rus)      r0, r0, 0x0

<TxTail3>:
             0x00013dc0: c9 b7:       in (2r)         r6, res[r5]
             0x00013dc2: f1 be:       testct (2r)     r8, res[r5]

<XUD_IN_TxPid_Tail3>:
             0x00013dc4: 38 fd ed 97: outpw (l2rus)   res[r2], r11, 0x8
             0x00013dc8: b9 fd ec af: crc32 (l3r)     r7, r6, r9
             0x00013dcc: 0a af:       out (r2r)       res[r2], r6
             0x00013dce: 06 72:       bt (ru6)        r8, 0x6 <TxLoop3End>

<TxLoop3>:
             0x00013dd0: c9 b7:       in (2r)         r6, res[r5]
             0x00013dd2: fd be:       testct (2r)     r11, res[r5]
             0x00013dd4: b9 fd ec af: crc32 (l3r)     r7, r6, r9
             0x00013dd8: 0a af:       out (r2r)       res[r2], r6
             0x00013dda: c6 7e:       bf (ru6)        r11, -0x6 <TxLoop3>

<TxLoop3End>:
             0x00013ddc: d9 87:       inct (2r)       r6, res[r5]
             0x00013dde: c9 b7:       in (2r)         r6, res[r5]
             0x00013de0: ea fc ed 97: outpw (l2rus)   res[r2], r6, 0x18
             0x00013de4: a9 fd e7 07: crc8 (l4r)      r7, r6, r6, r9
             0x00013de8: a9 fd e7 07: crc8 (l4r)      r7, r6, r6, r9
             0x00013dec: a9 fd e7 07: crc8 (l4r)      r7, r6, r6, r9
             0x00013df0: fd fc ec af: crc32 (l3r)     r7, r3, r9
             0x00013df4: cf 8f:       not (2r)        r7, r7

<XUD_IN_TxCrc_Tail3>:
             0x00013df6: f9 fc ed 97: outpw (l2rus)   res[r2], r7, 0x10

<DoneTail>:
             0x00013dfa: f2 87:       syncr (1r)      res[r2]
             0x00013dfc: d6 5e:       ldw (ru6)       r11, sp[0x16]
             0x00013dfe: be 4e:       ldw (3r)        r11, r11[r10]
             0x00013e00: c3 72:       bt (ru6)        r11, 0x3 <InNonISO> <SetupReceiveHandShake>

<InISO>:
             0x00013e02: ed ae:       out (r2r)       res[r5], r11
             0x00013e04: 07 f0 1a 73: bu (lu6)        0x1da <Loop> <NextToken> <PreLoads>

<InNonISO>:
<SetupReceiveHandShake>:
             0x00013e08: c8 6a:       ldc (ru6)       r11, 0x8
             0x00013e0a: 4c c7:       setpsc (r2r)    res[r0], r11
             0x00013e0c: 11 d8:       ldap (u10)      r11, 0x11 <TxHandShakeReceived> <XUD_IN_RxAck>
             0x00013e0e: f0 47:       setv (1r)       res[r0], r11
             0x00013e10: f0 07:       eeu (1r)        res[r0]

<SetupTimeout>:
             0x00013e12: 4b 5c:       ldw (ru6)       r1, sp[0xb]
             0x00013e14: 4d b7:       in (2r)         r11, res[r1]
             0x00013e16: 4d 3f:       getts (2r)      r11, res[r1]
             0x00013e18: 39 f0 7c 5a: ldw (lru6)      r9, dp[0xe7c]
             0x00013e1c: bd 16:       add (3r)        r11, r11, r9
             0x00013e1e: 5d 3f:       setpt (r2r)     res[r1], r11
             0x00013e20: f1 07:       eeu (1r)        res[r1]

<WaitForHandshake>:
             0x00013e22: ec 07:       waiteu (0r)     

<TxHandshakeTimeOut>:
             0x00013e24: 4d b7:       in (2r)         r11, res[r1]
             0x00013e26: c1 6a:       ldc (ru6)       r11, 0x1
             0x00013e28: e1 07:       edu (1r)        res[r1]
             0x00013e2a: ed ae:       out (r2r)       res[r5], r11
             0x00013e2c: 07 f0 06 73: bu (lu6)        0x1c6 <Loop> <NextToken> <PreLoads>

<TxHandShakeReceived>:
<XUD_IN_RxAck>:
             0x00013e30: 4c b7:       in (2r)         r11, res[r0]
             0x00013e32: e1 87:       clrpt (1r)      res[r1]
             0x00013e34: be ae:       shr (2rus)      r11, r11, 0x18
             0x00013e36: 42 6a:       ldc (ru6)       r9, 0x2
             0x00013e38: 9d fe ec 0f: xor (l3r)       r9, r11, r9
             0x00013e3c: e1 07:       edu (1r)        res[r1]
             0x00013e3e: 46 72:       bt (ru6)        r9, 0x6 <BadHandShake>

<DoneTx>:
             0x00013e40: a1 d8:       ldap (u10)      r11, 0xa1 <NextRxWord>
             0x00013e42: f0 47:       setv (1r)       res[r0], r11
             0x00013e44: c0 6a:       ldc (ru6)       r11, 0x0
             0x00013e46: ed ae:       out (r2r)       res[r5], r11
             0x00013e48: 06 f0 38 73: bu (lu6)        0x1b8 <Loop> <NextToken> <PreLoads>

<BadHandShake>:
             0x00013e4c: c1 6a:       ldc (ru6)       r11, 0x1
             0x00013e4e: ed ae:       out (r2r)       res[r5], r11
             0x00013e50: 06 f0 34 73: bu (lu6)        0x1b4 <Loop> <NextToken> <PreLoads>
             0x00013e54: 00 90:       add (2rus)      r0, r0, 0x0
             0x00013e56: 00 90:       add (2rus)      r0, r0, 0x0
             0x00013e58: 00 90:       add (2rus)      r0, r0, 0x0
             0x00013e5a: 00 90:       add (2rus)      r0, r0, 0x0
             0x00013e5c: 00 90:       add (2rus)      r0, r0, 0x0
             0x00013e5e: 00 90:       add (2rus)      r0, r0, 0x0
             0x00013e60: 00 00:       stw (2rus)      r0, r0[0x0]
             0x00013e62: 00 00:       stw (2rus)      r0, r0[0x0]
             0x00013e64: 00 00:       stw (2rus)      r0, r0[0x0]
             0x00013e66: 00 00:       stw (2rus)      r0, r0[0x0]
             0x00013e68: 00 00:       stw (2rus)      r0, r0[0x0]
             0x00013e6a: 00 00:       stw (2rus)      r0, r0[0x0]
             0x00013e6c: 00 00:       stw (2rus)      r0, r0[0x0]
             0x00013e6e: 00 00:       stw (2rus)      r0, r0[0x0]
             0x00013e70: 00 00:       stw (2rus)      r0, r0[0x0]
             0x00013e72: 00 00:       stw (2rus)      r0, r0[0x0]
             0x00013e74: 00 00:       stw (2rus)      r0, r0[0x0]
             0x00013e76: 00 00:       stw (2rus)      r0, r0[0x0]
             0x00013e78: 00 00:       stw (2rus)      r0, r0[0x0]

<SmallTxPacket>:
             0x00013e7a: d9 87:       inct (2r)       r6, res[r5]
             0x00013e7c: c9 b7:       in (2r)         r6, res[r5]
             0x00013e7e: e8 2f:       bru (1r)        r8

<TxTail0s>:
<XUD_IN_TxPid_TailS0>:
             0x00013e80: 38 fd ed 97: outpw (l2rus)   res[r2], r11, 0x8
             0x00013e84: 00 6a:       ldc (ru6)       r8, 0x0

<XUD_IN_TxCrc_TailS0>:
             0x00013e86: 09 fd ed 97: outpw (l2rus)   res[r2], r8, 0x10
             0x00013e8a: 01 f0 0a 77: bu (lu6)        -0x4a <DoneTail>
             0x00013e8e: 00 90:       add (2rus)      r0, r0, 0x0
             0x00013e90: 00 90:       add (2rus)      r0, r0, 0x0
             0x00013e92: 00 90:       add (2rus)      r0, r0, 0x0
             0x00013e94: 00 90:       add (2rus)      r0, r0, 0x0
             0x00013e96: 00 90:       add (2rus)      r0, r0, 0x0
             0x00013e98: 00 90:       add (2rus)      r0, r0, 0x0
             0x00013e9a: 00 90:       add (2rus)      r0, r0, 0x0
             0x00013e9c: 00 90:       add (2rus)      r0, r0, 0x0
             0x00013e9e: 00 90:       add (2rus)      r0, r0, 0x0
             0x00013ea0: 00 90:       add (2rus)      r0, r0, 0x0
             0x00013ea2: 00 90:       add (2rus)      r0, r0, 0x0
             0x00013ea4: 00 90:       add (2rus)      r0, r0, 0x0
             0x00013ea6: 00 90:       add (2rus)      r0, r0, 0x0
             0x00013ea8: 00 90:       add (2rus)      r0, r0, 0x0
             0x00013eaa: 00 90:       add (2rus)      r0, r0, 0x0
             0x00013eac: 00 90:       add (2rus)      r0, r0, 0x0
             0x00013eae: 00 90:       add (2rus)      r0, r0, 0x0
             0x00013eb0: 00 90:       add (2rus)      r0, r0, 0x0
             0x00013eb2: 00 90:       add (2rus)      r0, r0, 0x0
             0x00013eb4: 00 90:       add (2rus)      r0, r0, 0x0
             0x00013eb6: 00 90:       add (2rus)      r0, r0, 0x0
             0x00013eb8: 00 90:       add (2rus)      r0, r0, 0x0
             0x00013eba: 00 90:       add (2rus)      r0, r0, 0x0
             0x00013ebc: 00 90:       add (2rus)      r0, r0, 0x0
             0x00013ebe: 00 90:       add (2rus)      r0, r0, 0x0

<TxTail1s>:
             0x00013ec0: 00 6a:       ldc (ru6)       r8, 0x0
             0x00013ec2: a8 a5:       shl (2rus)      r6, r6, 0x8
             0x00013ec4: 7e 44:       or (3r)         r11, r11, r6

<XUD_IN_TxPid_TailS1>:
             0x00013ec6: 39 fd ed 97: outpw (l2rus)   res[r2], r11, 0x10
             0x00013eca: a8 ad:       shr (2rus)      r6, r6, 0x8
             0x00013ecc: 89 fd e7 07: crc8 (l4r)      r7, r4, r6, r9
             0x00013ed0: 71 fe ec af: crc32 (l3r)     r7, r8, r9
             0x00013ed4: cf 8f:       not (2r)        r7, r7

<XUD_IN_TxCrc_TailS1>:
             0x00013ed6: f9 fc ed 97: outpw (l2rus)   res[r2], r7, 0x10
             0x00013eda: 01 f0 32 77: bu (lu6)        -0x72 <DoneTail>
             0x00013ede: 00 90:       add (2rus)      r0, r0, 0x0
             0x00013ee0: 00 90:       add (2rus)      r0, r0, 0x0
             0x00013ee2: 00 90:       add (2rus)      r0, r0, 0x0
             0x00013ee4: 00 90:       add (2rus)      r0, r0, 0x0
             0x00013ee6: 00 90:       add (2rus)      r0, r0, 0x0
             0x00013ee8: 00 90:       add (2rus)      r0, r0, 0x0
             0x00013eea: 00 90:       add (2rus)      r0, r0, 0x0
             0x00013eec: 00 90:       add (2rus)      r0, r0, 0x0
             0x00013eee: 00 90:       add (2rus)      r0, r0, 0x0
             0x00013ef0: 00 90:       add (2rus)      r0, r0, 0x0
             0x00013ef2: 00 90:       add (2rus)      r0, r0, 0x0
             0x00013ef4: 00 90:       add (2rus)      r0, r0, 0x0
             0x00013ef6: 00 90:       add (2rus)      r0, r0, 0x0
             0x00013ef8: 00 90:       add (2rus)      r0, r0, 0x0
             0x00013efa: 00 90:       add (2rus)      r0, r0, 0x0
             0x00013efc: 00 90:       add (2rus)      r0, r0, 0x0
             0x00013efe: 00 90:       add (2rus)      r0, r0, 0x0

<TxTail2s>:
             0x00013f00: 00 6a:       ldc (ru6)       r8, 0x0
             0x00013f02: a8 a5:       shl (2rus)      r6, r6, 0x8
             0x00013f04: 7e 44:       or (3r)         r11, r11, r6
             0x00013f06: a8 ad:       shr (2rus)      r6, r6, 0x8
             0x00013f08: a9 fd e7 07: crc8 (l4r)      r7, r6, r6, r9
             0x00013f0c: a9 fd e7 07: crc8 (l4r)      r7, r6, r6, r9
             0x00013f10: 71 fe ec af: crc32 (l3r)     r7, r8, r9
             0x00013f14: be 47:       zext (rus)      r11, 0x18
             0x00013f16: cf 8f:       not (2r)        r7, r7
             0x00013f18: ac ad:       shr (2rus)      r6, r7, 0x8
             0x00013f1a: be a5:       shl (2rus)      r7, r7, 0x18
             0x00013f1c: 7f 44:       or (3r)         r11, r11, r7

<XUD_IN_TxPid_TailS2>:
             0x00013f1e: 4e af:       out (r2r)       res[r2], r11

<XUD_IN_TxCrc_TailS2>:
             0x00013f20: e8 fc ed 97: outpw (l2rus)   res[r2], r6, 0x8
             0x00013f24: 02 f0 17 77: bu (lu6)        -0x97 <DoneTail>
             0x00013f28: 00 90:       add (2rus)      r0, r0, 0x0
             0x00013f2a: 00 90:       add (2rus)      r0, r0, 0x0
             0x00013f2c: 00 90:       add (2rus)      r0, r0, 0x0
             0x00013f2e: 00 90:       add (2rus)      r0, r0, 0x0
             0x00013f30: 00 90:       add (2rus)      r0, r0, 0x0
             0x00013f32: 00 90:       add (2rus)      r0, r0, 0x0
             0x00013f34: 00 90:       add (2rus)      r0, r0, 0x0
             0x00013f36: 00 90:       add (2rus)      r0, r0, 0x0
             0x00013f38: 00 90:       add (2rus)      r0, r0, 0x0
             0x00013f3a: 00 90:       add (2rus)      r0, r0, 0x0
             0x00013f3c: 00 90:       add (2rus)      r0, r0, 0x0
             0x00013f3e: 00 90:       add (2rus)      r0, r0, 0x0

<TxTail3s>:
<XUD_IN_TxPid_TailS3>:
             0x00013f40: 38 fd ed 97: outpw (l2rus)   res[r2], r11, 0x8
             0x00013f44: ea fc ed 97: outpw (l2rus)   res[r2], r6, 0x18
             0x00013f48: a9 fd e7 07: crc8 (l4r)      r7, r6, r6, r9
             0x00013f4c: a9 fd e7 07: crc8 (l4r)      r7, r6, r6, r9
             0x00013f50: a9 fd e7 07: crc8 (l4r)      r7, r6, r6, r9
             0x00013f54: 00 6a:       ldc (ru6)       r8, 0x0
             0x00013f56: 71 fe ec af: crc32 (l3r)     r7, r8, r9
             0x00013f5a: cf 8f:       not (2r)        r7, r7

<XUD_IN_TxCrc_TailS3>:
             0x00013f5c: f9 fc ed 97: outpw (l2rus)   res[r2], r7, 0x10
             0x00013f60: 02 f0 35 77: bu (lu6)        -0xb5 <DoneTail>
             0x00013f64: 00 90:       add (2rus)      r0, r0, 0x0
             0x00013f66: 00 90:       add (2rus)      r0, r0, 0x0
             0x00013f68: 00 90:       add (2rus)      r0, r0, 0x0
             0x00013f6a: 00 90:       add (2rus)      r0, r0, 0x0
             0x00013f6c: 00 90:       add (2rus)      r0, r0, 0x0
             0x00013f6e: 00 90:       add (2rus)      r0, r0, 0x0

<doRXData>:
             0x00013f70: c5 af:       out (r2r)       res[r5], r5
             0x00013f72: 00 fd ee 97: inpw (l2rus)    r8, res[r0], 0x8
             0x00013f76: 0c f0 00 52: stw (lru6)      r8, dp[0x300]
             0x00013f7a: f0 07:       eeu (1r)        res[r0]
             0x00013f7c: fa 07:       eeu (1r)        res[r10]
             0x00013f7e: cc f0 f4 69: ldc (lru6)      r7, 0x3334
             0x00013f82: ec 07:       waiteu (0r)     

<NextRxWord>:
             0x00013f84: 40 b7:       in (2r)         r8, res[r0]
             0x00013f86: e1 ae:       out (r2r)       res[r5], r8
             0x00013f88: 71 fe ec af: crc32 (l3r)     r7, r8, r9
             0x00013f8c: ec 07:       waiteu (0r)     
             0x00013f8e: 00 90:       add (2rus)      r0, r0, 0x0
             0x00013f90: 00 00:       stw (2rus)      r0, r0[0x0]
             0x00013f92: 00 00:       stw (2rus)      r0, r0[0x0]
             0x00013f94: 00 00:       stw (2rus)      r0, r0[0x0]
             0x00013f96: 00 00:       stw (2rus)      r0, r0[0x0]
             0x00013f98: 00 00:       stw (2rus)      r0, r0[0x0]

<RxALow>:
             0x00013f9a: 50 97:       endin (2r)      r8, res[r0]

<XUD_OUT_RxTail>:
             0x00013f9c: 08 b7:       in (2r)         r6, res[r0]
             0x00013f9e: e8 2f:       bru (1r)        r8

<OutTail0>:
             0x00013fa0: 71 fe ec af: crc32 (l3r)     r7, r8, r9
             0x00013fa4: c0 f1 c0 6a: ldc (lru6)      r11, 0x7000
             0x00013fa8: 2b 73:       bu (u6)         0x2b <CheckCrc16>
             0x00013faa: 00 90:       add (2rus)      r0, r0, 0x0
             0x00013fac: 00 90:       add (2rus)      r0, r0, 0x0
             0x00013fae: 00 90:       add (2rus)      r0, r0, 0x0

<OutTail1>:
             0x00013fb0: 02 f2 fe 6a: ldc (lru6)      r11, 0x80be
             0x00013fb4: aa ad:       shr (2rus)      r6, r6, 0x18
             0x00013fb6: b9 fd ec af: crc32 (l3r)     r7, r6, r9
             0x00013fba: 22 73:       bu (u6)         0x22 <CheckCrc16>
             0x00013fbc: 00 90:       add (2rus)      r0, r0, 0x0
             0x00013fbe: 00 90:       add (2rus)      r0, r0, 0x0

<OutTail2>:
             0x00013fc0: ff f0 fe 6a: ldc (lru6)      r11, 0x3ffe
             0x00013fc4: a9 ad:       shr (2rus)      r6, r6, 0x10
             0x00013fc6: b9 fd ec af: crc32 (l3r)     r7, r6, r9
             0x00013fca: 1a 73:       bu (u6)         0x1a <CheckCrc16>
             0x00013fcc: 00 90:       add (2rus)      r0, r0, 0x0
             0x00013fce: 00 90:       add (2rus)      r0, r0, 0x0

<OutTail3>:
             0x00013fd0: a8 ad:       shr (2rus)      r6, r6, 0x8
             0x00013fd2: b9 fd ec af: crc32 (l3r)     r7, r6, r9
             0x00013fd6: c0 6a:       ldc (ru6)       r11, 0x0
             0x00013fd8: 7d fe ec af: crc32 (l3r)     r7, r11, r9
             0x00013fdc: cc 5e:       ldw (ru6)       r11, sp[0xc]
             0x00013fde: 10 73:       bu (u6)         0x10 <CheckCrc16>

<OutTail4>:
             0x00013fe0: 10 f0 18 77: bu (lu6)        -0x418 <ERR_EndIn4>
             0x00013fe4: 00 90:       add (2rus)      r0, r0, 0x0
             0x00013fe6: 00 90:       add (2rus)      r0, r0, 0x0
             0x00013fe8: 00 90:       add (2rus)      r0, r0, 0x0
             0x00013fea: 00 90:       add (2rus)      r0, r0, 0x0
             0x00013fec: 00 90:       add (2rus)      r0, r0, 0x0
             0x00013fee: 00 90:       add (2rus)      r0, r0, 0x0

<OutTail5>:
             0x00013ff0: c8 90:       add (2rus)      r0, r6, 0x0
             0x00013ff2: 10 f0 1f 77: bu (lu6)        -0x41f <ERR_EndIn5>

<SendNak>:
             0x00013ff6: 01 f0 da 6a: ldc (lru6)      r11, 0x5a
             0x00013ffa: 38 fd ed 97: outpw (l2rus)   res[r2], r11, 0x8
             0x00013ffe: 01 73:       bu (u6)         0x1 <doRXDataReturn>

<CheckCrc16>:
             0x00014000: bf 35:       eq (3r)         r7, r7, r11

<doRXDataReturn>:
             0x00014002: aa b7:       in (2r)         r10, res[r10]
             0x00014004: c0 77:       retsp (u6)      0x0
             0x00014006: 00 90:       add (2rus)      r0, r0, 0x0

<Pid_Setup>:
             0x00014008: 20 fd ee 97: inpw (l2rus)    r10, res[r0], 0x8
             0x0001400c: 4d b7:       in (2r)         r11, res[r1]
             0x0001400e: aa ae:       shr (2rus)      r10, r10, 0x18
             0x00014010: 03 f0 e2 7a: bf (lru6)       r11, 0xe2 <Pid_Reserved> <Pid_Ack> <Pid_NYet> <Pid_Nyet> <Pid_Data2> <Pid_Split> <Pid_Nak> <Pid_Pre> <Pid_Stall> <Pid_MData> <Pid_Datam> <Pid_Data0> <Pid_Data1> <Pid_Bad> <InvalidToken>
             0x00014014: 96 4d:       ldw (3r)        r5, r5[r10]
             0x00014016: 55 79:       bf (ru6)        r5, 0x15 <SBuffFull>

<SetupReady>:
             0x00014018: 8a 5e:       ldw (ru6)       r10, sp[0xa]

<LoadSetupBuffer>:
             0x0001401a: 56 d4:       bl (u10)        -0x56 <doRXData>
             0x0001401c: da 79:       bf (ru6)        r7, 0x1a <BadDataCrcSetup>

<DoOutHandShake>:
             0x0001401e: 01 f0 da 69: ldc (lru6)      r7, 0x5a
             0x00014022: 38 f0 fc 62: ldaw (lru6)     r11, dp[0xe3c]
             0x00014026: 7e fe ec 07: stw (l3r)       r7, r11[r10]
             0x0001402a: 39 f0 cc 62: ldaw (lru6)     r11, dp[0xe4c]
             0x0001402e: 7e fe ec 07: stw (l3r)       r7, r11[r10]
             0x00014032: 15 4f:       outct (rus)     res[r5], 0x1
             0x00014034: ed b6:       in (2r)         r11, res[r5]
             0x00014036: 03 f0 d2 6a: ldc (lru6)      r11, 0xd2
             0x0001403a: 38 fd ed 97: outpw (l2rus)   res[r2], r11, 0x8

<StoreTailData>:
<BadDataCrcSetupResume>:
             0x0001403e: 02 f0 3d 73: bu (lu6)        0xbd <Loop> <NextToken> <PreLoads>

<SBuffFull>:
             0x00014042: 01 f0 4d d4: bl (lu10)       -0x44d <ERR_SetupBuffFull>
             0x00014046: 8a 5e:       ldw (ru6)       r10, sp[0xa]
             0x00014048: ae b7:       in (2r)         r11, res[r10]
             0x0001404a: 5c 97:       endin (2r)      r11, res[r0]
             0x0001404c: 4c b7:       in (2r)         r11, res[r0]
             0x0001404e: 02 f0 37 73: bu (lu6)        0xb7 <NextTokenAfterOut>

<BadDataCrcSetup>:
             0x00014052: 75 4f:       outct (rus)     res[r5], 0x9
             0x00014054: ed b6:       in (2r)         r11, res[r5]
             0x00014056: 0d 77:       bu (u6)         -0xd <StoreTailData> <BadDataCrcSetupResume>

<Pid_Sof>:
             0x00014058: 20 fd ee 97: inpw (l2rus)    r10, res[r0], 0x8
             0x0001405c: 4d b7:       in (2r)         r11, res[r1]
             0x0001405e: aa ae:       shr (2rus)      r10, r10, 0x18
             0x00014060: 02 f0 fa 7a: bf (lru6)       r11, 0xba <Pid_Reserved> <Pid_Ack> <Pid_NYet> <Pid_Nyet> <Pid_Data2> <Pid_Split> <Pid_Nak> <Pid_Pre> <Pid_Stall> <Pid_MData> <Pid_Datam> <Pid_Data0> <Pid_Data1> <Pid_Bad> <InvalidToken>
             0x00014064: 02 7b:       clrsr (u6)      0x2
             0x00014066: d9 5e:       ldw (ru6)       r11, sp[0x19]
             0x00014068: ab af:       out (r2r)       res[r11], r10

<noSofChannel>:
             0x0001406a: 8e 5e:       ldw (ru6)       r10, sp[0xe]
             0x0001406c: 81 ea:       setc (ru6)      res[r10], 0x1
             0x0001406e: 0d 5e:       ldw (ru6)       r8, sp[0xd]
             0x00014070: ae b7:       in (2r)         r11, res[r10]
             0x00014072: bc 16:       add (3r)        r11, r11, r8
             0x00014074: be 17:       setd (r2r)      res[r10], r11
             0x00014076: 89 ea:       setc (ru6)      res[r10], 0x9
             0x00014078: 42 7b:       setsr (u6)      0x2
             0x0001407a: 02 f0 26 73: bu (lu6)        0xa6 <Loop_BadPid> <XUD_TokenRx_Pid>
             0x0001407e: 00 90:       add (2rus)      r0, r0, 0x0

<Pid_Sof_NoChan>:
             0x00014080: 20 fd ee 97: inpw (l2rus)    r10, res[r0], 0x8
             0x00014084: 4d b7:       in (2r)         r11, res[r1]
             0x00014086: aa ae:       shr (2rus)      r10, r10, 0x18
             0x00014088: 02 f0 e6 7a: bf (lru6)       r11, 0xa6 <Pid_Reserved> <Pid_Ack> <Pid_NYet> <Pid_Nyet> <Pid_Data2> <Pid_Split> <Pid_Nak> <Pid_Pre> <Pid_Stall> <Pid_MData> <Pid_Datam> <Pid_Data0> <Pid_Data1> <Pid_Bad> <InvalidToken>
             0x0001408c: 8e 5e:       ldw (ru6)       r10, sp[0xe]
             0x0001408e: 02 7b:       clrsr (u6)      0x2
             0x00014090: 81 ea:       setc (ru6)      res[r10], 0x1
             0x00014092: 0d 5e:       ldw (ru6)       r8, sp[0xd]
             0x00014094: ae b7:       in (2r)         r11, res[r10]
             0x00014096: bc 16:       add (3r)        r11, r11, r8
             0x00014098: be 17:       setd (r2r)      res[r10], r11
             0x0001409a: 0d 5e:       ldw (ru6)       r8, sp[0xd]
             0x0001409c: 89 ea:       setc (ru6)      res[r10], 0x9
             0x0001409e: 42 7b:       setsr (u6)      0x2
             0x000140a0: 02 f0 13 73: bu (lu6)        0x93 <Loop_BadPid> <XUD_TokenRx_Pid>

<UsbTestModeHandler_asm>:
             0x000140a4: 18 7b:       clrsr (u6)      0x18
             0x000140a6: 02 7b:       clrsr (u6)      0x2
             0x000140a8: ed 07:       clre (0r)       
             0x000140aa: fe 0f:       get (0r)        r11, ed
             0x000140ac: 5d cf:       chkct (rus)     res[r11], 0x1
             0x000140ae: 5d 4f:       outct (rus)     res[r11], 0x1
             0x000140b0: 23 b7:       in (2r)         r0, res[r11]
             0x000140b2: 5d cf:       chkct (rus)     res[r11], 0x1
             0x000140b4: 5d 4f:       outct (rus)     res[r11], 0x1
             0x000140b6: c0 77:       retsp (u6)      0x0

<XUD_UsbTestSE0>:
             0x000140b8: ed 07:       clre (0r)       
             0x000140ba: c0 68:       ldc (ru6)       r3, 0x0
             0x000140bc: 57 5d:       ldw (ru6)       r5, sp[0x17]
             0x000140be: 17 e8:       setc (ru6)      res[r0], 0x17
             0x000140c0: 80 f2 41 6a: ldc (lru6)      r9, 0xa001
             0x000140c4: 0c f0 81 61: ldaw (lru6)     r6, dp[0x301]
             0x000140c8: 30 fd ee 97: inpw (l2rus)    r11, res[r0], 0x8
             0x000140cc: be ae:       shr (2rus)      r11, r11, 0x18
             0x000140ce: ab 36:       eq (3r)         r10, r10, r11
             0x000140d0: 8d 7e:       bf (ru6)        r10, -0xd <XUD_UsbTestSE0>
             0x000140d2: 4b 5c:       ldw (ru6)       r1, sp[0xb]
             0x000140d4: 20 fd ee 97: inpw (l2rus)    r10, res[r0], 0x8
             0x000140d8: c5 b6:       in (2r)         r1, res[r1]
             0x000140da: aa ae:       shr (2rus)      r10, r10, 0x18
             0x000140dc: 40 78:       bf (ru6)        r1, 0x0 <InvalidTestToken>

<InvalidTestToken>:
             0x000140de: 4a 5c:       ldw (ru6)       r1, sp[0xa]

<waitforRXALow_test>:
             0x000140e0: 49 b7:       in (2r)         r10, res[r1]
             0x000140e2: 82 76:       bt (ru6)        r10, -0x2 <waitforRXALow_test>
             0x000140e4: 17 77:       bu (u6)         -0x17 <XUD_UsbTestSE0>
             0x000140e6: 00 90:       add (2rus)      r0, r0, 0x0
             0x000140e8: 01 f0 da 6a: ldc (lru6)      r11, 0x5a
             0x000140ec: 38 fd ed 97: outpw (l2rus)   res[r2], r11, 0x8
             0x000140f0: f2 87:       syncr (1r)      res[r2]
             0x000140f2: 00 90:       add (2rus)      r0, r0, 0x0
             0x000140f4: 00 90:       add (2rus)      r0, r0, 0x0
             0x000140f6: 20 77:       bu (u6)         -0x20 <XUD_UsbTestSE0>

<ResetIntHandler>:
             0x000140f8: 18 7b:       clrsr (u6)      0x18
             0x000140fa: 02 7b:       clrsr (u6)      0x2
             0x000140fc: fe 0f:       get (0r)        r11, ed
             0x000140fe: c2 ea:       setc (ru6)      res[r11], 0x2
             0x00014100: ed 07:       clre (0r)       
             0x00014102: 3a f0 81 5a: ldw (lru6)      r10, dp[0xe81]
             0x00014106: fa 2f:       set (1r)        sp, r10

<ResetDetect>:
             0x00014108: 00 68:       ldc (ru6)       r0, 0x0
             0x0001410a: 01 73:       bu (u6)         0x1 <writesuspendvar>

<SuspendDetect>:
             0x0001410c: 01 68:       ldc (ru6)       r0, 0x1

<writesuspendvar>:
             0x0001410e: 01 f0 29 73: bu (lu6)        0x69 <Return>
             0x00014112: 00 90:       add (2rus)      r0, r0, 0x0

<XUD_LLD_IoLoop>:
<utmi_io>:
             0x00014114: 50 77:       entsp (u6)      0x10
             0x00014116: 01 55:       stw (ru6)       r4, sp[0x1]

<SaveStackPointer>:
             0x00014118: c0 66:       ldaw (ru6)      r11, sp[0x0]
             0x0001411a: 42 55:       stw (ru6)       r5, sp[0x2]
             0x0001411c: 83 55:       stw (ru6)       r6, sp[0x3]
             0x0001411e: c4 55:       stw (ru6)       r7, sp[0x4]
             0x00014120: 05 56:       stw (ru6)       r8, sp[0x5]
             0x00014122: 46 56:       stw (ru6)       r9, sp[0x6]
             0x00014124: 87 56:       stw (ru6)       r10, sp[0x7]
             0x00014126: 3a f0 c1 52: stw (lru6)      r11, dp[0xe81]
             0x0001412a: 00 f0 e8 6e: ldw (lru6)      r11, cp[0x28]
             0x0001412e: cd 56:       stw (ru6)       r11, sp[0xd]

<ConfigRxDEventVector>:
             0x00014130: 02 e8:       setc (ru6)      res[r0], 0x2
             0x00014132: d8 dc:       ldap (u10)      r11, -0xd8 <NextRxWord>
             0x00014134: f0 47:       setv (1r)       res[r0], r11
             0x00014136: c0 6a:       ldc (ru6)       r11, 0x0

<ConfigRxErrEventVector>:
<ConfigRxA>:
             0x00014138: 51 e8:       setc (ru6)      res[r1], 0x11
             0x0001413a: 5d 17:       setd (r2r)      res[r1], r11
             0x0001413c: d2 dc:       ldap (u10)      r11, -0xd2 <RxALow>
             0x0001413e: f1 47:       setv (1r)       res[r1], r11
             0x00014140: f1 07:       eeu (1r)        res[r1]

<ConfigValidToken>:
             0x00014142: 10 f0 ba 5a: ldw (lru6)      r10, dp[0x43a]
             0x00014146: 81 ea:       setc (ru6)      res[r10], 0x1
             0x00014148: 93 dd:       ldap (u10)      r11, -0x193 <TxHandshakeTimeOut>
             0x0001414a: fa 47:       setv (1r)       res[r10], r11

<TxHandShakeTimer>:
             0x0001414c: 49 87:       getr (rus)      r10, 0x1
             0x0001414e: ea 4f:       ecallf (1r)     r10
             0x00014150: 97 dd:       ldap (u10)      r11, -0x197 <TxHandshakeTimeOut>
             0x00014152: fa 47:       setv (1r)       res[r10], r11
             0x00014154: 89 ea:       setc (ru6)      res[r10], 0x9
             0x00014156: 88 56:       stw (ru6)       r10, sp[0x8]

<SetupOutTimer>:
             0x00014158: 49 87:       getr (rus)      r10, 0x1
             0x0001415a: ea 4f:       ecallf (1r)     r10
             0x0001415c: 9a de:       ldap (u10)      r11, -0x29a <OutDataTimeOut>
             0x0001415e: fa 47:       setv (1r)       res[r10], r11
             0x00014160: 89 ea:       setc (ru6)      res[r10], 0x9
             0x00014162: 89 56:       stw (ru6)       r10, sp[0x9]

<SetupUsbTestMode>:
             0x00014164: 9a 5e:       ldw (ru6)       r10, sp[0x1a]
             0x00014166: 85 7a:       bf (ru6)        r10, 0x5 <PortsOnStack>
             0x00014168: 00 f0 58 db: ldap (lu10)     r11, 0x358 <XUD_UsbTestModeHandler>
             0x0001416c: 8a ea:       setc (ru6)      res[r10], 0xa
             0x0001416e: fa 47:       setv (1r)       res[r10], r11
             0x00014170: fa 07:       eeu (1r)        res[r10]

<PortsOnStack>:
             0x00014172: 10 f0 fb 5a: ldw (lru6)      r11, dp[0x43b]
             0x00014176: ca 56:       stw (ru6)       r11, sp[0xa]
             0x00014178: 10 f0 fa 5a: ldw (lru6)      r11, dp[0x43a]
             0x0001417c: cb 56:       stw (ru6)       r11, sp[0xb]
             0x0001417e: 01 f0 f0 6a: ldc (lru6)      r11, 0x70
             0x00014182: cc 56:       stw (ru6)       r11, sp[0xc]
             0x00014184: d7 5e:       ldw (ru6)       r11, sp[0x17]
             0x00014186: 38 f0 fb 52: stw (lru6)      r11, dp[0xe3b]

<ConfigSofJump>:
             0x0001418a: d9 5e:       ldw (ru6)       r11, sp[0x19]
             0x0001418c: c4 72:       bt (ru6)        r11, 0x4 <ConfigSofJump_Done> <SetupSuspendResetTimer>
             0x0001418e: 88 dc:       ldap (u10)      r11, -0x88 <Pid_Sof_NoChan>
             0x00014190: 0c f0 8a 62: ldaw (lru6)     r10, dp[0x30a]
             0x00014194: 79 04:       stw (2rus)      r11, r10[0x5]

<ConfigSofJump_Done>:
<SetupSuspendResetTimer>:
             0x00014196: 49 87:       getr (rus)      r10, 0x1
             0x00014198: ea 4f:       ecallf (1r)     r10
             0x0001419a: 8e 56:       stw (ru6)       r10, sp[0xe]
             0x0001419c: 53 dc:       ldap (u10)      r11, -0x53 <ResetIntHandler>
             0x0001419e: fa 47:       setv (1r)       res[r10], r11
             0x000141a0: 81 ea:       setc (ru6)      res[r10], 0x1
             0x000141a2: c0 68:       ldc (ru6)       r3, 0x0
             0x000141a4: ae b7:       in (2r)         r11, res[r10]
             0x000141a6: 00 f0 68 6e: ldw (lru6)      r9, cp[0x28]
             0x000141aa: bd 16:       add (3r)        r11, r11, r9
             0x000141ac: be 17:       setd (r2r)      res[r10], r11
             0x000141ae: 89 ea:       setc (ru6)      res[r10], 0x9
             0x000141b0: 8a ea:       setc (ru6)      res[r10], 0xa
             0x000141b2: fa 07:       eeu (1r)        res[r10]
             0x000141b4: 42 7b:       setsr (u6)      0x2
             0x000141b6: 17 e8:       setc (ru6)      res[r0], 0x17
             0x000141b8: 4b 5c:       ldw (ru6)       r1, sp[0xb]
             0x000141ba: 00 73:       bu (u6)         0x0 <Loop> <NextToken> <PreLoads>

<Loop>:
<NextToken>:
<PreLoads>:
             0x000141bc: 80 f2 41 6a: ldc (lru6)      r9, 0xa001

<NextTokenAfterOut>:
             0x000141c0: cc f3 f5 69: ldc (lru6)      r7, 0xf335

<NextTokenAfterIn>:
             0x000141c4: 57 5d:       ldw (ru6)       r5, sp[0x17]
             0x000141c6: 18 5d:       ldw (ru6)       r4, sp[0x18]
             0x000141c8: ed 07:       clre (0r)       

<Loop_BadPid>:
<XUD_TokenRx_Pid>:
             0x000141ca: 30 fd ee 97: inpw (l2rus)    r11, res[r0], 0x8
             0x000141ce: be ae:       shr (2rus)      r11, r11, 0x18
             0x000141d0: 0c f0 8a 62: ldaw (lru6)     r10, dp[0x30a]
             0x000141d4: ab 4e:       ldw (3r)        r10, r10[r11]

<BranchOnTokenPid>:
             0x000141d6: fa 27:       bau (1r)        r10

<Pid_Reserved>:
<Pid_Ack>:
<Pid_NYet>:
<Pid_Nyet>:
<Pid_Data2>:
<Pid_Split>:
<Pid_Nak>:
<Pid_Pre>:
<Pid_Stall>:
<Pid_MData>:
<Pid_Datam>:
<Pid_Data0>:
<Pid_Data1>:
<Pid_Bad>:
<InvalidToken>:
             0x000141d8: 8a 5e:       ldw (ru6)       r10, sp[0xa]

<waitforRXALow>:
             0x000141da: ae b7:       in (2r)         r11, res[r10]
             0x000141dc: c2 76:       bt (ru6)        r11, -0x2 <waitforRXALow>
             0x000141de: 17 e8:       setc (ru6)      res[r0], 0x17
             0x000141e0: 0c 77:       bu (u6)         -0xc <Loop_BadPid> <XUD_TokenRx_Pid>
             0x000141e2: 00 90:       add (2rus)      r0, r0, 0x0

<Return>:
             0x000141e4: c8 5e:       ldw (ru6)       r11, sp[0x8]
             0x000141e6: eb 17:       freer (1r)      res[r11]
             0x000141e8: c9 5e:       ldw (ru6)       r11, sp[0x9]
             0x000141ea: eb 17:       freer (1r)      res[r11]
             0x000141ec: ce 5e:       ldw (ru6)       r11, sp[0xe]
             0x000141ee: eb 17:       freer (1r)      res[r11]
             0x000141f0: 01 5d:       ldw (ru6)       r4, sp[0x1]
             0x000141f2: 42 5d:       ldw (ru6)       r5, sp[0x2]
             0x000141f4: 83 5d:       ldw (ru6)       r6, sp[0x3]
             0x000141f6: c4 5d:       ldw (ru6)       r7, sp[0x4]
             0x000141f8: 05 5e:       ldw (ru6)       r8, sp[0x5]
             0x000141fa: 46 5e:       ldw (ru6)       r9, sp[0x6]
             0x000141fc: 87 5e:       ldw (ru6)       r10, sp[0x7]
             0x000141fe: d0 77:       retsp (u6)      0x10

<SetupChannelVectorsOverride>:
             0x00014200: c0 77:       retsp (u6)      0x0
             0x00014202: 00 00:       stw (2rus)      r0, r0[0x0]

<XUD_DeviceAttachHS>:
             0x00014204: 49 77:       entsp (u6)      0x9
             0x00014206: d1 a6:       mkmsk (rus)     r0, 0x1
             0x00014208: 01 55:       stw (ru6)       r4, sp[0x1]
             0x0001420a: d6 a6:       mkmsk (rus)     r1, 0x2
             0x0001420c: 42 55:       stw (ru6)       r5, sp[0x2]
             0x0001420e: 15 a7:       mkmsk (rus)     r5, 0x1
             0x00014210: 83 55:       stw (ru6)       r6, sp[0x3]
             0x00014212: c4 55:       stw (ru6)       r7, sp[0x4]
             0x00014214: 05 56:       stw (ru6)       r8, sp[0x5]
             0x00014216: 46 56:       stw (ru6)       r9, sp[0x6]
             0x00014218: 87 56:       stw (ru6)       r10, sp[0x7]
             0x0001421a: 09 87:       getr (rus)      r6, 0x1
             0x0001421c: c0 69:       ldc (ru6)       r7, 0x0
             0x0001421e: 08 54:       stw (ru6)       r0, sp[0x8]
             0x00014220: 80 6a:       ldc (ru6)       r10, 0x0
             0x00014222: 10 f0 bd 58: ldw (lru6)      r2, dp[0x43d]
             0x00014226: 97 e8:       setc (ru6)      res[r2], 0x17
             0x00014228: 95 68:       ldc (ru6)       r2, 0x15
             0x0001422a: 10 f0 38 58: ldw (lru6)      r0, dp[0x438]
             0x0001422e: 17 e8:       setc (ru6)      res[r0], 0x17
             0x00014230: 00 f0 d2 d1: bl (lu10)       0x1d2 <XUD_UIFM_RegWrite>
             0x00014234: 32 68:       ldc (ru6)       r0, 0x32
             0x00014236: 00 f0 a1 d1: bl (lu10)       0x1a1 <XUD_Sup_Delay>
             0x0001423a: 10 f0 bd 58: ldw (lru6)      r2, dp[0x43d]
             0x0001423e: c0 68:       ldc (ru6)       r3, 0x0
             0x00014240: 86 f1 68 68: ldc (lru6)      r1, 0x61a8
.label502    0x00014244: 3d 90:       add (2rus)      r3, r3, 0x1
             0x00014246: 00 68:       ldc (ru6)       r0, 0x0
             0x00014248: c2 ae:       out (r2r)       res[r2], r0
             0x0001424a: 0d c0:       lss (3r)        r0, r3, r1
             0x0001424c: 05 74:       bt (ru6)        r0, -0x5 <.label502>
             0x0001424e: 97 e8:       setc (ru6)      res[r2], 0x17
             0x00014250: 06 69:       ldc (ru6)       r4, 0x6
.label519    0x00014252: 08 68:       ldc (ru6)       r0, 0x8
             0x00014254: 82 cc:       lsu (3r)        r0, r0, r10
             0x00014256: 16 70:       bt (ru6)        r0, 0x16 <.label503>
             0x00014258: ea 2f:       bru (1r)        r10
             0x0001425a: 29 73:       bu (u6)         0x29 <.label504>
             0x0001425c: 2d 73:       bu (u6)         0x2d <.label505>
             0x0001425e: 06 73:       bu (u6)         0x6 <.label506>
             0x00014260: 07 73:       bu (u6)         0x7 <.label507>
             0x00014262: 08 73:       bu (u6)         0x8 <.label508>
             0x00014264: 09 73:       bu (u6)         0x9 <.label509>
             0x00014266: 0a 73:       bu (u6)         0xa <.label510>
             0x00014268: 37 73:       bu (u6)         0x37 <.label511>
             0x0001426a: 0a 73:       bu (u6)         0xa <.label512>
.label506    0x0001426c: 01 f0 05 73: bu (lu6)        0x45 <.label513>
.label507    0x00014270: 01 f0 14 73: bu (lu6)        0x54 <.label514>
.label508    0x00014274: 01 f0 37 73: bu (lu6)        0x77 <.label515>
.label509    0x00014278: 02 f0 0b 73: bu (lu6)        0x8b <.label516>
.label510    0x0001427c: 02 f0 04 73: bu (lu6)        0x84 <.label517>
.label512    0x00014280: 01 f0 1e 73: bu (lu6)        0x5e <.label518>
.label503    0x00014284: 24 92:       add (2rus)      r10, r9, 0x0
             0x00014286: 5b 75:       bt (ru6)        r5, -0x1b <.label519>
             0x00014288: 08 5c:       ldw (ru6)       r0, sp[0x8]
             0x0001428a: 02 f0 05 70: bt (lru6)       r0, 0x85 <.label520>
.label531    0x0001428e: 10 f0 3c 58: ldw (lru6)      r0, dp[0x43c]
             0x00014292: 40 68:       ldc (ru6)       r1, 0x0
             0x00014294: d4 16:       setd (r2r)      res[r0], r1
             0x00014296: 11 e8:       setc (ru6)      res[r0], 0x11
             0x00014298: c0 b6:       in (2r)         r0, res[r0]
             0x0001429a: 08 5c:       ldw (ru6)       r0, sp[0x8]
             0x0001429c: e6 17:       freer (1r)      res[r6]
             0x0001429e: 01 5d:       ldw (ru6)       r4, sp[0x1]
             0x000142a0: 42 5d:       ldw (ru6)       r5, sp[0x2]
             0x000142a2: 83 5d:       ldw (ru6)       r6, sp[0x3]
             0x000142a4: c4 5d:       ldw (ru6)       r7, sp[0x4]
             0x000142a6: 05 5e:       ldw (ru6)       r8, sp[0x5]
             0x000142a8: 46 5e:       ldw (ru6)       r9, sp[0x6]
             0x000142aa: 87 5e:       ldw (ru6)       r10, sp[0x7]
             0x000142ac: c9 77:       retsp (u6)      0x9
.label504    0x000142ae: 81 e9:       setc (ru6)      res[r6], 0x1
             0x000142b0: e2 b6:       in (2r)         r8, res[r6]
             0x000142b2: c0 69:       ldc (ru6)       r7, 0x0
             0x000142b4: 55 a7:       mkmsk (rus)     r9, 0x1
             0x000142b6: 1a 77:       bu (u6)         -0x1a <.label503>
.label505    0x000142b8: 81 e9:       setc (ru6)      res[r6], 0x1
             0x000142ba: 82 b7:       in (2r)         r0, res[r6]
             0x000142bc: 90 1c:       sub (3r)        r1, r0, r8
             0x000142be: 00 f0 2a 6c: ldw (lru6)      r0, cp[0x2a]
             0x000142c2: 01 c8:       lsu (3r)        r0, r0, r1
             0x000142c4: 07 70:       bt (ru6)        r0, 0x7 <.label521>
.label522    0x000142c6: 10 f0 3b 58: ldw (lru6)      r0, dp[0x43b]
             0x000142ca: 01 e8:       setc (ru6)      res[r0], 0x1
             0x000142cc: c0 b6:       in (2r)         r0, res[r0]
             0x000142ce: 26 7c:       bf (ru6)        r0, -0x26 <.label503>
             0x000142d0: 57 a7:       mkmsk (rus)     r9, 0x3
             0x000142d2: 28 77:       bu (u6)         -0x28 <.label503>
.label521    0x000142d4: 50 91:       add (2rus)      r9, r4, 0x0
             0x000142d6: 09 77:       bu (u6)         -0x9 <.label522>
.label511    0x000142d8: 3e f0 20 68: ldc (lru6)      r0, 0xfa0
             0x000142dc: 00 f0 4e d1: bl (lu10)       0x14e <XUD_Sup_Delay>
             0x000142e0: 10 f0 3b 58: ldw (lru6)      r0, dp[0x43b]
             0x000142e4: 01 e8:       setc (ru6)      res[r0], 0x1
             0x000142e6: c0 b6:       in (2r)         r0, res[r0]
             0x000142e8: 02 70:       bt (ru6)        r0, 0x2 <.label523>
             0x000142ea: 55 a7:       mkmsk (rus)     r9, 0x1
             0x000142ec: 35 77:       bu (u6)         -0x35 <.label503>
.label523    0x000142ee: 3e f0 20 68: ldc (lru6)      r0, 0xfa0
             0x000142f2: 00 f0 43 d1: bl (lu10)       0x143 <XUD_Sup_Delay>
             0x000142f6: 42 6a:       ldc (ru6)       r9, 0x2
             0x000142f8: 3b 77:       bu (u6)         -0x3b <.label503>
.label513    0x000142fa: 10 f0 3c 58: ldw (lru6)      r0, dp[0x43c]
             0x000142fe: 01 e8:       setc (ru6)      res[r0], 0x1
             0x00014300: c0 b6:       in (2r)         r0, res[r0]
             0x00014302: 06 70:       bt (ru6)        r0, 0x6 <.label524>
             0x00014304: 3d 91:       add (2rus)      r7, r7, 0x1
             0x00014306: 0c 33:       eq (3r)         r0, r7, r4
             0x00014308: 06 70:       bt (ru6)        r0, 0x6 <.label525>
             0x0001430a: 56 a7:       mkmsk (rus)     r9, 0x2
             0x0001430c: 01 f0 06 77: bu (lu6)        -0x46 <.label503>
.label524    0x00014310: 50 91:       add (2rus)      r9, r4, 0x0
             0x00014312: 01 f0 09 77: bu (lu6)        -0x49 <.label503>
.label525    0x00014316: 45 6a:       ldc (ru6)       r9, 0x5
             0x00014318: 01 f0 0c 77: bu (lu6)        -0x4c <.label503>
.label514    0x0001431c: 81 e9:       setc (ru6)      res[r6], 0x1
             0x0001431e: 82 b7:       in (2r)         r0, res[r6]
             0x00014320: 90 1c:       sub (3r)        r1, r0, r8
             0x00014322: 00 f0 2a 6c: ldw (lru6)      r0, cp[0x2a]
             0x00014326: 01 c8:       lsu (3r)        r0, r0, r1
             0x00014328: 09 70:       bt (ru6)        r0, 0x9 <.label526>
.label527    0x0001432a: 10 f0 3a 58: ldw (lru6)      r0, dp[0x43a]
             0x0001432e: 01 e8:       setc (ru6)      res[r0], 0x1
             0x00014330: c0 b6:       in (2r)         r0, res[r0]
             0x00014332: 01 f0 19 7c: bf (lru6)       r0, -0x59 <.label503>
             0x00014336: 48 6a:       ldc (ru6)       r9, 0x8
             0x00014338: 01 f0 1c 77: bu (lu6)        -0x5c <.label503>
.label526    0x0001433c: 50 91:       add (2rus)      r9, r4, 0x0
             0x0001433e: 0b 77:       bu (u6)         -0xb <.label527>
.label518    0x00014340: 3e f0 20 68: ldc (lru6)      r0, 0xfa0
             0x00014344: 00 f0 1a d1: bl (lu10)       0x11a <XUD_Sup_Delay>
             0x00014348: 10 f0 3a 58: ldw (lru6)      r0, dp[0x43a]
             0x0001434c: 01 e8:       setc (ru6)      res[r0], 0x1
             0x0001434e: c0 b6:       in (2r)         r0, res[r0]
             0x00014350: 03 70:       bt (ru6)        r0, 0x3 <.label528>
             0x00014352: 56 a7:       mkmsk (rus)     r9, 0x2
             0x00014354: 01 f0 2a 77: bu (lu6)        -0x6a <.label503>
.label528    0x00014358: 3e f0 20 68: ldc (lru6)      r0, 0xfa0
             0x0001435c: 00 f0 0e d1: bl (lu10)       0x10e <XUD_Sup_Delay>
             0x00014360: 44 6a:       ldc (ru6)       r9, 0x4
             0x00014362: 01 f0 31 77: bu (lu6)        -0x71 <.label503>
.label515    0x00014366: 10 f0 3c 58: ldw (lru6)      r0, dp[0x43c]
             0x0001436a: 01 e8:       setc (ru6)      res[r0], 0x1
             0x0001436c: c0 b6:       in (2r)         r0, res[r0]
             0x0001436e: 06 70:       bt (ru6)        r0, 0x6 <.label529>
             0x00014370: 3d 91:       add (2rus)      r7, r7, 0x1
             0x00014372: 0c 33:       eq (3r)         r0, r7, r4
             0x00014374: 06 70:       bt (ru6)        r0, 0x6 <.label530>
             0x00014376: 55 a7:       mkmsk (rus)     r9, 0x1
             0x00014378: 01 f0 3c 77: bu (lu6)        -0x7c <.label503>
.label529    0x0001437c: 50 91:       add (2rus)      r9, r4, 0x0
             0x0001437e: 01 f0 3f 77: bu (lu6)        -0x7f <.label503>
.label530    0x00014382: 45 6a:       ldc (ru6)       r9, 0x5
             0x00014384: 02 f0 02 77: bu (lu6)        -0x82 <.label503>
.label517    0x00014388: 00 68:       ldc (ru6)       r0, 0x0
             0x0001438a: 08 54:       stw (ru6)       r0, sp[0x8]
             0x0001438c: 40 69:       ldc (ru6)       r5, 0x0
             0x0001438e: 02 f0 07 77: bu (lu6)        -0x87 <.label503>
.label516    0x00014392: 40 69:       ldc (ru6)       r5, 0x0
             0x00014394: 02 f0 0a 77: bu (lu6)        -0x8a <.label503>
.label520    0x00014398: d9 a6:       mkmsk (rus)     r2, 0x1
             0x0001439a: 10 f0 38 58: ldw (lru6)      r0, dp[0x438]
             0x0001439e: d6 a6:       mkmsk (rus)     r1, 0x2
             0x000143a0: 00 f0 1a d1: bl (lu10)       0x11a <XUD_UIFM_RegWrite>
             0x000143a4: d5 a6:       mkmsk (rus)     r1, 0x1
             0x000143a6: 10 f0 3c 58: ldw (lru6)      r0, dp[0x43c]
             0x000143aa: d4 16:       setd (r2r)      res[r0], r1
             0x000143ac: 11 e8:       setc (ru6)      res[r0], 0x11
             0x000143ae: c0 b6:       in (2r)         r0, res[r0]
             0x000143b0: 02 f0 13 77: bu (lu6)        -0x93 <.label531>

<XUD_PhyReset>:
             0x000143b4: 43 77:       entsp (u6)      0x3
             0x000143b6: 01 55:       stw (ru6)       r4, sp[0x1]
             0x000143b8: 42 55:       stw (ru6)       r5, sp[0x2]
             0x000143ba: 48 90:       add (2rus)      r4, r2, 0x0
             0x000143bc: 50 90:       add (2rus)      r5, r0, 0x0
             0x000143be: 10 f0 be 58: ldw (lru6)      r2, dp[0x43e]
             0x000143c2: 97 e8:       setc (ru6)      res[r2], 0x17
             0x000143c4: 00 68:       ldc (ru6)       r0, 0x0
             0x000143c6: c2 ae:       out (r2r)       res[r2], r0
             0x000143c8: 97 e8:       setc (ru6)      res[r2], 0x17
             0x000143ca: 89 bf:       peek (2r)       r2, res[r5]
             0x000143cc: 80 8f:       not (2r)        r0, r4
             0x000143ce: 08 38:       and (3r)        r0, r2, r0
             0x000143d0: 81 af:       out (r2r)       res[r5], r0
             0x000143d2: 04 90:       add (2rus)      r0, r1, 0x0
             0x000143d4: 00 f0 d2 d0: bl (lu10)       0xd2 <XUD_Sup_Delay>
             0x000143d8: 81 bf:       peek (2r)       r0, res[r5]
             0x000143da: 40 42:       or (3r)         r0, r0, r4
             0x000143dc: 81 af:       out (r2r)       res[r5], r0
             0x000143de: 01 5d:       ldw (ru6)       r4, sp[0x1]
             0x000143e0: 42 5d:       ldw (ru6)       r5, sp[0x2]
             0x000143e2: c3 77:       retsp (u6)      0x3

<XUD_Init>:
             0x000143e4: 47 77:       entsp (u6)      0x7
             0x000143e6: d5 a6:       mkmsk (rus)     r1, 0x1
             0x000143e8: 00 55:       stw (ru6)       r4, sp[0x0]
             0x000143ea: 00 69:       ldc (ru6)       r4, 0x0
             0x000143ec: 41 55:       stw (ru6)       r5, sp[0x1]
             0x000143ee: 10 91:       add (2rus)      r5, r4, 0x0
             0x000143f0: 82 55:       stw (ru6)       r6, sp[0x2]
             0x000143f2: c3 55:       stw (ru6)       r7, sp[0x3]
             0x000143f4: 04 56:       stw (ru6)       r8, sp[0x4]
             0x000143f6: 45 56:       stw (ru6)       r9, sp[0x5]
             0x000143f8: 20 91:       add (2rus)      r6, r4, 0x0
             0x000143fa: 86 56:       stw (ru6)       r10, sp[0x6]
             0x000143fc: 0d 87:       getr (rus)      r7, 0x1
             0x000143fe: 10 f0 fc 58: ldw (lru6)      r3, dp[0x43c]
             0x00014402: 10 f0 ba 58: ldw (lru6)      r2, dp[0x43a]
             0x00014406: c0 90:       add (2rus)      r0, r4, 0x0
             0x00014408: 40 91:       add (2rus)      r8, r4, 0x0
             0x0001440a: 00 f0 68 6e: ldw (lru6)      r9, cp[0x28]
.label535    0x0001440e: 68 91:       add (2rus)      r10, r6, 0x0
             0x00014410: 8e 7a:       bf (ru6)        r10, 0xe <.label532>
             0x00014412: 39 b2:       eq (2rus)       r11, r10, 0x1
             0x00014414: e2 72:       bt (ru6)        r11, 0x22 <.label533>
             0x00014416: 2a b2:       eq (2rus)       r10, r10, 0x2
             0x00014418: b6 72:       bt (ru6)        r10, 0x36 <.label534>
.label538    0x0001441a: 47 7d:       bf (ru6)        r5, -0x7 <.label535>
             0x0001441c: e7 17:       freer (1r)      res[r7]
             0x0001441e: 00 5d:       ldw (ru6)       r4, sp[0x0]
             0x00014420: 41 5d:       ldw (ru6)       r5, sp[0x1]
             0x00014422: 82 5d:       ldw (ru6)       r6, sp[0x2]
             0x00014424: c3 5d:       ldw (ru6)       r7, sp[0x3]
             0x00014426: 04 5e:       ldw (ru6)       r8, sp[0x4]
             0x00014428: 45 5e:       ldw (ru6)       r9, sp[0x5]
             0x0001442a: 86 5e:       ldw (ru6)       r10, sp[0x6]
             0x0001442c: c7 77:       retsp (u6)      0x7
.label532    0x0001442e: ed 07:       clre (0r)       
             0x00014430: d7 16:       setd (r2r)      res[r3], r1
             0x00014432: d1 e8:       setc (ru6)      res[r3], 0x11
             0x00014434: 08 d8:       ldap (u10)      r11, 0x8 <.label536>
             0x00014436: f3 47:       setv (1r)       res[r3], r11
             0x00014438: f3 07:       eeu (1r)        res[r3]
             0x0001443a: d6 16:       setd (r2r)      res[r2], r1
             0x0001443c: 91 e8:       setc (ru6)      res[r2], 0x11
             0x0001443e: 08 d8:       ldap (u10)      r11, 0x8 <.label537>
             0x00014440: f2 47:       setv (1r)       res[r2], r11
             0x00014442: f2 07:       eeu (1r)        res[r2]
             0x00014444: ec 07:       waiteu (0r)     
.label536    0x00014446: 0b b7:       in (2r)         r6, res[r3]
             0x00014448: 64 90:       add (2rus)      r6, r1, 0x0
             0x0001444a: c1 e9:       setc (ru6)      res[r7], 0x1
             0x0001444c: e3 b6:       in (2r)         r8, res[r7]
             0x0001444e: 1b 77:       bu (u6)         -0x1b <.label538>
.label537    0x00014450: 0a b7:       in (2r)         r6, res[r2]
             0x00014452: c1 e9:       setc (ru6)      res[r7], 0x1
             0x00014454: e3 b6:       in (2r)         r8, res[r7]
             0x00014456: 82 69:       ldc (ru6)       r6, 0x2
             0x00014458: 20 77:       bu (u6)         -0x20 <.label538>
.label533    0x0001445a: ed 07:       clre (0r)       
             0x0001445c: 13 17:       setd (r2r)      res[r3], r4
             0x0001445e: d1 e8:       setc (ru6)      res[r3], 0x11
             0x00014460: 0b d8:       ldap (u10)      r11, 0xb <.label539>
             0x00014462: f3 47:       setv (1r)       res[r3], r11
             0x00014464: 28 f0 a8 6a: ldc (lru6)      r10, 0xa28
             0x00014468: a2 16:       add (3r)        r10, r8, r10
             0x0001446a: f3 07:       eeu (1r)        res[r3]
             0x0001446c: fb 16:       setd (r2r)      res[r7], r10
             0x0001446e: c9 e9:       setc (ru6)      res[r7], 0x9
             0x00014470: 06 d8:       ldap (u10)      r11, 0x6 <.label540>
             0x00014472: f7 47:       setv (1r)       res[r7], r11
             0x00014474: f7 07:       eeu (1r)        res[r7]
             0x00014476: ec 07:       waiteu (0r)     
.label539    0x00014478: 0b b7:       in (2r)         r6, res[r3]
             0x0001447a: 20 91:       add (2rus)      r6, r4, 0x0
             0x0001447c: 32 77:       bu (u6)         -0x32 <.label538>
.label540    0x0001447e: 54 90:       add (2rus)      r5, r1, 0x0
             0x00014480: 83 b7:       in (2r)         r0, res[r7]
             0x00014482: 04 90:       add (2rus)      r0, r1, 0x0
             0x00014484: 36 77:       bu (u6)         -0x36 <.label538>
.label534    0x00014486: ed 07:       clre (0r)       
             0x00014488: 12 17:       setd (r2r)      res[r2], r4
             0x0001448a: 91 e8:       setc (ru6)      res[r2], 0x11
             0x0001448c: 09 d8:       ldap (u10)      r11, 0x9 <.label541>
             0x0001448e: a1 16:       add (3r)        r10, r8, r9
             0x00014490: f2 47:       setv (1r)       res[r2], r11
             0x00014492: f2 07:       eeu (1r)        res[r2]
             0x00014494: fb 16:       setd (r2r)      res[r7], r10
             0x00014496: c9 e9:       setc (ru6)      res[r7], 0x9
             0x00014498: 07 d8:       ldap (u10)      r11, 0x7 <.label542>
             0x0001449a: f7 47:       setv (1r)       res[r7], r11
             0x0001449c: f7 07:       eeu (1r)        res[r7]
             0x0001449e: ec 07:       waiteu (0r)     
.label541    0x000144a0: 0a b7:       in (2r)         r6, res[r2]
             0x000144a2: 20 91:       add (2rus)      r6, r4, 0x0
             0x000144a4: 01 f0 07 77: bu (lu6)        -0x47 <.label538>
.label542    0x000144a8: 83 b7:       in (2r)         r0, res[r7]
             0x000144aa: 54 90:       add (2rus)      r5, r1, 0x0
             0x000144ac: c0 90:       add (2rus)      r0, r4, 0x0
             0x000144ae: 01 f0 0c 77: bu (lu6)        -0x4c <.label538>
             0x000144b2: 00 90:       add (2rus)      r0, r0, 0x0

<XUD_Suspend>:
             0x000144b4: 46 77:       entsp (u6)      0x6
             0x000144b6: 01 55:       stw (ru6)       r4, sp[0x1]
             0x000144b8: 42 55:       stw (ru6)       r5, sp[0x2]
             0x000144ba: 83 55:       stw (ru6)       r6, sp[0x3]
             0x000144bc: 20 69:       ldc (ru6)       r4, 0x20
             0x000144be: c4 55:       stw (ru6)       r7, sp[0x4]
             0x000144c0: 88 69:       ldc (ru6)       r6, 0x8
             0x000144c2: 05 56:       stw (ru6)       r8, sp[0x5]
             0x000144c4: 05 87:       getr (rus)      r5, 0x1
             0x000144c6: 00 f0 ea 6d: ldw (lru6)      r7, cp[0x2a]
             0x000144ca: 00 6a:       ldc (ru6)       r8, 0x0
.label544    0x000144cc: 86 68:       ldc (ru6)       r2, 0x6
             0x000144ce: 10 f0 38 58: ldw (lru6)      r0, dp[0x438]
             0x000144d2: 10 f0 79 58: ldw (lru6)      r1, dp[0x439]
             0x000144d6: 00 f0 79 d0: bl (lu10)       0x79 <XUD_UIFM_RegRead>
             0x000144da: 50 3a:       and (3r)        r1, r0, r4
             0x000144dc: 63 70:       bt (ru6)        r1, 0x23 <.label543>
.label551    0x000144de: 42 3a:       and (3r)        r0, r0, r6
             0x000144e0: 0b 7c:       bf (ru6)        r0, -0xb <.label544>
             0x000144e2: 90 69:       ldc (ru6)       r6, 0x10
.label546    0x000144e4: 86 68:       ldc (ru6)       r2, 0x6
             0x000144e6: 10 f0 38 58: ldw (lru6)      r0, dp[0x438]
             0x000144ea: 10 f0 79 58: ldw (lru6)      r1, dp[0x439]
             0x000144ee: 00 f0 6d d0: bl (lu10)       0x6d <XUD_UIFM_RegRead>
             0x000144f2: 52 3a:       and (3r)        r1, r0, r6
             0x000144f4: 73 70:       bt (ru6)        r1, 0x33 <.label545>
             0x000144f6: 40 3a:       and (3r)        r0, r0, r4
             0x000144f8: 0b 7c:       bf (ru6)        r0, -0xb <.label546>
             0x000144fa: 39 f0 3e 58: ldw (lru6)      r0, dp[0xe7e]
             0x000144fe: 02 b0:       eq (2rus)       r0, r0, 0x2
             0x00014500: 35 70:       bt (ru6)        r0, 0x35 <.label547>
.label548    0x00014502: 10 f0 38 58: ldw (lru6)      r0, dp[0x438]
             0x00014506: 86 68:       ldc (ru6)       r2, 0x6
             0x00014508: 10 f0 79 58: ldw (lru6)      r1, dp[0x439]
             0x0001450c: 00 f0 5e d0: bl (lu10)       0x5e <XUD_UIFM_RegRead>
             0x00014510: 40 3a:       and (3r)        r0, r0, r4
             0x00014512: 09 74:       bt (ru6)        r0, -0x9 <.label548>
             0x00014514: e5 17:       freer (1r)      res[r5]
             0x00014516: 01 5d:       ldw (ru6)       r4, sp[0x1]
             0x00014518: 42 5d:       ldw (ru6)       r5, sp[0x2]
             0x0001451a: 83 5d:       ldw (ru6)       r6, sp[0x3]
             0x0001451c: 00 68:       ldc (ru6)       r0, 0x0
             0x0001451e: c4 5d:       ldw (ru6)       r7, sp[0x4]
             0x00014520: 05 5e:       ldw (ru6)       r8, sp[0x5]
             0x00014522: c6 77:       retsp (u6)      0x6
.label543    0x00014524: 41 e9:       setc (ru6)      res[r5], 0x1
             0x00014526: 85 b7:       in (2r)         r1, res[r5]
             0x00014528: ed 07:       clre (0r)       
             0x0001452a: 10 f0 bc 58: ldw (lru6)      r2, dp[0x43c]
             0x0001452e: 52 17:       setd (r2r)      res[r2], r8
             0x00014530: 91 e8:       setc (ru6)      res[r2], 0x11
             0x00014532: 09 d8:       ldap (u10)      r11, 0x9 <.label549>
             0x00014534: f2 47:       setv (1r)       res[r2], r11
             0x00014536: f2 07:       eeu (1r)        res[r2]
             0x00014538: 57 12:       add (3r)        r1, r1, r7
             0x0001453a: 95 17:       setd (r2r)      res[r5], r1
             0x0001453c: 49 e9:       setc (ru6)      res[r5], 0x9
             0x0001453e: 05 d8:       ldap (u10)      r11, 0x5 <.label550>
             0x00014540: f5 47:       setv (1r)       res[r5], r11
             0x00014542: f5 07:       eeu (1r)        res[r5]
             0x00014544: ec 07:       waiteu (0r)     
.label549    0x00014546: c6 b6:       in (2r)         r1, res[r2]
             0x00014548: 36 77:       bu (u6)         -0x36 <.label551>
.label550    0x0001454a: 81 b7:       in (2r)         r0, res[r5]
             0x0001454c: e5 17:       freer (1r)      res[r5]
             0x0001454e: 01 5d:       ldw (ru6)       r4, sp[0x1]
             0x00014550: 42 5d:       ldw (ru6)       r5, sp[0x2]
             0x00014552: 83 5d:       ldw (ru6)       r6, sp[0x3]
             0x00014554: d1 a6:       mkmsk (rus)     r0, 0x1
             0x00014556: c4 5d:       ldw (ru6)       r7, sp[0x4]
             0x00014558: 05 5e:       ldw (ru6)       r8, sp[0x5]
             0x0001455a: c6 77:       retsp (u6)      0x6
.label545    0x0001455c: e5 17:       freer (1r)      res[r5]
             0x0001455e: 01 5d:       ldw (ru6)       r4, sp[0x1]
             0x00014560: 42 5d:       ldw (ru6)       r5, sp[0x2]
             0x00014562: 83 5d:       ldw (ru6)       r6, sp[0x3]
             0x00014564: 00 68:       ldc (ru6)       r0, 0x0
             0x00014566: c4 5d:       ldw (ru6)       r7, sp[0x4]
             0x00014568: 05 5e:       ldw (ru6)       r8, sp[0x5]
             0x0001456a: c6 77:       retsp (u6)      0x6
.label547    0x0001456c: d9 a6:       mkmsk (rus)     r2, 0x1
             0x0001456e: 10 f0 38 58: ldw (lru6)      r0, dp[0x438]
             0x00014572: d6 a6:       mkmsk (rus)     r1, 0x2
             0x00014574: 00 f0 30 d0: bl (lu10)       0x30 <XUD_UIFM_RegWrite>
             0x00014578: 3c 77:       bu (u6)         -0x3c <.label548>
             0x0001457a: 00 00:       stw (2rus)      r0, r0[0x0]

<XUD_Sup_Delay>:
             0x0001457c: c9 86:       getr (rus)      r2, 0x1
             0x0001457e: 81 e8:       setc (ru6)      res[r2], 0x1
             0x00014580: c6 b6:       in (2r)         r1, res[r2]
             0x00014582: 14 10:       add (3r)        r1, r1, r0
             0x00014584: d6 16:       setd (r2r)      res[r2], r1
             0x00014586: 89 e8:       setc (ru6)      res[r2], 0x9
             0x00014588: c2 b6:       in (2r)         r0, res[r2]
             0x0001458a: e2 17:       freer (1r)      res[r2]
             0x0001458c: c0 77:       retsp (u6)      0x0

<XUD_Sup_getd>:
             0x0001458e: d0 fe ec 1f: getd (l2r)      r0, res[r0]
             0x00014592: c0 77:       retsp (u6)      0x0

<XUD_Sup_GetResourceId>:
             0x00014594: c0 77:       retsp (u6)      0x0

<XUD_Sup_outuint>:
             0x00014596: c4 ae:       out (r2r)       res[r0], r1
             0x00014598: c0 77:       retsp (u6)      0x0

<XUD_Sup_outct>:
             0x0001459a: c1 4e:       outct (2r)      res[r0], r1
             0x0001459c: c0 77:       retsp (u6)      0x0

<XUD_Sup_stop_streaming_master>:
             0x0001459e: d1 ce:       chkct (rus)     res[r0], 0x1
             0x000145a0: d1 4e:       outct (rus)     res[r0], 0x1
             0x000145a2: c0 77:       retsp (u6)      0x0

<XUD_Sup_inuint>:
             0x000145a4: c0 b6:       in (2r)         r0, res[r0]
             0x000145a6: c0 77:       retsp (u6)      0x0

<XUD_Sup_int>:
             0x000145a8: d0 8e:       int (2r)        r0, res[r0]
             0x000145aa: c0 77:       retsp (u6)      0x0

<XUD_Sup_inct>:
             0x000145ac: d0 86:       inct (2r)       r0, res[r0]
             0x000145ae: c0 77:       retsp (u6)      0x0

<XUD_Sup_testct>:
             0x000145b0: d0 be:       testct (2r)     r0, res[r0]
             0x000145b2: c0 77:       retsp (u6)      0x0

<XUD_UIFM_Enable>:
             0x000145b4: 50 77:       entsp (u6)      0x10
             0x000145b6: 81 56:       stw (ru6)       r10, sp[0x1]
             0x000145b8: 08 f0 8b 6a: ldc (lru6)      r10, 0x20b
             0x000145bc: 22 ff ec 1f: set (lr2r)      ps[r10], r0
             0x000145c0: ba ff ec 17: get (l2r)       r10, ps[r10]
             0x000145c4: 82 34:       eq (3r)         r0, r0, r10
             0x000145c6: e0 4f:       ecallf (1r)     r0
             0x000145c8: 81 5e:       ldw (ru6)       r10, sp[0x1]
             0x000145ca: d0 77:       retsp (u6)      0x10

<XUD_UIFM_RegRead>:
             0x000145cc: c0 6a:       ldc (ru6)       r11, 0x0
             0x000145ce: be 41:       or (3r)         r3, r11, r2
             0x000145d0: cc ae:       out (r2r)       res[r0], r3
             0x000145d2: f0 87:       syncr (1r)      res[r0]
             0x000145d4: c1 b6:       in (2r)         r0, res[r1]
             0x000145d6: c0 77:       retsp (u6)      0x0

<XUD_UIFM_RegWrite>:
             0x000145d8: 02 f0 c0 6a: ldc (lru6)      r11, 0x80
             0x000145dc: bd 41:       or (3r)         r3, r11, r1
             0x000145de: cc ae:       out (r2r)       res[r0], r3
             0x000145e0: f0 87:       syncr (1r)      res[r0]
             0x000145e2: c8 ae:       out (r2r)       res[r0], r2
             0x000145e4: f0 87:       syncr (1r)      res[r0]
             0x000145e6: c0 77:       retsp (u6)      0x0

<XUD_UIFM_RegWrite_>:
             0x000145e8: 02 f0 c0 6a: ldc (lru6)      r11, 0x80
             0x000145ec: bc 41:       or (3r)         r3, r11, r0
             0x000145ee: 10 f0 b8 58: ldw (lru6)      r2, dp[0x438]
             0x000145f2: ce ae:       out (r2r)       res[r2], r3
             0x000145f4: f2 87:       syncr (1r)      res[r2]
             0x000145f6: c6 ae:       out (r2r)       res[r2], r1
             0x000145f8: f2 87:       syncr (1r)      res[r2]
             0x000145fa: c0 77:       retsp (u6)      0x0

<XUD_UIFM_PortConfig>:
             0x000145fc: 50 77:       entsp (u6)      0x10
             0x000145fe: 81 56:       stw (ru6)       r10, sp[0x1]
             0x00014600: 42 56:       stw (ru6)       r9, sp[0x2]

<ConfigClockBlock>:
             0x00014602: 86 6a:       ldc (ru6)       r10, 0x6
             0x00014604: 03 56:       stw (ru6)       r8, sp[0x3]

<DelayFallingEdge>:
             0x00014606: 08 6a:       ldc (ru6)       r8, 0x8
             0x00014608: c4 55:       stw (ru6)       r7, sp[0x4]
             0x0001460a: cc 6a:       ldc (ru6)       r11, 0xc

<InvertUsbClock>:
             0x0001460c: 80 f1 0f e8: setc (lru6)     res[r0], 0x600f
             0x00014610: 01 e8:       setc (ru6)      res[r0], 0x1
             0x00014612: 88 ea:       setc (ru6)      res[r10], 0x8
             0x00014614: 32 ff ec 0f: setclk (lr2r)   res[r10], r0
             0x00014618: 93 26:       shl (3r)        r9, r8, r11
             0x0001461a: c3 6a:       ldc (ru6)       r11, 0x3
             0x0001461c: c1 69:       ldc (ru6)       r7, 0x1
             0x0001461e: cf 25:       shl (3r)        r8, r7, r11
             0x00014620: 94 46:       or (3r)         r9, r9, r8
             0x00014622: 07 6a:       ldc (ru6)       r8, 0x7
             0x00014624: c0 6a:       ldc (ru6)       r11, 0x0
             0x00014626: 83 26:       shl (3r)        r8, r8, r11
             0x00014628: 94 46:       or (3r)         r9, r9, r8
             0x0001462a: b9 ff ec 2f: setc (l2r)      res[r10], r9

<DelayRisingEdge>:
             0x0001462e: 09 6a:       ldc (ru6)       r8, 0x9
             0x00014630: cc 6a:       ldc (ru6)       r11, 0xc
             0x00014632: 93 26:       shl (3r)        r9, r8, r11
             0x00014634: c3 6a:       ldc (ru6)       r11, 0x3
             0x00014636: c0 69:       ldc (ru6)       r7, 0x0
             0x00014638: cf 25:       shl (3r)        r8, r7, r11
             0x0001463a: 94 46:       or (3r)         r9, r9, r8
             0x0001463c: 07 6a:       ldc (ru6)       r8, 0x7
             0x0001463e: c0 6a:       ldc (ru6)       r11, 0x0
             0x00014640: 83 26:       shl (3r)        r8, r8, r11
             0x00014642: 94 46:       or (3r)         r9, r9, r8
             0x00014644: b9 ff ec 2f: setc (l2r)      res[r10], r9
             0x00014648: 40 6a:       ldc (ru6)       r9, 0x0

<StartClockBlock>:
             0x0001464a: 8f ea:       setc (ru6)      res[r10], 0xf

<ConfigRegWritePort>:
             0x0001464c: 00 f1 4f e8: setc (lru6)     res[r1], 0x400f
             0x00014650: 59 ff ec 0f: setclk (lr2r)   res[r1], r10
             0x00014654: 80 f0 4f e8: setc (lru6)     res[r1], 0x200f
             0x00014658: c0 f0 4f e8: setc (lru6)     res[r1], 0x300f
             0x0001465c: 40 f0 47 e8: setc (lru6)     res[r1], 0x1007
             0x00014660: c0 6a:       ldc (ru6)       r11, 0x0
             0x00014662: 57 e8:       setc (ru6)      res[r1], 0x17

<ConfigRegReadPort>:
             0x00014664: 00 f1 8f e8: setc (lru6)     res[r2], 0x400f
             0x00014668: 5a ff ec 0f: setclk (lr2r)   res[r2], r10
             0x0001466c: 80 f0 8f e8: setc (lru6)     res[r2], 0x200f
             0x00014670: c0 f0 97 e8: setc (lru6)     res[r2], 0x3017
             0x00014674: 40 f0 87 e8: setc (lru6)     res[r2], 0x1007
             0x00014678: 97 e8:       setc (ru6)      res[r2], 0x17

<ConfigFlagPort0>:
             0x0001467a: 00 f1 cf e8: setc (lru6)     res[r3], 0x400f
             0x0001467e: 5b ff ec 0f: setclk (lr2r)   res[r3], r10
             0x00014682: d7 e8:       setc (ru6)      res[r3], 0x17

<ConfigFlagPort1>:
             0x00014684: d1 5e:       ldw (ru6)       r11, sp[0x11]
             0x00014686: 00 f1 cf ea: setc (lru6)     res[r11], 0x400f
             0x0001468a: bb ff ec 0f: setclk (lr2r)   res[r11], r10
             0x0001468e: d7 ea:       setc (ru6)      res[r11], 0x17
             0x00014690: d1 ea:       setc (ru6)      res[r11], 0x11

<ConfigFlagPort2>:
             0x00014692: d2 5e:       ldw (ru6)       r11, sp[0x12]
             0x00014694: 00 f1 cf ea: setc (lru6)     res[r11], 0x400f
             0x00014698: bb ff ec 0f: setclk (lr2r)   res[r11], r10
             0x0001469c: d7 ea:       setc (ru6)      res[r11], 0x17
             0x0001469e: d1 ea:       setc (ru6)      res[r11], 0x11

<ConfigureTxDataPort>:
             0x000146a0: d3 5e:       ldw (ru6)       r11, sp[0x13]
             0x000146a2: 00 f1 cf ea: setc (lru6)     res[r11], 0x400f
             0x000146a6: bb ff ec 0f: setclk (lr2r)   res[r11], r10
             0x000146aa: a7 af:       out (r2r)       res[r11], r9
             0x000146ac: 80 f0 cf ea: setc (lru6)     res[r11], 0x200f
             0x000146b0: 60 6a:       ldc (ru6)       r9, 0x20
             0x000146b2: b7 ff ec 27: settw (lr2r)    res[r11], r9
             0x000146b6: 60 6a:       ldc (ru6)       r9, 0x20
             0x000146b8: c0 f0 d7 ea: setc (lru6)     res[r11], 0x3017
             0x000146bc: 40 f0 c7 ea: setc (lru6)     res[r11], 0x1007
             0x000146c0: d7 ea:       setc (ru6)      res[r11], 0x17

<ConfigureRxDataPort>:
             0x000146c2: d4 5e:       ldw (ru6)       r11, sp[0x14]
             0x000146c4: 00 f1 cf ea: setc (lru6)     res[r11], 0x400f
             0x000146c8: 80 f0 cf ea: setc (lru6)     res[r11], 0x200f
             0x000146cc: b7 ff ec 27: settw (lr2r)    res[r11], r9
             0x000146d0: c0 f0 d7 ea: setc (lru6)     res[r11], 0x3017
             0x000146d4: 40 f0 c7 ea: setc (lru6)     res[r11], 0x1007
             0x000146d8: bb ff ec 0f: setclk (lr2r)   res[r11], r10
             0x000146dc: d7 ea:       setc (ru6)      res[r11], 0x17
             0x000146de: 81 5e:       ldw (ru6)       r10, sp[0x1]
             0x000146e0: 42 5e:       ldw (ru6)       r9, sp[0x2]
             0x000146e2: 03 5e:       ldw (ru6)       r8, sp[0x3]
             0x000146e4: c4 5d:       ldw (ru6)       r7, sp[0x4]
             0x000146e6: d0 77:       retsp (u6)      0x10

<_DoSyscall>:
             0x000146e8: d0 a6:       mkmsk (rus)     r0, 0x20
             0x000146ea: c0 77:       retsp (u6)      0x0

<__call_exitprocs>:
             0x000146ec: 41 77:       entsp (u6)      0x1
             0x000146ee: 01 f0 ed d0: bl (lu10)       0x4ed <.label552>
             0x000146f2: c1 77:       retsp (u6)      0x1

<__set_port_in>:
             0x000146f4: 00 f0 46 68: ldc (lru6)      r1, 0x6
             0x000146f8: d4 fe ec 0f: setclk (lr2r)   res[r0], r1
             0x000146fc: c0 f0 47 68: ldc (lru6)      r1, 0x3007
             0x00014700: d1 fe ec 2f: setc (l2r)      res[r0], r1
             0x00014704: 01 e8:       setc (ru6)      res[r0], 0x1
             0x00014706: c0 b6:       in (2r)         r0, res[r0]
             0x00014708: c0 77:       retsp (u6)      0x0

<__set_port_out>:
             0x0001470a: 00 f0 86 68: ldc (lru6)      r2, 0x6
             0x0001470e: d8 fe ec 0f: setclk (lr2r)   res[r0], r2
             0x00014712: c0 f0 87 68: ldc (lru6)      r2, 0x3007
             0x00014716: d2 fe ec 2f: setc (l2r)      res[r0], r2
             0x0001471a: a1 ac:       shr (2rus)      r2, r0, 0x10
             0x0001471c: 9a 47:       zext (rus)      r2, 0x6
             0x0001471e: c6 46:       zext (2r)       r1, r2
             0x00014720: 36 20:       shl (3r)        r3, r1, r2
             0x00014722: c4 78:       bf (ru6)        r3, 0x4 <do_output>

<loop>:
             0x00014724: 17 40:       or (3r)         r1, r1, r3
             0x00014726: 29 a0:       shl (2rus)      r2, r2, 0x1
             0x00014728: 36 20:       shl (3r)        r3, r1, r2
             0x0001472a: c4 74:       bt (ru6)        r3, -0x4 <loop>

<do_output>:
             0x0001472c: c4 ae:       out (r2r)       res[r0], r1
             0x0001472e: f0 87:       syncr (1r)      res[r0]
             0x00014730: c0 77:       retsp (u6)      0x0
             0x00014732: 00 00:       stw (2rus)      r0, r0[0x0]

<__alloc_libc_hwlock>:
.label619    0x00014734: 81 87:       getr (rus)      r0, 0x5
             0x00014736: 3a f0 00 50: stw (lru6)      r0, dp[0xe80]
             0x0001473a: c0 77:       retsp (u6)      0x0

<__spin_lock_acquire>:
             0x0001473c: 10 90:       add (2rus)      r1, r0, 0x0
             0x0001473e: d9 a6:       mkmsk (rus)     r2, 0x1
.label553    0x00014740: 3a f0 c0 58: ldw (lru6)      r3, dp[0xe80]
             0x00014744: cf b6:       in (2r)         r3, res[r3]
             0x00014746: 04 08:       ldw (2rus)      r0, r1[0x0]
             0x00014748: 24 00:       stw (2rus)      r2, r1[0x0]
             0x0001474a: 3a f0 c0 58: ldw (lru6)      r3, dp[0xe80]
             0x0001474e: cf ae:       out (r2r)       res[r3], r3
             0x00014750: 09 74:       bt (ru6)        r0, -0x9 <.label553>
             0x00014752: c0 77:       retsp (u6)      0x0

<__spin_lock_release>:
             0x00014754: 10 90:       add (2rus)      r1, r0, 0x0
             0x00014756: 3a f0 80 58: ldw (lru6)      r2, dp[0xe80]
             0x0001475a: 00 68:       ldc (ru6)       r0, 0x0
             0x0001475c: ca b6:       in (2r)         r2, res[r2]
             0x0001475e: 04 00:       stw (2rus)      r0, r1[0x0]
             0x00014760: 3a f0 00 58: ldw (lru6)      r0, dp[0xe80]
             0x00014764: c0 ae:       out (r2r)       res[r0], r0
             0x00014766: c0 77:       retsp (u6)      0x0

<__spin_lock_init_recursive>:
             0x00014768: d4 a6:       mkmsk (rus)     r1, 0x20
             0x0001476a: 10 00:       stw (2rus)      r1, r0[0x0]
             0x0001476c: 40 68:       ldc (ru6)       r1, 0x0
             0x0001476e: 11 00:       stw (2rus)      r1, r0[0x1]
             0x00014770: c0 77:       retsp (u6)      0x0
             0x00014772: 00 90:       add (2rus)      r0, r0, 0x0

<__spin_lock_release_recursive>:
             0x00014774: 10 90:       add (2rus)      r1, r0, 0x0
             0x00014776: 05 08:       ldw (2rus)      r0, r1[0x1]
             0x00014778: 01 98:       sub (2rus)      r0, r0, 0x1
             0x0001477a: 05 00:       stw (2rus)      r0, r1[0x1]
             0x0001477c: 05 08:       ldw (2rus)      r0, r1[0x1]
             0x0001477e: 08 70:       bt (ru6)        r0, 0x8 <.label554>
             0x00014780: d0 a6:       mkmsk (rus)     r0, 0x20
             0x00014782: 3a f0 80 58: ldw (lru6)      r2, dp[0xe80]
             0x00014786: ca b6:       in (2r)         r2, res[r2]
             0x00014788: 04 00:       stw (2rus)      r0, r1[0x0]
             0x0001478a: 3a f0 00 58: ldw (lru6)      r0, dp[0xe80]
             0x0001478e: c0 ae:       out (r2r)       res[r0], r0
.label554    0x00014790: c0 77:       retsp (u6)      0x0
             0x00014792: 00 90:       add (2rus)      r0, r0, 0x0

<__spin_lock_acquire_recursive>:
             0x00014794: ee 17:       get (0r)        r11, id
             0x00014796: 10 90:       add (2rus)      r1, r0, 0x0
             0x00014798: 04 08:       ldw (2rus)      r0, r1[0x0]
             0x0001479a: 83 34:       eq (3r)         r0, r0, r11
             0x0001479c: 13 70:       bt (ru6)        r0, 0x13 <.label555>
             0x0001479e: 3a f0 80 58: ldw (lru6)      r2, dp[0xe80]
             0x000147a2: ca b6:       in (2r)         r2, res[r2]
             0x000147a4: d8 a6:       mkmsk (rus)     r2, 0x20
             0x000147a6: 04 08:       ldw (2rus)      r0, r1[0x0]
             0x000147a8: 07 73:       bu (u6)         0x7 <.label556>
.label557    0x000147aa: 3a f0 00 58: ldw (lru6)      r0, dp[0xe80]
             0x000147ae: c0 ae:       out (r2r)       res[r0], r0
             0x000147b0: 3a f0 c0 58: ldw (lru6)      r3, dp[0xe80]
             0x000147b4: cf b6:       in (2r)         r3, res[r3]
             0x000147b6: 04 08:       ldw (2rus)      r0, r1[0x0]
.label556    0x000147b8: 02 30:       eq (3r)         r0, r0, r2
             0x000147ba: 09 7c:       bf (ru6)        r0, -0x9 <.label557>
             0x000147bc: b4 00:       stw (2rus)      r11, r1[0x0]
             0x000147be: 3a f0 00 58: ldw (lru6)      r0, dp[0xe80]
             0x000147c2: c0 ae:       out (r2r)       res[r0], r0
.label555    0x000147c4: 05 08:       ldw (2rus)      r0, r1[0x1]
             0x000147c6: 01 90:       add (2rus)      r0, r0, 0x1
             0x000147c8: 05 00:       stw (2rus)      r0, r1[0x1]
             0x000147ca: c0 77:       retsp (u6)      0x0

<_cleanup>:
             0x000147cc: 41 77:       entsp (u6)      0x1
             0x000147ce: 00 f0 79 d0: bl (lu10)       0x79 <.label558>
             0x000147d2: c1 77:       retsp (u6)      0x1

<_done>:
             0x000147d4: 07 68:       ldc (ru6)       r0, 0x7
             0x000147d6: 00 f0 79 d4: bl (lu10)       -0x79 <_DoSyscall>
             0x000147da: ed 07:       clre (0r)       
             0x000147dc: ec 07:       waiteu (0r)     

<_write>:
<_write.coersed..f.7bsi.7d.28si.2cp.28c.3auc.29.2cui.29>:
             0x000147de: 38 90:       add (2rus)      r3, r2, 0x0
             0x000147e0: 24 90:       add (2rus)      r2, r1, 0x0
             0x000147e2: 10 90:       add (2rus)      r1, r0, 0x0
             0x000147e4: 06 68:       ldc (ru6)       r0, 0x6
             0x000147e6: 01 f0 0c 73: bu (lu6)        0x4c <_DoSyscallErrno>
             0x000147ea: 00 00:       stw (2rus)      r0, r0[0x0]

<XUD_TestMode_TestPacket>:
             0x000147ec: 0d 87:       getr (rus)      r7, 0x1
             0x000147ee: 10 f0 3d 59: ldw (lru6)      r4, dp[0x43d]
             0x000147f2: 00 68:       ldc (ru6)       r0, 0x0
             0x000147f4: 10 f0 91 61: ldaw (lru6)     r6, dp[0x411]
             0x000147f8: 03 f0 c8 68: ldc (lru6)      r3, 0xc8
             0x000147fc: 4e 69:       ldc (ru6)       r5, 0xe
.label560    0x000147fe: 10 90:       add (2rus)      r1, r0, 0x0
.label559    0x00014800: 65 ca:       lsu (3r)        r2, r1, r5
             0x00014802: e2 4f:       ecallf (1r)     r2
             0x00014804: e9 48:       ldw (3r)        r2, r6[r1]
             0x00014806: 15 90:       add (2rus)      r1, r1, 0x1
             0x00014808: 88 af:       out (r2r)       res[r4], r2
             0x0001480a: 65 ca:       lsu (3r)        r2, r1, r5
             0x0001480c: 87 74:       bt (ru6)        r2, -0x7 <.label559>
             0x0001480e: c1 e9:       setc (ru6)      res[r7], 0x1
             0x00014810: 87 b7:       in (2r)         r1, res[r7]
             0x00014812: 17 10:       add (3r)        r1, r1, r3
             0x00014814: 97 17:       setd (r2r)      res[r7], r1
             0x00014816: c9 e9:       setc (ru6)      res[r7], 0x9
             0x00014818: 87 b7:       in (2r)         r1, res[r7]
             0x0001481a: 0f 77:       bu (u6)         -0xf <.label560>

<XUD_UsbTestModeHandler>:
             0x0001481c: 41 77:       entsp (u6)      0x1
             0x0001481e: 40 90:       add (2rus)      r4, r0, 0x0
             0x00014820: 08 90:       add (2rus)      r0, r2, 0x0
             0x00014822: 54 90:       add (2rus)      r5, r1, 0x0
             0x00014824: 00 f0 c2 d7: bl (lu10)       -0x3c2 <UsbTestModeHandler_asm>
             0x00014828: 86 f1 e8 68: ldc (lru6)      r3, 0x61a8
             0x0001482c: 80 69:       ldc (ru6)       r6, 0x0
             0x0001482e: d8 90:       add (2rus)      r1, r6, 0x0
.label561    0x00014830: 15 90:       add (2rus)      r1, r1, 0x1
             0x00014832: 27 c0:       lss (3r)        r2, r1, r3
             0x00014834: 83 74:       bt (ru6)        r2, -0x3 <.label561>
             0x00014836: 11 98:       sub (2rus)      r1, r0, 0x1
             0x00014838: d2 a6:       mkmsk (rus)     r0, 0x2
             0x0001483a: 01 c8:       lsu (3r)        r0, r0, r1
             0x0001483c: 05 70:       bt (ru6)        r0, 0x5 <.label562>
             0x0001483e: e1 2f:       bru (1r)        r1
             0x00014840: 04 73:       bu (u6)         0x4 <.label563>
             0x00014842: 0e 73:       bu (u6)         0xe <.label564>
             0x00014844: 17 73:       bu (u6)         0x17 <.label565>
             0x00014846: 1b 73:       bu (u6)         0x1b <.label566>
.label562    0x00014848: 01 77:       bu (u6)         -0x1 <.label562>
.label563    0x0001484a: 10 f0 38 58: ldw (lru6)      r0, dp[0x438]
             0x0001484e: 91 68:       ldc (ru6)       r2, 0x11
             0x00014850: d6 a6:       mkmsk (rus)     r1, 0x2
             0x00014852: 00 f0 3f d5: bl (lu10)       -0x13f <XUD_UIFM_RegWrite>
             0x00014856: d0 a6:       mkmsk (rus)     r0, 0x20
             0x00014858: 10 f0 7d 58: ldw (lru6)      r1, dp[0x43d]
.label567    0x0001485c: c1 ae:       out (r2r)       res[r1], r0
             0x0001485e: 02 77:       bu (u6)         -0x2 <.label567>
.label564    0x00014860: 91 68:       ldc (ru6)       r2, 0x11
             0x00014862: 10 f0 38 58: ldw (lru6)      r0, dp[0x438]
             0x00014866: d6 a6:       mkmsk (rus)     r1, 0x2
             0x00014868: 00 f0 4a d5: bl (lu10)       -0x14a <XUD_UIFM_RegWrite>
             0x0001486c: 10 f0 3d 58: ldw (lru6)      r0, dp[0x43d]
.label568    0x00014870: 08 af:       out (r2r)       res[r0], r6
             0x00014872: 02 77:       bu (u6)         -0x2 <.label568>
.label565    0x00014874: d4 90:       add (2rus)      r1, r5, 0x0
             0x00014876: c0 90:       add (2rus)      r0, r4, 0x0
             0x00014878: 00 f0 e2 d7: bl (lu10)       -0x3e2 <XUD_UsbTestSE0>
             0x0001487c: 05 77:       bu (u6)         -0x5 <.label565>
.label566    0x0001487e: 4a d4:       bl (u10)        -0x4a <XUD_TestMode_TestPacket>
             0x00014880: 1d 77:       bu (u6)         -0x1d <.label562>

<_DoSyscallErrno>:
             0x00014882: 42 77:       entsp (u6)      0x2
             0x00014884: 00 f0 d0 d4: bl (lu10)       -0xd0 <_DoSyscall>
             0x00014888: c4 8e:       not (2r)        r1, r0
             0x0001488a: 57 aa:       shr (2rus)      r1, r1, 0x7
             0x0001488c: 41 78:       bf (ru6)        r1, 0x1 <.label569>
             0x0001488e: c2 77:       retsp (u6)      0x2
.label569    0x00014890: c4 96:       neg (2r)        r1, r0
             0x00014892: 41 54:       stw (ru6)       r1, sp[0x1]
             0x00014894: 00 f0 04 d0: bl (lu10)       0x4 <__errno>
             0x00014898: 41 5c:       ldw (ru6)       r1, sp[0x1]
             0x0001489a: 10 00:       stw (2rus)      r1, r0[0x0]
             0x0001489c: d0 a6:       mkmsk (rus)     r0, 0x20
             0x0001489e: c2 77:       retsp (u6)      0x2

<__errno>:
             0x000148a0: 3a f0 02 60: ldaw (lru6)     r0, dp[0xe82]
             0x000148a4: ee 17:       get (0r)        r11, id
             0x000148a6: 83 fc ec 1f: ldaw (l3r)      r0, r0[r11]
             0x000148aa: c0 77:       retsp (u6)      0x0

<__sfp_lock_release>:
             0x000148ac: 10 f0 21 60: ldaw (lru6)     r0, dp[0x421]
             0x000148b0: 41 77:       entsp (u6)      0x1
             0x000148b2: 00 f0 a1 d4: bl (lu10)       -0xa1 <__spin_lock_release_recursive>
             0x000148b6: c1 77:       retsp (u6)      0x1

<__sfp_lock_acquire>:
             0x000148b8: 10 f0 21 60: ldaw (lru6)     r0, dp[0x421]
             0x000148bc: 41 77:       entsp (u6)      0x1
             0x000148be: 00 f0 97 d4: bl (lu10)       -0x97 <__spin_lock_acquire_recursive>
             0x000148c2: c1 77:       retsp (u6)      0x1
.label558    0x000148c4: 00 f0 74 d9: ldap (lu10)     r11, 0x174 <fflush>
             0x000148c8: 41 77:       entsp (u6)      0x1
             0x000148ca: 8c 91:       add (2rus)      r0, r11, 0x0
             0x000148cc: 00 f0 ee d1: bl (lu10)       0x1ee <_fwalk>
             0x000148d0: c1 77:       retsp (u6)      0x1
             0x000148d2: 00 90:       add (2rus)      r0, r0, 0x0

<__sinit>:
             0x000148d4: 48 77:       entsp (u6)      0x8
             0x000148d6: 07 55:       stw (ru6)       r4, sp[0x7]
             0x000148d8: 46 55:       stw (ru6)       r5, sp[0x6]
             0x000148da: 85 55:       stw (ru6)       r6, sp[0x5]
             0x000148dc: c4 55:       stw (ru6)       r7, sp[0x4]
             0x000148de: 03 56:       stw (ru6)       r8, sp[0x3]
             0x000148e0: 42 56:       stw (ru6)       r9, sp[0x2]
             0x000148e2: 81 56:       stw (ru6)       r10, sp[0x1]
             0x000148e4: 10 f0 1f 60: ldaw (lru6)     r0, dp[0x41f]
             0x000148e8: 00 f0 ac d4: bl (lu10)       -0xac <__spin_lock_acquire_recursive>
             0x000148ec: 3a f0 0c 58: ldw (lru6)      r0, dp[0xe8c]
             0x000148f0: 01 f0 27 70: bt (lru6)       r0, 0x67 <.label570>
             0x000148f4: 00 6a:       ldc (ru6)       r8, 0x0
             0x000148f6: 3a f0 0d 52: stw (lru6)      r8, dp[0xe8d]
             0x000148fa: 84 68:       ldc (ru6)       r2, 0x4
             0x000148fc: d2 a6:       mkmsk (rus)     r0, 0x2
             0x000148fe: 3a f0 0e 50: stw (lru6)      r0, dp[0xe8e]
             0x00014902: 8e 6a:       ldc (ru6)       r10, 0xe
             0x00014904: 3a f0 10 60: ldaw (lru6)     r0, dp[0xe90]
             0x00014908: 00 f0 5c d9: ldap (lu10)     r11, 0x15c <__sread>
             0x0001490c: 18 92:       add (2rus)      r9, r10, 0x0
             0x0001490e: 3a f0 0f 50: stw (lru6)      r0, dp[0xe8f]
             0x00014912: cc 91:       add (2rus)      r4, r11, 0x0
             0x00014914: 00 f0 a4 d9: ldap (lu10)     r11, 0x1a4 <__swrite>
             0x00014918: 10 f0 23 58: ldw (lru6)      r0, dp[0x423]
             0x0001491c: 80 00:       stw (2rus)      r8, r0[0x0]
             0x0001491e: dc 91:       add (2rus)      r5, r11, 0x0
             0x00014920: 13 f8 ec 9f: ldaw (l2rus)    r1, r0[0x3]
             0x00014924: 00 f0 78 d9: ldap (lu10)     r11, 0x178 <__sseek>
             0x00014928: 81 00:       stw (2rus)      r8, r0[0x1]
             0x0001492a: 82 00:       stw (2rus)      r8, r0[0x2]
             0x0001492c: ec 91:       add (2rus)      r6, r11, 0x0
             0x0001492e: a4 fc ec 87: st16 (l3r)      r2, r1[r8]
             0x00014932: 92 14:       add (3r)        r1, r0, r10
             0x00014934: 00 f0 68 d9: ldap (lu10)     r11, 0x168 <__sclose>
             0x00014938: fc 91:       add (2rus)      r7, r11, 0x0
             0x0001493a: 04 fd ec 87: st16 (l3r)      r8, r1[r8]
             0x0001493e: c0 02:       stw (2rus)      r8, r0[0x4]
             0x00014940: c1 02:       stw (2rus)      r8, r0[0x5]
             0x00014942: c2 02:       stw (2rus)      r8, r0[0x6]
             0x00014944: 01 f0 94 6a: ldc (lru6)      r10, 0x54
             0x00014948: 43 02:       stw (2rus)      r0, r0[0x7]
             0x0001494a: c0 04:       stw (2rus)      r4, r0[0x8]
             0x0001494c: d1 04:       stw (2rus)      r5, r0[0x9]
             0x0001494e: e2 04:       stw (2rus)      r6, r0[0xa]
             0x00014950: f3 04:       stw (2rus)      r7, r0[0xb]
             0x00014952: 82 14:       add (3r)        r0, r0, r10
             0x00014954: 00 f0 f8 d4: bl (lu10)       -0xf8 <__spin_lock_init_recursive>
             0x00014958: 10 f0 24 58: ldw (lru6)      r0, dp[0x424]
             0x0001495c: 80 00:       stw (2rus)      r8, r0[0x0]
             0x0001495e: 81 00:       stw (2rus)      r8, r0[0x1]
             0x00014960: 82 00:       stw (2rus)      r8, r0[0x2]
             0x00014962: 89 68:       ldc (ru6)       r2, 0x9
             0x00014964: 13 f8 ec 9f: ldaw (l2rus)    r1, r0[0x3]
             0x00014968: a4 fc ec 87: st16 (l3r)      r2, r1[r8]
             0x0001496c: 91 14:       add (3r)        r1, r0, r9
             0x0001496e: 55 a7:       mkmsk (rus)     r9, 0x1
             0x00014970: 14 fd ec 87: st16 (l3r)      r9, r1[r8]
             0x00014974: c0 02:       stw (2rus)      r8, r0[0x4]
             0x00014976: c1 02:       stw (2rus)      r8, r0[0x5]
             0x00014978: c2 02:       stw (2rus)      r8, r0[0x6]
             0x0001497a: 43 02:       stw (2rus)      r0, r0[0x7]
             0x0001497c: c0 04:       stw (2rus)      r4, r0[0x8]
             0x0001497e: d1 04:       stw (2rus)      r5, r0[0x9]
             0x00014980: e2 04:       stw (2rus)      r6, r0[0xa]
             0x00014982: f3 04:       stw (2rus)      r7, r0[0xb]
             0x00014984: 82 14:       add (3r)        r0, r0, r10
             0x00014986: 00 f0 11 d5: bl (lu10)       -0x111 <__spin_lock_init_recursive>
             0x0001498a: 10 f0 25 58: ldw (lru6)      r0, dp[0x425]
             0x0001498e: 80 00:       stw (2rus)      r8, r0[0x0]
             0x00014990: 92 68:       ldc (ru6)       r2, 0x12
             0x00014992: 81 00:       stw (2rus)      r8, r0[0x1]
             0x00014994: 13 f8 ec 9f: ldaw (l2rus)    r1, r0[0x3]
             0x00014998: 82 00:       stw (2rus)      r8, r0[0x2]
             0x0001499a: a4 fc ec 87: st16 (l3r)      r2, r1[r8]
             0x0001499e: 4e 68:       ldc (ru6)       r1, 0xe
             0x000149a0: 82 68:       ldc (ru6)       r2, 0x2
             0x000149a2: 11 10:       add (3r)        r1, r0, r1
             0x000149a4: a4 fc ec 87: st16 (l3r)      r2, r1[r8]
             0x000149a8: c0 02:       stw (2rus)      r8, r0[0x4]
             0x000149aa: c1 02:       stw (2rus)      r8, r0[0x5]
             0x000149ac: c2 02:       stw (2rus)      r8, r0[0x6]
             0x000149ae: 43 02:       stw (2rus)      r0, r0[0x7]
             0x000149b0: c0 04:       stw (2rus)      r4, r0[0x8]
             0x000149b2: d1 04:       stw (2rus)      r5, r0[0x9]
             0x000149b4: e2 04:       stw (2rus)      r6, r0[0xa]
             0x000149b6: f3 04:       stw (2rus)      r7, r0[0xb]
             0x000149b8: 82 14:       add (3r)        r0, r0, r10
             0x000149ba: 00 f0 2b d5: bl (lu10)       -0x12b <__spin_lock_init_recursive>
             0x000149be: 3a f0 4c 52: stw (lru6)      r9, dp[0xe8c]
.label570    0x000149c2: 10 f0 1f 60: ldaw (lru6)     r0, dp[0x41f]
             0x000149c6: 00 f0 2b d5: bl (lu10)       -0x12b <__spin_lock_release_recursive>
             0x000149ca: 81 5e:       ldw (ru6)       r10, sp[0x1]
             0x000149cc: 42 5e:       ldw (ru6)       r9, sp[0x2]
             0x000149ce: 03 5e:       ldw (ru6)       r8, sp[0x3]
             0x000149d0: c4 5d:       ldw (ru6)       r7, sp[0x4]
             0x000149d2: 85 5d:       ldw (ru6)       r6, sp[0x5]
             0x000149d4: 46 5d:       ldw (ru6)       r5, sp[0x6]
             0x000149d6: 07 5d:       ldw (ru6)       r4, sp[0x7]
             0x000149d8: c8 77:       retsp (u6)      0x8
             0x000149da: 00 00:       stw (2rus)      r0, r0[0x0]

<_fflush>:
             0x000149dc: 48 77:       entsp (u6)      0x8
             0x000149de: 07 55:       stw (ru6)       r4, sp[0x7]
             0x000149e0: 46 55:       stw (ru6)       r5, sp[0x6]
             0x000149e2: 85 55:       stw (ru6)       r6, sp[0x5]
             0x000149e4: c4 55:       stw (ru6)       r7, sp[0x4]
             0x000149e6: 03 56:       stw (ru6)       r8, sp[0x3]
             0x000149e8: 42 56:       stw (ru6)       r9, sp[0x2]
             0x000149ea: 81 56:       stw (ru6)       r10, sp[0x1]
             0x000149ec: 40 90:       add (2rus)      r4, r0, 0x0
             0x000149ee: 3a f0 0c 58: ldw (lru6)      r0, dp[0xe8c]
             0x000149f2: 02 70:       bt (ru6)        r0, 0x2 <.label571>
             0x000149f4: 00 f0 92 d4: bl (lu10)       -0x92 <__sinit>
.label571    0x000149f8: 08 f0 80 6a: ldc (lru6)      r10, 0x200
             0x000149fc: 53 f9 ec 9f: ldaw (l2rus)    r9, r4[0x3]
             0x00014a00: 40 69:       ldc (ru6)       r5, 0x0
             0x00014a02: c5 83:       ld16s (3r)      r0, r9[r5]
             0x00014a04: 92 3c:       and (3r)        r1, r0, r10
             0x00014a06: 42 78:       bf (ru6)        r1, 0x2 <.label572>
             0x00014a08: 31 47:       zext (rus)      r0, 0x10
             0x00014a0a: 07 73:       bu (u6)         0x7 <.label573>
.label572    0x00014a0c: 01 f0 14 68: ldc (lru6)      r0, 0x54
             0x00014a10: c0 10:       add (3r)        r0, r4, r0
             0x00014a12: 00 f0 41 d5: bl (lu10)       -0x141 <__spin_lock_acquire_recursive>
             0x00014a16: 00 68:       ldc (ru6)       r0, 0x0
             0x00014a18: 84 81:       ld16s (3r)      r0, r9[r0]
.label573    0x00014a1a: 10 90:       add (2rus)      r1, r0, 0x0
             0x00014a1c: 35 37:       sext (rus)      r1, 0x10
             0x00014a1e: 88 68:       ldc (ru6)       r2, 0x8
             0x00014a20: 26 38:       and (3r)        r2, r1, r2
             0x00014a22: 02 f0 85 70: bt (lru6)       r2, 0x85 <.label574>
             0x00014a26: 00 6a:       ldc (ru6)       r8, 0x0
             0x00014a28: 20 f0 40 68: ldc (lru6)      r1, 0x800
             0x00014a2c: 11 40:       or (3r)         r1, r0, r1
             0x00014a2e: 14 fe ec 87: st16 (l3r)      r1, r9[r8]
             0x00014a32: e1 08:       ldw (2rus)      r2, r4[0x1]
             0x00014a34: a2 c1:       lss (3r)        r2, r8, r2
             0x00014a36: 86 70:       bt (ru6)        r2, 0x6 <.label575>
             0x00014a38: bc 68:       ldc (ru6)       r2, 0x3c
             0x00014a3a: e2 10:       add (3r)        r2, r4, r2
             0x00014a3c: 28 08:       ldw (2rus)      r2, r2[0x0]
             0x00014a3e: dd a6:       mkmsk (rus)     r3, 0x1
             0x00014a40: 2b c0:       lss (3r)        r2, r2, r3
             0x00014a42: bf 70:       bt (ru6)        r2, 0x3f <.label576>
.label575    0x00014a44: f2 0d:       ldw (2rus)      r11, r4[0xa]
             0x00014a46: fd 7a:       bf (ru6)        r11, 0x3d <.label576>
             0x00014a48: 40 f0 80 68: ldc (lru6)      r2, 0x1000
             0x00014a4c: 02 38:       and (3r)        r0, r0, r2
             0x00014a4e: 3e 78:       bf (ru6)        r0, 0x3e <.label577>
             0x00014a50: 01 f0 10 68: ldc (lru6)      r0, 0x50
             0x00014a54: c0 10:       add (3r)        r0, r4, r0
             0x00014a56: 60 08:       ldw (2rus)      r6, r0[0x0]
.label585    0x00014a58: 04 68:       ldc (ru6)       r0, 0x4
             0x00014a5a: 04 38:       and (3r)        r0, r1, r0
             0x00014a5c: 0a 78:       bf (ru6)        r0, 0xa <.label578>
             0x00014a5e: c1 08:       ldw (2rus)      r0, r4[0x1]
             0x00014a60: 28 19:       sub (3r)        r6, r6, r0
             0x00014a62: 30 68:       ldc (ru6)       r0, 0x30
             0x00014a64: c0 10:       add (3r)        r0, r4, r0
             0x00014a66: 00 08:       ldw (2rus)      r0, r0[0x0]
             0x00014a68: 04 78:       bf (ru6)        r0, 0x4 <.label578>
             0x00014a6a: 3c 68:       ldc (ru6)       r0, 0x3c
             0x00014a6c: c0 10:       add (3r)        r0, r4, r0
             0x00014a6e: 00 08:       ldw (2rus)      r0, r0[0x0]
             0x00014a70: 28 19:       sub (3r)        r6, r6, r0
.label578    0x00014a72: c0 69:       ldc (ru6)       r7, 0x0
             0x00014a74: 13 0b:       ldw (2rus)      r1, r4[0x7]
             0x00014a76: cc 90:       add (2rus)      r0, r7, 0x0
             0x00014a78: f2 0d:       ldw (2rus)      r11, r4[0xa]
             0x00014a7a: e8 90:       add (2rus)      r2, r6, 0x0
             0x00014a7c: fc 90:       add (2rus)      r3, r7, 0x0
             0x00014a7e: eb 27:       bla (1r)        r11
             0x00014a80: 52 32:       eq (3r)         r1, r0, r6
             0x00014a82: c7 83:       ld16s (3r)      r0, r9[r7]
             0x00014a84: 01 f0 4b 78: bf (lru6)       r1, 0x4b <.label579>
             0x00014a88: df f3 7f 68: ldc (lru6)      r1, 0xf7ff
             0x00014a8c: 11 38:       and (3r)        r1, r0, r1
             0x00014a8e: d7 fb ec 87: st16 (l3r)      r1, r9[r7]
             0x00014a92: 31 01:       stw (2rus)      r7, r4[0x1]
             0x00014a94: 20 0b:       ldw (2rus)      r2, r4[0x4]
             0x00014a96: e0 00:       stw (2rus)      r2, r4[0x0]
             0x00014a98: 40 f0 80 68: ldc (lru6)      r2, 0x1000
             0x00014a9c: 02 38:       and (3r)        r0, r0, r2
             0x00014a9e: 04 78:       bf (ru6)        r0, 0x4 <.label580>
             0x00014aa0: 01 f0 10 68: ldc (lru6)      r0, 0x50
             0x00014aa4: c0 10:       add (3r)        r0, r4, r0
             0x00014aa6: 60 00:       stw (2rus)      r6, r0[0x0]
.label580    0x00014aa8: 30 68:       ldc (ru6)       r0, 0x30
             0x00014aaa: 10 11:       add (3r)        r5, r4, r0
             0x00014aac: c4 08:       ldw (2rus)      r0, r5[0x0]
             0x00014aae: 09 78:       bf (ru6)        r0, 0x9 <.label576>
             0x00014ab0: 01 f0 80 68: ldc (lru6)      r2, 0x40
             0x00014ab4: e2 10:       add (3r)        r2, r4, r2
             0x00014ab6: 22 30:       eq (3r)         r2, r0, r2
             0x00014ab8: 83 70:       bt (ru6)        r2, 0x3 <.label581>
             0x00014aba: 00 f0 43 d1: bl (lu10)       0x143 <free>
             0x00014abe: d7 83:       ld16s (3r)      r1, r9[r7]
.label581    0x00014ac0: 34 01:       stw (2rus)      r7, r5[0x0]
.label576    0x00014ac2: 86 3c:       and (3r)        r0, r1, r10
             0x00014ac4: 01 f0 25 78: bf (lru6)       r0, 0x65 <.label582>
             0x00014ac8: 01 f0 29 73: bu (lu6)        0x69 <.label583>
.label577    0x00014acc: 13 0b:       ldw (2rus)      r1, r4[0x7]
             0x00014ace: c0 69:       ldc (ru6)       r7, 0x0
             0x00014ad0: dd a6:       mkmsk (rus)     r3, 0x1
             0x00014ad2: cc 90:       add (2rus)      r0, r7, 0x0
             0x00014ad4: ec 90:       add (2rus)      r2, r7, 0x0
             0x00014ad6: eb 27:       bla (1r)        r11
             0x00014ad8: 60 90:       add (2rus)      r6, r0, 0x0
             0x00014ada: 14 a7:       mkmsk (rus)     r5, 0x20
             0x00014adc: 09 33:       eq (3r)         r0, r6, r5
             0x00014ade: 03 70:       bt (ru6)        r0, 0x3 <.label584>
             0x00014ae0: d7 83:       ld16s (3r)      r1, r9[r7]
             0x00014ae2: 01 f0 07 77: bu (lu6)        -0x47 <.label585>
.label584    0x00014ae6: 00 f0 25 d5: bl (lu10)       -0x125 <__errno>
             0x00014aea: 9d 68:       ldc (ru6)       r2, 0x1d
             0x00014aec: d7 83:       ld16s (3r)      r1, r9[r7]
             0x00014aee: 00 08:       ldw (2rus)      r0, r0[0x0]
             0x00014af0: 02 30:       eq (3r)         r0, r0, r2
             0x00014af2: 02 78:       bf (ru6)        r0, 0x2 <.label586>
             0x00014af4: 1c 91:       add (2rus)      r5, r7, 0x0
             0x00014af6: 06 73:       bu (u6)         0x6 <.label587>
.label586    0x00014af8: 01 f0 00 68: ldc (lru6)      r0, 0x40
             0x00014afc: 14 40:       or (3r)         r1, r1, r0
             0x00014afe: 00 68:       ldc (ru6)       r0, 0x0
             0x00014b00: 94 f9 ec 87: st16 (l3r)      r1, r9[r0]
.label587    0x00014b04: 86 3c:       and (3r)        r0, r1, r10
             0x00014b06: 03 78:       bf (ru6)        r0, 0x3 <.label588>
             0x00014b08: 44 91:       add (2rus)      r8, r5, 0x0
             0x00014b0a: 01 f0 08 73: bu (lu6)        0x48 <.label583>
.label588    0x00014b0e: 01 f0 14 68: ldc (lru6)      r0, 0x54
             0x00014b12: c0 10:       add (3r)        r0, r4, r0
             0x00014b14: 00 f0 d2 d5: bl (lu10)       -0x1d2 <__spin_lock_release_recursive>
             0x00014b18: 44 91:       add (2rus)      r8, r5, 0x0
             0x00014b1a: 01 f0 00 73: bu (lu6)        0x40 <.label583>
.label579    0x00014b1e: 01 f0 40 68: ldc (lru6)      r1, 0x40
             0x00014b22: 11 40:       or (3r)         r1, r0, r1
             0x00014b24: 82 3c:       and (3r)        r0, r0, r10
             0x00014b26: d7 fb ec 87: st16 (l3r)      r1, r9[r7]
             0x00014b2a: 23 78:       bf (ru6)        r0, 0x23 <.label589>
             0x00014b2c: 50 a7:       mkmsk (rus)     r8, 0x20
             0x00014b2e: 37 73:       bu (u6)         0x37 <.label583>
.label574    0x00014b30: 60 0b:       ldw (2rus)      r6, r4[0x4]
             0x00014b32: 83 71:       bt (ru6)        r6, 0x3 <.label590>
             0x00014b34: 82 3c:       and (3r)        r0, r0, r10
             0x00014b36: 2d 78:       bf (ru6)        r0, 0x2d <.label582>
             0x00014b38: 31 73:       bu (u6)         0x31 <.label591>
.label590    0x00014b3a: e4 90:       add (2rus)      r2, r5, 0x0
             0x00014b3c: d6 46:       zext (rus)      r1, 0x2
             0x00014b3e: c0 08:       ldw (2rus)      r0, r4[0x0]
             0x00014b40: 20 01:       stw (2rus)      r6, r4[0x0]
             0x00014b42: 41 70:       bt (ru6)        r1, 0x1 <.label592>
             0x00014b44: 21 0b:       ldw (2rus)      r2, r4[0x5]
.label592    0x00014b46: b2 1a:       sub (3r)        r7, r0, r6
             0x00014b48: e2 00:       stw (2rus)      r2, r4[0x2]
             0x00014b4a: 1c 73:       bu (u6)         0x1c <.label593>
.label595    0x00014b4c: 13 0b:       ldw (2rus)      r1, r4[0x7]
             0x00014b4e: c4 90:       add (2rus)      r0, r5, 0x0
             0x00014b50: f1 0d:       ldw (2rus)      r11, r4[0x9]
             0x00014b52: e8 90:       add (2rus)      r2, r6, 0x0
             0x00014b54: fc 90:       add (2rus)      r3, r7, 0x0
             0x00014b56: eb 27:       bla (1r)        r11
             0x00014b58: d4 c0:       lss (3r)        r1, r5, r0
             0x00014b5a: 52 70:       bt (ru6)        r1, 0x12 <.label594>
             0x00014b5c: 01 f0 80 68: ldc (lru6)      r2, 0x40
             0x00014b60: 40 68:       ldc (ru6)       r1, 0x0
             0x00014b62: 85 81:       ld16s (3r)      r0, r9[r1]
             0x00014b64: 22 40:       or (3r)         r2, r0, r2
             0x00014b66: a5 f9 ec 87: st16 (l3r)      r2, r9[r1]
             0x00014b6a: 82 3c:       and (3r)        r0, r0, r10
             0x00014b6c: 02 78:       bf (ru6)        r0, 0x2 <.label589>
             0x00014b6e: 50 a7:       mkmsk (rus)     r8, 0x20
             0x00014b70: 16 73:       bu (u6)         0x16 <.label583>
.label589    0x00014b72: 01 f0 14 68: ldc (lru6)      r0, 0x54
             0x00014b76: c0 10:       add (3r)        r0, r4, r0
             0x00014b78: 00 f0 04 d6: bl (lu10)       -0x204 <__spin_lock_release_recursive>
             0x00014b7c: 50 a7:       mkmsk (rus)     r8, 0x20
             0x00014b7e: 0f 73:       bu (u6)         0xf <.label583>
.label594    0x00014b80: 28 11:       add (3r)        r6, r6, r0
             0x00014b82: 3c 19:       sub (3r)        r7, r7, r0
.label593    0x00014b84: 07 c3:       lss (3r)        r0, r5, r7
             0x00014b86: 1e 74:       bt (ru6)        r0, -0x1e <.label595>
             0x00014b88: 42 68:       ldc (ru6)       r1, 0x2
             0x00014b8a: 0d 68:       ldc (ru6)       r0, 0xd
             0x00014b8c: c0 88:       ld8u (3r)       r0, r4[r0]
             0x00014b8e: 01 38:       and (3r)        r0, r0, r1
             0x00014b90: 05 70:       bt (ru6)        r0, 0x5 <.label591>
.label582    0x00014b92: 01 f0 14 68: ldc (lru6)      r0, 0x54
             0x00014b96: c0 10:       add (3r)        r0, r4, r0
             0x00014b98: 00 f0 14 d6: bl (lu10)       -0x214 <__spin_lock_release_recursive>
.label591    0x00014b9c: 00 6a:       ldc (ru6)       r8, 0x0
.label583    0x00014b9e: 81 5e:       ldw (ru6)       r10, sp[0x1]
             0x00014ba0: 42 5e:       ldw (ru6)       r9, sp[0x2]
             0x00014ba2: 80 91:       add (2rus)      r0, r8, 0x0
             0x00014ba4: 03 5e:       ldw (ru6)       r8, sp[0x3]
             0x00014ba6: c4 5d:       ldw (ru6)       r7, sp[0x4]
             0x00014ba8: 85 5d:       ldw (ru6)       r6, sp[0x5]
             0x00014baa: 46 5d:       ldw (ru6)       r5, sp[0x6]
             0x00014bac: 07 5d:       ldw (ru6)       r4, sp[0x7]
             0x00014bae: c8 77:       retsp (u6)      0x8

<fflush>:
             0x00014bb0: 41 77:       entsp (u6)      0x1
             0x00014bb2: 05 70:       bt (ru6)        r0, 0x5 <.label596>
             0x00014bb4: 03 dc:       ldap (u10)      r11, -0x3 <fflush>
             0x00014bb6: 8c 91:       add (2rus)      r0, r11, 0x0
             0x00014bb8: 00 f0 78 d0: bl (lu10)       0x78 <_fwalk>
             0x00014bbc: c1 77:       retsp (u6)      0x1
.label596    0x00014bbe: f2 d4:       bl (u10)        -0xf2 <_fflush>
             0x00014bc0: c1 77:       retsp (u6)      0x1
             0x00014bc2: 00 00:       stw (2rus)      r0, r0[0x0]

<__sread>:
             0x00014bc4: 43 77:       entsp (u6)      0x3
             0x00014bc6: 0e 68:       ldc (ru6)       r0, 0xe
             0x00014bc8: 02 55:       stw (ru6)       r4, sp[0x2]
             0x00014bca: 44 90:       add (2rus)      r4, r1, 0x0
             0x00014bcc: 41 55:       stw (ru6)       r5, sp[0x1]
             0x00014bce: c0 10:       add (3r)        r0, r4, r0
             0x00014bd0: 18 90:       add (2rus)      r1, r2, 0x0
             0x00014bd2: 2c 90:       add (2rus)      r2, r3, 0x0
             0x00014bd4: 40 69:       ldc (ru6)       r5, 0x0
             0x00014bd6: 41 82:       ld16s (3r)      r0, r0[r5]
             0x00014bd8: 00 f0 fa d0: bl (lu10)       0xfa <_read>
             0x00014bdc: 10 f8 ec 97: ashr (l2rus)    r1, r0, 0x20
             0x00014be0: 47 70:       bt (ru6)        r1, 0x7 <.label597>
             0x00014be2: 01 f0 50 68: ldc (lru6)      r1, 0x50
             0x00014be6: d1 10:       add (3r)        r1, r4, r1
             0x00014be8: 24 08:       ldw (2rus)      r2, r1[0x0]
             0x00014bea: 28 10:       add (3r)        r2, r2, r0
             0x00014bec: 24 00:       stw (2rus)      r2, r1[0x0]
             0x00014bee: 08 73:       bu (u6)         0x8 <.label598>
.label597    0x00014bf0: bf f3 ff 68: ldc (lru6)      r3, 0xefff
             0x00014bf4: d3 f8 ec 9f: ldaw (l2rus)    r1, r4[0x3]
             0x00014bf8: 65 82:       ld16s (3r)      r2, r1[r5]
             0x00014bfa: 2b 38:       and (3r)        r2, r2, r3
             0x00014bfc: 65 fa ec 87: st16 (l3r)      r2, r1[r5]
.label598    0x00014c00: 41 5d:       ldw (ru6)       r5, sp[0x1]
             0x00014c02: 02 5d:       ldw (ru6)       r4, sp[0x2]
             0x00014c04: c3 77:       retsp (u6)      0x3
             0x00014c06: 00 90:       add (2rus)      r0, r0, 0x0

<__sclose>:
             0x00014c08: 0e 68:       ldc (ru6)       r0, 0xe
             0x00014c0a: 04 10:       add (3r)        r0, r1, r0
             0x00014c0c: 40 68:       ldc (ru6)       r1, 0x0
             0x00014c0e: 41 77:       entsp (u6)      0x1
             0x00014c10: 01 80:       ld16s (3r)      r0, r0[r1]
             0x00014c12: 00 f0 d3 d0: bl (lu10)       0xd3 <_close>
             0x00014c16: c1 77:       retsp (u6)      0x1

<__sseek>:
             0x00014c18: 43 77:       entsp (u6)      0x3
             0x00014c1a: 0e 68:       ldc (ru6)       r0, 0xe
             0x00014c1c: 02 55:       stw (ru6)       r4, sp[0x2]
             0x00014c1e: 44 90:       add (2rus)      r4, r1, 0x0
             0x00014c20: 41 55:       stw (ru6)       r5, sp[0x1]
             0x00014c22: c0 10:       add (3r)        r0, r4, r0
             0x00014c24: 40 69:       ldc (ru6)       r5, 0x0
             0x00014c26: 41 82:       ld16s (3r)      r0, r0[r5]
             0x00014c28: 18 90:       add (2rus)      r1, r2, 0x0
             0x00014c2a: 2c 90:       add (2rus)      r2, r3, 0x0
             0x00014c2c: 00 f0 ca d0: bl (lu10)       0xca <_lseek>
             0x00014c30: d3 f8 ec 9f: ldaw (l2rus)    r1, r4[0x3]
             0x00014c34: 65 82:       ld16s (3r)      r2, r1[r5]
             0x00014c36: dc a6:       mkmsk (rus)     r3, 0x20
             0x00014c38: 33 30:       eq (3r)         r3, r0, r3
             0x00014c3a: c6 78:       bf (ru6)        r3, 0x6 <.label599>
             0x00014c3c: bf f3 ff 68: ldc (lru6)      r3, 0xefff
             0x00014c40: 2b 38:       and (3r)        r2, r2, r3
             0x00014c42: 65 fa ec 87: st16 (l3r)      r2, r1[r5]
             0x00014c46: 09 73:       bu (u6)         0x9 <.label600>
.label599    0x00014c48: 40 f0 c0 68: ldc (lru6)      r3, 0x1000
             0x00014c4c: 2b 40:       or (3r)         r2, r2, r3
             0x00014c4e: 65 fa ec 87: st16 (l3r)      r2, r1[r5]
             0x00014c52: 01 f0 50 68: ldc (lru6)      r1, 0x50
             0x00014c56: d1 10:       add (3r)        r1, r4, r1
             0x00014c58: 04 00:       stw (2rus)      r0, r1[0x0]
.label600    0x00014c5a: 41 5d:       ldw (ru6)       r5, sp[0x1]
             0x00014c5c: 02 5d:       ldw (ru6)       r4, sp[0x2]
             0x00014c5e: c3 77:       retsp (u6)      0x3

<__swrite>:
             0x00014c60: 44 77:       entsp (u6)      0x4
             0x00014c62: 03 55:       stw (ru6)       r4, sp[0x3]
             0x00014c64: 42 55:       stw (ru6)       r5, sp[0x2]
             0x00014c66: 4c 90:       add (2rus)      r4, r3, 0x0
             0x00014c68: 81 55:       stw (ru6)       r6, sp[0x1]
             0x00014c6a: 58 90:       add (2rus)      r5, r2, 0x0
             0x00014c6c: 04 f0 00 68: ldc (lru6)      r0, 0x100
             0x00014c70: 64 90:       add (2rus)      r6, r1, 0x0
             0x00014c72: db 08:       ldw (2rus)      r1, r6[0x3]
             0x00014c74: 24 38:       and (3r)        r2, r1, r0
             0x00014c76: 85 ac:       shr (2rus)      r0, r1, 0x10
             0x00014c78: 87 78:       bf (ru6)        r2, 0x7 <.label601>
             0x00014c7a: 82 68:       ldc (ru6)       r2, 0x2
             0x00014c7c: 40 68:       ldc (ru6)       r1, 0x0
             0x00014c7e: 31 37:       sext (rus)      r0, 0x10
             0x00014c80: 00 f0 a0 d0: bl (lu10)       0xa0 <_lseek>
             0x00014c84: db 08:       ldw (2rus)      r1, r6[0x3]
             0x00014c86: 85 ac:       shr (2rus)      r0, r1, 0x10
.label601    0x00014c88: bf f3 bf 68: ldc (lru6)      r2, 0xefff
             0x00014c8c: 16 38:       and (3r)        r1, r1, r2
             0x00014c8e: eb f8 ec 9f: ldaw (l2rus)    r2, r6[0x3]
             0x00014c92: 31 37:       sext (rus)      r0, 0x10
             0x00014c94: c0 68:       ldc (ru6)       r3, 0x0
             0x00014c96: 1b f8 ec 87: st16 (l3r)      r1, r2[r3]
             0x00014c9a: e0 90:       add (2rus)      r2, r4, 0x0
             0x00014c9c: d4 90:       add (2rus)      r1, r5, 0x0
             0x00014c9e: 00 f0 62 d6: bl (lu10)       -0x262 <_write> <_write.coersed..f.7bsi.7d.28si.2cp.28c.3auc.29.2cui.29>
             0x00014ca2: 81 5d:       ldw (ru6)       r6, sp[0x1]
             0x00014ca4: 42 5d:       ldw (ru6)       r5, sp[0x2]
             0x00014ca6: 03 5d:       ldw (ru6)       r4, sp[0x3]
             0x00014ca8: c4 77:       retsp (u6)      0x4
             0x00014caa: 00 00:       stw (2rus)      r0, r0[0x0]

<_fwalk>:
             0x00014cac: 49 77:       entsp (u6)      0x9
             0x00014cae: 08 55:       stw (ru6)       r4, sp[0x8]
             0x00014cb0: 47 55:       stw (ru6)       r5, sp[0x7]
             0x00014cb2: 86 55:       stw (ru6)       r6, sp[0x6]
             0x00014cb4: c5 55:       stw (ru6)       r7, sp[0x5]
             0x00014cb6: 04 56:       stw (ru6)       r8, sp[0x4]
             0x00014cb8: 43 56:       stw (ru6)       r9, sp[0x3]
             0x00014cba: 82 56:       stw (ru6)       r10, sp[0x2]
             0x00014cbc: 01 54:       stw (ru6)       r0, sp[0x1]
             0x00014cbe: 00 f0 05 d6: bl (lu10)       -0x205 <__sfp_lock_acquire>
             0x00014cc2: c0 69:       ldc (ru6)       r7, 0x0
             0x00014cc4: 08 f0 40 6a: ldc (lru6)      r9, 0x200
             0x00014cc8: 01 f0 94 6a: ldc (lru6)      r10, 0x54
             0x00014ccc: 3a f0 0d 62: ldaw (lru6)     r8, dp[0xe8d]
             0x00014cd0: 1c 91:       add (2rus)      r5, r7, 0x0
.label608    0x00014cd2: d1 a6:       mkmsk (rus)     r0, 0x1
             0x00014cd4: c1 09:       ldw (2rus)      r4, r8[0x1]
             0x00014cd6: c0 c0:       lss (3r)        r0, r4, r0
             0x00014cd8: 27 70:       bt (ru6)        r0, 0x27 <.label602>
             0x00014cda: e2 09:       ldw (2rus)      r6, r8[0x2]
.label607    0x00014cdc: db 08:       ldw (2rus)      r1, r6[0x3]
             0x00014cde: 04 90:       add (2rus)      r0, r1, 0x0
             0x00014ce0: 31 47:       zext (rus)      r0, 0x10
             0x00014ce2: 1c 78:       bf (ru6)        r0, 0x1c <.label603>
             0x00014ce4: 04 90:       add (2rus)      r0, r1, 0x0
             0x00014ce6: a5 3c:       and (3r)        r2, r1, r9
             0x00014ce8: 88 70:       bt (ru6)        r2, 0x8 <.label604>
             0x00014cea: 4a 15:       add (3r)        r0, r6, r10
             0x00014cec: 00 f0 ae d6: bl (lu10)       -0x2ae <__spin_lock_acquire_recursive>
             0x00014cf0: db 08:       ldw (2rus)      r1, r6[0x3]
             0x00014cf2: 04 90:       add (2rus)      r0, r1, 0x0
             0x00014cf4: 24 90:       add (2rus)      r2, r1, 0x0
             0x00014cf6: 39 47:       zext (rus)      r2, 0x10
             0x00014cf8: 8e 78:       bf (ru6)        r2, 0xe <.label605>
.label604    0x00014cfa: 00 f0 ac 6c: ldw (lru6)      r2, cp[0x2c]
             0x00014cfe: 02 38:       and (3r)        r0, r0, r2
             0x00014d00: 02 30:       eq (3r)         r0, r0, r2
             0x00014d02: 07 70:       bt (ru6)        r0, 0x7 <.label606>
             0x00014d04: 41 5c:       ldw (ru6)       r1, sp[0x1]
             0x00014d06: c8 90:       add (2rus)      r0, r6, 0x0
             0x00014d08: e1 27:       bla (1r)        r1
             0x00014d0a: 91 42:       or (3r)         r5, r0, r5
             0x00014d0c: db f8 ec 9f: ldaw (l2rus)    r1, r6[0x3]
             0x00014d10: 57 82:       ld16s (3r)      r1, r1[r7]
.label606    0x00014d12: 85 3c:       and (3r)        r0, r1, r9
             0x00014d14: 03 70:       bt (ru6)        r0, 0x3 <.label603>
.label605    0x00014d16: 4a 15:       add (3r)        r0, r6, r10
             0x00014d18: 00 f0 d4 d6: bl (lu10)       -0x2d4 <__spin_lock_release_recursive>
.label603    0x00014d1c: 01 99:       sub (2rus)      r4, r4, 0x1
             0x00014d1e: 01 f0 1c 68: ldc (lru6)      r0, 0x5c
             0x00014d22: 28 11:       add (3r)        r6, r6, r0
             0x00014d24: 0c c3:       lss (3r)        r0, r7, r4
             0x00014d26: 26 74:       bt (ru6)        r0, -0x26 <.label607>
.label602    0x00014d28: 00 0a:       ldw (2rus)      r8, r8[0x0]
             0x00014d2a: 2d 76:       bt (ru6)        r8, -0x2d <.label608>
             0x00014d2c: 00 f0 42 d6: bl (lu10)       -0x242 <__sfp_lock_release>
             0x00014d30: 82 5e:       ldw (ru6)       r10, sp[0x2]
             0x00014d32: 43 5e:       ldw (ru6)       r9, sp[0x3]
             0x00014d34: 04 5e:       ldw (ru6)       r8, sp[0x4]
             0x00014d36: c5 5d:       ldw (ru6)       r7, sp[0x5]
             0x00014d38: 86 5d:       ldw (ru6)       r6, sp[0x6]
             0x00014d3a: c4 90:       add (2rus)      r0, r5, 0x0
             0x00014d3c: 47 5d:       ldw (ru6)       r5, sp[0x7]
             0x00014d3e: 08 5d:       ldw (ru6)       r4, sp[0x8]
             0x00014d40: c9 77:       retsp (u6)      0x9
             0x00014d42: 00 00:       stw (2rus)      r0, r0[0x0]

<free>:
             0x00014d44: 42 77:       entsp (u6)      0x2
             0x00014d46: 01 55:       stw (ru6)       r4, sp[0x1]
             0x00014d48: 40 90:       add (2rus)      r4, r0, 0x0
             0x00014d4a: 00 f0 2b d0: bl (lu10)       0x2b <__malloc_lock>
             0x00014d4e: 25 79:       bf (ru6)        r4, 0x25 <.label609>
             0x00014d50: 3b f0 95 60: ldaw (lru6)     r2, dp[0xed5]
             0x00014d54: 00 9b:       sub (2rus)      r0, r4, 0x4
             0x00014d56: 1d 73:       bu (u6)         0x1d <.label610>
.label614    0x00014d58: 34 08:       ldw (2rus)      r3, r1[0x0]
             0x00014d5a: bd 10:       add (3r)        r11, r3, r1
             0x00014d5c: cc 31:       eq (3r)         r4, r11, r0
             0x00014d5e: b0 08:       ldw (2rus)      r11, r0[0x0]
             0x00014d60: 0e 79:       bf (ru6)        r4, 0xe <.label611>
             0x00014d62: bf 11:       add (3r)        r3, r11, r3
             0x00014d64: 34 00:       stw (2rus)      r3, r1[0x0]
             0x00014d66: 25 08:       ldw (2rus)      r2, r1[0x1]
             0x00014d68: 98 78:       bf (ru6)        r2, 0x18 <.label609>
             0x00014d6a: b0 08:       ldw (2rus)      r11, r0[0x0]
             0x00014d6c: 8c 11:       add (3r)        r0, r11, r0
             0x00014d6e: 02 30:       eq (3r)         r0, r0, r2
             0x00014d70: 14 78:       bf (ru6)        r0, 0x14 <.label609>
             0x00014d72: 08 08:       ldw (2rus)      r0, r2[0x0]
             0x00014d74: 03 10:       add (3r)        r0, r0, r3
             0x00014d76: 04 00:       stw (2rus)      r0, r1[0x0]
             0x00014d78: 09 08:       ldw (2rus)      r0, r2[0x1]
             0x00014d7a: 05 00:       stw (2rus)      r0, r1[0x1]
             0x00014d7c: 0e 73:       bu (u6)         0xe <.label609>
.label611    0x00014d7e: cc 11:       add (3r)        r4, r11, r0
             0x00014d80: 84 32:       eq (3r)         r4, r1, r4
             0x00014d82: 04 79:       bf (ru6)        r4, 0x4 <.label612>
             0x00014d84: bf 11:       add (3r)        r3, r11, r3
             0x00014d86: 30 00:       stw (2rus)      r3, r0[0x0]
             0x00014d88: 15 08:       ldw (2rus)      r1, r1[0x1]
             0x00014d8a: 05 73:       bu (u6)         0x5 <.label613>
.label612    0x00014d8c: 31 c8:       lsu (3r)        r3, r0, r1
             0x00014d8e: c3 70:       bt (ru6)        r3, 0x3 <.label613>
             0x00014d90: 64 92:       add (2rus)      r2, r1, 0x4
.label610    0x00014d92: 18 08:       ldw (2rus)      r1, r2[0x0]
             0x00014d94: 5f 74:       bt (ru6)        r1, -0x1f <.label614>
.label613    0x00014d96: 11 00:       stw (2rus)      r1, r0[0x1]
             0x00014d98: 08 00:       stw (2rus)      r0, r2[0x0]
.label609    0x00014d9a: 00 f0 09 d0: bl (lu10)       0x9 <__malloc_unlock>
             0x00014d9e: 01 5d:       ldw (ru6)       r4, sp[0x1]
             0x00014da0: c2 77:       retsp (u6)      0x2
             0x00014da2: 00 00:       stw (2rus)      r0, r0[0x0]

<__malloc_lock>:
             0x00014da4: 3b f0 16 60: ldaw (lru6)     r0, dp[0xed6]
             0x00014da8: 41 77:       entsp (u6)      0x1
             0x00014daa: 00 f0 39 d7: bl (lu10)       -0x339 <__spin_lock_acquire>
             0x00014dae: c1 77:       retsp (u6)      0x1

<__malloc_unlock>:
             0x00014db0: 3b f0 16 60: ldaw (lru6)     r0, dp[0xed6]
             0x00014db4: 41 77:       entsp (u6)      0x1
             0x00014db6: 00 f0 33 d7: bl (lu10)       -0x333 <__spin_lock_release>
             0x00014dba: c1 77:       retsp (u6)      0x1

<_close>:
             0x00014dbc: 10 90:       add (2rus)      r1, r0, 0x0
             0x00014dbe: 04 68:       ldc (ru6)       r0, 0x4
             0x00014dc0: 0a f0 21 77: bu (lu6)        -0x2a1 <_DoSyscallErrno>

<_lseek>:
             0x00014dc4: 38 90:       add (2rus)      r3, r2, 0x0
             0x00014dc6: 24 90:       add (2rus)      r2, r1, 0x0
             0x00014dc8: 10 90:       add (2rus)      r1, r0, 0x0
             0x00014dca: 08 68:       ldc (ru6)       r0, 0x8
             0x00014dcc: 0a f0 27 77: bu (lu6)        -0x2a7 <_DoSyscallErrno>

<_read>:
             0x00014dd0: 38 90:       add (2rus)      r3, r2, 0x0
             0x00014dd2: 24 90:       add (2rus)      r2, r1, 0x0
             0x00014dd4: 10 90:       add (2rus)      r1, r0, 0x0
             0x00014dd6: 05 68:       ldc (ru6)       r0, 0x5
             0x00014dd8: 0a f0 2d 77: bu (lu6)        -0x2ad <_DoSyscallErrno>

<printstr.coersed..f.7bsi.7d.28p.28c.3auc.29.29>:
             0x00014ddc: d4 a6:       mkmsk (rus)     r1, 0x20
             0x00014dde: 27 f0 1b 77: bu (lu6)        -0x9db <printstr> <printstr.coersed..f.7bsi.7d.28.26.28a.28.3ac.3auc.29.29.29>

Disassembly of section .init (size: 92)

<_init>:
.label3      0x00014de2: 41 77:       entsp (u6)      0x1
             0x00014de4: 00 f0 66 da: ldap (lu10)     r11, 0x266 <.label615>
             0x00014de8: 8c 91:       add (2rus)      r0, r11, 0x0
             0x00014dea: 40 68:       ldc (ru6)       r1, 0x0
             0x00014dec: 00 f0 62 da: ldap (lu10)     r11, 0x262 <.label615>
             0x00014df0: ac 19:       sub (3r)        r2, r11, r0
             0x00014df2: 02 f0 81 d6: bl (lu10)       -0xa81 <.label616>
             0x00014df6: 02 f0 e3 da: ldap (lu10)     r11, 0xae3 <.label617>
             0x00014dfa: 8c 91:       add (2rus)      r0, r11, 0x0
             0x00014dfc: 40 68:       ldc (ru6)       r1, 0x0
             0x00014dfe: 08 f0 1b d8: ldap (lu10)     r11, 0x201b <.label618>
             0x00014e02: ac 19:       sub (3r)        r2, r11, r0
             0x00014e04: 02 f0 8a d6: bl (lu10)       -0xa8a <.label616>
             0x00014e08: 00 f0 6c d7: bl (lu10)       -0x36c <.label619>
             0x00014e0c: 00 f0 62 d9: ldap (lu10)     r11, 0x162 <.label620>
             0x00014e10: 8c 91:       add (2rus)      r0, r11, 0x0
             0x00014e12: 3b f0 57 60: ldaw (lru6)     r1, dp[0xed7]
             0x00014e16: 80 68:       ldc (ru6)       r2, 0x0
             0x00014e18: c0 68:       ldc (ru6)       r3, 0x0
             0x00014e1a: 09 f0 ba d6: bl (lu10)       -0x26ba <.label621>
             0x00014e1e: 10 f0 27 59: ldw (lru6)      r4, dp[0x427]
             0x00014e22: 02 a9:       shr (2rus)      r4, r4, 0x2
             0x00014e24: 0b 79:       bf (ru6)        r4, 0xb <do_ctors_end>
             0x00014e26: 00 f0 e7 d9: ldap (lu10)     r11, 0x1e7 <.label622>
             0x00014e2a: dc 91:       add (2rus)      r5, r11, 0x0
             0x00014e2c: 10 f0 a6 59: ldw (lru6)      r6, dp[0x426]
             0x00014e30: 66 1b:       sub (3r)        r6, r5, r6

<do_ctors_loop>:
             0x00014e32: 01 99:       sub (2rus)      r4, r4, 0x1
             0x00014e34: 04 4b:       ldw (3r)        r0, r5[r4]
             0x00014e36: 42 12:       add (3r)        r0, r0, r6
             0x00014e38: e0 27:       bla (1r)        r0
             0x00014e3a: 05 75:       bt (ru6)        r4, -0x5 <do_ctors_loop>

<do_ctors_end>:
             0x00014e3c: c1 77:       retsp (u6)      0x1

Disassembly of section .fini (size: 58)

<_fini>:
.label469    0x00014e3e: 41 77:       entsp (u6)      0x1
             0x00014e40: 85 77:       extsp (u6)      0x5
             0x00014e42: 01 55:       stw (ru6)       r4, sp[0x1]
             0x00014e44: 42 55:       stw (ru6)       r5, sp[0x2]
             0x00014e46: 83 55:       stw (ru6)       r6, sp[0x3]
             0x00014e48: c4 55:       stw (ru6)       r7, sp[0x4]
             0x00014e4a: 00 f0 c2 59: ldw (lru6)      r7, dp[0x2]
             0x00014e4e: 3e a9:       shr (2rus)      r7, r7, 0x2
             0x00014e50: cd 79:       bf (ru6)        r7, 0xd <do_dtors_end>
             0x00014e52: 00 69:       ldc (ru6)       r4, 0x0
             0x00014e54: 00 f0 00 da: ldap (lu10)     r11, 0x200 <.label623>
             0x00014e58: dc 91:       add (2rus)      r5, r11, 0x0
             0x00014e5a: 00 f0 81 59: ldw (lru6)      r6, dp[0x1]
             0x00014e5e: 66 1b:       sub (3r)        r6, r5, r6

<do_dtors_loop>:
             0x00014e60: 04 4b:       ldw (3r)        r0, r5[r4]
             0x00014e62: 42 12:       add (3r)        r0, r0, r6
             0x00014e64: e0 27:       bla (1r)        r0
             0x00014e66: 01 91:       add (2rus)      r4, r4, 0x1
             0x00014e68: b3 cb:       lsu (3r)        r11, r4, r7
             0x00014e6a: c6 76:       bt (ru6)        r11, -0x6 <do_dtors_loop>

<do_dtors_end>:
             0x00014e6c: 01 5d:       ldw (ru6)       r4, sp[0x1]
             0x00014e6e: 42 5d:       ldw (ru6)       r5, sp[0x2]
             0x00014e70: 83 5d:       ldw (ru6)       r6, sp[0x3]
             0x00014e72: c4 5d:       ldw (ru6)       r7, sp[0x4]
             0x00014e74: 85 67:       ldaw (ru6)      sp, sp[0x5]
             0x00014e76: c1 77:       retsp (u6)      0x1

Disassembly of section .globcode (size: 596)

<getAllChansFunc>:
             0x00014e78: 41 77:       entsp (u6)      0x1
             0x00014e7a: 00 55:       stw (ru6)       r4, sp[0x0]

<getAllChannels>:
             0x00014e7c: c2 86:       getr (rus)      r0, 0x2
             0x00014e7e: 02 74:       bt (ru6)        r0, -0x2 <getAllChannels>
             0x00014e80: 9f 68:       ldc (ru6)       r2, 0x1f
             0x00014e82: c0 68:       ldc (ru6)       r3, 0x0
             0x00014e84: 04 f0 40 68: ldc (lru6)      r1, 0x100
             0x00014e88: 00 f0 08 6c: ldw (lru6)      r0, cp[0x8]

<freeAllChannels>:
             0x00014e8c: e0 17:       freer (1r)      res[r0]

<skipFree>:
             0x00014e8e: 01 10:       add (3r)        r0, r0, r1
             0x00014e90: 4e 30:       eq (3r)         r4, r3, r2
             0x00014e92: 3d 90:       add (2rus)      r3, r3, 0x1
             0x00014e94: 05 7d:       bf (ru6)        r4, -0x5 <freeAllChannels>
             0x00014e96: 00 5d:       ldw (ru6)       r4, sp[0x0]
             0x00014e98: c1 77:       retsp (u6)      0x1
             0x00014e9a: 10 f0 28 58: ldw (lru6)      r0, dp[0x428]
             0x00014e9e: 08 e8:       setc (ru6)      res[r0], 0x8
             0x00014ea0: 00 f0 46 68: ldc (lru6)      r1, 0x6
             0x00014ea4: d4 fe ec 0f: setclk (lr2r)   res[r0], r1
             0x00014ea8: 80 f0 0f e8: setc (lru6)     res[r0], 0x200f
             0x00014eac: 60 68:       ldc (ru6)       r1, 0x20
             0x00014eae: d4 fe ec 27: settw (lr2r)    res[r0], r1
             0x00014eb2: c0 77:       retsp (u6)      0x0
             0x00014eb4: 10 f0 28 58: ldw (lru6)      r0, dp[0x428]
             0x00014eb8: 00 e8:       setc (ru6)      res[r0], 0x0
             0x00014eba: c0 77:       retsp (u6)      0x0
             0x00014ebc: 10 f0 29 58: ldw (lru6)      r0, dp[0x429]
             0x00014ec0: 08 e8:       setc (ru6)      res[r0], 0x8
             0x00014ec2: 00 f0 46 68: ldc (lru6)      r1, 0x6
             0x00014ec6: d4 fe ec 0f: setclk (lr2r)   res[r0], r1
             0x00014eca: 80 f0 0f e8: setc (lru6)     res[r0], 0x200f
             0x00014ece: 60 68:       ldc (ru6)       r1, 0x20
             0x00014ed0: d4 fe ec 27: settw (lr2r)    res[r0], r1
             0x00014ed4: c0 77:       retsp (u6)      0x0
             0x00014ed6: 10 f0 29 58: ldw (lru6)      r0, dp[0x429]
             0x00014eda: 00 e8:       setc (ru6)      res[r0], 0x0
             0x00014edc: c0 77:       retsp (u6)      0x0
             0x00014ede: 10 f0 2a 58: ldw (lru6)      r0, dp[0x42a]
             0x00014ee2: 08 e8:       setc (ru6)      res[r0], 0x8
             0x00014ee4: 00 f0 46 68: ldc (lru6)      r1, 0x6
             0x00014ee8: d4 fe ec 0f: setclk (lr2r)   res[r0], r1
             0x00014eec: 80 f0 0f e8: setc (lru6)     res[r0], 0x200f
             0x00014ef0: 60 68:       ldc (ru6)       r1, 0x20
             0x00014ef2: d4 fe ec 27: settw (lr2r)    res[r0], r1
             0x00014ef6: c0 77:       retsp (u6)      0x0
             0x00014ef8: 10 f0 2a 58: ldw (lru6)      r0, dp[0x42a]
             0x00014efc: 00 e8:       setc (ru6)      res[r0], 0x0
             0x00014efe: c0 77:       retsp (u6)      0x0
             0x00014f00: 10 f0 2b 58: ldw (lru6)      r0, dp[0x42b]
             0x00014f04: 08 e8:       setc (ru6)      res[r0], 0x8
             0x00014f06: 00 f0 46 68: ldc (lru6)      r1, 0x6
             0x00014f0a: d4 fe ec 0f: setclk (lr2r)   res[r0], r1
             0x00014f0e: 80 f0 0f e8: setc (lru6)     res[r0], 0x200f
             0x00014f12: 60 68:       ldc (ru6)       r1, 0x20
             0x00014f14: d4 fe ec 27: settw (lr2r)    res[r0], r1
             0x00014f18: c0 77:       retsp (u6)      0x0
             0x00014f1a: 10 f0 2b 58: ldw (lru6)      r0, dp[0x42b]
             0x00014f1e: 00 e8:       setc (ru6)      res[r0], 0x0
             0x00014f20: c0 77:       retsp (u6)      0x0
             0x00014f22: 10 f0 2c 58: ldw (lru6)      r0, dp[0x42c]
             0x00014f26: 08 e8:       setc (ru6)      res[r0], 0x8
             0x00014f28: 00 f0 46 68: ldc (lru6)      r1, 0x6
             0x00014f2c: d4 fe ec 0f: setclk (lr2r)   res[r0], r1
             0x00014f30: c0 77:       retsp (u6)      0x0
             0x00014f32: 10 f0 2c 58: ldw (lru6)      r0, dp[0x42c]
             0x00014f36: 00 e8:       setc (ru6)      res[r0], 0x0
             0x00014f38: c0 77:       retsp (u6)      0x0
             0x00014f3a: 10 f0 2d 58: ldw (lru6)      r0, dp[0x42d]
             0x00014f3e: 08 e8:       setc (ru6)      res[r0], 0x8
             0x00014f40: 00 f0 46 68: ldc (lru6)      r1, 0x6
             0x00014f44: d4 fe ec 0f: setclk (lr2r)   res[r0], r1
             0x00014f48: 80 f0 0f e8: setc (lru6)     res[r0], 0x200f
             0x00014f4c: 60 68:       ldc (ru6)       r1, 0x20
             0x00014f4e: d4 fe ec 27: settw (lr2r)    res[r0], r1
             0x00014f52: c0 77:       retsp (u6)      0x0
             0x00014f54: 10 f0 2d 58: ldw (lru6)      r0, dp[0x42d]
             0x00014f58: 00 e8:       setc (ru6)      res[r0], 0x0
             0x00014f5a: c0 77:       retsp (u6)      0x0
             0x00014f5c: 10 f0 2e 58: ldw (lru6)      r0, dp[0x42e]
             0x00014f60: 08 e8:       setc (ru6)      res[r0], 0x8
             0x00014f62: 00 f0 46 68: ldc (lru6)      r1, 0x6
             0x00014f66: d4 fe ec 0f: setclk (lr2r)   res[r0], r1
             0x00014f6a: c0 77:       retsp (u6)      0x0
             0x00014f6c: 10 f0 2e 58: ldw (lru6)      r0, dp[0x42e]
             0x00014f70: 00 e8:       setc (ru6)      res[r0], 0x0
             0x00014f72: c0 77:       retsp (u6)      0x0
             0x00014f74: 10 f0 2f 58: ldw (lru6)      r0, dp[0x42f]
             0x00014f78: 08 e8:       setc (ru6)      res[r0], 0x8
             0x00014f7a: 00 f0 46 68: ldc (lru6)      r1, 0x6
             0x00014f7e: d4 fe ec 0f: setclk (lr2r)   res[r0], r1
             0x00014f82: c0 77:       retsp (u6)      0x0
             0x00014f84: 10 f0 2f 58: ldw (lru6)      r0, dp[0x42f]
             0x00014f88: 00 e8:       setc (ru6)      res[r0], 0x0
             0x00014f8a: c0 77:       retsp (u6)      0x0
             0x00014f8c: 10 f0 30 58: ldw (lru6)      r0, dp[0x430]
             0x00014f90: 08 e8:       setc (ru6)      res[r0], 0x8
             0x00014f92: 00 f0 46 68: ldc (lru6)      r1, 0x6
             0x00014f96: d4 fe ec 0f: setclk (lr2r)   res[r0], r1
             0x00014f9a: c0 77:       retsp (u6)      0x0
             0x00014f9c: 10 f0 30 58: ldw (lru6)      r0, dp[0x430]
             0x00014fa0: 00 e8:       setc (ru6)      res[r0], 0x0
             0x00014fa2: c0 77:       retsp (u6)      0x0
             0x00014fa4: 10 f0 31 58: ldw (lru6)      r0, dp[0x431]
             0x00014fa8: 08 e8:       setc (ru6)      res[r0], 0x8
             0x00014faa: 00 f0 46 68: ldc (lru6)      r1, 0x6
             0x00014fae: d4 fe ec 0f: setclk (lr2r)   res[r0], r1
             0x00014fb2: c0 77:       retsp (u6)      0x0
             0x00014fb4: 10 f0 31 58: ldw (lru6)      r0, dp[0x431]
             0x00014fb8: 00 e8:       setc (ru6)      res[r0], 0x0
             0x00014fba: c0 77:       retsp (u6)      0x0
             0x00014fbc: 10 f0 32 58: ldw (lru6)      r0, dp[0x432]
             0x00014fc0: 08 e8:       setc (ru6)      res[r0], 0x8
             0x00014fc2: c0 77:       retsp (u6)      0x0
             0x00014fc4: 10 f0 32 58: ldw (lru6)      r0, dp[0x432]
             0x00014fc8: 00 e8:       setc (ru6)      res[r0], 0x0
             0x00014fca: c0 77:       retsp (u6)      0x0
             0x00014fcc: 10 f0 33 58: ldw (lru6)      r0, dp[0x433]
             0x00014fd0: 08 e8:       setc (ru6)      res[r0], 0x8
             0x00014fd2: c0 77:       retsp (u6)      0x0
             0x00014fd4: 10 f0 33 58: ldw (lru6)      r0, dp[0x433]
             0x00014fd8: 00 e8:       setc (ru6)      res[r0], 0x0
             0x00014fda: c0 77:       retsp (u6)      0x0
             0x00014fdc: 10 f0 34 58: ldw (lru6)      r0, dp[0x434]
             0x00014fe0: 08 e8:       setc (ru6)      res[r0], 0x8
             0x00014fe2: c0 77:       retsp (u6)      0x0
             0x00014fe4: 10 f0 34 58: ldw (lru6)      r0, dp[0x434]
             0x00014fe8: 00 e8:       setc (ru6)      res[r0], 0x0
             0x00014fea: c0 77:       retsp (u6)      0x0
             0x00014fec: 10 f0 35 58: ldw (lru6)      r0, dp[0x435]
             0x00014ff0: 08 e8:       setc (ru6)      res[r0], 0x8
             0x00014ff2: c0 77:       retsp (u6)      0x0
             0x00014ff4: 10 f0 35 58: ldw (lru6)      r0, dp[0x435]
             0x00014ff8: 00 e8:       setc (ru6)      res[r0], 0x0
             0x00014ffa: c0 77:       retsp (u6)      0x0
             0x00014ffc: 10 f0 36 58: ldw (lru6)      r0, dp[0x436]
             0x00015000: 08 e8:       setc (ru6)      res[r0], 0x8
             0x00015002: c0 77:       retsp (u6)      0x0
             0x00015004: 10 f0 36 58: ldw (lru6)      r0, dp[0x436]
             0x00015008: 00 e8:       setc (ru6)      res[r0], 0x0
             0x0001500a: c0 77:       retsp (u6)      0x0
             0x0001500c: 10 f0 37 58: ldw (lru6)      r0, dp[0x437]
             0x00015010: 08 e8:       setc (ru6)      res[r0], 0x8
             0x00015012: 00 f0 46 68: ldc (lru6)      r1, 0x6
             0x00015016: d4 fe ec 0f: setclk (lr2r)   res[r0], r1
             0x0001501a: c0 77:       retsp (u6)      0x0
             0x0001501c: 10 f0 37 58: ldw (lru6)      r0, dp[0x437]
             0x00015020: 00 e8:       setc (ru6)      res[r0], 0x0
             0x00015022: c0 77:       retsp (u6)      0x0
             0x00015024: 10 f0 38 58: ldw (lru6)      r0, dp[0x438]
             0x00015028: 08 e8:       setc (ru6)      res[r0], 0x8
             0x0001502a: 00 f0 46 68: ldc (lru6)      r1, 0x6
             0x0001502e: d4 fe ec 0f: setclk (lr2r)   res[r0], r1
             0x00015032: c0 77:       retsp (u6)      0x0
             0x00015034: 10 f0 38 58: ldw (lru6)      r0, dp[0x438]
             0x00015038: 00 e8:       setc (ru6)      res[r0], 0x0
             0x0001503a: c0 77:       retsp (u6)      0x0
             0x0001503c: 10 f0 39 58: ldw (lru6)      r0, dp[0x439]
             0x00015040: 08 e8:       setc (ru6)      res[r0], 0x8
             0x00015042: 00 f0 46 68: ldc (lru6)      r1, 0x6
             0x00015046: d4 fe ec 0f: setclk (lr2r)   res[r0], r1
             0x0001504a: c0 77:       retsp (u6)      0x0
             0x0001504c: 10 f0 39 58: ldw (lru6)      r0, dp[0x439]
             0x00015050: 00 e8:       setc (ru6)      res[r0], 0x0
             0x00015052: c0 77:       retsp (u6)      0x0
             0x00015054: 10 f0 3a 58: ldw (lru6)      r0, dp[0x43a]
             0x00015058: 08 e8:       setc (ru6)      res[r0], 0x8
             0x0001505a: 00 f0 46 68: ldc (lru6)      r1, 0x6
             0x0001505e: d4 fe ec 0f: setclk (lr2r)   res[r0], r1
             0x00015062: c0 77:       retsp (u6)      0x0
             0x00015064: 10 f0 3a 58: ldw (lru6)      r0, dp[0x43a]
             0x00015068: 00 e8:       setc (ru6)      res[r0], 0x0
             0x0001506a: c0 77:       retsp (u6)      0x0
             0x0001506c: 10 f0 3b 58: ldw (lru6)      r0, dp[0x43b]
             0x00015070: 08 e8:       setc (ru6)      res[r0], 0x8
             0x00015072: 00 f0 46 68: ldc (lru6)      r1, 0x6
             0x00015076: d4 fe ec 0f: setclk (lr2r)   res[r0], r1
             0x0001507a: c0 77:       retsp (u6)      0x0
             0x0001507c: 10 f0 3b 58: ldw (lru6)      r0, dp[0x43b]
             0x00015080: 00 e8:       setc (ru6)      res[r0], 0x0
             0x00015082: c0 77:       retsp (u6)      0x0
             0x00015084: 10 f0 3c 58: ldw (lru6)      r0, dp[0x43c]
             0x00015088: 08 e8:       setc (ru6)      res[r0], 0x8
             0x0001508a: 00 f0 46 68: ldc (lru6)      r1, 0x6
             0x0001508e: d4 fe ec 0f: setclk (lr2r)   res[r0], r1
             0x00015092: c0 77:       retsp (u6)      0x0
             0x00015094: 10 f0 3c 58: ldw (lru6)      r0, dp[0x43c]
             0x00015098: 00 e8:       setc (ru6)      res[r0], 0x0
             0x0001509a: c0 77:       retsp (u6)      0x0
             0x0001509c: 10 f0 3d 58: ldw (lru6)      r0, dp[0x43d]
             0x000150a0: 08 e8:       setc (ru6)      res[r0], 0x8
             0x000150a2: 00 f0 46 68: ldc (lru6)      r1, 0x6
             0x000150a6: d4 fe ec 0f: setclk (lr2r)   res[r0], r1
             0x000150aa: c0 77:       retsp (u6)      0x0
             0x000150ac: 10 f0 3d 58: ldw (lru6)      r0, dp[0x43d]
             0x000150b0: 00 e8:       setc (ru6)      res[r0], 0x0
             0x000150b2: c0 77:       retsp (u6)      0x0
             0x000150b4: 10 f0 3e 58: ldw (lru6)      r0, dp[0x43e]
             0x000150b8: 08 e8:       setc (ru6)      res[r0], 0x8
             0x000150ba: 00 f0 46 68: ldc (lru6)      r1, 0x6
             0x000150be: d4 fe ec 0f: setclk (lr2r)   res[r0], r1
             0x000150c2: c0 77:       retsp (u6)      0x0
             0x000150c4: 10 f0 3e 58: ldw (lru6)      r0, dp[0x43e]
             0x000150c8: 00 e8:       setc (ru6)      res[r0], 0x0
             0x000150ca: c0 77:       retsp (u6)      0x0

Disassembly of section .text.__call_exitprocs_impl (size: 2)

<__call_exitprocs_impl>:
.label552    0x000150cc: c0 77:       retsp (u6)      0x0


