main.xe: file format: xcore-xe

Loadable 1 for stdcore[0] (node "0", core 0):

Disassembly of section .text (size: 20630)

<_start>:
             0x00010000: 4b 68:       ldc (ru6)       r1, 0xb
             0x00010002: d1 fe ec 17: get (l2r)       r0, ps[r1]
             0x00010006: 04 f0 8b 68: ldc (lru6)      r2, 0x10b
             0x0001000a: c2 fe ec 1f: set (lr2r)      ps[r2], r0
             0x0001000e: 4a d0:       bl (u10)        0x4a <_SetupTraps>
             0x00010010: 0f d0:       bl (u10)        0xf <_GetRamEnd>
             0x00010012: f0 2f:       set (1r)        sp, r0
             0x00010014: 01 f0 82 77: extsp (lu6)     0x42
             0x00010018: 0a f0 ca d8: ldap (lu10)     r11, 0x28ca <.label0>
             0x0001001c: fb 37:       set (1r)        cp, r11
             0x0001001e: 0a f0 b7 d9: ldap (lu10)     r11, 0x29b7 <.label1>
             0x00010022: eb 37:       set (1r)        dp, r11
             0x00010024: c3 86:       getr (rus)      r0, 0x3

<_InitThreadLoop>:
             0x00010026: d4 06:       getst (2r)      r1, res[r0]
             0x00010028: b4 b0:       eq (2rus)       r11, r1, 0x0
             0x0001002a: cc 72:       bt (ru6)        r11, 0xc <_Join>
             0x0001002c: 1f d0:       bl (u10)        0x1f <_InitThread>
             0x0001002e: 05 77:       bu (u6)         -0x5 <_InitThreadLoop>

<_GetRamEnd>:
             0x00010030: cb 6a:       ldc (ru6)       r11, 0xb
             0x00010032: bb ff ec 17: get (l2r)       r10, ps[r11]
             0x00010036: 0a f0 93 d8: ldap (lu10)     r11, 0x2893 <.label2>
             0x0001003a: 3c 0a:       ldw (2rus)      r11, r11[0x0]
             0x0001003c: 0b 16:       add (3r)        r0, r10, r11
             0x0001003e: c0 77:       retsp (u6)      0x0

<_ExitWithError>:
             0x00010040: 0b f0 17 73: bu (lu6)        0x2d7 <_exit>

<_Join>:
             0x00010044: f0 1f:       msync (1r)      res[r0]
             0x00010046: f0 17:       mjoin (1r)      res[r0]
             0x00010048: e0 17:       freer (1r)      res[r0]
             0x0001004a: 1f d0:       bl (u10)        0x1f <_TouchRegisters>
             0x0001004c: 0a f0 23 d0: bl (lu10)       0x2823 <.label3>
             0x00010050: 00 f0 c6 6a: ldc (lru6)      r11, 0x6
             0x00010054: c8 ea:       setc (ru6)      res[r11], 0x8
             0x00010056: cf ea:       setc (ru6)      res[r11], 0xf
             0x00010058: 00 68:       ldc (ru6)       r0, 0x0
             0x0001005a: 00 f0 40 60: ldaw (lru6)     r1, dp[0x0]
             0x0001005e: 00 f0 25 d0: bl (lu10)       0x25 <main>
             0x00010062: 02 70:       bt (ru6)        r0, 0x2 <_NonZeroReturn>
             0x00010064: 0a f0 12 73: bu (lu6)        0x292 <__libc_done>

<_NonZeroReturn>:
             0x00010068: 0b f0 0a 73: bu (lu6)        0x2ca <_exit_unlocked>

<_InitThread>:
             0x0001006c: 0a f0 a0 d8: ldap (lu10)     r11, 0x28a0 <.label0>
             0x00010070: 4d 1f:       init (2r)       t[r1]:cp, r11
             0x00010072: 0a f0 8d d9: ldap (lu10)     r11, 0x298d <.label1>
             0x00010076: 4d 0f:       init (2r)       t[r1]:dp, r11
             0x00010078: 05 d8:       ldap (u10)      r11, 0x5 <_InitThreadRoutine>
             0x0001007a: 4d 07:       init (2r)       t[r1]:pc, r11
             0x0001007c: c0 77:       retsp (u6)      0x0
             0x0001007e: 00 90:       add (2rus)      r0, r0, 0x0

<_TrapHandler>:
             0x00010080: 07 f0 15 73: bu (lu6)        0x1d5 <_DoException>

<_InitThreadRoutine>:
             0x00010084: 02 d0:       bl (u10)        0x2 <_TouchRegisters>
             0x00010086: 0e d0:       bl (u10)        0xe <_SetupTraps>
             0x00010088: ee 07:       ssync (0r)      

<_TouchRegisters>:
             0x0001008a: 00 68:       ldc (ru6)       r0, 0x0
             0x0001008c: 40 68:       ldc (ru6)       r1, 0x0
             0x0001008e: 80 68:       ldc (ru6)       r2, 0x0
             0x00010090: c0 68:       ldc (ru6)       r3, 0x0
             0x00010092: 00 69:       ldc (ru6)       r4, 0x0
             0x00010094: 40 69:       ldc (ru6)       r5, 0x0
             0x00010096: 80 69:       ldc (ru6)       r6, 0x0
             0x00010098: c0 69:       ldc (ru6)       r7, 0x0
             0x0001009a: 00 6a:       ldc (ru6)       r8, 0x0
             0x0001009c: 40 6a:       ldc (ru6)       r9, 0x0
             0x0001009e: 80 6a:       ldc (ru6)       r10, 0x0
             0x000100a0: c0 6a:       ldc (ru6)       r11, 0x0
             0x000100a2: c0 77:       retsp (u6)      0x0

<_SetupTraps>:
             0x000100a4: 13 dc:       ldap (u10)      r11, -0x13 <_TrapHandler>
             0x000100a6: ff 07:       set (0r)        kep, r11
             0x000100a8: c0 77:       retsp (u6)      0x0

<__register_frame_info_bases>:
<__free_libc_hwlock>:
.label1000   0x000100aa: c0 77:       retsp (u6)      0x0

<main>:
             0x000100ac: 46 77:       entsp (u6)      0x6
             0x000100ae: 00 68:       ldc (ru6)       r0, 0x0
             0x000100b0: 00 f0 50 60: ldaw (lru6)     r1, dp[0x10]
             0x000100b4: 03 54:       stw (ru6)       r0, sp[0x3]
             0x000100b6: 04 90:       add (2rus)      r0, r1, 0x0
             0x000100b8: 00 f0 e6 d2: bl (lu10)       0x2e6 <puts>
             0x000100bc: 02 54:       stw (ru6)       r0, sp[0x2]
             0x000100be: 00 f0 8d d0: bl (lu10)       0x8d <test_harness>
             0x000100c2: 00 f0 15 60: ldaw (lru6)     r0, dp[0x15]
             0x000100c6: 00 f0 df d2: bl (lu10)       0x2df <puts>
             0x000100ca: 43 5c:       ldw (ru6)       r1, sp[0x3]
             0x000100cc: 44 54:       stw (ru6)       r1, sp[0x4]
             0x000100ce: 45 54:       stw (ru6)       r1, sp[0x5]
             0x000100d0: 01 54:       stw (ru6)       r0, sp[0x1]
             0x000100d2: 05 5c:       ldw (ru6)       r0, sp[0x5]
             0x000100d4: c6 77:       retsp (u6)      0x6

<init_samples>:
             0x000100d6: 4b 77:       entsp (u6)      0xb
             0x000100d8: 80 68:       ldc (ru6)       r2, 0x0
             0x000100da: 0a 54:       stw (ru6)       r0, sp[0xa]
             0x000100dc: 49 54:       stw (ru6)       r1, sp[0x9]
             0x000100de: 9d a7:       mkmsk (rus)     r3, 0x5
             0x000100e0: c7 54:       stw (ru6)       r3, sp[0x7]
             0x000100e2: c2 68:       ldc (ru6)       r3, 0x2
             0x000100e4: 86 54:       stw (ru6)       r2, sp[0x6]
             0x000100e6: c5 54:       stw (ru6)       r3, sp[0x5]
             0x000100e8: c4 54:       stw (ru6)       r3, sp[0x4]
             0x000100ea: 88 54:       stw (ru6)       r2, sp[0x8]
             0x000100ec: 03 54:       stw (ru6)       r0, sp[0x3]
             0x000100ee: 42 54:       stw (ru6)       r1, sp[0x2]
             0x000100f0: 25 73:       bu (u6)         0x25 <.label4>
.label5      0x000100f2: 05 5c:       ldw (ru6)       r0, sp[0x5]
             0x000100f4: 01 98:       sub (2rus)      r0, r0, 0x1
             0x000100f6: 04 54:       stw (ru6)       r0, sp[0x4]
             0x000100f8: 47 5c:       ldw (ru6)       r1, sp[0x7]
             0x000100fa: 88 5c:       ldw (ru6)       r2, sp[0x8]
             0x000100fc: 16 10:       add (3r)        r1, r1, r2
             0x000100fe: 89 5c:       ldw (ru6)       r2, sp[0x9]
             0x00010100: 19 f8 ec 1f: ldaw (l3r)      r1, r2[r1]
             0x00010104: 01 54:       stw (ru6)       r0, sp[0x1]
             0x00010106: 04 90:       add (2rus)      r0, r1, 0x0
             0x00010108: 41 5c:       ldw (ru6)       r1, sp[0x1]
             0x0001010a: 00 f0 4a d2: bl (lu10)       0x24a <__misaligned_store>
             0x0001010e: 07 5c:       ldw (ru6)       r0, sp[0x7]
             0x00010110: 48 5c:       ldw (ru6)       r1, sp[0x8]
             0x00010112: 01 98:       sub (2rus)      r0, r0, 0x1
             0x00010114: 01 18:       sub (3r)        r0, r0, r1
             0x00010116: 44 5c:       ldw (ru6)       r1, sp[0x4]
             0x00010118: c5 96:       neg (2r)        r1, r1
             0x0001011a: 89 5c:       ldw (ru6)       r2, sp[0x9]
             0x0001011c: 08 f8 ec 1f: ldaw (l3r)      r0, r2[r0]
             0x00010120: 00 f0 3f d2: bl (lu10)       0x23f <__misaligned_store>
             0x00010124: 05 5c:       ldw (ru6)       r0, sp[0x5]
             0x00010126: 11 a0:       shl (2rus)      r1, r0, 0x1
             0x00010128: 86 5c:       ldw (ru6)       r2, sp[0x6]
             0x0001012a: 45 54:       stw (ru6)       r1, sp[0x5]
             0x0001012c: 95 a7:       mkmsk (rus)     r1, 0x5
             0x0001012e: 01 28:       shr (3r)        r0, r0, r1
             0x00010130: 19 a0:       shl (2rus)      r1, r2, 0x1
             0x00010132: 04 40:       or (3r)         r0, r1, r0
             0x00010134: 06 54:       stw (ru6)       r0, sp[0x6]
             0x00010136: 08 5c:       ldw (ru6)       r0, sp[0x8]
             0x00010138: 01 90:       add (2rus)      r0, r0, 0x1
             0x0001013a: 08 54:       stw (ru6)       r0, sp[0x8]
.label4      0x0001013c: 08 5c:       ldw (ru6)       r0, sp[0x8]
             0x0001013e: 47 5c:       ldw (ru6)       r1, sp[0x7]
             0x00010140: 01 c0:       lss (3r)        r0, r0, r1
             0x00010142: 29 74:       bt (ru6)        r0, -0x29 <.label5>
             0x00010144: 00 73:       bu (u6)         0x0 <.label6>
.label6      0x00010146: cb 77:       retsp (u6)      0xb

<init_test>:
             0x00010148: 44 77:       entsp (u6)      0x4
             0x0001014a: 03 54:       stw (ru6)       r0, sp[0x3]
             0x0001014c: 02 54:       stw (ru6)       r0, sp[0x2]
             0x0001014e: 42 5c:       ldw (ru6)       r1, sp[0x2]
             0x00010150: 3e d4:       bl (u10)        -0x3e <init_samples>
             0x00010152: 02 5c:       ldw (ru6)       r0, sp[0x2]
             0x00010154: 01 54:       stw (ru6)       r0, sp[0x1]
             0x00010156: c4 77:       retsp (u6)      0x4

<do_test>:
             0x00010158: 47 77:       entsp (u6)      0x7
             0x0001015a: 40 68:       ldc (ru6)       r1, 0x0
             0x0001015c: 06 54:       stw (ru6)       r0, sp[0x6]
             0x0001015e: 44 54:       stw (ru6)       r1, sp[0x4]
             0x00010160: d9 a6:       mkmsk (rus)     r2, 0x1
             0x00010162: 83 54:       stw (ru6)       r2, sp[0x3]
             0x00010164: 45 54:       stw (ru6)       r1, sp[0x5]
             0x00010166: 02 54:       stw (ru6)       r0, sp[0x2]
             0x00010168: 16 73:       bu (u6)         0x16 <.label7>
.label8      0x0001016a: 05 5c:       ldw (ru6)       r0, sp[0x5]
             0x0001016c: 46 5c:       ldw (ru6)       r1, sp[0x6]
             0x0001016e: 14 48:       ldw (3r)        r1, r1[r0]
             0x00010170: 84 5c:       ldw (ru6)       r2, sp[0x4]
             0x00010172: c3 5c:       ldw (ru6)       r3, sp[0x3]
             0x00010174: 01 54:       stw (ru6)       r0, sp[0x1]
             0x00010176: 04 90:       add (2rus)      r0, r1, 0x0
             0x00010178: 18 90:       add (2rus)      r1, r2, 0x0
             0x0001017a: 2c 90:       add (2rus)      r2, r3, 0x0
             0x0001017c: 00 f0 2b d1: bl (lu10)       0x12b <non_linear_gain_wrapper>
             0x00010180: 46 5c:       ldw (ru6)       r1, sp[0x6]
             0x00010182: 03 f0 b8 68: ldc (lru6)      r2, 0xf8
             0x00010186: c1 5c:       ldw (ru6)       r3, sp[0x1]
             0x00010188: 17 f8 ec 1f: ldaw (l3r)      r1, r1[r3]
             0x0001018c: 16 10:       add (3r)        r1, r1, r2
             0x0001018e: 04 00:       stw (2rus)      r0, r1[0x0]
             0x00010190: 05 5c:       ldw (ru6)       r0, sp[0x5]
             0x00010192: 01 90:       add (2rus)      r0, r0, 0x1
             0x00010194: 05 54:       stw (ru6)       r0, sp[0x5]
.label7      0x00010196: 05 5c:       ldw (ru6)       r0, sp[0x5]
             0x00010198: 7e 68:       ldc (ru6)       r1, 0x3e
             0x0001019a: 01 c0:       lss (3r)        r0, r0, r1
             0x0001019c: 1a 74:       bt (ru6)        r0, -0x1a <.label8>
             0x0001019e: 00 73:       bu (u6)         0x0 <.label9>
.label9      0x000101a0: c7 77:       retsp (u6)      0x7

<print_results>:
             0x000101a2: 45 77:       entsp (u6)      0x5
             0x000101a4: 40 68:       ldc (ru6)       r1, 0x0
             0x000101a6: 04 54:       stw (ru6)       r0, sp[0x4]
             0x000101a8: 43 54:       stw (ru6)       r1, sp[0x3]
             0x000101aa: 02 54:       stw (ru6)       r0, sp[0x2]
             0x000101ac: 11 73:       bu (u6)         0x11 <.label10>
.label11     0x000101ae: 03 5c:       ldw (ru6)       r0, sp[0x3]
             0x000101b0: 44 5c:       ldw (ru6)       r1, sp[0x4]
             0x000101b2: 24 f8 ec 1f: ldaw (l3r)      r2, r1[r0]
             0x000101b6: 14 48:       ldw (3r)        r1, r1[r0]
             0x000101b8: 03 f0 38 68: ldc (lru6)      r0, 0xf8
             0x000101bc: 08 10:       add (3r)        r0, r2, r0
             0x000101be: 20 08:       ldw (2rus)      r2, r0[0x0]
             0x000101c0: 00 f0 19 60: ldaw (lru6)     r0, dp[0x19]
             0x000101c4: 00 f0 50 d2: bl (lu10)       0x250 <printf>
             0x000101c8: 43 5c:       ldw (ru6)       r1, sp[0x3]
             0x000101ca: 15 90:       add (2rus)      r1, r1, 0x1
             0x000101cc: 43 54:       stw (ru6)       r1, sp[0x3]
             0x000101ce: 01 54:       stw (ru6)       r0, sp[0x1]
.label10     0x000101d0: 03 5c:       ldw (ru6)       r0, sp[0x3]
             0x000101d2: 7e 68:       ldc (ru6)       r1, 0x3e
             0x000101d4: 01 c0:       lss (3r)        r0, r0, r1
             0x000101d6: 15 74:       bt (ru6)        r0, -0x15 <.label11>
             0x000101d8: 00 73:       bu (u6)         0x0 <.label12>
.label12     0x000101da: c5 77:       retsp (u6)      0x5

<test_harness>:
             0x000101dc: 01 f0 7e 77: entsp (lu6)     0x7e
             0x000101e0: 02 64:       ldaw (ru6)      r0, sp[0x2]
             0x000101e2: 01 54:       stw (ru6)       r0, sp[0x1]
             0x000101e4: 4f d4:       bl (u10)        -0x4f <init_test>
             0x000101e6: 01 5c:       ldw (ru6)       r0, sp[0x1]
             0x000101e8: 49 d4:       bl (u10)        -0x49 <do_test>
             0x000101ea: 01 5c:       ldw (ru6)       r0, sp[0x1]
             0x000101ec: 26 d4:       bl (u10)        -0x26 <print_results>
             0x000101ee: 01 f0 fe 77: retsp (lu6)     0x7e

<init_gain>:
             0x000101f2: 47 77:       entsp (u6)      0x7
             0x000101f4: 06 54:       stw (ru6)       r0, sp[0x6]
             0x000101f6: 57 68:       ldc (ru6)       r1, 0x17
             0x000101f8: 42 54:       stw (ru6)       r1, sp[0x2]
             0x000101fa: d5 a6:       mkmsk (rus)     r1, 0x1
             0x000101fc: 01 54:       stw (ru6)       r0, sp[0x1]
             0x000101fe: 4a 70:       bt (ru6)        r1, 0xa <.label13>
             0x00010200: 00 73:       bu (u6)         0x0 <.label14>
.label14     0x00010202: 66 68:       ldc (ru6)       r1, 0x26
             0x00010204: 00 f0 1e 60: ldaw (lru6)     r0, dp[0x1e]
             0x00010208: 00 f0 a9 60: ldaw (lru6)     r2, dp[0x29]
             0x0001020c: 00 f0 ec 60: ldaw (lru6)     r3, dp[0x2c]
             0x00010210: 00 f0 10 d1: bl (lu10)       0x110 <__assert_func>
.label13     0x00010214: 01 f0 06 6c: ldw (lru6)      r0, cp[0x46]
             0x00010218: 04 54:       stw (ru6)       r0, sp[0x4]
             0x0001021a: 02 5c:       ldw (ru6)       r0, sp[0x2]
             0x0001021c: 5e 68:       ldc (ru6)       r1, 0x1e
             0x0001021e: 04 18:       sub (3r)        r0, r1, r0
             0x00010220: 03 54:       stw (ru6)       r0, sp[0x3]
             0x00010222: 0a 73:       bu (u6)         0xa <.label15>
.label16     0x00010224: 03 5c:       ldw (ru6)       r0, sp[0x3]
             0x00010226: d5 a6:       mkmsk (rus)     r1, 0x1
             0x00010228: 04 20:       shl (3r)        r0, r1, r0
             0x0001022a: 44 5c:       ldw (ru6)       r1, sp[0x4]
             0x0001022c: 01 10:       add (3r)        r0, r0, r1
             0x0001022e: 04 54:       stw (ru6)       r0, sp[0x4]
             0x00010230: 03 5c:       ldw (ru6)       r0, sp[0x3]
             0x00010232: 42 5c:       ldw (ru6)       r1, sp[0x2]
             0x00010234: 01 18:       sub (3r)        r0, r0, r1
             0x00010236: 03 54:       stw (ru6)       r0, sp[0x3]
.label15     0x00010238: 03 5c:       ldw (ru6)       r0, sp[0x3]
             0x0001023a: 00 f8 ec 97: ashr (l2rus)    r0, r0, 0x20
             0x0001023e: 0e 7c:       bf (ru6)        r0, -0xe <.label16>
             0x00010240: 00 73:       bu (u6)         0x0 <.label17>
.label17     0x00010242: 03 5c:       ldw (ru6)       r0, sp[0x3]
             0x00010244: d4 a6:       mkmsk (rus)     r1, 0x20
             0x00010246: 01 30:       eq (3r)         r0, r0, r1
             0x00010248: 04 78:       bf (ru6)        r0, 0x4 <.label18>
             0x0001024a: 00 73:       bu (u6)         0x0 <.label19>
.label19     0x0001024c: 04 5c:       ldw (ru6)       r0, sp[0x4]
             0x0001024e: 01 90:       add (2rus)      r0, r0, 0x1
             0x00010250: 04 54:       stw (ru6)       r0, sp[0x4]
.label18     0x00010252: 00 68:       ldc (ru6)       r0, 0x0
             0x00010254: 05 54:       stw (ru6)       r0, sp[0x5]
             0x00010256: 08 73:       bu (u6)         0x8 <.label20>
.label21     0x00010258: 05 5c:       ldw (ru6)       r0, sp[0x5]
             0x0001025a: 46 5c:       ldw (ru6)       r1, sp[0x6]
             0x0001025c: 84 5c:       ldw (ru6)       r2, sp[0x4]
             0x0001025e: 24 f8 ec 07: stw (l3r)       r2, r1[r0]
             0x00010262: 05 5c:       ldw (ru6)       r0, sp[0x5]
             0x00010264: 01 90:       add (2rus)      r0, r0, 0x1
             0x00010266: 05 54:       stw (ru6)       r0, sp[0x5]
.label20     0x00010268: 05 5c:       ldw (ru6)       r0, sp[0x5]
             0x0001026a: 42 68:       ldc (ru6)       r1, 0x2
             0x0001026c: 01 c0:       lss (3r)        r0, r0, r1
             0x0001026e: 0c 74:       bt (ru6)        r0, -0xc <.label21>
             0x00010270: 00 73:       bu (u6)         0x0 <.label22>
.label22     0x00010272: c7 77:       retsp (u6)      0x7

<boost_gain>:
             0x00010274: 58 77:       entsp (u6)      0x18
             0x00010276: 17 55:       stw (ru6)       r4, sp[0x17]
             0x00010278: 56 55:       stw (ru6)       r5, sp[0x16]
             0x0001027a: 15 54:       stw (ru6)       r0, sp[0x15]
             0x0001027c: 54 54:       stw (ru6)       r1, sp[0x14]
             0x0001027e: 8f 64:       ldaw (ru6)      r2, sp[0xf]
             0x00010280: c0 68:       ldc (ru6)       r3, 0x0
             0x00010282: 5d a7:       mkmsk (rus)     r11, 0x1
             0x00010284: bb f8 ec 8f: st8 (l3r)       r11, r2[r3]
             0x00010288: ce 56:       stw (ru6)       r11, sp[0xe]
             0x0001028a: cd 54:       stw (ru6)       r3, sp[0xd]
             0x0001028c: 94 5c:       ldw (ru6)       r2, sp[0x14]
             0x0001028e: 28 f8 ec 97: ashr (l2rus)    r2, r2, 0x20
             0x00010292: 08 54:       stw (ru6)       r0, sp[0x8]
             0x00010294: 47 54:       stw (ru6)       r1, sp[0x7]
             0x00010296: 89 78:       bf (ru6)        r2, 0x9 <.label23>
             0x00010298: 00 73:       bu (u6)         0x0 <.label24>
.label24     0x0001029a: 14 5c:       ldw (ru6)       r0, sp[0x14]
             0x0001029c: c0 96:       neg (2r)        r0, r0
             0x0001029e: 14 54:       stw (ru6)       r0, sp[0x14]
             0x000102a0: 0f 64:       ldaw (ru6)      r0, sp[0xf]
             0x000102a2: 40 68:       ldc (ru6)       r1, 0x0
             0x000102a4: d8 a6:       mkmsk (rus)     r2, 0x20
             0x000102a6: 21 f8 ec 8f: st8 (l3r)       r2, r0[r1]
.label23     0x000102aa: 14 5c:       ldw (ru6)       r0, sp[0x14]
             0x000102ac: 04 f0 41 68: ldc (lru6)      r1, 0x101
             0x000102b0: 01 c0:       lss (3r)        r0, r0, r1
             0x000102b2: 01 f0 21 70: bt (lru6)       r0, 0x61 <.label25>
             0x000102b6: 00 73:       bu (u6)         0x0 <.label26>
.label26     0x000102b8: 14 5c:       ldw (ru6)       r0, sp[0x14]
             0x000102ba: 01 f0 48 6c: ldw (lru6)      r1, cp[0x48]
             0x000102be: 04 18:       sub (3r)        r0, r1, r0
             0x000102c0: 0a 54:       stw (ru6)       r0, sp[0xa]
             0x000102c2: 55 5c:       ldw (ru6)       r1, sp[0x15]
             0x000102c4: 9e 68:       ldc (ru6)       r2, 0x1e
             0x000102c6: c0 68:       ldc (ru6)       r3, 0x0
             0x000102c8: c4 6a:       ldc (ru6)       r11, 0x4
             0x000102ca: 14 08:       ldw (2rus)      r1, r1[0x0]
             0x000102cc: 01 f0 09 6d: ldw (lru6)      r4, cp[0x49]
             0x000102d0: 5c 90:       add (2rus)      r5, r3, 0x0
             0x000102d2: 54 f8 f4 07: maccu (l4r)     r5, r4, r1, r0
             0x000102d6: 00 f8 ec 97: ashr (l2rus)    r0, r0, 0x20
             0x000102da: 04 f8 ec 3f: mul (l3r)       r0, r1, r0
             0x000102de: c4 10:       add (3r)        r0, r5, r0
             0x000102e0: 12 f8 ec 17: ashr (l3r)      r1, r0, r2
             0x000102e4: 4c 54:       stw (ru6)       r1, sp[0xc]
             0x000102e6: 02 a0:       shl (2rus)      r0, r0, 0x2
             0x000102e8: d2 28:       shr (3r)        r1, r4, r2
             0x000102ea: 04 40:       or (3r)         r0, r1, r0
             0x000102ec: 0b 54:       stw (ru6)       r0, sp[0xb]
             0x000102ee: cc 54:       stw (ru6)       r3, sp[0xc]
             0x000102f0: cb 56:       stw (ru6)       r11, sp[0xb]
             0x000102f2: 15 5c:       ldw (ru6)       r0, sp[0x15]
             0x000102f4: 00 08:       ldw (2rus)      r0, r0[0x0]
             0x000102f6: 00 f0 6f 60: ldaw (lru6)     r1, dp[0x2f]
             0x000102fa: 06 54:       stw (ru6)       r0, sp[0x6]
             0x000102fc: 04 90:       add (2rus)      r0, r1, 0x0
             0x000102fe: 9c 91:       add (2rus)      r1, r11, 0x0
             0x00010300: 2c 90:       add (2rus)      r2, r3, 0x0
             0x00010302: c6 5c:       ldw (ru6)       r3, sp[0x6]
             0x00010304: 00 f0 b0 d1: bl (lu10)       0x1b0 <printf>
             0x00010308: 55 5c:       ldw (ru6)       r1, sp[0x15]
             0x0001030a: 14 08:       ldw (2rus)      r1, r1[0x0]
             0x0001030c: 00 f0 b6 60: ldaw (lru6)     r2, dp[0x36]
             0x00010310: 05 54:       stw (ru6)       r0, sp[0x5]
             0x00010312: 08 90:       add (2rus)      r0, r2, 0x0
             0x00010314: 44 54:       stw (ru6)       r1, sp[0x4]
             0x00010316: 84 5c:       ldw (ru6)       r2, sp[0x4]
             0x00010318: 00 f0 a6 d1: bl (lu10)       0x1a6 <printf>
             0x0001031c: 03 54:       stw (ru6)       r0, sp[0x3]
             0x0001031e: 00 f0 2d d1: bl (lu10)       0x12d <__getstdin>
             0x00010322: 11 08:       ldw (2rus)      r1, r0[0x1]
             0x00010324: 15 98:       sub (2rus)      r1, r1, 0x1
             0x00010326: 11 00:       stw (2rus)      r1, r0[0x1]
             0x00010328: 04 f8 ec 97: ashr (l2rus)    r0, r1, 0x20
             0x0001032c: 07 78:       bf (ru6)        r0, 0x7 <.label27>
             0x0001032e: 00 73:       bu (u6)         0x0 <.label28>
.label28     0x00010330: 00 f0 24 d1: bl (lu10)       0x124 <__getstdin>
             0x00010334: 00 f0 44 d1: bl (lu10)       0x144 <__srget>
             0x00010338: 11 54:       stw (ru6)       r0, sp[0x11]
             0x0001033a: 08 73:       bu (u6)         0x8 <.label29>
.label27     0x0001033c: 00 f0 1e d1: bl (lu10)       0x11e <__getstdin>
             0x00010340: 10 08:       ldw (2rus)      r1, r0[0x0]
             0x00010342: 80 68:       ldc (ru6)       r2, 0x0
             0x00010344: 26 88:       ld8u (3r)       r2, r1[r2]
             0x00010346: 91 54:       stw (ru6)       r2, sp[0x11]
             0x00010348: 15 90:       add (2rus)      r1, r1, 0x1
             0x0001034a: 10 00:       stw (2rus)      r1, r0[0x0]
.label29     0x0001034c: 0b 5c:       ldw (ru6)       r0, sp[0xb]
             0x0001034e: 4a 5c:       ldw (ru6)       r1, sp[0xa]
             0x00010350: 01 f0 88 6c: ldw (lru6)      r2, cp[0x48]
             0x00010354: c0 68:       ldc (ru6)       r3, 0x0
             0x00010356: b8 90:       add (2rus)      r11, r2, 0x0
             0x00010358: 34 f8 fb 07: maccu (l4r)     r3, r11, r1, r0
             0x0001035c: 0c 5d:       ldw (ru6)       r4, sp[0xc]
             0x0001035e: 84 fa ec 3f: mul (l3r)       r4, r1, r4
             0x00010362: 7c 12:       add (3r)        r3, r3, r4
             0x00010364: 14 f8 ec 97: ashr (l2rus)    r1, r1, 0x20
             0x00010368: 04 f8 ec 3f: mul (l3r)       r0, r1, r0
             0x0001036c: 0c 10:       add (3r)        r0, r3, r0
             0x0001036e: 09 54:       stw (ru6)       r0, sp[0x9]
             0x00010370: 08 18:       sub (3r)        r0, r2, r0
             0x00010372: 10 54:       stw (ru6)       r0, sp[0x10]
             0x00010374: c2 56:       stw (ru6)       r11, sp[0x2]
             0x00010376: 23 73:       bu (u6)         0x23 <.label30>
.label25     0x00010378: 01 f0 07 6c: ldw (lru6)      r0, cp[0x47]
             0x0001037c: 54 5c:       ldw (ru6)       r1, sp[0x14]
             0x0001037e: 80 68:       ldc (ru6)       r2, 0x0
             0x00010380: 38 90:       add (2rus)      r3, r2, 0x0
             0x00010382: b8 90:       add (2rus)      r11, r2, 0x0
             0x00010384: 34 f8 eb 0f: maccs (l4r)     r3, r11, r1, r0
             0x00010388: cc 54:       stw (ru6)       r3, sp[0xc]
             0x0001038a: cb 56:       stw (ru6)       r11, sp[0xb]
             0x0001038c: cd 5c:       ldw (ru6)       r3, sp[0xd]
             0x0001038e: ce 5e:       ldw (ru6)       r11, sp[0xe]
             0x00010390: b4 f8 e3 0f: maccs (l4r)     r11, r3, r1, r0
             0x00010394: 14 5c:       ldw (ru6)       r0, sp[0x14]
             0x00010396: 93 fc ec 3f: mul (l3r)       r1, r0, r11
             0x0001039a: b3 f8 4a 00: lmul (l6r)      r11, r4, r0, r3, r2, r2
             0x0001039e: 0b 55:       stw (ru6)       r4, sp[0xb]
             0x000103a0: 3d 12:       add (3r)        r11, r11, r1
             0x000103a2: 40 f8 ec 97: ashr (l2rus)    r4, r0, 0x20
             0x000103a6: 03 f9 ec 3f: mul (l3r)       r4, r4, r3
             0x000103aa: 7c 14:       add (3r)        r11, r11, r4
             0x000103ac: cc 56:       stw (ru6)       r11, sp[0xc]
             0x000103ae: 01 f0 c8 6e: ldw (lru6)      r11, cp[0x48]
             0x000103b2: 23 f8 fb 07: maccu (l4r)     r2, r11, r0, r3
             0x000103b6: 09 10:       add (3r)        r0, r2, r1
             0x000103b8: 40 12:       add (3r)        r0, r0, r4
             0x000103ba: 10 54:       stw (ru6)       r0, sp[0x10]
             0x000103bc: c1 56:       stw (ru6)       r11, sp[0x1]
.label30     0x000103be: 0f 64:       ldaw (ru6)      r0, sp[0xf]
             0x000103c0: 50 5c:       ldw (ru6)       r1, sp[0x10]
             0x000103c2: 80 68:       ldc (ru6)       r2, 0x0
             0x000103c4: 02 88:       ld8u (3r)       r0, r0[r2]
             0x000103c6: 01 f8 ec 3f: mul (l3r)       r0, r0, r1
             0x000103ca: 12 54:       stw (ru6)       r0, sp[0x12]
             0x000103cc: 13 54:       stw (ru6)       r0, sp[0x13]
             0x000103ce: 13 5c:       ldw (ru6)       r0, sp[0x13]
             0x000103d0: 56 5d:       ldw (ru6)       r5, sp[0x16]
             0x000103d2: 17 5d:       ldw (ru6)       r4, sp[0x17]
             0x000103d4: d8 77:       retsp (u6)      0x18

<non_linear_gain_wrapper>:
             0x000103d6: 4c 77:       entsp (u6)      0xc
             0x000103d8: 0b 54:       stw (ru6)       r0, sp[0xb]
             0x000103da: 4a 54:       stw (ru6)       r1, sp[0xa]
             0x000103dc: 89 54:       stw (ru6)       r2, sp[0x9]
             0x000103de: cb 5c:       ldw (ru6)       r3, sp[0xb]
             0x000103e0: c6 54:       stw (ru6)       r3, sp[0x6]
             0x000103e2: 02 f0 cc 58: ldw (lru6)      r3, dp[0x8c]
             0x000103e6: 43 54:       stw (ru6)       r1, sp[0x3]
             0x000103e8: 02 54:       stw (ru6)       r0, sp[0x2]
             0x000103ea: 81 54:       stw (ru6)       r2, sp[0x1]
             0x000103ec: c7 70:       bt (ru6)        r3, 0x7 <.label31>
             0x000103ee: 00 73:       bu (u6)         0x0 <.label32>
.label32     0x000103f0: 02 f0 0d 60: ldaw (lru6)     r0, dp[0x8d]
             0x000103f4: 02 d5:       bl (u10)        -0x102 <init_gain>
             0x000103f6: d1 a6:       mkmsk (rus)     r0, 0x1
             0x000103f8: 02 f0 0c 50: stw (lru6)      r0, dp[0x8c]
.label31     0x000103fc: 00 68:       ldc (ru6)       r0, 0x0
             0x000103fe: 04 54:       stw (ru6)       r0, sp[0x4]
             0x00010400: 0c 73:       bu (u6)         0xc <.label33>
.label34     0x00010402: 0a 5c:       ldw (ru6)       r0, sp[0xa]
             0x00010404: 02 f0 4d 60: ldaw (lru6)     r1, dp[0x8d]
             0x00010408: 04 f8 ec 1f: ldaw (l3r)      r0, r1[r0]
             0x0001040c: 46 5c:       ldw (ru6)       r1, sp[0x6]
             0x0001040e: ce d4:       bl (u10)        -0xce <boost_gain>
             0x00010410: 05 54:       stw (ru6)       r0, sp[0x5]
             0x00010412: 06 54:       stw (ru6)       r0, sp[0x6]
             0x00010414: 04 5c:       ldw (ru6)       r0, sp[0x4]
             0x00010416: 01 90:       add (2rus)      r0, r0, 0x1
             0x00010418: 04 54:       stw (ru6)       r0, sp[0x4]
.label33     0x0001041a: 04 5c:       ldw (ru6)       r0, sp[0x4]
             0x0001041c: 49 5c:       ldw (ru6)       r1, sp[0x9]
             0x0001041e: 01 c0:       lss (3r)        r0, r0, r1
             0x00010420: 10 74:       bt (ru6)        r0, -0x10 <.label34>
             0x00010422: 00 73:       bu (u6)         0x0 <.label35>
.label35     0x00010424: 05 5c:       ldw (ru6)       r0, sp[0x5]
             0x00010426: 07 54:       stw (ru6)       r0, sp[0x7]
             0x00010428: 08 54:       stw (ru6)       r0, sp[0x8]
             0x0001042a: 08 5c:       ldw (ru6)       r0, sp[0x8]
             0x0001042c: cc 77:       retsp (u6)      0xc

<_DoException>:
             0x0001042e: ed 07:       clre (0r)       
             0x00010430: ec 07:       waiteu (0r)     
             0x00010432: 00 00:       stw (2rus)      r0, r0[0x0]

<__assert_func>:
             0x00010434: 4e 77:       entsp (u6)      0xe
             0x00010436: 0d 55:       stw (ru6)       r4, sp[0xd]
             0x00010438: 4c 55:       stw (ru6)       r5, sp[0xc]
             0x0001043a: 8b 55:       stw (ru6)       r6, sp[0xb]
             0x0001043c: ca 55:       stw (ru6)       r7, sp[0xa]
             0x0001043e: c0 69:       ldc (ru6)       r7, 0x0
             0x00010440: 09 56:       stw (ru6)       r8, sp[0x9]
             0x00010442: 0a 6a:       ldc (ru6)       r8, 0xa
             0x00010444: 48 56:       stw (ru6)       r9, sp[0x8]
             0x00010446: 70 6a:       ldc (ru6)       r9, 0x30
             0x00010448: 87 56:       stw (ru6)       r10, sp[0x7]
             0x0001044a: 89 6a:       ldc (ru6)       r10, 0x9
             0x0001044c: c1 54:       stw (ru6)       r3, sp[0x1]
             0x0001044e: 83 54:       stw (ru6)       r2, sp[0x3]
             0x00010450: 02 54:       stw (ru6)       r0, sp[0x2]
             0x00010452: 04 64:       ldaw (ru6)      r0, sp[0x4]
             0x00010454: d9 a6:       mkmsk (rus)     r2, 0x1
             0x00010456: 01 f0 ca 6e: ldw (lru6)      r11, cp[0x4a]
             0x0001045a: dc a6:       mkmsk (rus)     r3, 0x20
.label36     0x0001045c: c7 fc 5f 03: lmul (l6r)      r4, r5, r1, r11, r7, r7
             0x00010460: 03 a9:       shr (2rus)      r4, r4, 0x3
             0x00010462: 90 fd ec 3f: mul (l3r)       r5, r4, r8
             0x00010466: 95 1a:       sub (3r)        r5, r1, r5
             0x00010468: 95 45:       or (3r)         r5, r5, r9
             0x0001046a: 63 10:       add (3r)        r6, r0, r3
             0x0001046c: 3d 90:       add (2rus)      r3, r3, 0x1
             0x0001046e: 1a f9 ec 8f: st8 (l3r)       r5, r6[r2]
             0x00010472: e9 c9:       lsu (3r)        r6, r10, r1
             0x00010474: d0 90:       add (2rus)      r1, r4, 0x0
             0x00010476: 8e 75:       bt (ru6)        r6, -0xe <.label36>
             0x00010478: 13 10:       add (3r)        r1, r0, r3
             0x0001047a: 76 f8 ec 8f: st8 (l3r)       r7, r1[r2]
             0x0001047e: e0 91:       add (2rus)      r6, r8, 0x0
             0x00010480: 03 5d:       ldw (ru6)       r4, sp[0x3]
             0x00010482: d3 78:       bf (ru6)        r3, 0x13 <.label37>
             0x00010484: 53 8a:       ld8u (3r)       r1, r0[r7]
             0x00010486: 93 fa ec 8f: st8 (l3r)       r5, r0[r7]
             0x0001048a: 13 f8 ec 8f: st8 (l3r)       r1, r0[r3]
             0x0001048e: 1d 98:       sub (2rus)      r1, r3, 0x1
             0x00010490: c2 68:       ldc (ru6)       r3, 0x2
             0x00010492: 37 c8:       lsu (3r)        r3, r1, r3
             0x00010494: ca 70:       bt (ru6)        r3, 0xa <.label37>
.label38     0x00010496: 32 88:       ld8u (3r)       r3, r0[r2]
             0x00010498: b1 88:       ld8u (3r)       r11, r0[r1]
             0x0001049a: b2 f8 ec 8f: st8 (l3r)       r11, r0[r2]
             0x0001049e: 29 90:       add (2rus)      r2, r2, 0x1
             0x000104a0: 31 f8 ec 8f: st8 (l3r)       r3, r0[r1]
             0x000104a4: 15 98:       sub (2rus)      r1, r1, 0x1
             0x000104a6: 39 c8:       lsu (3r)        r3, r2, r1
             0x000104a8: ca 74:       bt (ru6)        r3, -0xa <.label38>
.label37     0x000104aa: 00 f0 6b d0: bl (lu10)       0x6b <__getstderr>
             0x000104ae: 10 90:       add (2rus)      r1, r0, 0x0
             0x000104b0: 00 f0 3d 60: ldaw (lru6)     r0, dp[0x3d]
             0x000104b4: 01 f0 a4 d0: bl (lu10)       0x4a4 <fputs>
             0x000104b8: 00 f0 64 d0: bl (lu10)       0x64 <__getstderr>
             0x000104bc: 10 90:       add (2rus)      r1, r0, 0x0
             0x000104be: 01 5c:       ldw (ru6)       r0, sp[0x1]
             0x000104c0: 01 f0 9e d0: bl (lu10)       0x49e <fputs>
             0x000104c4: 00 f0 5e d0: bl (lu10)       0x5e <__getstderr>
             0x000104c8: 10 90:       add (2rus)      r1, r0, 0x0
             0x000104ca: 01 f0 00 60: ldaw (lru6)     r0, dp[0x40]
             0x000104ce: 01 f0 97 d0: bl (lu10)       0x497 <fputs>
             0x000104d2: 00 f0 57 d0: bl (lu10)       0x57 <__getstderr>
             0x000104d6: 10 90:       add (2rus)      r1, r0, 0x0
             0x000104d8: 02 5c:       ldw (ru6)       r0, sp[0x2]
             0x000104da: 01 f0 91 d0: bl (lu10)       0x491 <fputs>
             0x000104de: 00 f0 51 d0: bl (lu10)       0x51 <__getstderr>
             0x000104e2: 10 90:       add (2rus)      r1, r0, 0x0
             0x000104e4: 01 f0 05 60: ldaw (lru6)     r0, dp[0x45]
             0x000104e8: 01 f0 8a d0: bl (lu10)       0x48a <fputs>
             0x000104ec: 00 f0 4a d0: bl (lu10)       0x4a <__getstderr>
             0x000104f0: 10 90:       add (2rus)      r1, r0, 0x0
             0x000104f2: 04 64:       ldaw (ru6)      r0, sp[0x4]
             0x000104f4: 01 f0 84 d0: bl (lu10)       0x484 <fputs>
             0x000104f8: 0d 79:       bf (ru6)        r4, 0xd <.label39>
             0x000104fa: 00 f0 43 d0: bl (lu10)       0x43 <__getstderr>
             0x000104fe: 10 90:       add (2rus)      r1, r0, 0x0
             0x00010500: 01 f0 08 60: ldaw (lru6)     r0, dp[0x48]
             0x00010504: 01 f0 7c d0: bl (lu10)       0x47c <fputs>
             0x00010508: 00 f0 3c d0: bl (lu10)       0x3c <__getstderr>
             0x0001050c: 10 90:       add (2rus)      r1, r0, 0x0
             0x0001050e: c0 90:       add (2rus)      r0, r4, 0x0
             0x00010510: 01 f0 76 d0: bl (lu10)       0x476 <fputs>
.label39     0x00010514: 00 f0 36 d0: bl (lu10)       0x36 <__getstderr>
             0x00010518: 12 08:       ldw (2rus)      r1, r0[0x2]
             0x0001051a: 15 98:       sub (2rus)      r1, r1, 0x1
             0x0001051c: 44 f8 ec 97: ashr (l2rus)    r4, r1, 0x20
             0x00010520: 12 00:       stw (2rus)      r1, r0[0x2]
             0x00010522: 00 f0 2f d0: bl (lu10)       0x2f <__getstderr>
             0x00010526: 1f 79:       bf (ru6)        r4, 0x1f <.label40>
             0x00010528: 42 08:       ldw (2rus)      r4, r0[0x2]
             0x0001052a: 00 f0 2b d0: bl (lu10)       0x2b <__getstderr>
             0x0001052e: 42 0a:       ldw (2rus)      r0, r0[0x6]
             0x00010530: 00 c1:       lss (3r)        r4, r4, r0
             0x00010532: 00 f0 27 d0: bl (lu10)       0x27 <__getstderr>
             0x00010536: 10 90:       add (2rus)      r1, r0, 0x0
             0x00010538: 11 71:       bt (ru6)        r4, 0x11 <.label41>
             0x0001053a: 04 08:       ldw (2rus)      r0, r1[0x0]
             0x0001053c: a3 fa ec 8f: st8 (l3r)       r6, r0[r7]
             0x00010540: 00 f0 20 d0: bl (lu10)       0x20 <__getstderr>
             0x00010544: 00 08:       ldw (2rus)      r0, r0[0x0]
             0x00010546: 43 8a:       ld8u (3r)       r0, r0[r7]
             0x00010548: c2 b4:       eq (2rus)       r4, r0, 0xa
             0x0001054a: 00 f0 1b d0: bl (lu10)       0x1b <__getstderr>
             0x0001054e: 10 90:       add (2rus)      r1, r0, 0x0
             0x00010550: 05 71:       bt (ru6)        r4, 0x5 <.label41>
             0x00010552: 04 08:       ldw (2rus)      r0, r1[0x0]
             0x00010554: 01 90:       add (2rus)      r0, r0, 0x1
             0x00010556: 04 00:       stw (2rus)      r0, r1[0x0]
             0x00010558: 01 f0 16 d0: bl (lu10)       0x416 <abort>
.label41     0x0001055c: 0a 68:       ldc (ru6)       r0, 0xa
             0x0001055e: 01 f0 03 d0: bl (lu10)       0x403 <__swbuf>
             0x00010562: 01 f0 11 d0: bl (lu10)       0x411 <abort>
.label40     0x00010566: 00 08:       ldw (2rus)      r0, r0[0x0]
             0x00010568: a3 fa ec 8f: st8 (l3r)       r6, r0[r7]
             0x0001056c: 00 f0 0a d0: bl (lu10)       0xa <__getstderr>
             0x00010570: 10 08:       ldw (2rus)      r1, r0[0x0]
             0x00010572: 15 90:       add (2rus)      r1, r1, 0x1
             0x00010574: 10 00:       stw (2rus)      r1, r0[0x0]
             0x00010576: 01 f0 07 d0: bl (lu10)       0x407 <abort>
             0x0001057a: 00 00:       stw (2rus)      r0, r0[0x0]

<__getstdin>:
             0x0001057c: 00 f0 07 58: ldw (lru6)      r0, dp[0x7]
             0x00010580: c0 77:       retsp (u6)      0x0
             0x00010582: 00 90:       add (2rus)      r0, r0, 0x0

<__getstderr>:
             0x00010584: 00 f0 09 58: ldw (lru6)      r0, dp[0x9]
             0x00010588: c0 77:       retsp (u6)      0x0
             0x0001058a: 00 00:       stw (2rus)      r0, r0[0x0]

<__libc_done>:
             0x0001058c: 40 68:       ldc (ru6)       r1, 0x0
             0x0001058e: 41 77:       entsp (u6)      0x1
             0x00010590: 04 90:       add (2rus)      r0, r1, 0x0
             0x00010592: 00 f0 b9 d0: bl (lu10)       0xb9 <__call_exitprocs>
             0x00010596: 00 f0 ed d3: bl (lu10)       0x3ed <_cleanup>
             0x0001059a: 09 f0 aa d1: bl (lu10)       0x25aa <.label42>
             0x0001059e: 00 f0 ed d3: bl (lu10)       0x3ed <_done>

<__misaligned_store>:
             0x000105a2: 80 68:       ldc (ru6)       r2, 0x0
             0x000105a4: 12 f8 ec 8f: st8 (l3r)       r1, r0[r2]
             0x000105a8: 94 ac:       shr (2rus)      r1, r1, 0x8
             0x000105aa: c1 68:       ldc (ru6)       r3, 0x1
             0x000105ac: 13 f8 ec 8f: st8 (l3r)       r1, r0[r3]
             0x000105b0: 94 ac:       shr (2rus)      r1, r1, 0x8
             0x000105b2: 02 90:       add (2rus)      r0, r0, 0x2
             0x000105b4: 12 f8 ec 8f: st8 (l3r)       r1, r0[r2]
             0x000105b8: 94 ac:       shr (2rus)      r1, r1, 0x8
             0x000105ba: 13 f8 ec 8f: st8 (l3r)       r1, r0[r3]
             0x000105be: c0 77:       retsp (u6)      0x0

<__srget>:
             0x000105c0: 42 77:       entsp (u6)      0x2
             0x000105c2: 01 55:       stw (ru6)       r4, sp[0x1]
             0x000105c4: 40 90:       add (2rus)      r4, r0, 0x0
             0x000105c6: 02 f0 10 58: ldw (lru6)      r0, dp[0x90]
             0x000105ca: 02 70:       bt (ru6)        r0, 0x2 <.label43>
             0x000105cc: 00 f0 b4 d0: bl (lu10)       0xb4 <__sinit>
.label43     0x000105d0: c0 90:       add (2rus)      r0, r4, 0x0
             0x000105d2: 00 f0 e5 d2: bl (lu10)       0x2e5 <__srefill>
             0x000105d6: 03 78:       bf (ru6)        r0, 0x3 <.label44>
             0x000105d8: 01 5d:       ldw (ru6)       r4, sp[0x1]
             0x000105da: d0 a6:       mkmsk (rus)     r0, 0x20
             0x000105dc: c2 77:       retsp (u6)      0x2
.label44     0x000105de: c1 08:       ldw (2rus)      r0, r4[0x1]
             0x000105e0: 01 98:       sub (2rus)      r0, r0, 0x1
             0x000105e2: c1 00:       stw (2rus)      r0, r4[0x1]
             0x000105e4: 00 68:       ldc (ru6)       r0, 0x0
             0x000105e6: d0 08:       ldw (2rus)      r1, r4[0x0]
             0x000105e8: 04 88:       ld8u (3r)       r0, r1[r0]
             0x000105ea: 15 90:       add (2rus)      r1, r1, 0x1
             0x000105ec: d0 00:       stw (2rus)      r1, r4[0x0]
             0x000105ee: 01 5d:       ldw (ru6)       r4, sp[0x1]
             0x000105f0: c2 77:       retsp (u6)      0x2

<_exit>:
             0x000105f2: 10 90:       add (2rus)      r1, r0, 0x0
             0x000105f4: 00 68:       ldc (ru6)       r0, 0x0
             0x000105f6: 00 f0 84 d0: bl (lu10)       0x84 <_DoSyscall>
             0x000105fa: ed 07:       clre (0r)       
             0x000105fc: ec 07:       waiteu (0r)     
             0x000105fe: 00 00:       stw (2rus)      r0, r0[0x0]

<_exit_unlocked>:
             0x00010600: 40 68:       ldc (ru6)       r1, 0x0
             0x00010602: 42 77:       entsp (u6)      0x2
             0x00010604: 01 55:       stw (ru6)       r4, sp[0x1]
             0x00010606: 40 90:       add (2rus)      r4, r0, 0x0
             0x00010608: c0 90:       add (2rus)      r0, r4, 0x0
             0x0001060a: 00 f0 7d d0: bl (lu10)       0x7d <__call_exitprocs>
             0x0001060e: 00 f0 b1 d3: bl (lu10)       0x3b1 <_cleanup>
             0x00010612: 09 f0 6e d1: bl (lu10)       0x256e <.label42>
             0x00010616: c0 90:       add (2rus)      r0, r4, 0x0
             0x00010618: 00 f0 15 d4: bl (lu10)       -0x15 <_exit>

<memset>:
.label995    0x0001061c: bb a8:       shr (2rus)      r11, r2, 0x3
             0x0001061e: dd 7a:       bf (ru6)        r11, 0x1d <.label45>
             0x00010620: 34 47:       zext (rus)      r1, 0x8
             0x00010622: 34 a5:       shl (2rus)      r11, r1, 0x8
             0x00010624: 97 44:       or (3r)         r1, r1, r11
             0x00010626: 35 a5:       shl (2rus)      r11, r1, 0x10
             0x00010628: 97 44:       or (3r)         r1, r1, r11
             0x0001062a: 33 90:       add (2rus)      r3, r0, 0x3
             0x0001062c: c3 6a:       ldc (ru6)       r11, 0x3
             0x0001062e: 2f 2f:       andnot (2r)     r3, r11
             0x00010630: bc 18:       sub (3r)        r11, r3, r0
             0x00010632: c5 7a:       bf (ru6)        r11, 0x5 <.label46>
             0x00010634: ab 1c:       sub (3r)        r2, r2, r11
.label47     0x00010636: 3d 9a:       sub (2rus)      r11, r11, 0x1
             0x00010638: 93 fc ec 8f: st8 (l3r)       r1, r0[r11]
             0x0001063c: c4 76:       bt (ru6)        r11, -0x4 <.label47>
.label46     0x0001063e: ba a8:       shr (2rus)      r11, r2, 0x2
.label48     0x00010640: 3d 9a:       sub (2rus)      r11, r11, 0x1
             0x00010642: 9f fc ec 07: stw (l3r)       r1, r3[r11]
             0x00010646: c4 76:       bt (ru6)        r11, -0x4 <.label48>
             0x00010648: 3e 10:       add (3r)        r3, r3, r2
             0x0001064a: da 46:       zext (rus)      r2, 0x2
             0x0001064c: 85 78:       bf (ru6)        r2, 0x5 <.label49>
             0x0001064e: 3e 18:       sub (3r)        r3, r3, r2
.label50     0x00010650: 29 98:       sub (2rus)      r2, r2, 0x1
             0x00010652: 1e f8 ec 8f: st8 (l3r)       r1, r3[r2]
             0x00010656: 84 74:       bt (ru6)        r2, -0x4 <.label50>
.label49     0x00010658: c0 77:       retsp (u6)      0x0
.label45     0x0001065a: 84 78:       bf (ru6)        r2, 0x4 <.label51>
.label52     0x0001065c: 29 98:       sub (2rus)      r2, r2, 0x1
             0x0001065e: 12 f8 ec 8f: st8 (l3r)       r1, r0[r2]
             0x00010662: 84 74:       bt (ru6)        r2, -0x4 <.label52>
.label51     0x00010664: c0 77:       retsp (u6)      0x0
             0x00010666: 00 00:       stw (2rus)      r0, r0[0x0]

<printf>:
             0x00010668: 85 77:       extsp (u6)      0x5
             0x0001066a: c1 57:       stw (ru6)       lr, sp[0x1]
             0x0001066c: b0 90:       add (2rus)      r11, r0, 0x0
             0x0001066e: 43 54:       stw (ru6)       r1, sp[0x3]
             0x00010670: 84 54:       stw (ru6)       r2, sp[0x4]
             0x00010672: 83 64:       ldaw (ru6)      r2, sp[0x3]
             0x00010674: 9c 91:       add (2rus)      r1, r11, 0x0
             0x00010676: c5 54:       stw (ru6)       r3, sp[0x5]
             0x00010678: 82 54:       stw (ru6)       r2, sp[0x2]
             0x0001067a: 00 f0 08 58: ldw (lru6)      r0, dp[0x8]
             0x0001067e: 00 f0 d1 d3: bl (lu10)       0x3d1 <vfprintf>
             0x00010682: c1 5f:       ldw (ru6)       lr, sp[0x1]
             0x00010684: 85 67:       ldaw (ru6)      sp, sp[0x5]
             0x00010686: c0 77:       retsp (u6)      0x0

<puts>:
             0x00010688: 4b 77:       entsp (u6)      0xb
             0x0001068a: 0a 55:       stw (ru6)       r4, sp[0xa]
             0x0001068c: 49 55:       stw (ru6)       r5, sp[0x9]
             0x0001068e: 40 90:       add (2rus)      r4, r0, 0x0
             0x00010690: 88 55:       stw (ru6)       r6, sp[0x8]
             0x00010692: c0 90:       add (2rus)      r0, r4, 0x0
             0x00010694: 00 f0 ba d3: bl (lu10)       0x3ba <strlen>
             0x00010698: 01 55:       stw (ru6)       r4, sp[0x1]
             0x0001069a: 02 54:       stw (ru6)       r0, sp[0x2]
             0x0001069c: 01 f0 4c 60: ldaw (lru6)     r1, dp[0x4c]
             0x000106a0: 43 54:       stw (ru6)       r1, sp[0x3]
             0x000106a2: 01 90:       add (2rus)      r0, r0, 0x1
             0x000106a4: d5 a6:       mkmsk (rus)     r1, 0x1
             0x000106a6: 44 54:       stw (ru6)       r1, sp[0x4]
             0x000106a8: 07 54:       stw (ru6)       r0, sp[0x7]
             0x000106aa: 01 64:       ldaw (ru6)      r0, sp[0x1]
             0x000106ac: 05 54:       stw (ru6)       r0, sp[0x5]
             0x000106ae: 42 69:       ldc (ru6)       r5, 0x2
             0x000106b0: 46 55:       stw (ru6)       r5, sp[0x6]
             0x000106b2: 02 f0 10 58: ldw (lru6)      r0, dp[0x90]
             0x000106b6: 02 70:       bt (ru6)        r0, 0x2 <.label53>
             0x000106b8: 00 f0 3e d0: bl (lu10)       0x3e <__sinit>
.label53     0x000106bc: 00 f0 08 58: ldw (lru6)      r0, dp[0x8]
             0x000106c0: 8d 69:       ldc (ru6)       r6, 0xd
             0x000106c2: 52 8a:       ld8u (3r)       r1, r0[r6]
             0x000106c4: 55 3a:       and (3r)        r1, r1, r5
             0x000106c6: 47 70:       bt (ru6)        r1, 0x7 <.label54>
             0x000106c8: 01 f0 54 68: ldc (lru6)      r1, 0x54
             0x000106cc: 01 10:       add (3r)        r0, r0, r1
             0x000106ce: 00 f0 4b d2: bl (lu10)       0x24b <__spin_lock_acquire_recursive>
             0x000106d2: 00 f0 08 58: ldw (lru6)      r0, dp[0x8]
.label54     0x000106d6: 45 64:       ldaw (ru6)      r1, sp[0x5]
             0x000106d8: 00 f0 b2 d0: bl (lu10)       0xb2 <__sfvwrite>
             0x000106dc: 40 90:       add (2rus)      r4, r0, 0x0
             0x000106de: 00 f0 08 58: ldw (lru6)      r0, dp[0x8]
             0x000106e2: 52 8a:       ld8u (3r)       r1, r0[r6]
             0x000106e4: 55 3a:       and (3r)        r1, r1, r5
             0x000106e6: 45 70:       bt (ru6)        r1, 0x5 <.label55>
             0x000106e8: 01 f0 54 68: ldc (lru6)      r1, 0x54
             0x000106ec: 01 10:       add (3r)        r0, r0, r1
             0x000106ee: 00 f0 2b d2: bl (lu10)       0x22b <__spin_lock_release_recursive>
.label55     0x000106f2: 02 79:       bf (ru6)        r4, 0x2 <.label56>
             0x000106f4: d0 a6:       mkmsk (rus)     r0, 0x20
             0x000106f6: 01 73:       bu (u6)         0x1 <.label57>
.label56     0x000106f8: 0a 68:       ldc (ru6)       r0, 0xa
.label57     0x000106fa: 88 5d:       ldw (ru6)       r6, sp[0x8]
             0x000106fc: 49 5d:       ldw (ru6)       r5, sp[0x9]
             0x000106fe: 0a 5d:       ldw (ru6)       r4, sp[0xa]
             0x00010700: cb 77:       retsp (u6)      0xb

<_DoSyscall>:
             0x00010702: d0 a6:       mkmsk (rus)     r0, 0x20
             0x00010704: c0 77:       retsp (u6)      0x0
             0x00010706: 00 00:       stw (2rus)      r0, r0[0x0]

<__call_exitprocs>:
             0x00010708: 41 77:       entsp (u6)      0x1
             0x0001070a: 09 f0 21 d1: bl (lu10)       0x2521 <.label58>
             0x0001070e: c1 77:       retsp (u6)      0x1

<__sfp_lock_release>:
             0x00010710: 00 f0 05 60: ldaw (lru6)     r0, dp[0x5]
             0x00010714: 41 77:       entsp (u6)      0x1
             0x00010716: 00 f0 17 d2: bl (lu10)       0x217 <__spin_lock_release_recursive>
             0x0001071a: c1 77:       retsp (u6)      0x1

<__sfp_lock_acquire>:
             0x0001071c: 00 f0 05 60: ldaw (lru6)     r0, dp[0x5]
             0x00010720: 41 77:       entsp (u6)      0x1
             0x00010722: 00 f0 21 d2: bl (lu10)       0x221 <__spin_lock_acquire_recursive>
             0x00010726: c1 77:       retsp (u6)      0x1

<_cleanup_impl>:
             0x00010728: 04 f0 5c d9: ldap (lu10)     r11, 0x115c <fflush>
             0x0001072c: 41 77:       entsp (u6)      0x1
             0x0001072e: 8c 91:       add (2rus)      r0, r11, 0x0
             0x00010730: 04 f0 62 d1: bl (lu10)       0x1162 <_fwalk>
             0x00010734: c1 77:       retsp (u6)      0x1
             0x00010736: 00 90:       add (2rus)      r0, r0, 0x0

<__sinit>:
             0x00010738: 48 77:       entsp (u6)      0x8
             0x0001073a: 07 55:       stw (ru6)       r4, sp[0x7]
             0x0001073c: 46 55:       stw (ru6)       r5, sp[0x6]
             0x0001073e: 85 55:       stw (ru6)       r6, sp[0x5]
             0x00010740: c4 55:       stw (ru6)       r7, sp[0x4]
             0x00010742: 03 56:       stw (ru6)       r8, sp[0x3]
             0x00010744: 42 56:       stw (ru6)       r9, sp[0x2]
             0x00010746: 81 56:       stw (ru6)       r10, sp[0x1]
             0x00010748: 00 f0 03 60: ldaw (lru6)     r0, dp[0x3]
             0x0001074c: 00 f0 0c d2: bl (lu10)       0x20c <__spin_lock_acquire_recursive>
             0x00010750: 02 f0 10 58: ldw (lru6)      r0, dp[0x90]
             0x00010754: 01 f0 27 70: bt (lru6)       r0, 0x67 <.label59>
             0x00010758: 00 6a:       ldc (ru6)       r8, 0x0
             0x0001075a: 02 f0 11 52: stw (lru6)      r8, dp[0x91]
             0x0001075e: 84 68:       ldc (ru6)       r2, 0x4
             0x00010760: d2 a6:       mkmsk (rus)     r0, 0x2
             0x00010762: 02 f0 12 50: stw (lru6)      r0, dp[0x92]
             0x00010766: 8e 6a:       ldc (ru6)       r10, 0xe
             0x00010768: 02 f0 14 60: ldaw (lru6)     r0, dp[0x94]
             0x0001076c: 03 f0 96 da: ldap (lu10)     r11, 0xe96 <__sread>
             0x00010770: 18 92:       add (2rus)      r9, r10, 0x0
             0x00010772: 02 f0 13 50: stw (lru6)      r0, dp[0x93]
             0x00010776: cc 91:       add (2rus)      r4, r11, 0x0
             0x00010778: 03 f0 de da: ldap (lu10)     r11, 0xede <__swrite>
             0x0001077c: 00 f0 07 58: ldw (lru6)      r0, dp[0x7]
             0x00010780: 80 00:       stw (2rus)      r8, r0[0x0]
             0x00010782: dc 91:       add (2rus)      r5, r11, 0x0
             0x00010784: 13 f8 ec 9f: ldaw (l2rus)    r1, r0[0x3]
             0x00010788: 03 f0 b2 da: ldap (lu10)     r11, 0xeb2 <__sseek>
             0x0001078c: 81 00:       stw (2rus)      r8, r0[0x1]
             0x0001078e: 82 00:       stw (2rus)      r8, r0[0x2]
             0x00010790: ec 91:       add (2rus)      r6, r11, 0x0
             0x00010792: a4 fc ec 87: st16 (l3r)      r2, r1[r8]
             0x00010796: 92 14:       add (3r)        r1, r0, r10
             0x00010798: 03 f0 a2 da: ldap (lu10)     r11, 0xea2 <__sclose>
             0x0001079c: fc 91:       add (2rus)      r7, r11, 0x0
             0x0001079e: 04 fd ec 87: st16 (l3r)      r8, r1[r8]
             0x000107a2: c0 02:       stw (2rus)      r8, r0[0x4]
             0x000107a4: c1 02:       stw (2rus)      r8, r0[0x5]
             0x000107a6: c2 02:       stw (2rus)      r8, r0[0x6]
             0x000107a8: 01 f0 94 6a: ldc (lru6)      r10, 0x54
             0x000107ac: 43 02:       stw (2rus)      r0, r0[0x7]
             0x000107ae: c0 04:       stw (2rus)      r4, r0[0x8]
             0x000107b0: d1 04:       stw (2rus)      r5, r0[0x9]
             0x000107b2: e2 04:       stw (2rus)      r6, r0[0xa]
             0x000107b4: f3 04:       stw (2rus)      r7, r0[0xb]
             0x000107b6: 82 14:       add (3r)        r0, r0, r10
             0x000107b8: 00 f0 c0 d1: bl (lu10)       0x1c0 <__spin_lock_init_recursive>
             0x000107bc: 00 f0 08 58: ldw (lru6)      r0, dp[0x8]
             0x000107c0: 80 00:       stw (2rus)      r8, r0[0x0]
             0x000107c2: 81 00:       stw (2rus)      r8, r0[0x1]
             0x000107c4: 82 00:       stw (2rus)      r8, r0[0x2]
             0x000107c6: 89 68:       ldc (ru6)       r2, 0x9
             0x000107c8: 13 f8 ec 9f: ldaw (l2rus)    r1, r0[0x3]
             0x000107cc: a4 fc ec 87: st16 (l3r)      r2, r1[r8]
             0x000107d0: 91 14:       add (3r)        r1, r0, r9
             0x000107d2: 55 a7:       mkmsk (rus)     r9, 0x1
             0x000107d4: 14 fd ec 87: st16 (l3r)      r9, r1[r8]
             0x000107d8: c0 02:       stw (2rus)      r8, r0[0x4]
             0x000107da: c1 02:       stw (2rus)      r8, r0[0x5]
             0x000107dc: c2 02:       stw (2rus)      r8, r0[0x6]
             0x000107de: 43 02:       stw (2rus)      r0, r0[0x7]
             0x000107e0: c0 04:       stw (2rus)      r4, r0[0x8]
             0x000107e2: d1 04:       stw (2rus)      r5, r0[0x9]
             0x000107e4: e2 04:       stw (2rus)      r6, r0[0xa]
             0x000107e6: f3 04:       stw (2rus)      r7, r0[0xb]
             0x000107e8: 82 14:       add (3r)        r0, r0, r10
             0x000107ea: 00 f0 a7 d1: bl (lu10)       0x1a7 <__spin_lock_init_recursive>
             0x000107ee: 00 f0 09 58: ldw (lru6)      r0, dp[0x9]
             0x000107f2: 80 00:       stw (2rus)      r8, r0[0x0]
             0x000107f4: 92 68:       ldc (ru6)       r2, 0x12
             0x000107f6: 81 00:       stw (2rus)      r8, r0[0x1]
             0x000107f8: 13 f8 ec 9f: ldaw (l2rus)    r1, r0[0x3]
             0x000107fc: 82 00:       stw (2rus)      r8, r0[0x2]
             0x000107fe: a4 fc ec 87: st16 (l3r)      r2, r1[r8]
             0x00010802: 4e 68:       ldc (ru6)       r1, 0xe
             0x00010804: 82 68:       ldc (ru6)       r2, 0x2
             0x00010806: 11 10:       add (3r)        r1, r0, r1
             0x00010808: a4 fc ec 87: st16 (l3r)      r2, r1[r8]
             0x0001080c: c0 02:       stw (2rus)      r8, r0[0x4]
             0x0001080e: c1 02:       stw (2rus)      r8, r0[0x5]
             0x00010810: c2 02:       stw (2rus)      r8, r0[0x6]
             0x00010812: 43 02:       stw (2rus)      r0, r0[0x7]
             0x00010814: c0 04:       stw (2rus)      r4, r0[0x8]
             0x00010816: d1 04:       stw (2rus)      r5, r0[0x9]
             0x00010818: e2 04:       stw (2rus)      r6, r0[0xa]
             0x0001081a: f3 04:       stw (2rus)      r7, r0[0xb]
             0x0001081c: 82 14:       add (3r)        r0, r0, r10
             0x0001081e: 00 f0 8d d1: bl (lu10)       0x18d <__spin_lock_init_recursive>
             0x00010822: 02 f0 50 52: stw (lru6)      r9, dp[0x90]
.label59     0x00010826: 00 f0 03 60: ldaw (lru6)     r0, dp[0x3]
             0x0001082a: 00 f0 8d d1: bl (lu10)       0x18d <__spin_lock_release_recursive>
             0x0001082e: 81 5e:       ldw (ru6)       r10, sp[0x1]
             0x00010830: 42 5e:       ldw (ru6)       r9, sp[0x2]
             0x00010832: 03 5e:       ldw (ru6)       r8, sp[0x3]
             0x00010834: c4 5d:       ldw (ru6)       r7, sp[0x4]
             0x00010836: 85 5d:       ldw (ru6)       r6, sp[0x5]
             0x00010838: 46 5d:       ldw (ru6)       r5, sp[0x6]
             0x0001083a: 07 5d:       ldw (ru6)       r4, sp[0x7]
             0x0001083c: c8 77:       retsp (u6)      0x8
             0x0001083e: 00 00:       stw (2rus)      r0, r0[0x0]

<__sfvwrite>:
             0x00010840: 4c 77:       entsp (u6)      0xc
             0x00010842: 0b 55:       stw (ru6)       r4, sp[0xb]
             0x00010844: 4a 55:       stw (ru6)       r5, sp[0xa]
             0x00010846: 89 55:       stw (ru6)       r6, sp[0x9]
             0x00010848: c8 55:       stw (ru6)       r7, sp[0x8]
             0x0001084a: 07 56:       stw (ru6)       r8, sp[0x7]
             0x0001084c: 40 90:       add (2rus)      r4, r0, 0x0
             0x0001084e: 46 56:       stw (ru6)       r9, sp[0x6]
             0x00010850: 85 56:       stw (ru6)       r10, sp[0x5]
             0x00010852: 44 54:       stw (ru6)       r1, sp[0x4]
             0x00010854: 06 08:       ldw (2rus)      r0, r1[0x2]
             0x00010856: 05 f0 03 78: bf (lru6)       r0, 0x143 <.label60>
             0x0001085a: 80 69:       ldc (ru6)       r6, 0x0
             0x0001085c: c3 f8 ec 9f: ldaw (l2rus)    r0, r4[0x3]
             0x00010860: 03 54:       stw (ru6)       r0, sp[0x3]
             0x00010862: 52 82:       ld16s (3r)      r1, r0[r6]
             0x00010864: 08 68:       ldc (ru6)       r0, 0x8
             0x00010866: 04 38:       and (3r)        r0, r1, r0
             0x00010868: 04 78:       bf (ru6)        r0, 0x4 <.label61>
             0x0001086a: 00 0b:       ldw (2rus)      r0, r4[0x4]
             0x0001086c: 02 78:       bf (ru6)        r0, 0x2 <.label61>
             0x0001086e: 35 47:       zext (rus)      r1, 0x10
             0x00010870: 09 73:       bu (u6)         0x9 <.label62>
.label61     0x00010872: c0 90:       add (2rus)      r0, r4, 0x0
             0x00010874: 03 f0 bc d2: bl (lu10)       0xebc <__swsetup>
             0x00010878: 80 68:       ldc (ru6)       r2, 0x0
             0x0001087a: c3 5c:       ldw (ru6)       r3, sp[0x3]
             0x0001087c: 1e 80:       ld16s (3r)      r1, r3[r2]
             0x0001087e: 04 f0 38 70: bt (lru6)       r0, 0x138 <.label63>
             0x00010882: c3 54:       stw (ru6)       r3, sp[0x3]
.label62     0x00010884: 84 5c:       ldw (ru6)       r2, sp[0x4]
             0x00010886: 02 68:       ldc (ru6)       r0, 0x2
             0x00010888: 28 08:       ldw (2rus)      r2, r2[0x0]
             0x0001088a: 04 38:       and (3r)        r0, r1, r0
             0x0001088c: 82 54:       stw (ru6)       r2, sp[0x2]
             0x0001088e: 21 78:       bf (ru6)        r0, 0x21 <.label64>
             0x00010890: 15 a7:       mkmsk (rus)     r5, 0x1
             0x00010892: 38 91:       add (2rus)      r7, r6, 0x0
             0x00010894: 48 91:       add (2rus)      r8, r6, 0x0
             0x00010896: 05 73:       bu (u6)         0x5 <.label65>
.label66     0x00010898: 42 5c:       ldw (ru6)       r1, sp[0x2]
             0x0001089a: 85 08:       ldw (2rus)      r8, r1[0x1]
             0x0001089c: 74 08:       ldw (2rus)      r7, r1[0x0]
             0x0001089e: 84 94:       add (2rus)      r0, r1, 0x8
             0x000108a0: 02 54:       stw (ru6)       r0, sp[0x2]
.label65     0x000108a2: 06 7e:       bf (ru6)        r8, -0x6 <.label66>
             0x000108a4: 01 f0 c0 68: ldc (lru6)      r3, 0x40
             0x000108a8: 8c cc:       lsu (3r)        r0, r3, r8
             0x000108aa: 01 70:       bt (ru6)        r0, 0x1 <.label67>
             0x000108ac: b0 91:       add (2rus)      r3, r8, 0x0
.label67     0x000108ae: c8 90:       add (2rus)      r0, r6, 0x0
             0x000108b0: 13 0b:       ldw (2rus)      r1, r4[0x7]
             0x000108b2: ec 90:       add (2rus)      r2, r7, 0x0
             0x000108b4: f1 0d:       ldw (2rus)      r11, r4[0x9]
             0x000108b6: eb 27:       bla (1r)        r11
             0x000108b8: 51 c2:       lss (3r)        r1, r0, r5
             0x000108ba: 03 f0 6b 70: bt (lru6)       r1, 0xeb <.label68>
             0x000108be: 00 1a:       sub (3r)        r8, r8, r0
             0x000108c0: c4 5c:       ldw (ru6)       r3, sp[0x4]
             0x000108c2: 3c 11:       add (3r)        r7, r7, r0
             0x000108c4: 1e 08:       ldw (2rus)      r1, r3[0x2]
             0x000108c6: 24 18:       sub (3r)        r2, r1, r0
             0x000108c8: 2e 00:       stw (2rus)      r2, r3[0x2]
             0x000108ca: 04 30:       eq (3r)         r0, r1, r0
             0x000108cc: 16 7c:       bf (ru6)        r0, -0x16 <.label65>
             0x000108ce: 04 f0 07 73: bu (lu6)        0x107 <.label60>
.label64     0x000108d2: d5 46:       zext (rus)      r1, 0x1
             0x000108d4: 44 70:       bt (ru6)        r1, 0x4 <.label69>
             0x000108d6: c0 69:       ldc (ru6)       r7, 0x0
             0x000108d8: 43 5c:       ldw (ru6)       r1, sp[0x3]
             0x000108da: 4c 91:       add (2rus)      r8, r7, 0x0
             0x000108dc: 0b 73:       bu (u6)         0xb <.label70>
.label69     0x000108de: 00 68:       ldc (ru6)       r0, 0x0
             0x000108e0: 90 90:       add (2rus)      r9, r0, 0x0
             0x000108e2: 80 90:       add (2rus)      r8, r0, 0x0
             0x000108e4: 60 90:       add (2rus)      r6, r0, 0x0
             0x000108e6: 02 f0 23 73: bu (lu6)        0xa3 <.label71>
.label72     0x000108ea: 82 5c:       ldw (ru6)       r2, sp[0x2]
             0x000108ec: 79 08:       ldw (2rus)      r7, r2[0x1]
             0x000108ee: 88 08:       ldw (2rus)      r8, r2[0x0]
             0x000108f0: 88 94:       add (2rus)      r0, r2, 0x8
             0x000108f2: 02 54:       stw (ru6)       r0, sp[0x2]
.label70     0x000108f4: c6 7d:       bf (ru6)        r7, -0x6 <.label72>
             0x000108f6: 00 68:       ldc (ru6)       r0, 0x0
             0x000108f8: 04 80:       ld16s (3r)      r0, r1[r0]
             0x000108fa: 52 09:       ldw (2rus)      r9, r4[0x2]
             0x000108fc: 08 f0 40 68: ldc (lru6)      r1, 0x200
             0x00010900: 11 38:       and (3r)        r1, r0, r1
             0x00010902: 01 f0 58 78: bf (lru6)       r1, 0x58 <.label73>
             0x00010906: 5d cd:       lsu (3r)        r1, r7, r9
             0x00010908: 01 f0 46 70: bt (lru6)       r1, 0x46 <.label74>
             0x0001090c: 12 f0 40 68: ldc (lru6)      r1, 0x480
             0x00010910: 31 47:       zext (rus)      r0, 0x10
             0x00010912: 11 38:       and (3r)        r1, r0, r1
             0x00010914: 01 f0 40 78: bf (lru6)       r1, 0x40 <.label74>
             0x00010918: 60 0b:       ldw (2rus)      r6, r4[0x4]
             0x0001091a: d0 08:       ldw (2rus)      r1, r4[0x0]
             0x0001091c: d6 1a:       sub (3r)        r9, r1, r6
             0x0001091e: 5d 15:       add (3r)        r1, r7, r9
             0x00010920: a5 90:       add (2rus)      r10, r1, 0x1
             0x00010922: 11 0b:       ldw (2rus)      r1, r4[0x5]
             0x00010924: 99 a7:       mkmsk (rus)     r2, 0x5
             0x00010926: 15 f8 ec 2f: lda16 (l3r)     r1, r1[r1]
             0x0001092a: 26 28:       shr (3r)        r2, r1, r2
             0x0001092c: 16 10:       add (3r)        r1, r1, r2
             0x0001092e: 15 f8 ec 97: ashr (l2rus)    r1, r1, 0x1
             0x00010932: a6 cc:       lsu (3r)        r2, r1, r10
             0x00010934: 81 70:       bt (ru6)        r2, 0x1 <.label75>
             0x00010936: a4 90:       add (2rus)      r10, r1, 0x0
.label75     0x00010938: 10 f0 40 68: ldc (lru6)      r1, 0x400
             0x0001093c: 01 38:       and (3r)        r0, r0, r1
             0x0001093e: 0b 78:       bf (ru6)        r0, 0xb <.label76>
             0x00010940: 88 91:       add (2rus)      r0, r10, 0x0
             0x00010942: 06 f0 cf d0: bl (lu10)       0x18cf <malloc>
             0x00010946: 50 90:       add (2rus)      r5, r0, 0x0
             0x00010948: 50 71:       bt (ru6)        r5, 0x10 <.label77>
.label79     0x0001094a: 03 f0 45 d1: bl (lu10)       0xd45 <__errno>
             0x0001094e: 4c 68:       ldc (ru6)       r1, 0xc
             0x00010950: 10 00:       stw (2rus)      r1, r0[0x0]
             0x00010952: 02 f0 1f 73: bu (lu6)        0x9f <.label68>
.label76     0x00010956: 98 91:       add (2rus)      r1, r10, 0x0
             0x00010958: c8 90:       add (2rus)      r0, r6, 0x0
             0x0001095a: 06 f0 7d d1: bl (lu10)       0x197d <realloc>
             0x0001095e: 50 90:       add (2rus)      r5, r0, 0x0
             0x00010960: 54 71:       bt (ru6)        r5, 0x14 <.label78>
             0x00010962: 00 0b:       ldw (2rus)      r0, r4[0x4]
             0x00010964: 06 f0 3a d0: bl (lu10)       0x183a <free>
             0x00010968: 10 77:       bu (u6)         -0x10 <.label79>
.label77     0x0001096a: c4 90:       add (2rus)      r0, r5, 0x0
             0x0001096c: a4 91:       add (2rus)      r2, r9, 0x0
             0x0001096e: d8 90:       add (2rus)      r1, r6, 0x0
             0x00010970: 06 f0 d4 d0: bl (lu10)       0x18d4 <memcpy>
             0x00010974: 80 68:       ldc (ru6)       r2, 0x0
             0x00010976: 43 5c:       ldw (ru6)       r1, sp[0x3]
             0x00010978: ed f3 ff 68: ldc (lru6)      r3, 0xfb7f
             0x0001097c: 06 80:       ld16s (3r)      r0, r1[r2]
             0x0001097e: 03 38:       and (3r)        r0, r0, r3
             0x00010980: 02 f0 c0 68: ldc (lru6)      r3, 0x80
             0x00010984: 03 40:       or (3r)         r0, r0, r3
             0x00010986: 06 f8 ec 87: st16 (l3r)      r0, r1[r2]
.label78     0x0001098a: 50 03:       stw (2rus)      r5, r4[0x4]
             0x0001098c: 45 15:       add (3r)        r0, r5, r9
             0x0001098e: c0 00:       stw (2rus)      r0, r4[0x0]
             0x00010990: 09 1e:       sub (3r)        r0, r10, r9
             0x00010992: a1 03:       stw (2rus)      r10, r4[0x5]
             0x00010994: 5c 91:       add (2rus)      r9, r7, 0x0
             0x00010996: c2 00:       stw (2rus)      r0, r4[0x2]
.label74     0x00010998: 1c 91:       add (2rus)      r5, r7, 0x0
             0x0001099a: 4d cd:       lsu (3r)        r0, r7, r9
             0x0001099c: 01 70:       bt (ru6)        r0, 0x1 <.label80>
             0x0001099e: d4 91:       add (2rus)      r5, r9, 0x0
.label80     0x000109a0: e4 90:       add (2rus)      r2, r5, 0x0
             0x000109a2: c0 08:       ldw (2rus)      r0, r4[0x0]
             0x000109a4: 90 91:       add (2rus)      r1, r8, 0x0
             0x000109a6: 06 f0 f9 d0: bl (lu10)       0x18f9 <memmove>
             0x000109aa: c2 08:       ldw (2rus)      r0, r4[0x2]
             0x000109ac: 41 1a:       sub (3r)        r0, r0, r5
             0x000109ae: c2 00:       stw (2rus)      r0, r4[0x2]
             0x000109b0: c0 08:       ldw (2rus)      r0, r4[0x0]
             0x000109b2: 41 12:       add (3r)        r0, r0, r5
             0x000109b4: 2a 73:       bu (u6)         0x2a <.label81>
.label73     0x000109b6: c0 08:       ldw (2rus)      r0, r4[0x0]
             0x000109b8: 10 0b:       ldw (2rus)      r1, r4[0x4]
             0x000109ba: 14 c8:       lsu (3r)        r1, r1, r0
             0x000109bc: 4f 78:       bf (ru6)        r1, 0xf <.label82>
             0x000109be: d7 cb:       lsu (3r)        r1, r9, r7
             0x000109c0: 4d 78:       bf (ru6)        r1, 0xd <.label82>
             0x000109c2: a4 91:       add (2rus)      r2, r9, 0x0
             0x000109c4: 90 91:       add (2rus)      r1, r8, 0x0
             0x000109c6: 06 f0 e9 d0: bl (lu10)       0x18e9 <memmove>
             0x000109ca: c0 08:       ldw (2rus)      r0, r4[0x0]
             0x000109cc: 81 14:       add (3r)        r0, r0, r9
             0x000109ce: c0 00:       stw (2rus)      r0, r4[0x0]
             0x000109d0: c0 90:       add (2rus)      r0, r4, 0x0
             0x000109d2: 03 f0 1d d3: bl (lu10)       0xf1d <_fflush>
             0x000109d6: 1b 78:       bf (ru6)        r0, 0x1b <.label83>
             0x000109d8: 01 f0 1c 73: bu (lu6)        0x5c <.label68>
.label82     0x000109dc: 31 0b:       ldw (2rus)      r3, r4[0x5]
             0x000109de: df c8:       lsu (3r)        r1, r7, r3
             0x000109e0: 4b 70:       bt (ru6)        r1, 0xb <.label84>
             0x000109e2: 00 68:       ldc (ru6)       r0, 0x0
             0x000109e4: 13 0b:       ldw (2rus)      r1, r4[0x7]
             0x000109e6: a0 91:       add (2rus)      r2, r8, 0x0
             0x000109e8: f1 0d:       ldw (2rus)      r11, r4[0x9]
             0x000109ea: eb 27:       bla (1r)        r11
             0x000109ec: 90 90:       add (2rus)      r9, r0, 0x0
             0x000109ee: d1 a6:       mkmsk (rus)     r0, 0x1
             0x000109f0: 84 c1:       lss (3r)        r0, r9, r0
             0x000109f2: 0d 78:       bf (ru6)        r0, 0xd <.label83>
             0x000109f4: 01 f0 0e 73: bu (lu6)        0x4e <.label68>
.label84     0x000109f8: ec 90:       add (2rus)      r2, r7, 0x0
             0x000109fa: 90 91:       add (2rus)      r1, r8, 0x0
             0x000109fc: 06 f0 ce d0: bl (lu10)       0x18ce <memmove>
             0x00010a00: c2 08:       ldw (2rus)      r0, r4[0x2]
             0x00010a02: 43 1a:       sub (3r)        r0, r0, r7
             0x00010a04: c2 00:       stw (2rus)      r0, r4[0x2]
             0x00010a06: c0 08:       ldw (2rus)      r0, r4[0x0]
             0x00010a08: 43 12:       add (3r)        r0, r0, r7
.label81     0x00010a0a: 5c 91:       add (2rus)      r9, r7, 0x0
             0x00010a0c: c0 00:       stw (2rus)      r0, r4[0x0]
.label83     0x00010a0e: bd 1d:       sub (3r)        r7, r7, r9
             0x00010a10: 84 5c:       ldw (ru6)       r2, sp[0x4]
             0x00010a12: 81 16:       add (3r)        r8, r8, r9
             0x00010a14: 0a 08:       ldw (2rus)      r0, r2[0x2]
             0x00010a16: 91 1c:       sub (3r)        r1, r0, r9
             0x00010a18: 1a 00:       stw (2rus)      r1, r2[0x2]
             0x00010a1a: 81 34:       eq (3r)         r0, r0, r9
             0x00010a1c: 43 5c:       ldw (ru6)       r1, sp[0x3]
             0x00010a1e: 02 f0 17 7c: bf (lru6)       r0, -0x97 <.label70>
             0x00010a22: 01 f0 1d 73: bu (lu6)        0x5d <.label60>
.label85     0x00010a26: 42 5c:       ldw (ru6)       r1, sp[0x2]
             0x00010a28: 85 08:       ldw (2rus)      r8, r1[0x1]
             0x00010a2a: 94 08:       ldw (2rus)      r9, r1[0x0]
             0x00010a2c: 84 94:       add (2rus)      r0, r1, 0x8
             0x00010a2e: 02 54:       stw (ru6)       r0, sp[0x2]
.label71     0x00010a30: 40 69:       ldc (ru6)       r5, 0x0
.label95     0x00010a32: 07 7e:       bf (ru6)        r8, -0x7 <.label85>
             0x00010a34: 4b 71:       bt (ru6)        r5, 0xb <.label86>
             0x00010a36: a0 91:       add (2rus)      r2, r8, 0x0
             0x00010a38: 4a 68:       ldc (ru6)       r1, 0xa
             0x00010a3a: 84 91:       add (2rus)      r0, r9, 0x0
             0x00010a3c: 06 f0 60 d0: bl (lu10)       0x1860 <memchr>
             0x00010a40: 03 78:       bf (ru6)        r0, 0x3 <.label87>
             0x00010a42: 01 90:       add (2rus)      r0, r0, 0x1
             0x00010a44: e1 1c:       sub (3r)        r6, r0, r9
             0x00010a46: 01 73:       bu (u6)         0x1 <.label88>
.label87     0x00010a48: e1 91:       add (2rus)      r6, r8, 0x1
.label88     0x00010a4a: 15 a7:       mkmsk (rus)     r5, 0x1
.label86     0x00010a4c: f0 91:       add (2rus)      r7, r8, 0x0
             0x00010a4e: c2 cb:       lsu (3r)        r0, r8, r6
             0x00010a50: 01 70:       bt (ru6)        r0, 0x1 <.label89>
             0x00010a52: 38 91:       add (2rus)      r7, r6, 0x0
.label89     0x00010a54: 31 0b:       ldw (2rus)      r3, r4[0x5]
             0x00010a56: c0 08:       ldw (2rus)      r0, r4[0x0]
             0x00010a58: 10 0b:       ldw (2rus)      r1, r4[0x4]
             0x00010a5a: 14 c8:       lsu (3r)        r1, r1, r0
             0x00010a5c: 50 78:       bf (ru6)        r1, 0x10 <.label90>
             0x00010a5e: d2 08:       ldw (2rus)      r1, r4[0x2]
             0x00010a60: ad 10:       add (3r)        r10, r3, r1
             0x00010a62: db c3:       lss (3r)        r1, r10, r7
             0x00010a64: 4c 78:       bf (ru6)        r1, 0xc <.label90>
             0x00010a66: a8 91:       add (2rus)      r2, r10, 0x0
             0x00010a68: 94 91:       add (2rus)      r1, r9, 0x0
             0x00010a6a: 06 f0 97 d0: bl (lu10)       0x1897 <memmove>
             0x00010a6e: c0 08:       ldw (2rus)      r0, r4[0x0]
             0x00010a70: 82 14:       add (3r)        r0, r0, r10
             0x00010a72: c0 00:       stw (2rus)      r0, r4[0x0]
             0x00010a74: c0 90:       add (2rus)      r0, r4, 0x0
             0x00010a76: 03 f0 cb d2: bl (lu10)       0xecb <_fflush>
             0x00010a7a: 0c 70:       bt (ru6)        r0, 0xc <.label68>
             0x00010a7c: 20 73:       bu (u6)         0x20 <.label91>
.label90     0x00010a7e: df c0:       lss (3r)        r1, r7, r3
             0x00010a80: 53 70:       bt (ru6)        r1, 0x13 <.label92>
             0x00010a82: 00 68:       ldc (ru6)       r0, 0x0
             0x00010a84: 13 0b:       ldw (2rus)      r1, r4[0x7]
             0x00010a86: a4 91:       add (2rus)      r2, r9, 0x0
             0x00010a88: f1 0d:       ldw (2rus)      r11, r4[0x9]
             0x00010a8a: eb 27:       bla (1r)        r11
             0x00010a8c: a0 90:       add (2rus)      r10, r0, 0x0
             0x00010a8e: d1 a6:       mkmsk (rus)     r0, 0x1
             0x00010a90: 88 c1:       lss (3r)        r0, r10, r0
             0x00010a92: 15 78:       bf (ru6)        r0, 0x15 <.label91>
.label68     0x00010a94: 01 f0 80 68: ldc (lru6)      r2, 0x40
             0x00010a98: c3 5c:       ldw (ru6)       r3, sp[0x3]
             0x00010a9a: 00 68:       ldc (ru6)       r0, 0x0
             0x00010a9c: 1c 80:       ld16s (3r)      r1, r3[r0]
             0x00010a9e: 16 40:       or (3r)         r1, r1, r2
             0x00010aa0: 1c f8 ec 87: st16 (l3r)      r1, r3[r0]
             0x00010aa4: d0 a6:       mkmsk (rus)     r0, 0x20
             0x00010aa6: 1d 73:       bu (u6)         0x1d <.label93>
.label92     0x00010aa8: 94 91:       add (2rus)      r1, r9, 0x0
             0x00010aaa: ec 90:       add (2rus)      r2, r7, 0x0
             0x00010aac: 06 f0 76 d0: bl (lu10)       0x1876 <memmove>
             0x00010ab0: 6c 91:       add (2rus)      r10, r7, 0x0
             0x00010ab2: c2 08:       ldw (2rus)      r0, r4[0x2]
             0x00010ab4: 43 1a:       sub (3r)        r0, r0, r7
             0x00010ab6: c2 00:       stw (2rus)      r0, r4[0x2]
             0x00010ab8: c0 08:       ldw (2rus)      r0, r4[0x0]
             0x00010aba: 43 12:       add (3r)        r0, r0, r7
             0x00010abc: c0 00:       stw (2rus)      r0, r4[0x0]
.label91     0x00010abe: 4a 35:       eq (3r)         r0, r6, r10
             0x00010ac0: 05 78:       bf (ru6)        r0, 0x5 <.label94>
             0x00010ac2: c0 90:       add (2rus)      r0, r4, 0x0
             0x00010ac4: 03 f0 a4 d2: bl (lu10)       0xea4 <_fflush>
             0x00010ac8: 1b 74:       bt (ru6)        r0, -0x1b <.label68>
             0x00010aca: 40 69:       ldc (ru6)       r5, 0x0
.label94     0x00010acc: aa 1d:       sub (3r)        r6, r6, r10
             0x00010ace: 84 5c:       ldw (ru6)       r2, sp[0x4]
             0x00010ad0: 0a 08:       ldw (2rus)      r0, r2[0x2]
             0x00010ad2: 92 1c:       sub (3r)        r1, r0, r10
             0x00010ad4: 96 16:       add (3r)        r9, r9, r10
             0x00010ad6: 82 34:       eq (3r)         r0, r0, r10
             0x00010ad8: 82 1e:       sub (3r)        r8, r8, r10
             0x00010ada: 1a 00:       stw (2rus)      r1, r2[0x2]
             0x00010adc: 01 f0 17 7c: bf (lru6)       r0, -0x57 <.label95>
.label60     0x00010ae0: 00 68:       ldc (ru6)       r0, 0x0
.label93     0x00010ae2: 85 5e:       ldw (ru6)       r10, sp[0x5]
             0x00010ae4: 46 5e:       ldw (ru6)       r9, sp[0x6]
             0x00010ae6: 07 5e:       ldw (ru6)       r8, sp[0x7]
             0x00010ae8: c8 5d:       ldw (ru6)       r7, sp[0x8]
             0x00010aea: 89 5d:       ldw (ru6)       r6, sp[0x9]
             0x00010aec: 4a 5d:       ldw (ru6)       r5, sp[0xa]
             0x00010aee: 0b 5d:       ldw (ru6)       r4, sp[0xb]
             0x00010af0: cc 77:       retsp (u6)      0xc
.label63     0x00010af2: 01 f0 00 68: ldc (lru6)      r0, 0x40
             0x00010af6: 04 40:       or (3r)         r0, r1, r0
             0x00010af8: 0e f8 ec 87: st16 (l3r)      r0, r3[r2]
             0x00010afc: 03 f0 6c d0: bl (lu10)       0xc6c <__errno>
             0x00010b00: 49 68:       ldc (ru6)       r1, 0x9
             0x00010b02: 10 00:       stw (2rus)      r1, r0[0x0]
             0x00010b04: d0 a6:       mkmsk (rus)     r0, 0x20
             0x00010b06: 13 77:       bu (u6)         -0x13 <.label93>

<__alloc_libc_hwlock>:
.label998    0x00010b08: 81 87:       getr (rus)      r0, 0x5
             0x00010b0a: 03 f0 19 50: stw (lru6)      r0, dp[0xd9]
             0x00010b0e: c0 77:       retsp (u6)      0x0

<__spin_lock_acquire>:
             0x00010b10: 10 90:       add (2rus)      r1, r0, 0x0
             0x00010b12: d9 a6:       mkmsk (rus)     r2, 0x1
.label96     0x00010b14: 03 f0 d9 58: ldw (lru6)      r3, dp[0xd9]
             0x00010b18: cf b6:       in (2r)         r3, res[r3]
             0x00010b1a: 04 08:       ldw (2rus)      r0, r1[0x0]
             0x00010b1c: 24 00:       stw (2rus)      r2, r1[0x0]
             0x00010b1e: 03 f0 d9 58: ldw (lru6)      r3, dp[0xd9]
             0x00010b22: cf ae:       out (r2r)       res[r3], r3
             0x00010b24: 09 74:       bt (ru6)        r0, -0x9 <.label96>
             0x00010b26: c0 77:       retsp (u6)      0x0

<__spin_lock_release>:
             0x00010b28: 10 90:       add (2rus)      r1, r0, 0x0
             0x00010b2a: 03 f0 99 58: ldw (lru6)      r2, dp[0xd9]
             0x00010b2e: 00 68:       ldc (ru6)       r0, 0x0
             0x00010b30: ca b6:       in (2r)         r2, res[r2]
             0x00010b32: 04 00:       stw (2rus)      r0, r1[0x0]
             0x00010b34: 03 f0 19 58: ldw (lru6)      r0, dp[0xd9]
             0x00010b38: c0 ae:       out (r2r)       res[r0], r0
             0x00010b3a: c0 77:       retsp (u6)      0x0

<__spin_lock_init_recursive>:
             0x00010b3c: d4 a6:       mkmsk (rus)     r1, 0x20
             0x00010b3e: 10 00:       stw (2rus)      r1, r0[0x0]
             0x00010b40: 40 68:       ldc (ru6)       r1, 0x0
             0x00010b42: 11 00:       stw (2rus)      r1, r0[0x1]
             0x00010b44: c0 77:       retsp (u6)      0x0
             0x00010b46: 00 90:       add (2rus)      r0, r0, 0x0

<__spin_lock_release_recursive>:
             0x00010b48: 10 90:       add (2rus)      r1, r0, 0x0
             0x00010b4a: 05 08:       ldw (2rus)      r0, r1[0x1]
             0x00010b4c: 01 98:       sub (2rus)      r0, r0, 0x1
             0x00010b4e: 05 00:       stw (2rus)      r0, r1[0x1]
             0x00010b50: 05 08:       ldw (2rus)      r0, r1[0x1]
             0x00010b52: 08 70:       bt (ru6)        r0, 0x8 <.label97>
             0x00010b54: d0 a6:       mkmsk (rus)     r0, 0x20
             0x00010b56: 03 f0 99 58: ldw (lru6)      r2, dp[0xd9]
             0x00010b5a: ca b6:       in (2r)         r2, res[r2]
             0x00010b5c: 04 00:       stw (2rus)      r0, r1[0x0]
             0x00010b5e: 03 f0 19 58: ldw (lru6)      r0, dp[0xd9]
             0x00010b62: c0 ae:       out (r2r)       res[r0], r0
.label97     0x00010b64: c0 77:       retsp (u6)      0x0
             0x00010b66: 00 90:       add (2rus)      r0, r0, 0x0

<__spin_lock_acquire_recursive>:
             0x00010b68: ee 17:       get (0r)        r11, id
             0x00010b6a: 10 90:       add (2rus)      r1, r0, 0x0
             0x00010b6c: 04 08:       ldw (2rus)      r0, r1[0x0]
             0x00010b6e: 83 34:       eq (3r)         r0, r0, r11
             0x00010b70: 13 70:       bt (ru6)        r0, 0x13 <.label98>
             0x00010b72: 03 f0 99 58: ldw (lru6)      r2, dp[0xd9]
             0x00010b76: ca b6:       in (2r)         r2, res[r2]
             0x00010b78: d8 a6:       mkmsk (rus)     r2, 0x20
             0x00010b7a: 04 08:       ldw (2rus)      r0, r1[0x0]
             0x00010b7c: 07 73:       bu (u6)         0x7 <.label99>
.label100    0x00010b7e: 03 f0 19 58: ldw (lru6)      r0, dp[0xd9]
             0x00010b82: c0 ae:       out (r2r)       res[r0], r0
             0x00010b84: 03 f0 d9 58: ldw (lru6)      r3, dp[0xd9]
             0x00010b88: cf b6:       in (2r)         r3, res[r3]
             0x00010b8a: 04 08:       ldw (2rus)      r0, r1[0x0]
.label99     0x00010b8c: 02 30:       eq (3r)         r0, r0, r2
             0x00010b8e: 09 7c:       bf (ru6)        r0, -0x9 <.label100>
             0x00010b90: b4 00:       stw (2rus)      r11, r1[0x0]
             0x00010b92: 03 f0 19 58: ldw (lru6)      r0, dp[0xd9]
             0x00010b96: c0 ae:       out (r2r)       res[r0], r0
.label98     0x00010b98: 05 08:       ldw (2rus)      r0, r1[0x1]
             0x00010b9a: 01 90:       add (2rus)      r0, r0, 0x1
             0x00010b9c: 05 00:       stw (2rus)      r0, r1[0x1]
             0x00010b9e: c0 77:       retsp (u6)      0x0

<__srefill>:
             0x00010ba0: 46 77:       entsp (u6)      0x6
             0x00010ba2: 05 55:       stw (ru6)       r4, sp[0x5]
             0x00010ba4: 44 55:       stw (ru6)       r5, sp[0x4]
             0x00010ba6: 83 55:       stw (ru6)       r6, sp[0x3]
             0x00010ba8: c2 55:       stw (ru6)       r7, sp[0x2]
             0x00010baa: 01 56:       stw (ru6)       r8, sp[0x1]
             0x00010bac: 40 90:       add (2rus)      r4, r0, 0x0
             0x00010bae: 02 f0 10 58: ldw (lru6)      r0, dp[0x90]
             0x00010bb2: 02 70:       bt (ru6)        r0, 0x2 <.label101>
             0x00010bb4: 00 f0 40 d6: bl (lu10)       -0x240 <__sinit>
.label101    0x00010bb8: 40 69:       ldc (ru6)       r5, 0x0
             0x00010bba: 11 01:       stw (2rus)      r5, r4[0x1]
             0x00010bbc: 23 f9 ec 9f: ldaw (l2rus)    r6, r4[0x3]
             0x00010bc0: 09 83:       ld16s (3r)      r0, r6[r5]
             0x00010bc2: e0 69:       ldc (ru6)       r7, 0x20
             0x00010bc4: 53 3a:       and (3r)        r1, r0, r7
             0x00010bc6: 01 f0 66 70: bt (lru6)       r1, 0x66 <.label102>
             0x00010bca: 04 6a:       ldc (ru6)       r8, 0x4
             0x00010bcc: 31 47:       zext (rus)      r0, 0x10
             0x00010bce: 90 3c:       and (3r)        r1, r0, r8
             0x00010bd0: 01 f0 44 70: bt (lru6)       r1, 0x44 <.label103>
             0x00010bd4: 50 68:       ldc (ru6)       r1, 0x10
             0x00010bd6: 11 38:       and (3r)        r1, r0, r1
             0x00010bd8: 48 70:       bt (ru6)        r1, 0x8 <.label104>
             0x00010bda: 02 f0 fd d3: bl (lu10)       0xbfd <__errno>
             0x00010bde: 49 68:       ldc (ru6)       r1, 0x9
             0x00010be0: 10 00:       stw (2rus)      r1, r0[0x0]
             0x00010be2: 00 68:       ldc (ru6)       r0, 0x0
             0x00010be4: d8 80:       ld16s (3r)      r1, r6[r0]
             0x00010be6: 01 f0 11 73: bu (lu6)        0x51 <.label105>
.label104    0x00010bea: 48 68:       ldc (ru6)       r1, 0x8
             0x00010bec: 11 38:       and (3r)        r1, r0, r1
             0x00010bee: 4e 78:       bf (ru6)        r1, 0xe <.label106>
             0x00010bf0: c0 90:       add (2rus)      r0, r4, 0x0
             0x00010bf2: 03 f0 0d d2: bl (lu10)       0xe0d <_fflush>
             0x00010bf6: 01 f0 0e 70: bt (lru6)       r0, 0x4e <.label102>
             0x00010bfa: 40 68:       ldc (ru6)       r1, 0x0
             0x00010bfc: c9 80:       ld16s (3r)      r0, r6[r1]
             0x00010bfe: 01 f0 8b 6c: ldw (lru6)      r2, cp[0x4b]
             0x00010c02: 02 38:       and (3r)        r0, r0, r2
             0x00010c04: c9 f8 ec 87: st16 (l3r)      r0, r6[r1]
             0x00010c08: d2 00:       stw (2rus)      r1, r4[0x2]
             0x00010c0a: 12 03:       stw (2rus)      r1, r4[0x6]
.label106    0x00010c0c: 40 68:       ldc (ru6)       r1, 0x0
             0x00010c0e: 80 44:       or (3r)         r0, r0, r8
             0x00010c10: c9 f8 ec 87: st16 (l3r)      r0, r6[r1]
.label111    0x00010c14: 00 0b:       ldw (2rus)      r0, r4[0x4]
             0x00010c16: 03 70:       bt (ru6)        r0, 0x3 <.label107>
             0x00010c18: c0 90:       add (2rus)      r0, r4, 0x0
             0x00010c1a: 03 f0 b3 d0: bl (lu10)       0xcb3 <__smakebuf>
.label107    0x00010c1e: 0c 68:       ldc (ru6)       r0, 0xc
             0x00010c20: c0 88:       ld8u (3r)       r0, r4[r0]
             0x00010c22: d2 46:       zext (rus)      r0, 0x2
             0x00010c24: 04 78:       bf (ru6)        r0, 0x4 <.label108>
             0x00010c26: 40 d8:       ldap (u10)      r11, 0x40 <lflush>
             0x00010c28: 8c 91:       add (2rus)      r0, r11, 0x0
             0x00010c2a: 03 f0 e5 d2: bl (lu10)       0xee5 <_fwalk>
.label108    0x00010c2e: 20 0b:       ldw (2rus)      r2, r4[0x4]
             0x00010c30: e0 00:       stw (2rus)      r2, r4[0x0]
             0x00010c32: 40 69:       ldc (ru6)       r5, 0x0
             0x00010c34: 31 0b:       ldw (2rus)      r3, r4[0x5]
             0x00010c36: 13 0b:       ldw (2rus)      r1, r4[0x7]
             0x00010c38: f0 0d:       ldw (2rus)      r11, r4[0x8]
             0x00010c3a: c4 90:       add (2rus)      r0, r5, 0x0
             0x00010c3c: eb 27:       bla (1r)        r11
             0x00010c3e: c1 00:       stw (2rus)      r0, r4[0x1]
             0x00010c40: 19 83:       ld16s (3r)      r1, r6[r5]
             0x00010c42: 01 f0 8c 6c: ldw (lru6)      r2, cp[0x4c]
             0x00010c46: 16 38:       and (3r)        r1, r1, r2
             0x00010c48: e4 c0:       lss (3r)        r2, r5, r0
             0x00010c4a: 19 fb ec 87: st16 (l3r)      r1, r6[r5]
             0x00010c4e: a4 70:       bt (ru6)        r2, 0x24 <.label109>
             0x00010c50: 1b 70:       bt (ru6)        r0, 0x1b <.label110>
             0x00010c52: 47 42:       or (3r)         r0, r1, r7
             0x00010c54: 40 68:       ldc (ru6)       r1, 0x0
             0x00010c56: c9 f8 ec 87: st16 (l3r)      r0, r6[r1]
             0x00010c5a: 1d 73:       bu (u6)         0x1d <.label102>
.label103    0x00010c5c: 30 68:       ldc (ru6)       r0, 0x30
             0x00010c5e: 40 11:       add (3r)        r8, r4, r0
             0x00010c60: 80 09:       ldw (2rus)      r0, r8[0x0]
             0x00010c62: 28 7c:       bf (ru6)        r0, -0x28 <.label111>
             0x00010c64: 01 f0 40 68: ldc (lru6)      r1, 0x40
             0x00010c68: d1 10:       add (3r)        r1, r4, r1
             0x00010c6a: 11 30:       eq (3r)         r1, r0, r1
             0x00010c6c: 42 70:       bt (ru6)        r1, 0x2 <.label112>
             0x00010c6e: 05 f0 b5 d2: bl (lu10)       0x16b5 <free>
.label112    0x00010c72: 3c 68:       ldc (ru6)       r0, 0x3c
             0x00010c74: c0 10:       add (3r)        r0, r4, r0
             0x00010c76: d0 01:       stw (2rus)      r5, r8[0x0]
             0x00010c78: 00 08:       ldw (2rus)      r0, r0[0x0]
             0x00010c7a: c1 00:       stw (2rus)      r0, r4[0x1]
             0x00010c7c: 35 7c:       bf (ru6)        r0, -0x35 <.label111>
             0x00010c7e: 38 68:       ldc (ru6)       r0, 0x38
             0x00010c80: c0 10:       add (3r)        r0, r4, r0
             0x00010c82: 00 08:       ldw (2rus)      r0, r0[0x0]
             0x00010c84: c0 00:       stw (2rus)      r0, r4[0x0]
             0x00010c86: 08 73:       bu (u6)         0x8 <.label109>
.label110    0x00010c88: 00 68:       ldc (ru6)       r0, 0x0
             0x00010c8a: c1 00:       stw (2rus)      r0, r4[0x1]
.label105    0x00010c8c: 01 f0 80 68: ldc (lru6)      r2, 0x40
             0x00010c90: 16 40:       or (3r)         r1, r1, r2
             0x00010c92: d8 f8 ec 87: st16 (l3r)      r1, r6[r0]
.label102    0x00010c96: 14 a7:       mkmsk (rus)     r5, 0x20
.label109    0x00010c98: 01 5e:       ldw (ru6)       r8, sp[0x1]
             0x00010c9a: c2 5d:       ldw (ru6)       r7, sp[0x2]
             0x00010c9c: 83 5d:       ldw (ru6)       r6, sp[0x3]
             0x00010c9e: c4 90:       add (2rus)      r0, r5, 0x0
             0x00010ca0: 44 5d:       ldw (ru6)       r5, sp[0x4]
             0x00010ca2: 05 5d:       ldw (ru6)       r4, sp[0x5]
             0x00010ca4: c6 77:       retsp (u6)      0x6
             0x00010ca6: 00 90:       add (2rus)      r0, r0, 0x0

<lflush>:
             0x00010ca8: 41 77:       entsp (u6)      0x1
             0x00010caa: 10 90:       add (2rus)      r1, r0, 0x0
             0x00010cac: 27 f8 ec 9f: ldaw (l2rus)    r2, r1[0x3]
             0x00010cb0: 00 68:       ldc (ru6)       r0, 0x0
             0x00010cb2: 28 80:       ld16s (3r)      r2, r2[r0]
             0x00010cb4: c9 68:       ldc (ru6)       r3, 0x9
             0x00010cb6: 2b 38:       and (3r)        r2, r2, r3
             0x00010cb8: a9 b4:       eq (2rus)       r2, r2, 0x9
             0x00010cba: 83 78:       bf (ru6)        r2, 0x3 <.label113>
             0x00010cbc: 04 90:       add (2rus)      r0, r1, 0x0
             0x00010cbe: 03 f0 91 d2: bl (lu10)       0xe91 <fflush>
.label113    0x00010cc2: c1 77:       retsp (u6)      0x1

<__swbuf_r>:
             0x00010cc4: 44 77:       entsp (u6)      0x4
             0x00010cc6: 03 55:       stw (ru6)       r4, sp[0x3]
             0x00010cc8: 42 55:       stw (ru6)       r5, sp[0x2]
             0x00010cca: 81 55:       stw (ru6)       r6, sp[0x1]
             0x00010ccc: 54 90:       add (2rus)      r5, r1, 0x0
             0x00010cce: 02 f0 10 58: ldw (lru6)      r0, dp[0x90]
             0x00010cd2: 48 90:       add (2rus)      r4, r2, 0x0
             0x00010cd4: 02 70:       bt (ru6)        r0, 0x2 <.label114>
             0x00010cd6: 00 f0 d1 d6: bl (lu10)       -0x2d1 <__sinit>
.label114    0x00010cda: 02 0b:       ldw (2rus)      r0, r4[0x6]
             0x00010cdc: c2 00:       stw (2rus)      r0, r4[0x2]
             0x00010cde: 0c 68:       ldc (ru6)       r0, 0xc
             0x00010ce0: c0 88:       ld8u (3r)       r0, r4[r0]
             0x00010ce2: 48 68:       ldc (ru6)       r1, 0x8
             0x00010ce4: 01 38:       and (3r)        r0, r0, r1
             0x00010ce6: 02 78:       bf (ru6)        r0, 0x2 <.label115>
             0x00010ce8: 10 0b:       ldw (2rus)      r1, r4[0x4]
             0x00010cea: 45 70:       bt (ru6)        r1, 0x5 <.label116>
.label115    0x00010cec: c0 90:       add (2rus)      r0, r4, 0x0
             0x00010cee: 03 f0 7f d0: bl (lu10)       0xc7f <__swsetup>
             0x00010cf2: 2c 70:       bt (ru6)        r0, 0x2c <.label117>
             0x00010cf4: 10 0b:       ldw (2rus)      r1, r4[0x4]
.label116    0x00010cf6: 24 91:       add (2rus)      r6, r5, 0x0
             0x00010cf8: c0 08:       ldw (2rus)      r0, r4[0x0]
             0x00010cfa: 11 18:       sub (3r)        r1, r0, r1
             0x00010cfc: 21 0b:       ldw (2rus)      r2, r4[0x5]
             0x00010cfe: 26 c0:       lss (3r)        r2, r1, r2
             0x00010d00: 78 47:       zext (rus)      r6, 0x8
             0x00010d02: 82 78:       bf (ru6)        r2, 0x2 <.label118>
             0x00010d04: 15 90:       add (2rus)      r1, r1, 0x1
             0x00010d06: 06 73:       bu (u6)         0x6 <.label119>
.label118    0x00010d08: c0 90:       add (2rus)      r0, r4, 0x0
             0x00010d0a: 03 f0 81 d1: bl (lu10)       0xd81 <_fflush>
             0x00010d0e: 18 70:       bt (ru6)        r0, 0x18 <.label120>
             0x00010d10: d5 a6:       mkmsk (rus)     r1, 0x1
             0x00010d12: c0 08:       ldw (2rus)      r0, r4[0x0]
.label119    0x00010d14: e2 08:       ldw (2rus)      r2, r4[0x2]
             0x00010d16: 29 98:       sub (2rus)      r2, r2, 0x1
             0x00010d18: e2 00:       stw (2rus)      r2, r4[0x2]
             0x00010d1a: 80 68:       ldc (ru6)       r2, 0x0
             0x00010d1c: 52 f8 ec 8f: st8 (l3r)       r5, r0[r2]
             0x00010d20: 01 90:       add (2rus)      r0, r0, 0x1
             0x00010d22: c0 00:       stw (2rus)      r0, r4[0x0]
             0x00010d24: 01 0b:       ldw (2rus)      r0, r4[0x5]
             0x00010d26: 04 30:       eq (3r)         r0, r1, r0
             0x00010d28: 07 70:       bt (ru6)        r0, 0x7 <.label121>
             0x00010d2a: c3 f8 ec 9f: ldaw (l2rus)    r0, r4[0x3]
             0x00010d2e: 02 80:       ld16s (3r)      r0, r0[r2]
             0x00010d30: d1 46:       zext (rus)      r0, 0x1
             0x00010d32: 07 78:       bf (ru6)        r0, 0x7 <.label122>
             0x00010d34: 4a b5:       eq (2rus)       r0, r6, 0xa
             0x00010d36: 05 78:       bf (ru6)        r0, 0x5 <.label122>
.label121    0x00010d38: c0 90:       add (2rus)      r0, r4, 0x0
             0x00010d3a: 03 f0 69 d1: bl (lu10)       0xd69 <_fflush>
             0x00010d3e: 01 78:       bf (ru6)        r0, 0x1 <.label122>
.label120    0x00010d40: 18 a7:       mkmsk (rus)     r6, 0x20
.label122    0x00010d42: c8 90:       add (2rus)      r0, r6, 0x0
             0x00010d44: 81 5d:       ldw (ru6)       r6, sp[0x1]
             0x00010d46: 42 5d:       ldw (ru6)       r5, sp[0x2]
             0x00010d48: 03 5d:       ldw (ru6)       r4, sp[0x3]
             0x00010d4a: c4 77:       retsp (u6)      0x4
.label117    0x00010d4c: 01 f0 c0 68: ldc (lru6)      r3, 0x40
             0x00010d50: c3 f8 ec 9f: ldaw (l2rus)    r0, r4[0x3]
             0x00010d54: 40 68:       ldc (ru6)       r1, 0x0
             0x00010d56: 21 80:       ld16s (3r)      r2, r0[r1]
             0x00010d58: 2b 40:       or (3r)         r2, r2, r3
             0x00010d5a: 21 f8 ec 87: st16 (l3r)      r2, r0[r1]
             0x00010d5e: 02 f0 3b d3: bl (lu10)       0xb3b <__errno>
             0x00010d62: 49 68:       ldc (ru6)       r1, 0x9
             0x00010d64: 10 00:       stw (2rus)      r1, r0[0x0]
             0x00010d66: 14 77:       bu (u6)         -0x14 <.label120>

<__swbuf>:
             0x00010d68: 41 77:       entsp (u6)      0x1
             0x00010d6a: 24 90:       add (2rus)      r2, r1, 0x0
             0x00010d6c: 10 90:       add (2rus)      r1, r0, 0x0
             0x00010d6e: 56 d4:       bl (u10)        -0x56 <__swbuf_r>
             0x00010d70: c1 77:       retsp (u6)      0x1
             0x00010d72: 00 00:       stw (2rus)      r0, r0[0x0]

<_cleanup>:
             0x00010d74: 41 77:       entsp (u6)      0x1
             0x00010d76: 00 f0 29 d7: bl (lu10)       -0x329 <_cleanup_impl>
             0x00010d7a: c1 77:       retsp (u6)      0x1

<_done>:
             0x00010d7c: 07 68:       ldc (ru6)       r0, 0x7
             0x00010d7e: 00 f0 40 d7: bl (lu10)       -0x340 <_DoSyscall>
             0x00010d82: ed 07:       clre (0r)       
             0x00010d84: ec 07:       waiteu (0r)     
             0x00010d86: 00 00:       stw (2rus)      r0, r0[0x0]

<abort>:
             0x00010d88: 42 77:       entsp (u6)      0x2
             0x00010d8a: 01 55:       stw (ru6)       r4, sp[0x1]
             0x00010d8c: 11 a7:       mkmsk (rus)     r4, 0x1
             0x00010d8e: c0 90:       add (2rus)      r0, r4, 0x0
             0x00010d90: 05 f0 54 d3: bl (lu10)       0x1754 <raise>
             0x00010d94: c0 90:       add (2rus)      r0, r4, 0x0
             0x00010d96: 00 f0 d4 d7: bl (lu10)       -0x3d4 <_exit>
             0x00010d9a: 00 00:       stw (2rus)      r0, r0[0x0]

<_fputs_r>:
             0x00010d9c: 4a 77:       entsp (u6)      0xa
             0x00010d9e: 09 55:       stw (ru6)       r4, sp[0x9]
             0x00010da0: 48 55:       stw (ru6)       r5, sp[0x8]
             0x00010da2: 87 55:       stw (ru6)       r6, sp[0x7]
             0x00010da4: c6 55:       stw (ru6)       r7, sp[0x6]
             0x00010da6: 04 90:       add (2rus)      r0, r1, 0x0
             0x00010da8: 41 54:       stw (ru6)       r1, sp[0x1]
             0x00010daa: 48 90:       add (2rus)      r4, r2, 0x0
             0x00010dac: 00 f0 2e d0: bl (lu10)       0x2e <strlen>
             0x00010db0: 05 54:       stw (ru6)       r0, sp[0x5]
             0x00010db2: 02 54:       stw (ru6)       r0, sp[0x2]
             0x00010db4: 01 64:       ldaw (ru6)      r0, sp[0x1]
             0x00010db6: 03 54:       stw (ru6)       r0, sp[0x3]
             0x00010db8: d1 a6:       mkmsk (rus)     r0, 0x1
             0x00010dba: 04 54:       stw (ru6)       r0, sp[0x4]
             0x00010dbc: 02 f0 10 58: ldw (lru6)      r0, dp[0x90]
             0x00010dc0: 02 70:       bt (ru6)        r0, 0x2 <.label123>
             0x00010dc2: 00 f0 47 d7: bl (lu10)       -0x347 <__sinit>
.label123    0x00010dc6: 8d 69:       ldc (ru6)       r6, 0xd
             0x00010dc8: 02 8b:       ld8u (3r)       r0, r4[r6]
             0x00010dca: c2 69:       ldc (ru6)       r7, 0x2
             0x00010dcc: 43 3a:       and (3r)        r0, r0, r7
             0x00010dce: 05 70:       bt (ru6)        r0, 0x5 <.label124>
             0x00010dd0: 01 f0 14 68: ldc (lru6)      r0, 0x54
             0x00010dd4: c0 10:       add (3r)        r0, r4, r0
             0x00010dd6: 00 f0 39 d5: bl (lu10)       -0x139 <__spin_lock_acquire_recursive>
.label124    0x00010dda: c0 90:       add (2rus)      r0, r4, 0x0
             0x00010ddc: 43 64:       ldaw (ru6)      r1, sp[0x3]
             0x00010dde: 00 f0 d1 d6: bl (lu10)       -0x2d1 <__sfvwrite>
             0x00010de2: 50 90:       add (2rus)      r5, r0, 0x0
             0x00010de4: 02 8b:       ld8u (3r)       r0, r4[r6]
             0x00010de6: 43 3a:       and (3r)        r0, r0, r7
             0x00010de8: 05 70:       bt (ru6)        r0, 0x5 <.label125>
             0x00010dea: 01 f0 14 68: ldc (lru6)      r0, 0x54
             0x00010dee: c0 10:       add (3r)        r0, r4, r0
             0x00010df0: 00 f0 56 d5: bl (lu10)       -0x156 <__spin_lock_release_recursive>
.label125    0x00010df4: c6 5d:       ldw (ru6)       r7, sp[0x6]
             0x00010df6: 87 5d:       ldw (ru6)       r6, sp[0x7]
             0x00010df8: c4 90:       add (2rus)      r0, r5, 0x0
             0x00010dfa: 48 5d:       ldw (ru6)       r5, sp[0x8]
             0x00010dfc: 09 5d:       ldw (ru6)       r4, sp[0x9]
             0x00010dfe: ca 77:       retsp (u6)      0xa

<fputs>:
             0x00010e00: 41 77:       entsp (u6)      0x1
             0x00010e02: 24 90:       add (2rus)      r2, r1, 0x0
             0x00010e04: 10 90:       add (2rus)      r1, r0, 0x0
             0x00010e06: 36 d4:       bl (u10)        -0x36 <_fputs_r>
             0x00010e08: c1 77:       retsp (u6)      0x1
             0x00010e0a: 00 00:       stw (2rus)      r0, r0[0x0]

<strlen>:
             0x00010e0c: 40 68:       ldc (ru6)       r1, 0x0
             0x00010e0e: 21 88:       ld8u (3r)       r2, r0[r1]
             0x00010e10: 10 90:       add (2rus)      r1, r0, 0x0
             0x00010e12: 85 78:       bf (ru6)        r2, 0x5 <.label126>
             0x00010e14: 10 90:       add (2rus)      r1, r0, 0x0
             0x00010e16: d9 a6:       mkmsk (rus)     r2, 0x1
.label127    0x00010e18: 36 88:       ld8u (3r)       r3, r1[r2]
             0x00010e1a: 15 90:       add (2rus)      r1, r1, 0x1
             0x00010e1c: c3 74:       bt (ru6)        r3, -0x3 <.label127>
.label126    0x00010e1e: 04 18:       sub (3r)        r0, r1, r0
             0x00010e20: c0 77:       retsp (u6)      0x0
             0x00010e22: 00 00:       stw (2rus)      r0, r0[0x0]

<vfprintf>:
             0x00010e24: 01 f0 50 77: entsp (lu6)     0x50
             0x00010e28: 01 f0 0f 55: stw (lru6)      r4, sp[0x4f]
             0x00010e2c: 01 f0 4e 55: stw (lru6)      r5, sp[0x4e]
             0x00010e30: 01 f0 8d 55: stw (lru6)      r6, sp[0x4d]
             0x00010e34: 58 90:       add (2rus)      r5, r2, 0x0
             0x00010e36: 01 f0 cc 55: stw (lru6)      r7, sp[0x4c]
             0x00010e3a: 01 f0 0b 56: stw (lru6)      r8, sp[0x4b]
             0x00010e3e: 01 f0 4a 56: stw (lru6)      r9, sp[0x4a]
             0x00010e42: 64 90:       add (2rus)      r6, r1, 0x0
             0x00010e44: 01 f0 89 56: stw (lru6)      r10, sp[0x49]
             0x00010e48: a0 90:       add (2rus)      r10, r0, 0x0
             0x00010e4a: 9e 56:       stw (ru6)       r10, sp[0x1e]
             0x00010e4c: 05 f0 f6 d1: bl (lu10)       0x15f6 <localeconv>
             0x00010e50: 00 08:       ldw (2rus)      r0, r0[0x0]
             0x00010e52: 15 54:       stw (ru6)       r0, sp[0x15]
             0x00010e54: 02 f0 10 58: ldw (lru6)      r0, dp[0x90]
             0x00010e58: 02 70:       bt (ru6)        r0, 0x2 <.label128>
             0x00010e5a: 00 f0 93 d7: bl (lu10)       -0x393 <__sinit>
.label128    0x00010e5e: 40 6a:       ldc (ru6)       r9, 0x0
             0x00010e60: cb f9 ec 9f: ldaw (l2rus)    r4, r10[0x3]
             0x00010e64: 08 f0 40 68: ldc (lru6)      r1, 0x200
             0x00010e68: 41 85:       ld16s (3r)      r0, r4[r9]
             0x00010e6a: 11 38:       and (3r)        r1, r0, r1
             0x00010e6c: 42 78:       bf (ru6)        r1, 0x2 <.label129>
             0x00010e6e: 31 47:       zext (rus)      r0, 0x10
             0x00010e70: 07 73:       bu (u6)         0x7 <.label130>
.label129    0x00010e72: 01 f0 14 68: ldc (lru6)      r0, 0x54
             0x00010e76: 88 11:       add (3r)        r0, r10, r0
             0x00010e78: 00 f0 8a d5: bl (lu10)       -0x18a <__spin_lock_acquire_recursive>
             0x00010e7c: 00 68:       ldc (ru6)       r0, 0x0
             0x00010e7e: c0 80:       ld16s (3r)      r0, r4[r0]
.label130    0x00010e80: 48 68:       ldc (ru6)       r1, 0x8
             0x00010e82: 01 38:       and (3r)        r0, r0, r1
             0x00010e84: 02 78:       bf (ru6)        r0, 0x2 <.label131>
             0x00010e86: c8 0b:       ldw (2rus)      r0, r10[0x4]
             0x00010e88: 11 70:       bt (ru6)        r0, 0x11 <.label132>
.label131    0x00010e8a: 88 91:       add (2rus)      r0, r10, 0x0
             0x00010e8c: 02 f0 b0 d3: bl (lu10)       0xbb0 <__swsetup>
             0x00010e90: 0d 78:       bf (ru6)        r0, 0xd <.label132>
             0x00010e92: 42 68:       ldc (ru6)       r1, 0x2
             0x00010e94: 0d 68:       ldc (ru6)       r0, 0xd
             0x00010e96: 88 89:       ld8u (3r)       r0, r10[r0]
             0x00010e98: 01 38:       and (3r)        r0, r0, r1
             0x00010e9a: 29 f0 2e 70: bt (lru6)       r0, 0xa6e <.label133>
             0x00010e9e: 01 f0 14 68: ldc (lru6)      r0, 0x54
             0x00010ea2: 88 11:       add (3r)        r0, r10, r0
             0x00010ea4: 00 f0 b0 d5: bl (lu10)       -0x1b0 <__spin_lock_release_recursive>
             0x00010ea8: 29 f0 27 73: bu (lu6)        0xa67 <.label133>
.label132    0x00010eac: dd a7:       mkmsk (rus)     r7, 0x5
             0x00010eae: 0d 55:       stw (ru6)       r4, sp[0xd]
             0x00010eb0: 01 f0 41 64: ldaw (lru6)     r1, sp[0x41]
             0x00010eb4: 2e 64:       ldaw (ru6)      r0, sp[0x2e]
             0x00010eb6: 3e 54:       stw (ru6)       r0, sp[0x3e]
             0x00010eb8: a4 64:       ldaw (ru6)      r2, sp[0x24]
             0x00010eba: 01 f0 40 56: stw (lru6)      r9, sp[0x40]
             0x00010ebe: d2 a6:       mkmsk (rus)     r0, 0x2
             0x00010ec0: 7f 56:       stw (ru6)       r9, sp[0x3f]
             0x00010ec2: 04 40:       or (3r)         r0, r1, r0
             0x00010ec4: 14 54:       stw (ru6)       r0, sp[0x14]
             0x00010ec6: 27 68:       ldc (ru6)       r0, 0x27
             0x00010ec8: 08 10:       add (3r)        r0, r2, r0
             0x00010eca: 13 54:       stw (ru6)       r0, sp[0x13]
             0x00010ecc: 02 68:       ldc (ru6)       r0, 0x2
             0x00010ece: e4 90:       add (2rus)      r2, r5, 0x0
             0x00010ed0: 04 40:       or (3r)         r0, r1, r0
             0x00010ed2: 0f 54:       stw (ru6)       r0, sp[0xf]
             0x00010ed4: 01 f0 07 64: ldaw (lru6)     r0, sp[0x47]
             0x00010ed8: 43 92:       add (2rus)      r0, r0, 0x7
             0x00010eda: 0e 54:       stw (ru6)       r0, sp[0xe]
             0x00010edc: 59 56:       stw (ru6)       r9, sp[0x19]
             0x00010ede: 57 56:       stw (ru6)       r9, sp[0x17]
             0x00010ee0: 56 56:       stw (ru6)       r9, sp[0x16]
             0x00010ee2: 5f 56:       stw (ru6)       r9, sp[0x1f]
             0x00010ee4: 52 56:       stw (ru6)       r9, sp[0x12]
             0x00010ee6: 58 56:       stw (ru6)       r9, sp[0x18]
.label418    0x00010ee8: 2e 64:       ldaw (ru6)      r0, sp[0x2e]
             0x00010eea: 30 90:       add (2rus)      r3, r0, 0x0
             0x00010eec: c4 91:       add (2rus)      r4, r9, 0x0
             0x00010eee: 5f 5d:       ldw (ru6)       r5, sp[0x1f]
             0x00010ef0: 01 73:       bu (u6)         0x1 <.label134>
.label136    0x00010ef2: 01 91:       add (2rus)      r4, r4, 0x1
.label134    0x00010ef4: 08 8b:       ld8u (3r)       r0, r6[r4]
             0x00010ef6: 03 78:       bf (ru6)        r0, 0x3 <.label135>
             0x00010ef8: 65 68:       ldc (ru6)       r1, 0x25
             0x00010efa: 11 30:       eq (3r)         r1, r0, r1
             0x00010efc: 46 7c:       bf (ru6)        r1, -0x6 <.label136>
.label135    0x00010efe: a0 54:       stw (ru6)       r2, sp[0x20]
             0x00010f00: 02 71:       bt (ru6)        r4, 0x2 <.label137>
             0x00010f02: dc 54:       stw (ru6)       r3, sp[0x1c]
             0x00010f04: 11 73:       bu (u6)         0x11 <.label138>
.label137    0x00010f06: 6c 00:       stw (2rus)      r6, r3[0x0]
             0x00010f08: 4d 00:       stw (2rus)      r4, r3[0x1]
             0x00010f0a: 01 f0 00 5c: ldw (lru6)      r0, sp[0x40]
             0x00010f0e: 40 12:       add (3r)        r0, r0, r4
             0x00010f10: 01 f0 00 54: stw (lru6)      r0, sp[0x40]
             0x00010f14: 7f 5c:       ldw (ru6)       r1, sp[0x3f]
             0x00010f16: 15 90:       add (2rus)      r1, r1, 0x1
             0x00010f18: 7f 54:       stw (ru6)       r1, sp[0x3f]
             0x00010f1a: 88 68:       ldc (ru6)       r2, 0x8
             0x00010f1c: 16 c0:       lss (3r)        r1, r1, r2
             0x00010f1e: 65 78:       bf (ru6)        r1, 0x25 <.label139>
             0x00010f20: bc 94:       add (2rus)      r3, r3, 0x8
.label144    0x00010f22: dc 54:       stw (ru6)       r3, sp[0x1c]
             0x00010f24: 08 8b:       ld8u (3r)       r0, r6[r4]
             0x00010f26: 51 13:       add (3r)        r5, r4, r5
.label138    0x00010f28: 5f 55:       stw (ru6)       r5, sp[0x1f]
             0x00010f2a: 30 47:       zext (rus)      r0, 0x8
             0x00010f2c: 28 f0 02 78: bf (lru6)       r0, 0xa02 <.label140>
             0x00010f30: 01 f0 44 64: ldaw (lru6)     r1, sp[0x44]
             0x00010f34: 00 68:       ldc (ru6)       r0, 0x0
             0x00010f36: 04 f8 ec 8f: st8 (l3r)       r0, r1[r0]
             0x00010f3a: 50 a7:       mkmsk (rus)     r8, 0x20
             0x00010f3c: 22 54:       stw (ru6)       r0, sp[0x22]
             0x00010f3e: 18 13:       add (3r)        r1, r6, r4
             0x00010f40: 65 90:       add (2rus)      r6, r1, 0x1
             0x00010f42: 21 54:       stw (ru6)       r0, sp[0x21]
.label173    0x00010f44: 40 68:       ldc (ru6)       r1, 0x0
             0x00010f46: 59 89:       ld8u (3r)       r9, r6[r1]
             0x00010f48: 29 91:       add (2rus)      r6, r6, 0x1
.label179    0x00010f4a: 5d c5:       lss (3r)        r1, r7, r9
             0x00010f4c: 5d 70:       bt (ru6)        r1, 0x1d <.label141>
             0x00010f4e: 27 f0 71 7a: bf (lru6)       r9, 0x9f1 <.label140>
.label147    0x00010f52: 24 64:       ldaw (ru6)      r0, sp[0x24]
             0x00010f54: 1d 54:       stw (ru6)       r0, sp[0x1d]
             0x00010f56: 00 69:       ldc (ru6)       r4, 0x0
             0x00010f58: d0 fa ec 8f: st8 (l3r)       r9, r0[r4]
             0x00010f5c: 01 f0 04 64: ldaw (lru6)     r0, sp[0x44]
             0x00010f60: dd a6:       mkmsk (rus)     r3, 0x1
             0x00010f62: 80 fa ec 8f: st8 (l3r)       r4, r0[r4]
             0x00010f66: 13 f0 3d 73: bu (lu6)        0x4fd <.label142>
.label139    0x00010f6a: 03 70:       bt (ru6)        r0, 0x3 <.label143>
             0x00010f6c: 7f 56:       stw (ru6)       r9, sp[0x3f]
.label145    0x00010f6e: ee 64:       ldaw (ru6)      r3, sp[0x2e]
             0x00010f70: 28 77:       bu (u6)         -0x28 <.label144>
.label143    0x00010f72: 88 91:       add (2rus)      r0, r10, 0x0
             0x00010f74: 7e 64:       ldaw (ru6)      r1, sp[0x3e]
             0x00010f76: 00 f0 9d d7: bl (lu10)       -0x39d <__sfvwrite>
             0x00010f7a: 01 f0 40 56: stw (lru6)      r9, sp[0x40]
             0x00010f7e: 7f 56:       stw (ru6)       r9, sp[0x3f]
             0x00010f80: 0a 7c:       bf (ru6)        r0, -0xa <.label145>
             0x00010f82: 5f 55:       stw (ru6)       r5, sp[0x1f]
             0x00010f84: 27 f0 25 73: bu (lu6)        0x9e5 <.label146>
.label141    0x00010f88: 01 f0 58 68: ldc (lru6)      r1, 0x58
             0x00010f8c: 24 fe ec a7: ldaw (l2rus)    r2, r9[-0x8]
             0x00010f90: 16 c8:       lsu (3r)        r1, r1, r2
             0x00010f92: 61 74:       bt (ru6)        r1, -0x21 <.label147>
             0x00010f94: a9 a0:       shl (2rus)      r10, r2, 0x1
             0x00010f96: 01 f0 98 68: ldc (lru6)      r2, 0x58
             0x00010f9a: 00 69:       ldc (ru6)       r4, 0x0
             0x00010f9c: 01 f0 58 60: ldaw (lru6)     r1, dp[0x58]
             0x00010fa0: 01 f0 ef 6a: ldc (lru6)      r11, 0x6f
             0x00010fa4: 01 f0 f5 68: ldc (lru6)      r3, 0x75
             0x00010fa8: 10 91:       add (2rus)      r5, r4, 0x0
             0x00010faa: ea 2f:       bru (1r)        r10
             0x00010fac: 02 f0 30 73: bu (lu6)        0xb0 <.label148>
             0x00010fb0: 00 f0 31 77: bu (lu6)        -0x31 <.label147>
             0x00010fb4: 00 f0 33 77: bu (lu6)        -0x33 <.label147>
             0x00010fb8: 02 f0 36 73: bu (lu6)        0xb6 <.label149>
             0x00010fbc: 00 f0 37 77: bu (lu6)        -0x37 <.label147>
             0x00010fc0: 00 f0 39 77: bu (lu6)        -0x39 <.label147>
             0x00010fc4: 00 f0 3b 77: bu (lu6)        -0x3b <.label147>
             0x00010fc8: 00 f0 3d 77: bu (lu6)        -0x3d <.label147>
             0x00010fcc: 00 f0 3f 77: bu (lu6)        -0x3f <.label147>
             0x00010fd0: 01 f0 01 77: bu (lu6)        -0x41 <.label147>
             0x00010fd4: 02 f0 2e 73: bu (lu6)        0xae <.label150>
             0x00010fd8: 02 f0 3b 73: bu (lu6)        0xbb <.label151>
             0x00010fdc: 01 f0 07 77: bu (lu6)        -0x47 <.label147>
             0x00010fe0: 02 f0 35 73: bu (lu6)        0xb5 <.label152>
             0x00010fe4: 02 f0 38 73: bu (lu6)        0xb8 <.label153>
             0x00010fe8: 01 f0 0d 77: bu (lu6)        -0x4d <.label147>
             0x00010fec: 03 f0 1f 73: bu (lu6)        0xdf <.label154>
             0x00010ff0: 03 f0 21 73: bu (lu6)        0xe1 <.label155>
             0x00010ff4: 03 f0 1f 73: bu (lu6)        0xdf <.label155>
             0x00010ff8: 03 f0 1d 73: bu (lu6)        0xdd <.label155>
             0x00010ffc: 03 f0 1b 73: bu (lu6)        0xdb <.label155>
             0x00011000: 03 f0 19 73: bu (lu6)        0xd9 <.label155>
             0x00011004: 03 f0 17 73: bu (lu6)        0xd7 <.label155>
             0x00011008: 03 f0 15 73: bu (lu6)        0xd5 <.label155>
             0x0001100c: 03 f0 13 73: bu (lu6)        0xd3 <.label155>
             0x00011010: 03 f0 11 73: bu (lu6)        0xd1 <.label155>
             0x00011014: 01 f0 23 77: bu (lu6)        -0x63 <.label147>
             0x00011018: 01 f0 25 77: bu (lu6)        -0x65 <.label147>
             0x0001101c: 01 f0 27 77: bu (lu6)        -0x67 <.label147>
             0x00011020: 01 f0 29 77: bu (lu6)        -0x69 <.label147>
             0x00011024: 01 f0 2b 77: bu (lu6)        -0x6b <.label147>
             0x00011028: 01 f0 2d 77: bu (lu6)        -0x6d <.label147>
             0x0001102c: 01 f0 2f 77: bu (lu6)        -0x6f <.label147>
             0x00011030: 01 f0 31 77: bu (lu6)        -0x71 <.label147>
             0x00011034: 01 f0 33 77: bu (lu6)        -0x73 <.label147>
             0x00011038: 01 f0 35 77: bu (lu6)        -0x75 <.label147>
             0x0001103c: 03 f0 36 73: bu (lu6)        0xf6 <.label156>
             0x00011040: 04 f0 2b 73: bu (lu6)        0x12b <.label157>
             0x00011044: 01 f0 3b 77: bu (lu6)        -0x7b <.label147>
             0x00011048: 04 f0 27 73: bu (lu6)        0x127 <.label157>
             0x0001104c: 01 f0 3f 77: bu (lu6)        -0x7f <.label147>
             0x00011050: 02 f0 01 77: bu (lu6)        -0x81 <.label147>
             0x00011054: 02 f0 03 77: bu (lu6)        -0x83 <.label147>
             0x00011058: 02 f0 05 77: bu (lu6)        -0x85 <.label147>
             0x0001105c: 02 f0 3a 73: bu (lu6)        0xba <.label158>
             0x00011060: 02 f0 09 77: bu (lu6)        -0x89 <.label147>
             0x00011064: 02 f0 0b 77: bu (lu6)        -0x8b <.label147>
             0x00011068: 0c f0 08 73: bu (lu6)        0x308 <.label159>
             0x0001106c: 02 f0 0f 77: bu (lu6)        -0x8f <.label147>
             0x00011070: 02 f0 11 77: bu (lu6)        -0x91 <.label147>
             0x00011074: 02 f0 13 77: bu (lu6)        -0x93 <.label147>
             0x00011078: 02 f0 15 77: bu (lu6)        -0x95 <.label147>
             0x0001107c: 02 f0 17 77: bu (lu6)        -0x97 <.label147>
             0x00011080: 0d f0 3b 73: bu (lu6)        0x37b <.label160>
             0x00011084: 02 f0 1b 77: bu (lu6)        -0x9b <.label147>
             0x00011088: 02 f0 1d 77: bu (lu6)        -0x9d <.label147>
             0x0001108c: 0e f0 24 73: bu (lu6)        0x3a4 <.label161>
             0x00011090: 02 f0 21 77: bu (lu6)        -0xa1 <.label147>
             0x00011094: 02 f0 23 77: bu (lu6)        -0xa3 <.label147>
             0x00011098: 02 f0 25 77: bu (lu6)        -0xa5 <.label147>
             0x0001109c: 02 f0 27 77: bu (lu6)        -0xa7 <.label147>
             0x000110a0: 02 f0 29 77: bu (lu6)        -0xa9 <.label147>
             0x000110a4: 02 f0 2b 77: bu (lu6)        -0xab <.label147>
             0x000110a8: 02 f0 2d 77: bu (lu6)        -0xad <.label147>
             0x000110ac: 02 f0 2f 77: bu (lu6)        -0xaf <.label147>
             0x000110b0: 02 f0 31 77: bu (lu6)        -0xb1 <.label147>
             0x000110b4: 02 f0 33 77: bu (lu6)        -0xb3 <.label147>
             0x000110b8: 02 f0 26 73: bu (lu6)        0xa6 <.label162>
             0x000110bc: 02 f0 3c 73: bu (lu6)        0xbc <.label163>
             0x000110c0: 03 f0 2b 73: bu (lu6)        0xeb <.label157>
             0x000110c4: 03 f0 29 73: bu (lu6)        0xe9 <.label157>
             0x000110c8: 03 f0 27 73: bu (lu6)        0xe7 <.label157>
             0x000110cc: 02 f0 05 73: bu (lu6)        0x85 <.label164>
             0x000110d0: 02 f0 32 73: bu (lu6)        0xb2 <.label163>
             0x000110d4: 03 f0 03 77: bu (lu6)        -0xc3 <.label147>
             0x000110d8: 03 f0 05 77: bu (lu6)        -0xc5 <.label147>
             0x000110dc: 02 f0 01 73: bu (lu6)        0x81 <.label165>
             0x000110e0: 03 f0 09 77: bu (lu6)        -0xc9 <.label147>
             0x000110e4: 0a f0 17 73: bu (lu6)        0x297 <.label166>
             0x000110e8: 0b f0 0e 73: bu (lu6)        0x2ce <.label167>
             0x000110ec: 0b f0 32 73: bu (lu6)        0x2f2 <.label168>
             0x000110f0: 02 f0 07 73: bu (lu6)        0x87 <.label169>
             0x000110f4: 03 f0 13 77: bu (lu6)        -0xd3 <.label147>
             0x000110f8: 0c f0 03 73: bu (lu6)        0x303 <.label170>
             0x000110fc: 03 f0 17 77: bu (lu6)        -0xd7 <.label147>
             0x00011100: 0d f0 01 73: bu (lu6)        0x341 <.label171>
             0x00011104: 03 f0 1b 77: bu (lu6)        -0xdb <.label147>
             0x00011108: 03 f0 1d 77: bu (lu6)        -0xdd <.label147>
             0x0001110c: 0d f0 20 73: bu (lu6)        0x360 <.label172>
.label148    0x00011110: 10 90:       add (2rus)      r1, r0, 0x0
             0x00011112: 34 47:       zext (rus)      r1, 0x8
             0x00011114: 03 f0 6a 74: bt (lru6)       r1, -0xea <.label173>
             0x00011118: 40 68:       ldc (ru6)       r1, 0x0
             0x0001111a: 20 68:       ldc (ru6)       r0, 0x20
.label175    0x0001111c: 01 f0 84 64: ldaw (lru6)     r2, sp[0x44]
             0x00011120: 09 f8 ec 8f: st8 (l3r)       r0, r2[r1]
             0x00011124: 03 f0 32 77: bu (lu6)        -0xf2 <.label173>
.label149    0x00011128: d5 a6:       mkmsk (rus)     r1, 0x1
.label174    0x0001112a: a2 5c:       ldw (ru6)       r2, sp[0x22]
             0x0001112c: 29 40:       or (3r)         r2, r2, r1
             0x0001112e: a2 54:       stw (ru6)       r2, sp[0x22]
             0x00011130: 03 f0 38 77: bu (lu6)        -0xf8 <.label173>
.label150    0x00011134: a0 5c:       ldw (ru6)       r2, sp[0x20]
             0x00011136: 58 92:       add (2rus)      r1, r2, 0x4
             0x00011138: 28 08:       ldw (2rus)      r2, r2[0x0]
             0x0001113a: a1 54:       stw (ru6)       r2, sp[0x21]
             0x0001113c: 28 f8 ec 97: ashr (l2rus)    r2, r2, 0x20
             0x00011140: 60 54:       stw (ru6)       r1, sp[0x20]
             0x00011142: 04 f0 81 7c: bf (lru6)       r2, -0x101 <.label173>
             0x00011146: a1 5c:       ldw (ru6)       r2, sp[0x21]
             0x00011148: ca 96:       neg (2r)        r2, r2
             0x0001114a: a1 54:       stw (ru6)       r2, sp[0x21]
             0x0001114c: 60 54:       stw (ru6)       r1, sp[0x20]
.label152    0x0001114e: 44 68:       ldc (ru6)       r1, 0x4
             0x00011150: 14 77:       bu (u6)         -0x14 <.label174>
.label151    0x00011152: 2b 68:       ldc (ru6)       r0, 0x2b
             0x00011154: 40 68:       ldc (ru6)       r1, 0x0
             0x00011156: 1e 77:       bu (u6)         -0x1e <.label175>
.label153    0x00011158: 40 68:       ldc (ru6)       r1, 0x0
             0x0001115a: 59 89:       ld8u (3r)       r9, r6[r1]
             0x0001115c: aa 68:       ldc (ru6)       r2, 0x2a
             0x0001115e: a6 31:       eq (3r)         r2, r9, r2
             0x00011160: 29 91:       add (2rus)      r6, r6, 0x1
             0x00011162: 8c 78:       bf (ru6)        r2, 0xc <.label176>
             0x00011164: a0 5c:       ldw (ru6)       r2, sp[0x20]
             0x00011166: 88 08:       ldw (2rus)      r8, r2[0x0]
             0x00011168: 58 92:       add (2rus)      r1, r2, 0x4
             0x0001116a: 60 54:       stw (ru6)       r1, sp[0x20]
             0x0001116c: a0 f9 ec 97: ashr (l2rus)    r2, r8, 0x20
             0x00011170: 04 f0 98 7c: bf (lru6)       r2, -0x118 <.label173>
             0x00011174: 60 54:       stw (ru6)       r1, sp[0x20]
             0x00011176: 50 a7:       mkmsk (rus)     r8, 0x20
             0x00011178: 04 f0 1c 77: bu (lu6)        -0x11c <.label173>
.label176    0x0001117c: 89 68:       ldc (ru6)       r2, 0x9
             0x0001117e: 01 f0 d0 6c: ldw (lru6)      r3, cp[0x50]
             0x00011182: 37 12:       add (3r)        r11, r9, r3
             0x00011184: cb cc:       lsu (3r)        r4, r2, r11
             0x00011186: 24 90:       add (2rus)      r2, r1, 0x0
             0x00011188: 02 79:       bf (ru6)        r4, 0x2 <.label177>
             0x0001118a: 24 90:       add (2rus)      r2, r1, 0x0
             0x0001118c: 09 73:       bu (u6)         0x9 <.label178>
.label177    0x0001118e: 0a 69:       ldc (ru6)       r4, 0xa
             0x00011190: 68 fa ec 3f: mul (l3r)       r2, r2, r4
             0x00011194: ab 14:       add (3r)        r2, r2, r11
             0x00011196: 59 89:       ld8u (3r)       r9, r6[r1]
             0x00011198: 37 12:       add (3r)        r11, r9, r3
             0x0001119a: 0c cc:       lsu (3r)        r4, r11, r4
             0x0001119c: 29 91:       add (2rus)      r6, r6, 0x1
             0x0001119e: 09 75:       bt (ru6)        r4, -0x9 <.label177>
.label178    0x000111a0: 50 a7:       mkmsk (rus)     r8, 0x20
             0x000111a2: 98 c4:       lss (3r)        r1, r2, r8
             0x000111a4: 04 f0 6f 74: bt (lru6)       r1, -0x12f <.label179>
             0x000111a8: 88 90:       add (2rus)      r8, r2, 0x0
             0x000111aa: 04 f0 32 77: bu (lu6)        -0x132 <.label179>
.label154    0x000111ae: 02 f0 40 68: ldc (lru6)      r1, 0x80
             0x000111b2: 01 f0 06 77: bu (lu6)        -0x46 <.label174>
.label155    0x000111b6: 4a 68:       ldc (ru6)       r1, 0xa
             0x000111b8: e5 f8 ec 3f: mul (l3r)       r2, r5, r1
             0x000111bc: b6 11:       add (3r)        r3, r9, r2
             0x000111be: 01 f0 90 6c: ldw (lru6)      r2, cp[0x50]
             0x000111c2: 5e 10:       add (3r)        r5, r3, r2
             0x000111c4: 98 8b:       ld8u (3r)       r9, r6[r4]
             0x000111c6: a6 11:       add (3r)        r2, r9, r2
             0x000111c8: 19 c8:       lsu (3r)        r1, r2, r1
             0x000111ca: 29 91:       add (2rus)      r6, r6, 0x1
             0x000111cc: 4c 74:       bt (ru6)        r1, -0xc <.label155>
             0x000111ce: 61 55:       stw (ru6)       r5, sp[0x21]
             0x000111d0: 05 f0 05 77: bu (lu6)        -0x145 <.label179>
.label158    0x000111d4: 48 68:       ldc (ru6)       r1, 0x8
             0x000111d6: 01 f0 18 77: bu (lu6)        -0x58 <.label174>
.label164    0x000111da: 01 f0 40 68: ldc (lru6)      r1, 0x40
             0x000111de: 01 f0 1c 77: bu (lu6)        -0x5c <.label174>
.label165    0x000111e2: 40 68:       ldc (ru6)       r1, 0x0
             0x000111e4: 01 f0 ac 68: ldc (lru6)      r2, 0x6c
             0x000111e8: d9 88:       ld8u (3r)       r1, r6[r1]
             0x000111ea: 16 30:       eq (3r)         r1, r1, r2
             0x000111ec: 47 78:       bf (ru6)        r1, 0x7 <.label180>
             0x000111ee: 60 68:       ldc (ru6)       r1, 0x20
             0x000111f0: a2 5c:       ldw (ru6)       r2, sp[0x22]
             0x000111f2: 29 40:       or (3r)         r2, r2, r1
             0x000111f4: a2 54:       stw (ru6)       r2, sp[0x22]
             0x000111f6: 29 91:       add (2rus)      r6, r6, 0x1
             0x000111f8: 05 f0 1c 77: bu (lu6)        -0x15c <.label173>
.label180    0x000111fc: 50 68:       ldc (ru6)       r1, 0x10
             0x000111fe: 01 f0 2c 77: bu (lu6)        -0x6c <.label174>
.label169    0x00011202: 60 68:       ldc (ru6)       r1, 0x20
             0x00011204: 01 f0 2f 77: bu (lu6)        -0x6f <.label174>
.label162    0x00011208: 15 a7:       mkmsk (rus)     r5, 0x1
             0x0001120a: f4 90:       add (2rus)      r3, r5, 0x0
             0x0001120c: 01 f0 63 6a: ldc (lru6)      r9, 0x63
             0x00011210: a0 5c:       ldw (ru6)       r2, sp[0x20]
             0x00011212: 64 64:       ldaw (ru6)      r1, sp[0x24]
             0x00011214: 08 08:       ldw (2rus)      r0, r2[0x0]
             0x00011216: 00 69:       ldc (ru6)       r4, 0x0
             0x00011218: 44 fa ec 8f: st8 (l3r)       r0, r1[r4]
             0x0001121c: 01 f0 04 64: ldaw (lru6)     r0, sp[0x44]
             0x00011220: 80 fa ec 8f: st8 (l3r)       r4, r0[r4]
             0x00011224: 68 92:       add (2rus)      r2, r2, 0x4
             0x00011226: 5d 54:       stw (ru6)       r1, sp[0x1d]
             0x00011228: 0e f0 1d 73: bu (lu6)        0x39d <.label181>
.label156    0x0001122c: 10 68:       ldc (ru6)       r0, 0x10
             0x0001122e: 62 5c:       ldw (ru6)       r1, sp[0x22]
             0x00011230: 14 40:       or (3r)         r1, r1, r0
             0x00011232: 62 54:       stw (ru6)       r1, sp[0x22]
             0x00011234: 01 f0 44 6a: ldc (lru6)      r9, 0x44
.label163    0x00011238: 62 5c:       ldw (ru6)       r1, sp[0x22]
             0x0001123a: 20 68:       ldc (ru6)       r0, 0x20
             0x0001123c: 04 38:       and (3r)        r0, r1, r0
             0x0001123e: 07 78:       bf (ru6)        r0, 0x7 <.label182>
             0x00011240: 62 54:       stw (ru6)       r1, sp[0x22]
             0x00011242: 60 5c:       ldw (ru6)       r1, sp[0x20]
             0x00011244: 55 08:       ldw (2rus)      r5, r1[0x1]
             0x00011246: 44 08:       ldw (2rus)      r4, r1[0x0]
             0x00011248: 94 94:       add (2rus)      r1, r1, 0x8
             0x0001124a: 98 5e:       ldw (ru6)       r10, sp[0x18]
             0x0001124c: 12 73:       bu (u6)         0x12 <.label183>
.label182    0x0001124e: 10 68:       ldc (ru6)       r0, 0x10
             0x00011250: 04 38:       and (3r)        r0, r1, r0
             0x00011252: 24 90:       add (2rus)      r2, r1, 0x0
             0x00011254: 60 5c:       ldw (ru6)       r1, sp[0x20]
             0x00011256: 98 5e:       ldw (ru6)       r10, sp[0x18]
             0x00011258: 03 78:       bf (ru6)        r0, 0x3 <.label184>
             0x0001125a: a2 54:       stw (ru6)       r2, sp[0x22]
             0x0001125c: 44 08:       ldw (2rus)      r4, r1[0x0]
             0x0001125e: 06 73:       bu (u6)         0x6 <.label185>
.label184    0x00011260: 01 f0 00 68: ldc (lru6)      r0, 0x40
             0x00011264: 08 38:       and (3r)        r0, r2, r0
             0x00011266: 44 08:       ldw (2rus)      r4, r1[0x0]
             0x00011268: 01 78:       bf (ru6)        r0, 0x1 <.label185>
             0x0001126a: 71 37:       sext (rus)      r4, 0x10
.label185    0x0001126c: 10 f9 ec 97: ashr (l2rus)    r5, r4, 0x20
             0x00011270: 54 92:       add (2rus)      r1, r1, 0x4
.label183    0x00011272: 60 54:       stw (ru6)       r1, sp[0x20]
             0x00011274: c4 f8 ec 97: ashr (l2rus)    r0, r5, 0x20
             0x00011278: 03 70:       bt (ru6)        r0, 0x3 <.label186>
             0x0001127a: d1 a6:       mkmsk (rus)     r0, 0x1
             0x0001127c: 0b f0 24 73: bu (lu6)        0x2e4 <.label187>
.label186    0x00011280: 6d 68:       ldc (ru6)       r1, 0x2d
             0x00011282: 01 f0 84 64: ldaw (lru6)     r2, sp[0x44]
             0x00011286: 00 68:       ldc (ru6)       r0, 0x0
             0x00011288: 18 f8 ec 8f: st8 (l3r)       r1, r2[r0]
             0x0001128c: 80 fa c4 0e: lsub (l5r)      r1, r4, r0, r4, r0
             0x00011290: 91 fa c1 0e: lsub (l5r)      r0, r5, r0, r5, r1
             0x00011294: d1 a6:       mkmsk (rus)     r0, 0x1
             0x00011296: 0b f0 17 73: bu (lu6)        0x2d7 <.label187>
.label157    0x0001129a: 60 5d:       ldw (ru6)       r5, sp[0x20]
             0x0001129c: 65 09:       ldw (2rus)      r10, r5[0x1]
             0x0001129e: 98 91:       add (2rus)      r1, r10, 0x0
             0x000112a0: 04 09:       ldw (2rus)      r4, r5[0x0]
             0x000112a2: c0 90:       add (2rus)      r0, r4, 0x0
             0x000112a4: 02 f0 bc d0: bl (lu10)       0x8bc <__isinfd>
             0x000112a8: 94 95:       add (2rus)      r5, r5, 0x8
             0x000112aa: 60 55:       stw (ru6)       r5, sp[0x20]
             0x000112ac: 31 78:       bf (ru6)        r0, 0x31 <.label188>
             0x000112ae: 98 91:       add (2rus)      r1, r10, 0x0
             0x000112b0: c0 90:       add (2rus)      r0, r4, 0x0
             0x000112b2: 00 6a:       ldc (ru6)       r8, 0x0
             0x000112b4: b0 91:       add (2rus)      r3, r8, 0x0
             0x000112b6: a0 91:       add (2rus)      r2, r8, 0x0
             0x000112b8: 02 f0 94 d0: bl (lu10)       0x894 <__gedf2>
             0x000112bc: 00 f8 ec 97: ashr (l2rus)    r0, r0, 0x20
             0x000112c0: 50 b0:       eq (2rus)       r5, r0, 0x0
             0x000112c2: 17 55:       stw (ru6)       r4, sp[0x17]
             0x000112c4: 98 91:       add (2rus)      r1, r10, 0x0
             0x000112c6: c0 90:       add (2rus)      r0, r4, 0x0
             0x000112c8: c0 91:       add (2rus)      r4, r8, 0x0
             0x000112ca: f0 90:       add (2rus)      r3, r4, 0x0
             0x000112cc: e0 90:       add (2rus)      r2, r4, 0x0
             0x000112ce: 02 f0 85 d2: bl (lu10)       0xa85 <__unorddf2>
             0x000112d2: 00 b0:       eq (2rus)       r0, r0, 0x0
             0x000112d4: 00 b0:       eq (2rus)       r0, r0, 0x0
             0x000112d6: 41 42:       or (3r)         r0, r0, r5
             0x000112d8: 01 f0 84 64: ldaw (lru6)     r2, sp[0x44]
             0x000112dc: 04 70:       bt (ru6)        r0, 0x4 <.label189>
             0x000112de: 00 68:       ldc (ru6)       r0, 0x0
             0x000112e0: 6d 68:       ldc (ru6)       r1, 0x2d
             0x000112e2: 18 f8 ec 8f: st8 (l3r)       r1, r2[r0]
.label189    0x000112e6: a0 5c:       ldw (ru6)       r2, sp[0x20]
             0x000112e8: 01 f0 08 68: ldc (lru6)      r0, 0x48
             0x000112ec: 84 c1:       lss (3r)        r0, r9, r0
             0x000112ee: 03 78:       bf (ru6)        r0, 0x3 <.label190>
             0x000112f0: 01 f0 0d 60: ldaw (lru6)     r0, dp[0x4d]
             0x000112f4: 02 73:       bu (u6)         0x2 <.label191>
.label190    0x000112f6: 01 f0 0e 60: ldaw (lru6)     r0, dp[0x4e]
.label191    0x000112fa: 1d 54:       stw (ru6)       r0, sp[0x1d]
             0x000112fc: 16 a7:       mkmsk (rus)     r5, 0x2
             0x000112fe: 62 5c:       ldw (ru6)       r1, sp[0x22]
             0x00011300: 96 56:       stw (ru6)       r10, sp[0x16]
             0x00011302: 01 f0 0d 6c: ldw (lru6)      r0, cp[0x4d]
             0x00011306: f4 90:       add (2rus)      r3, r5, 0x0
             0x00011308: 14 38:       and (3r)        r1, r1, r0
             0x0001130a: 62 54:       stw (ru6)       r1, sp[0x22]
             0x0001130c: 0c f0 2b 73: bu (lu6)        0x32b <.label181>
.label188    0x00011310: c0 90:       add (2rus)      r0, r4, 0x0
             0x00011312: 17 55:       stw (ru6)       r4, sp[0x17]
             0x00011314: 98 91:       add (2rus)      r1, r10, 0x0
             0x00011316: 02 f0 95 d0: bl (lu10)       0x895 <__isnand>
             0x0001131a: 15 78:       bf (ru6)        r0, 0x15 <.label192>
             0x0001131c: 01 f0 08 68: ldc (lru6)      r0, 0x48
             0x00011320: 84 c1:       lss (3r)        r0, r9, r0
             0x00011322: 03 78:       bf (ru6)        r0, 0x3 <.label193>
             0x00011324: 01 f0 0f 60: ldaw (lru6)     r0, dp[0x4f]
             0x00011328: 02 73:       bu (u6)         0x2 <.label194>
.label193    0x0001132a: 01 f0 10 60: ldaw (lru6)     r0, dp[0x50]
.label194    0x0001132e: 1d 54:       stw (ru6)       r0, sp[0x1d]
             0x00011330: 00 69:       ldc (ru6)       r4, 0x0
             0x00011332: a0 5c:       ldw (ru6)       r2, sp[0x20]
             0x00011334: de a6:       mkmsk (rus)     r3, 0x2
             0x00011336: 62 5c:       ldw (ru6)       r1, sp[0x22]
             0x00011338: 96 56:       stw (ru6)       r10, sp[0x16]
             0x0001133a: 01 f0 0d 6c: ldw (lru6)      r0, cp[0x4d]
             0x0001133e: 14 38:       and (3r)        r1, r1, r0
             0x00011340: 62 54:       stw (ru6)       r1, sp[0x22]
             0x00011342: 0c f0 10 73: bu (lu6)        0x310 <.label181>
.label192    0x00011346: d0 a6:       mkmsk (rus)     r0, 0x20
             0x00011348: 80 31:       eq (3r)         r0, r8, r0
             0x0001134a: 03 78:       bf (ru6)        r0, 0x3 <.label195>
             0x0001134c: 06 6a:       ldc (ru6)       r8, 0x6
             0x0001134e: 62 5c:       ldw (ru6)       r1, sp[0x22]
             0x00011350: 0b 73:       bu (u6)         0xb <.label196>
.label195    0x00011352: 20 68:       ldc (ru6)       r0, 0x20
             0x00011354: 84 41:       or (3r)         r0, r9, r0
             0x00011356: 01 f0 67 68: ldc (lru6)      r1, 0x67
             0x0001135a: 01 30:       eq (3r)         r0, r0, r1
             0x0001135c: 02 70:       bt (ru6)        r0, 0x2 <.label197>
             0x0001135e: 62 5c:       ldw (ru6)       r1, sp[0x22]
             0x00011360: 03 73:       bu (u6)         0x3 <.label196>
.label197    0x00011362: 62 5c:       ldw (ru6)       r1, sp[0x22]
             0x00011364: 01 72:       bt (ru6)        r8, 0x1 <.label196>
             0x00011366: 51 a7:       mkmsk (rus)     r8, 0x1
.label196    0x00011368: 04 f0 00 68: ldc (lru6)      r0, 0x100
             0x0001136c: 04 40:       or (3r)         r0, r1, r0
             0x0001136e: 11 54:       stw (ru6)       r0, sp[0x11]
             0x00011370: 88 f9 ec 97: ashr (l2rus)    r0, r10, 0x20
             0x00011374: 06 70:       bt (ru6)        r0, 0x6 <.label198>
             0x00011376: 97 5c:       ldw (ru6)       r2, sp[0x17]
             0x00011378: 9a 54:       stw (ru6)       r2, sp[0x1a]
             0x0001137a: 9b 56:       stw (ru6)       r10, sp[0x1b]
             0x0001137c: 96 56:       stw (ru6)       r10, sp[0x16]
             0x0001137e: 00 68:       ldc (ru6)       r0, 0x0
             0x00011380: 09 73:       bu (u6)         0x9 <.label199>
.label198    0x00011382: 01 f0 06 6c: ldw (lru6)      r0, cp[0x46]
             0x00011386: 88 f9 ec 0f: xor (l3r)       r0, r10, r0
             0x0001138a: 1b 54:       stw (ru6)       r0, sp[0x1b]
             0x0001138c: 96 56:       stw (ru6)       r10, sp[0x16]
             0x0001138e: 97 5c:       ldw (ru6)       r2, sp[0x17]
             0x00011390: 9a 54:       stw (ru6)       r2, sp[0x1a]
             0x00011392: 2d 68:       ldc (ru6)       r0, 0x2d
.label199    0x00011394: 10 54:       stw (ru6)       r0, sp[0x10]
             0x00011396: 20 68:       ldc (ru6)       r0, 0x20
             0x00011398: b4 41:       or (3r)         r3, r9, r0
             0x0001139a: 01 f0 26 68: ldc (lru6)      r0, 0x66
             0x0001139e: a4 90:       add (2rus)      r10, r1, 0x0
             0x000113a0: 5c 30:       eq (3r)         r5, r3, r0
             0x000113a2: 43 79:       bf (ru6)        r5, 0x3 <.label200>
             0x000113a4: c0 91:       add (2rus)      r4, r8, 0x0
             0x000113a6: da a6:       mkmsk (rus)     r2, 0x2
             0x000113a8: 09 73:       bu (u6)         0x9 <.label201>
.label200    0x000113aa: 01 f0 25 68: ldc (lru6)      r0, 0x65
             0x000113ae: 0c 30:       eq (3r)         r0, r3, r0
             0x000113b0: 03 70:       bt (ru6)        r0, 0x3 <.label202>
             0x000113b2: 82 68:       ldc (ru6)       r2, 0x2
             0x000113b4: c0 91:       add (2rus)      r4, r8, 0x0
             0x000113b6: 02 73:       bu (u6)         0x2 <.label201>
.label202    0x000113b8: 82 68:       ldc (ru6)       r2, 0x2
             0x000113ba: c1 91:       add (2rus)      r4, r8, 0x1
.label201    0x000113bc: 01 f0 05 64: ldaw (lru6)     r0, sp[0x45]
             0x000113c0: d9 54:       stw (ru6)       r3, sp[0x19]
             0x000113c2: 03 54:       stw (ru6)       r0, sp[0x3]
             0x000113c4: 01 f0 06 64: ldaw (lru6)     r0, sp[0x46]
             0x000113c8: f0 90:       add (2rus)      r3, r4, 0x0
             0x000113ca: 02 54:       stw (ru6)       r0, sp[0x2]
             0x000113cc: 01 f0 03 64: ldaw (lru6)     r0, sp[0x43]
             0x000113d0: 01 54:       stw (ru6)       r0, sp[0x1]
             0x000113d2: 1a 5c:       ldw (ru6)       r0, sp[0x1a]
             0x000113d4: 5b 5c:       ldw (ru6)       r1, sp[0x1b]
             0x000113d6: 02 f0 5b d3: bl (lu10)       0xb5b <dtoa>
             0x000113da: 20 90:       add (2rus)      r2, r0, 0x0
             0x000113dc: 01 f0 25 68: ldc (lru6)      r0, 0x65
             0x000113e0: 81 c4:       lss (3r)        r0, r0, r9
             0x000113e2: 0b 70:       bt (ru6)        r0, 0xb <.label203>
             0x000113e4: 98 91:       add (2rus)      r1, r10, 0x0
             0x000113e6: 01 f0 06 68: ldc (lru6)      r0, 0x46
             0x000113ea: 84 31:       eq (3r)         r0, r9, r0
             0x000113ec: 1b 70:       bt (ru6)        r0, 0x1b <.label204>
             0x000113ee: 01 f0 07 68: ldc (lru6)      r0, 0x47
             0x000113f2: 84 31:       eq (3r)         r0, r9, r0
             0x000113f4: 0d 70:       bt (ru6)        r0, 0xd <.label205>
             0x000113f6: 58 90:       add (2rus)      r5, r2, 0x0
             0x000113f8: 2a 73:       bu (u6)         0x2a <.label206>
.label203    0x000113fa: 98 91:       add (2rus)      r1, r10, 0x0
             0x000113fc: 01 f0 26 68: ldc (lru6)      r0, 0x66
             0x00011400: 84 31:       eq (3r)         r0, r9, r0
             0x00011402: 10 70:       bt (ru6)        r0, 0x10 <.label204>
             0x00011404: 01 f0 27 68: ldc (lru6)      r0, 0x67
             0x00011408: 84 31:       eq (3r)         r0, r9, r0
             0x0001140a: 02 70:       bt (ru6)        r0, 0x2 <.label205>
             0x0001140c: 58 90:       add (2rus)      r5, r2, 0x0
             0x0001140e: 1f 73:       bu (u6)         0x1f <.label206>
.label205    0x00011410: 04 90:       add (2rus)      r0, r1, 0x0
             0x00011412: d1 46:       zext (rus)      r0, 0x1
             0x00011414: 04 70:       bt (ru6)        r0, 0x4 <.label207>
             0x00011416: 01 f0 45 5c: ldw (lru6)      r1, sp[0x45]
             0x0001141a: 58 90:       add (2rus)      r5, r2, 0x0
             0x0001141c: 30 73:       bu (u6)         0x30 <.label208>
.label207    0x0001141e: 42 71:       bt (ru6)        r5, 0x2 <.label204>
             0x00011420: 58 90:       add (2rus)      r5, r2, 0x0
             0x00011422: 15 73:       bu (u6)         0x15 <.label206>
.label204    0x00011424: 00 68:       ldc (ru6)       r0, 0x0
             0x00011426: 08 88:       ld8u (3r)       r0, r2[r0]
             0x00011428: 58 90:       add (2rus)      r5, r2, 0x0
             0x0001142a: 70 68:       ldc (ru6)       r1, 0x30
             0x0001142c: 01 30:       eq (3r)         r0, r0, r1
             0x0001142e: 07 78:       bf (ru6)        r0, 0x7 <.label209>
             0x00011430: 1a 5c:       ldw (ru6)       r0, sp[0x1a]
             0x00011432: c0 68:       ldc (ru6)       r3, 0x0
             0x00011434: 2c 90:       add (2rus)      r2, r3, 0x0
             0x00011436: 5b 5c:       ldw (ru6)       r1, sp[0x1b]
             0x00011438: 02 f0 12 d0: bl (lu10)       0x812 <__nedf2>
             0x0001143c: 03 70:       bt (ru6)        r0, 0x3 <.label210>
.label209    0x0001143e: 01 f0 03 5c: ldw (lru6)      r0, sp[0x43]
             0x00011442: 04 73:       bu (u6)         0x4 <.label211>
.label210    0x00011444: d1 a6:       mkmsk (rus)     r0, 0x1
             0x00011446: 40 1a:       sub (3r)        r0, r0, r4
             0x00011448: 01 f0 03 54: stw (lru6)      r0, sp[0x43]
.label211    0x0001144c: 80 12:       add (3r)        r4, r0, r4
.label206    0x0001144e: 80 6a:       ldc (ru6)       r10, 0x0
             0x00011450: 1a 5c:       ldw (ru6)       r0, sp[0x1a]
             0x00011452: a8 91:       add (2rus)      r2, r10, 0x0
             0x00011454: 5b 5c:       ldw (ru6)       r1, sp[0x1b]
             0x00011456: b8 91:       add (2rus)      r3, r10, 0x0
             0x00011458: 02 f0 02 d0: bl (lu10)       0x802 <__nedf2>
             0x0001145c: 24 13:       add (3r)        r2, r5, r4
             0x0001145e: 04 70:       bt (ru6)        r0, 0x4 <.label212>
             0x00011460: 18 90:       add (2rus)      r1, r2, 0x0
             0x00011462: 01 f0 85 54: stw (lru6)      r2, sp[0x45]
             0x00011466: 0b 73:       bu (u6)         0xb <.label208>
.label212    0x00011468: 01 f0 45 5c: ldw (lru6)      r1, sp[0x45]
             0x0001146c: 06 73:       bu (u6)         0x6 <.label213>
.label214    0x0001146e: 30 68:       ldc (ru6)       r0, 0x30
             0x00011470: 86 fc ec 8f: st8 (l3r)       r0, r1[r10]
             0x00011474: 15 90:       add (2rus)      r1, r1, 0x1
             0x00011476: 01 f0 45 54: stw (lru6)      r1, sp[0x45]
.label213    0x0001147a: 06 c8:       lsu (3r)        r0, r1, r2
             0x0001147c: 08 74:       bt (ru6)        r0, -0x8 <.label214>
.label208    0x0001147e: 19 5c:       ldw (ru6)       r0, sp[0x19]
             0x00011480: 01 f0 27 69: ldc (lru6)      r4, 0x67
             0x00011484: 60 32:       eq (3r)         r2, r0, r4
             0x00011486: 85 70:       bt (ru6)        r2, 0x5 <.label215>
             0x00011488: 01 f0 07 64: ldaw (lru6)     r0, sp[0x47]
             0x0001148c: 34 92:       add (2rus)      r11, r9, 0x0
             0x0001148e: 54 5e:       ldw (ru6)       r9, sp[0x14]
             0x00011490: 0e 73:       bu (u6)         0xe <.label216>
.label215    0x00011492: 01 f0 c3 5c: ldw (lru6)      r3, sp[0x43]
             0x00011496: 01 f0 ce 6e: ldw (lru6)      r11, cp[0x4e]
             0x0001149a: a3 c1:       lss (3r)        r2, r8, r3
             0x0001149c: 01 f0 07 64: ldaw (lru6)     r0, sp[0x47]
             0x000114a0: bf c4:       lss (3r)        r3, r3, r11
             0x000114a2: 2e 40:       or (3r)         r2, r3, r2
             0x000114a4: 82 78:       bf (ru6)        r2, 0x2 <.label217>
             0x000114a6: 36 9a:       sub (2rus)      r11, r9, 0x2
             0x000114a8: 01 73:       bu (u6)         0x1 <.label218>
.label217    0x000114aa: 70 91:       add (2rus)      r11, r4, 0x0
.label218    0x000114ac: 54 5e:       ldw (ru6)       r9, sp[0x14]
.label216    0x000114ae: e5 1a:       sub (3r)        r10, r1, r5
             0x000114b0: 01 f0 65 68: ldc (lru6)      r1, 0x65
             0x000114b4: 97 c4:       lss (3r)        r1, r1, r11
             0x000114b6: 5d 55:       stw (ru6)       r5, sp[0x1d]
             0x000114b8: 01 f0 75 70: bt (lru6)       r1, 0x75 <.label219>
             0x000114bc: cc 91:       add (2rus)      r4, r11, 0x0
             0x000114be: 1b 55:       stw (ru6)       r4, sp[0x1b]
             0x000114c0: 01 f0 c3 5e: ldw (lru6)      r11, sp[0x43]
             0x000114c4: 01 f0 41 64: ldaw (lru6)     r1, sp[0x41]
             0x000114c8: ad 99:       sub (2rus)      r2, r11, 0x1
             0x000114ca: 01 f0 83 54: stw (lru6)      r2, sp[0x43]
             0x000114ce: c0 68:       ldc (ru6)       r3, 0x0
             0x000114d0: 47 f8 ec 8f: st8 (l3r)       r4, r1[r3]
             0x000114d4: 48 f8 ec 97: ashr (l2rus)    r4, r2, 0x20
             0x000114d8: 02 79:       bf (ru6)        r4, 0x2 <.label220>
             0x000114da: 6d 69:       ldc (ru6)       r5, 0x2d
             0x000114dc: 01 73:       bu (u6)         0x1 <.label221>
.label220    0x000114de: 6b 69:       ldc (ru6)       r5, 0x2b
.label221    0x000114e0: 01 f0 41 64: ldaw (lru6)     r1, sp[0x41]
             0x000114e4: 51 a7:       mkmsk (rus)     r8, 0x1
             0x000114e6: 99 56:       stw (ru6)       r10, sp[0x19]
             0x000114e8: 94 44:       or (3r)         r1, r1, r8
             0x000114ea: 57 f8 ec 8f: st8 (l3r)       r5, r1[r3]
             0x000114ee: 01 79:       bf (ru6)        r4, 0x1 <.label222>
             0x000114f0: 23 1e:       sub (3r)        r2, r8, r11
.label222    0x000114f2: 0a 69:       ldc (ru6)       r4, 0xa
             0x000114f4: 58 c2:       lss (3r)        r1, r2, r4
             0x000114f6: 78 70:       bt (ru6)        r1, 0x38 <.label223>
             0x000114f8: bc 90:       add (2rus)      r11, r3, 0x0
.label224    0x000114fa: 5c 90:       add (2rus)      r5, r3, 0x0
             0x000114fc: 1c 90:       add (2rus)      r1, r3, 0x0
             0x000114fe: 01 f0 0f 6e: ldw (lru6)      r8, cp[0x4f]
             0x00011502: 46 6a:       ldc (ru6)       r9, 0x6
             0x00011504: d8 fc e1 0f: maccs (l4r)     r5, r1, r2, r8
             0x00011508: 17 2b:       shr (3r)        r1, r5, r7
             0x0001150a: 16 f9 ec 97: ashr (l2rus)    r5, r5, 0x2
             0x0001150e: 30 6a:       ldc (ru6)       r8, 0x30
             0x00011510: 15 11:       add (3r)        r5, r5, r1
             0x00011512: 14 fb ec 3f: mul (l3r)       r1, r5, r4
             0x00011516: 19 18:       sub (3r)        r1, r2, r1
             0x00011518: 24 15:       add (3r)        r10, r1, r8
             0x0001151a: 93 14:       add (3r)        r1, r0, r11
             0x0001151c: 3d 9a:       sub (2rus)      r11, r11, 0x1
             0x0001151e: 25 fd ec 8f: st8 (l3r)       r10, r1[r9]
             0x00011522: 01 f0 63 68: ldc (lru6)      r1, 0x63
             0x00011526: a6 c0:       lss (3r)        r10, r1, r2
             0x00011528: e4 90:       add (2rus)      r2, r5, 0x0
             0x0001152a: 99 76:       bt (ru6)        r10, -0x19 <.label224>
             0x0001152c: b3 14:       add (3r)        r3, r0, r11
             0x0001152e: 94 15:       add (3r)        r5, r5, r8
             0x00011530: dd fc ec 8f: st8 (l3r)       r5, r3[r9]
             0x00011534: 0e 5c:       ldw (ru6)       r0, sp[0xe]
             0x00011536: 8f 5c:       ldw (ru6)       r2, sp[0xf]
             0x00011538: 54 5e:       ldw (ru6)       r9, sp[0x14]
             0x0001153a: 5e 92:       add (2rus)      r1, r3, 0x6
             0x0001153c: 99 5e:       ldw (ru6)       r10, sp[0x19]
             0x0001153e: 44 c8:       lsu (3r)        r4, r1, r0
             0x00011540: 23 79:       bf (ru6)        r4, 0x23 <.label225>
             0x00011542: 27 1e:       sub (3r)        r2, r9, r11
             0x00011544: 01 f0 01 65: ldaw (lru6)     r4, sp[0x41]
             0x00011548: 42 68:       ldc (ru6)       r1, 0x2
             0x0001154a: 41 41:       or (3r)         r8, r4, r1
             0x0001154c: 00 69:       ldc (ru6)       r4, 0x0
             0x0001154e: 10 fc ec 8f: st8 (l3r)       r5, r8[r4]
             0x00011552: d3 a6:       mkmsk (rus)     r0, 0x3
             0x00011554: d9 7a:       bf (ru6)        r11, 0x19 <.label225>
             0x00011556: af 97:       neg (2r)        r11, r11
.label226    0x00011558: 5c 12:       add (3r)        r1, r3, r4
             0x0001155a: 14 88:       ld8u (3r)       r1, r1[r0]
             0x0001155c: 3d 9a:       sub (2rus)      r11, r11, 0x1
             0x0001155e: d4 fb ec 8f: st8 (l3r)       r1, r9[r4]
             0x00011562: 01 91:       add (2rus)      r4, r4, 0x1
             0x00011564: c7 76:       bt (ru6)        r11, -0x7 <.label226>
             0x00011566: 10 73:       bu (u6)         0x10 <.label225>
.label223    0x00011568: 42 68:       ldc (ru6)       r1, 0x2
             0x0001156a: 01 f0 41 65: ldaw (lru6)     r5, sp[0x41]
             0x0001156e: 05 41:       or (3r)         r4, r5, r1
             0x00011570: f0 6a:       ldc (ru6)       r11, 0x30
             0x00011572: c0 68:       ldc (ru6)       r3, 0x0
             0x00011574: ab 14:       add (3r)        r2, r2, r11
             0x00011576: 73 f9 ec 8f: st8 (l3r)       r11, r4[r3]
             0x0001157a: d6 a6:       mkmsk (rus)     r1, 0x2
             0x0001157c: d5 40:       or (3r)         r1, r5, r1
             0x0001157e: 27 f8 ec 8f: st8 (l3r)       r2, r1[r3]
             0x00011582: 99 5e:       ldw (ru6)       r10, sp[0x19]
             0x00011584: 01 f0 82 64: ldaw (lru6)     r2, sp[0x42]
.label225    0x00011588: d1 a6:       mkmsk (rus)     r0, 0x1
             0x0001158a: 01 f0 c1 64: ldaw (lru6)     r3, sp[0x41]
             0x0001158e: 92 c4:       lss (3r)        r1, r0, r10
             0x00011590: 0b 18:       sub (3r)        r0, r2, r3
             0x00011592: 12 54:       stw (ru6)       r0, sp[0x12]
             0x00011594: b2 14:       add (3r)        r3, r0, r10
             0x00011596: a0 5c:       ldw (ru6)       r2, sp[0x20]
             0x00011598: db 5e:       ldw (ru6)       r11, sp[0x1b]
             0x0001159a: 43 70:       bt (ru6)        r1, 0x3 <.label227>
             0x0001159c: 22 5c:       ldw (ru6)       r0, sp[0x22]
             0x0001159e: d1 46:       zext (rus)      r0, 0x1
             0x000115a0: 29 78:       bf (ru6)        r0, 0x29 <.label228>
.label227    0x000115a2: 3d 90:       add (2rus)      r3, r3, 0x1
             0x000115a4: 27 73:       bu (u6)         0x27 <.label228>
.label219    0x000115a6: 01 f0 43 5c: ldw (lru6)      r1, sp[0x43]
             0x000115aa: 01 f0 26 68: ldc (lru6)      r0, 0x66
             0x000115ae: ac 31:       eq (3r)         r2, r11, r0
             0x000115b0: 94 78:       bf (ru6)        r2, 0x14 <.label229>
             0x000115b2: dd a6:       mkmsk (rus)     r3, 0x1
             0x000115b4: 27 c0:       lss (3r)        r2, r1, r3
             0x000115b6: 8a 70:       bt (ru6)        r2, 0xa <.label230>
             0x000115b8: a0 5c:       ldw (ru6)       r2, sp[0x20]
             0x000115ba: 05 72:       bt (ru6)        r8, 0x5 <.label231>
             0x000115bc: 22 5c:       ldw (ru6)       r0, sp[0x22]
             0x000115be: d1 46:       zext (rus)      r0, 0x1
             0x000115c0: 02 70:       bt (ru6)        r0, 0x2 <.label231>
             0x000115c2: 34 90:       add (2rus)      r3, r1, 0x0
             0x000115c4: 17 73:       bu (u6)         0x17 <.label228>
.label231    0x000115c6: 91 11:       add (3r)        r1, r8, r1
             0x000115c8: 35 90:       add (2rus)      r3, r1, 0x1
             0x000115ca: 14 73:       bu (u6)         0x14 <.label228>
.label230    0x000115cc: a0 5c:       ldw (ru6)       r2, sp[0x20]
             0x000115ce: 03 72:       bt (ru6)        r8, 0x3 <.label232>
             0x000115d0: 22 5c:       ldw (ru6)       r0, sp[0x22]
             0x000115d2: d1 46:       zext (rus)      r0, 0x1
             0x000115d4: 0f 78:       bf (ru6)        r0, 0xf <.label228>
.label232    0x000115d6: b2 91:       add (2rus)      r3, r8, 0x2
             0x000115d8: 0d 73:       bu (u6)         0xd <.label228>
.label229    0x000115da: a6 c4:       lss (3r)        r2, r1, r10
             0x000115dc: 84 70:       bt (ru6)        r2, 0x4 <.label233>
             0x000115de: 22 5c:       ldw (ru6)       r0, sp[0x22]
             0x000115e0: d1 46:       zext (rus)      r0, 0x1
             0x000115e2: 34 10:       add (3r)        r3, r1, r0
             0x000115e4: 06 73:       bu (u6)         0x6 <.label234>
.label233    0x000115e6: d9 a6:       mkmsk (rus)     r2, 0x1
             0x000115e8: 36 c0:       lss (3r)        r3, r1, r2
             0x000115ea: c2 78:       bf (ru6)        r3, 0x2 <.label235>
             0x000115ec: 82 68:       ldc (ru6)       r2, 0x2
             0x000115ee: 29 18:       sub (3r)        r2, r2, r1
.label235    0x000115f0: ba 14:       add (3r)        r3, r2, r10
.label234    0x000115f2: a0 5c:       ldw (ru6)       r2, sp[0x20]
.label228    0x000115f4: 00 69:       ldc (ru6)       r4, 0x0
             0x000115f6: 99 56:       stw (ru6)       r10, sp[0x19]
             0x000115f8: 54 56:       stw (ru6)       r9, sp[0x14]
             0x000115fa: 10 5c:       ldw (ru6)       r0, sp[0x10]
             0x000115fc: 30 47:       zext (rus)      r0, 0x8
             0x000115fe: 05 70:       bt (ru6)        r0, 0x5 <.label236>
.label237    0x00011600: 11 5c:       ldw (ru6)       r0, sp[0x11]
             0x00011602: 1c 92:       add (2rus)      r9, r11, 0x0
             0x00011604: 22 54:       stw (ru6)       r0, sp[0x22]
             0x00011606: 06 f0 2e 73: bu (lu6)        0x1ae <.label181>
.label236    0x0001160a: 6d 68:       ldc (ru6)       r1, 0x2d
             0x0001160c: 01 f0 04 64: ldaw (lru6)     r0, sp[0x44]
             0x00011610: 50 fa ec 8f: st8 (l3r)       r1, r0[r4]
             0x00011614: 0b 77:       bu (u6)         -0xb <.label237>
.label166    0x00011616: 20 68:       ldc (ru6)       r0, 0x20
             0x00011618: 62 5c:       ldw (ru6)       r1, sp[0x22]
             0x0001161a: 04 38:       and (3r)        r0, r1, r0
             0x0001161c: 0e 78:       bf (ru6)        r0, 0xe <.label238>
             0x0001161e: a0 5c:       ldw (ru6)       r2, sp[0x20]
             0x00011620: 08 08:       ldw (2rus)      r0, r2[0x0]
             0x00011622: 5f 5d:       ldw (ru6)       r5, sp[0x1f]
             0x00011624: d4 f8 ec 97: ashr (l2rus)    r1, r5, 0x20
             0x00011628: 00 69:       ldc (ru6)       r4, 0x0
             0x0001162a: 11 00:       stw (2rus)      r1, r0[0x1]
             0x0001162c: 40 6a:       ldc (ru6)       r9, 0x0
             0x0001162e: 50 00:       stw (2rus)      r5, r0[0x0]
             0x00011630: 9e 5e:       ldw (ru6)       r10, sp[0x1e]
             0x00011632: 68 92:       add (2rus)      r2, r2, 0x4
             0x00011634: dc 5c:       ldw (ru6)       r3, sp[0x1c]
             0x00011636: 0e f0 23 77: bu (lu6)        -0x3a3 <.label134>
.label238    0x0001163a: 40 6a:       ldc (ru6)       r9, 0x0
             0x0001163c: 5f 5d:       ldw (ru6)       r5, sp[0x1f]
             0x0001163e: 10 68:       ldc (ru6)       r0, 0x10
             0x00011640: a0 5c:       ldw (ru6)       r2, sp[0x20]
             0x00011642: 04 38:       and (3r)        r0, r1, r0
             0x00011644: dc 5c:       ldw (ru6)       r3, sp[0x1c]
             0x00011646: 07 78:       bf (ru6)        r0, 0x7 <.label239>
             0x00011648: 00 69:       ldc (ru6)       r4, 0x0
             0x0001164a: 08 08:       ldw (2rus)      r0, r2[0x0]
             0x0001164c: 68 92:       add (2rus)      r2, r2, 0x4
             0x0001164e: 50 00:       stw (2rus)      r5, r0[0x0]
             0x00011650: 9e 5e:       ldw (ru6)       r10, sp[0x1e]
             0x00011652: 0e f0 31 77: bu (lu6)        -0x3b1 <.label134>
.label239    0x00011656: 9e 5e:       ldw (ru6)       r10, sp[0x1e]
             0x00011658: 01 f0 00 68: ldc (lru6)      r0, 0x40
             0x0001165c: 14 38:       and (3r)        r1, r1, r0
             0x0001165e: 48 92:       add (2rus)      r0, r2, 0x4
             0x00011660: 47 78:       bf (ru6)        r1, 0x7 <.label240>
             0x00011662: 18 08:       ldw (2rus)      r1, r2[0x0]
             0x00011664: 00 69:       ldc (ru6)       r4, 0x0
             0x00011666: 94 fa ec 87: st16 (l3r)      r5, r1[r4]
             0x0001166a: 20 90:       add (2rus)      r2, r0, 0x0
             0x0001166c: 0e f0 3e 77: bu (lu6)        -0x3be <.label134>
.label240    0x00011670: 00 69:       ldc (ru6)       r4, 0x0
             0x00011672: 18 08:       ldw (2rus)      r1, r2[0x0]
             0x00011674: 20 90:       add (2rus)      r2, r0, 0x0
             0x00011676: 54 00:       stw (2rus)      r5, r1[0x0]
             0x00011678: 0f f0 04 77: bu (lu6)        -0x3c4 <.label134>
.label159    0x0001167c: 01 f0 cf 6a: ldc (lru6)      r11, 0x4f
             0x00011680: 62 5c:       ldw (ru6)       r1, sp[0x22]
             0x00011682: 10 68:       ldc (ru6)       r0, 0x10
             0x00011684: 14 40:       or (3r)         r1, r1, r0
             0x00011686: 62 54:       stw (ru6)       r1, sp[0x22]
.label167    0x00011688: 20 68:       ldc (ru6)       r0, 0x20
             0x0001168a: 62 5c:       ldw (ru6)       r1, sp[0x22]
             0x0001168c: 04 38:       and (3r)        r0, r1, r0
             0x0001168e: 0b 78:       bf (ru6)        r0, 0xb <.label241>
             0x00011690: 62 54:       stw (ru6)       r1, sp[0x22]
             0x00011692: 20 5c:       ldw (ru6)       r0, sp[0x20]
             0x00011694: 1c 92:       add (2rus)      r9, r11, 0x0
             0x00011696: 51 08:       ldw (2rus)      r5, r0[0x1]
             0x00011698: 40 08:       ldw (2rus)      r4, r0[0x0]
             0x0001169a: 80 94:       add (2rus)      r0, r0, 0x8
             0x0001169c: 20 54:       stw (ru6)       r0, sp[0x20]
             0x0001169e: 00 68:       ldc (ru6)       r0, 0x0
             0x000116a0: 98 5e:       ldw (ru6)       r10, sp[0x18]
             0x000116a2: 03 f0 0c 73: bu (lu6)        0xcc <.label242>
.label241    0x000116a6: 24 90:       add (2rus)      r2, r1, 0x0
             0x000116a8: 10 68:       ldc (ru6)       r0, 0x10
             0x000116aa: 04 38:       and (3r)        r0, r1, r0
             0x000116ac: 60 5c:       ldw (ru6)       r1, sp[0x20]
             0x000116ae: 98 5e:       ldw (ru6)       r10, sp[0x18]
             0x000116b0: 03 78:       bf (ru6)        r0, 0x3 <.label243>
             0x000116b2: a2 54:       stw (ru6)       r2, sp[0x22]
             0x000116b4: 44 08:       ldw (2rus)      r4, r1[0x0]
             0x000116b6: 07 73:       bu (u6)         0x7 <.label244>
.label243    0x000116b8: 01 f0 00 68: ldc (lru6)      r0, 0x40
             0x000116bc: a2 54:       stw (ru6)       r2, sp[0x22]
             0x000116be: 08 38:       and (3r)        r0, r2, r0
             0x000116c0: 44 08:       ldw (2rus)      r4, r1[0x0]
             0x000116c2: 01 78:       bf (ru6)        r0, 0x1 <.label244>
             0x000116c4: 71 47:       zext (rus)      r4, 0x10
.label244    0x000116c6: 1c 92:       add (2rus)      r9, r11, 0x0
             0x000116c8: 40 69:       ldc (ru6)       r5, 0x0
             0x000116ca: c4 90:       add (2rus)      r0, r5, 0x0
             0x000116cc: 54 92:       add (2rus)      r1, r1, 0x4
             0x000116ce: 60 54:       stw (ru6)       r1, sp[0x20]
             0x000116d0: 02 f0 35 73: bu (lu6)        0xb5 <.label242>
.label168    0x000116d4: a0 5c:       ldw (ru6)       r2, sp[0x20]
             0x000116d6: 40 69:       ldc (ru6)       r5, 0x0
             0x000116d8: 48 08:       ldw (2rus)      r4, r2[0x0]
             0x000116da: 30 68:       ldc (ru6)       r0, 0x30
             0x000116dc: 63 64:       ldaw (ru6)      r1, sp[0x23]
             0x000116de: 45 fa ec 8f: st8 (l3r)       r0, r1[r5]
             0x000116e2: d1 a6:       mkmsk (rus)     r0, 0x1
             0x000116e4: 01 f0 78 6a: ldc (lru6)      r9, 0x78
             0x000116e8: 04 40:       or (3r)         r0, r1, r0
             0x000116ea: d1 fa ec 8f: st8 (l3r)       r9, r0[r5]
             0x000116ee: 02 68:       ldc (ru6)       r0, 0x2
             0x000116f0: 62 5c:       ldw (ru6)       r1, sp[0x22]
             0x000116f2: 68 92:       add (2rus)      r2, r2, 0x4
             0x000116f4: 01 f0 91 62: ldaw (lru6)     r10, dp[0x51]
             0x000116f8: 14 40:       or (3r)         r1, r1, r0
             0x000116fa: 62 54:       stw (ru6)       r1, sp[0x22]
             0x000116fc: a0 54:       stw (ru6)       r2, sp[0x20]
             0x000116fe: 02 f0 1e 73: bu (lu6)        0x9e <.label242>
.label170    0x00011702: 00 69:       ldc (ru6)       r4, 0x0
             0x00011704: 01 f0 04 64: ldaw (lru6)     r0, sp[0x44]
             0x00011708: 80 fa ec 8f: st8 (l3r)       r4, r0[r4]
             0x0001170c: 20 5c:       ldw (ru6)       r0, sp[0x20]
             0x0001170e: e0 92:       add (2rus)      r10, r0, 0x4
             0x00011710: 20 08:       ldw (2rus)      r2, r0[0x0]
             0x00011712: 89 70:       bt (ru6)        r2, 0x9 <.label245>
             0x00011714: c6 68:       ldc (ru6)       r3, 0x6
             0x00011716: 8c cc:       lsu (3r)        r0, r3, r8
             0x00011718: 01 70:       bt (ru6)        r0, 0x1 <.label246>
             0x0001171a: b0 91:       add (2rus)      r3, r8, 0x0
.label246    0x0001171c: 01 f0 16 60: ldaw (lru6)     r0, dp[0x56]
             0x00011720: 1d 54:       stw (ru6)       r0, sp[0x1d]
             0x00011722: 00 69:       ldc (ru6)       r4, 0x0
             0x00011724: 19 73:       bu (u6)         0x19 <.label247>
.label245    0x00011726: 80 f9 ec 97: ashr (l2rus)    r0, r8, 0x20
             0x0001172a: 21 70:       bt (ru6)        r0, 0x21 <.label248>
             0x0001172c: c0 68:       ldc (ru6)       r3, 0x0
             0x0001172e: 08 90:       add (2rus)      r0, r2, 0x0
             0x00011730: 5c 90:       add (2rus)      r5, r3, 0x0
             0x00011732: 1c 90:       add (2rus)      r1, r3, 0x0
             0x00011734: 48 90:       add (2rus)      r4, r2, 0x0
             0x00011736: a0 91:       add (2rus)      r2, r8, 0x0
             0x00011738: 04 f0 e2 d1: bl (lu10)       0x11e2 <memchr>
             0x0001173c: 08 70:       bt (ru6)        r0, 0x8 <.label249>
             0x0001173e: b0 91:       add (2rus)      r3, r8, 0x0
             0x00011740: 1d 55:       stw (ru6)       r4, sp[0x1d]
             0x00011742: a8 91:       add (2rus)      r2, r10, 0x0
             0x00011744: 01 f0 73 6a: ldc (lru6)      r9, 0x73
             0x00011748: 04 91:       add (2rus)      r4, r5, 0x0
             0x0001174a: 04 f0 0c 73: bu (lu6)        0x10c <.label181>
.label249    0x0001174e: 70 1a:       sub (3r)        r3, r0, r4
             0x00011750: 1d 55:       stw (ru6)       r4, sp[0x1d]
             0x00011752: 00 69:       ldc (ru6)       r4, 0x0
             0x00011754: 83 c1:       lss (3r)        r0, r8, r3
             0x00011756: 05 70:       bt (ru6)        r0, 0x5 <.label250>
.label247    0x00011758: 01 f0 73 6a: ldc (lru6)      r9, 0x73
             0x0001175c: a8 91:       add (2rus)      r2, r10, 0x0
             0x0001175e: 04 f0 02 73: bu (lu6)        0x102 <.label181>
.label250    0x00011762: b0 91:       add (2rus)      r3, r8, 0x0
             0x00011764: 01 f0 73 6a: ldc (lru6)      r9, 0x73
             0x00011768: a8 91:       add (2rus)      r2, r10, 0x0
             0x0001176a: 03 f0 3c 73: bu (lu6)        0xfc <.label181>
.label248    0x0001176e: 9d 54:       stw (ru6)       r2, sp[0x1d]
             0x00011770: 08 90:       add (2rus)      r0, r2, 0x0
             0x00011772: 01 f0 b5 d4: bl (lu10)       -0x4b5 <strlen>
             0x00011776: 30 90:       add (2rus)      r3, r0, 0x0
             0x00011778: 11 77:       bu (u6)         -0x11 <.label247>
.label160    0x0001177a: 10 68:       ldc (ru6)       r0, 0x10
             0x0001177c: 01 f0 d5 68: ldc (lru6)      r3, 0x55
             0x00011780: 62 5c:       ldw (ru6)       r1, sp[0x22]
             0x00011782: 14 40:       or (3r)         r1, r1, r0
             0x00011784: 62 54:       stw (ru6)       r1, sp[0x22]
.label171    0x00011786: 20 68:       ldc (ru6)       r0, 0x20
             0x00011788: 62 5c:       ldw (ru6)       r1, sp[0x22]
             0x0001178a: 04 38:       and (3r)        r0, r1, r0
             0x0001178c: 0b 78:       bf (ru6)        r0, 0xb <.label251>
             0x0001178e: 62 54:       stw (ru6)       r1, sp[0x22]
             0x00011790: 20 5c:       ldw (ru6)       r0, sp[0x20]
             0x00011792: 9c 90:       add (2rus)      r9, r3, 0x0
             0x00011794: 51 08:       ldw (2rus)      r5, r0[0x1]
             0x00011796: 40 08:       ldw (2rus)      r4, r0[0x0]
             0x00011798: 80 94:       add (2rus)      r0, r0, 0x8
             0x0001179a: 20 54:       stw (ru6)       r0, sp[0x20]
             0x0001179c: 98 5e:       ldw (ru6)       r10, sp[0x18]
             0x0001179e: d1 a6:       mkmsk (rus)     r0, 0x1
             0x000117a0: 01 f0 0d 73: bu (lu6)        0x4d <.label242>
.label251    0x000117a4: 24 90:       add (2rus)      r2, r1, 0x0
             0x000117a6: 10 68:       ldc (ru6)       r0, 0x10
             0x000117a8: 04 38:       and (3r)        r0, r1, r0
             0x000117aa: 60 5c:       ldw (ru6)       r1, sp[0x20]
             0x000117ac: 98 5e:       ldw (ru6)       r10, sp[0x18]
             0x000117ae: 03 78:       bf (ru6)        r0, 0x3 <.label252>
             0x000117b0: a2 54:       stw (ru6)       r2, sp[0x22]
             0x000117b2: 44 08:       ldw (2rus)      r4, r1[0x0]
             0x000117b4: 07 73:       bu (u6)         0x7 <.label253>
.label252    0x000117b6: a2 54:       stw (ru6)       r2, sp[0x22]
             0x000117b8: 01 f0 00 68: ldc (lru6)      r0, 0x40
             0x000117bc: 44 08:       ldw (2rus)      r4, r1[0x0]
             0x000117be: 08 38:       and (3r)        r0, r2, r0
             0x000117c0: 01 78:       bf (ru6)        r0, 0x1 <.label253>
             0x000117c2: 71 47:       zext (rus)      r4, 0x10
.label253    0x000117c4: 54 92:       add (2rus)      r1, r1, 0x4
             0x000117c6: 60 54:       stw (ru6)       r1, sp[0x20]
             0x000117c8: 40 69:       ldc (ru6)       r5, 0x0
             0x000117ca: d1 a6:       mkmsk (rus)     r0, 0x1
             0x000117cc: 9c 90:       add (2rus)      r9, r3, 0x0
             0x000117ce: 37 73:       bu (u6)         0x37 <.label242>
.label172    0x000117d0: 01 f0 b8 68: ldc (lru6)      r2, 0x78
             0x000117d4: 01 f0 51 60: ldaw (lru6)     r1, dp[0x51]
.label161    0x000117d8: 20 68:       ldc (ru6)       r0, 0x20
             0x000117da: e2 5c:       ldw (ru6)       r3, sp[0x22]
             0x000117dc: 0c 38:       and (3r)        r0, r3, r0
             0x000117de: 07 78:       bf (ru6)        r0, 0x7 <.label254>
             0x000117e0: e2 54:       stw (ru6)       r3, sp[0x22]
             0x000117e2: 20 5c:       ldw (ru6)       r0, sp[0x20]
             0x000117e4: 51 08:       ldw (2rus)      r5, r0[0x1]
             0x000117e6: 40 08:       ldw (2rus)      r4, r0[0x0]
             0x000117e8: 80 94:       add (2rus)      r0, r0, 0x8
             0x000117ea: 20 54:       stw (ru6)       r0, sp[0x20]
             0x000117ec: 13 73:       bu (u6)         0x13 <.label255>
.label254    0x000117ee: 10 68:       ldc (ru6)       r0, 0x10
             0x000117f0: 0c 38:       and (3r)        r0, r3, r0
             0x000117f2: 04 78:       bf (ru6)        r0, 0x4 <.label256>
             0x000117f4: e2 54:       stw (ru6)       r3, sp[0x22]
             0x000117f6: 20 5c:       ldw (ru6)       r0, sp[0x20]
             0x000117f8: 40 08:       ldw (2rus)      r4, r0[0x0]
             0x000117fa: 09 73:       bu (u6)         0x9 <.label257>
.label256    0x000117fc: 01 f0 00 68: ldc (lru6)      r0, 0x40
             0x00011800: e2 54:       stw (ru6)       r3, sp[0x22]
             0x00011802: 0c 38:       and (3r)        r0, r3, r0
             0x00011804: e0 5c:       ldw (ru6)       r3, sp[0x20]
             0x00011806: 4c 08:       ldw (2rus)      r4, r3[0x0]
             0x00011808: 01 78:       bf (ru6)        r0, 0x1 <.label258>
             0x0001180a: 71 47:       zext (rus)      r4, 0x10
.label258    0x0001180c: 20 5c:       ldw (ru6)       r0, sp[0x20]
.label257    0x0001180e: 40 69:       ldc (ru6)       r5, 0x0
             0x00011810: 40 92:       add (2rus)      r0, r0, 0x4
             0x00011812: 20 54:       stw (ru6)       r0, sp[0x20]
.label255    0x00011814: e2 5c:       ldw (ru6)       r3, sp[0x22]
             0x00011816: dd 46:       zext (rus)      r3, 0x1
             0x00011818: 02 68:       ldc (ru6)       r0, 0x2
             0x0001181a: cf 78:       bf (ru6)        r3, 0xf <.label259>
             0x0001181c: 31 43:       or (3r)         r3, r4, r5
             0x0001181e: cd 78:       bf (ru6)        r3, 0xd <.label259>
             0x00011820: f0 68:       ldc (ru6)       r3, 0x30
             0x00011822: e3 66:       ldaw (ru6)      r11, sp[0x23]
             0x00011824: 00 68:       ldc (ru6)       r0, 0x0
             0x00011826: bc f9 ec 8f: st8 (l3r)       r3, r11[r0]
             0x0001182a: dd a6:       mkmsk (rus)     r3, 0x1
             0x0001182c: bf 41:       or (3r)         r3, r11, r3
             0x0001182e: 2c f8 ec 8f: st8 (l3r)       r2, r3[r0]
             0x00011832: 02 68:       ldc (ru6)       r0, 0x2
             0x00011834: e2 5c:       ldw (ru6)       r3, sp[0x22]
             0x00011836: 3c 40:       or (3r)         r3, r3, r0
             0x00011838: e2 54:       stw (ru6)       r3, sp[0x22]
.label259    0x0001183a: 98 90:       add (2rus)      r9, r2, 0x0
             0x0001183c: a4 90:       add (2rus)      r10, r1, 0x0
.label242    0x0001183e: 40 68:       ldc (ru6)       r1, 0x0
             0x00011840: 01 f0 84 64: ldaw (lru6)     r2, sp[0x44]
             0x00011844: 19 f8 ec 8f: st8 (l3r)       r1, r2[r1]
.label187    0x00011848: 90 f9 ec 97: ashr (l2rus)    r1, r8, 0x20
             0x0001184c: 45 70:       bt (ru6)        r1, 0x5 <.label260>
             0x0001184e: 01 f0 4d 6c: ldw (lru6)      r1, cp[0x4d]
             0x00011852: a2 5c:       ldw (ru6)       r2, sp[0x22]
             0x00011854: 29 38:       and (3r)        r2, r2, r1
             0x00011856: a2 54:       stw (ru6)       r2, sp[0x22]
.label260    0x00011858: 11 43:       or (3r)         r1, r4, r5
             0x0001185a: 42 70:       bt (ru6)        r1, 0x2 <.label261>
             0x0001185c: 01 f0 2f 7a: bf (lru6)       r8, 0x6f <.label262>
.label261    0x00011860: 16 70:       bt (ru6)        r0, 0x16 <.label263>
             0x00011862: 13 5c:       ldw (ru6)       r0, sp[0x13]
.label264    0x00011864: 73 a9:       shr (2rus)      r11, r4, 0x3
             0x00011866: 13 47:       zext (rus)      r4, 0x3
             0x00011868: 70 68:       ldc (ru6)       r1, 0x30
             0x0001186a: f1 40:       or (3r)         r3, r4, r1
             0x0001186c: 80 68:       ldc (ru6)       r2, 0x0
             0x0001186e: 32 f8 ec 8f: st8 (l3r)       r3, r0[r2]
             0x00011872: 1d 69:       ldc (ru6)       r4, 0x1d
             0x00011874: 44 23:       shl (3r)        r4, r5, r4
             0x00011876: 0c 44:       or (3r)         r4, r11, r4
             0x00011878: 17 a9:       shr (2rus)      r5, r5, 0x3
             0x0001187a: b1 43:       or (3r)         r11, r4, r5
             0x0001187c: 01 98:       sub (2rus)      r0, r0, 0x1
             0x0001187e: ce 76:       bt (ru6)        r11, -0xe <.label264>
             0x00011880: 41 90:       add (2rus)      r4, r0, 0x1
             0x00011882: e2 5e:       ldw (ru6)       r11, sp[0x22]
             0x00011884: 5d 47:       zext (rus)      r11, 0x1
             0x00011886: fb 72:       bt (ru6)        r11, 0x3b <.label265>
             0x00011888: 70 91:       add (2rus)      r11, r4, 0x0
             0x0001188a: 01 f0 26 73: bu (lu6)        0x66 <.label266>
.label263    0x0001188e: 12 b0:       eq (2rus)       r1, r0, 0x2
             0x00011890: 51 78:       bf (ru6)        r1, 0x11 <.label267>
             0x00011892: 2e 64:       ldaw (ru6)      r0, sp[0x2e]
             0x00011894: b0 90:       add (2rus)      r11, r0, 0x0
.label268    0x00011896: 00 ab:       shr (2rus)      r0, r4, 0x4
             0x00011898: d0 47:       zext (rus)      r4, 0x4
             0x0001189a: d8 8b:       ld8u (3r)       r1, r10[r4]
             0x0001189c: d8 a6:       mkmsk (rus)     r2, 0x20
             0x0001189e: 9e f9 ec 8f: st8 (l3r)       r1, r11[r2]
             0x000118a2: 5c 68:       ldc (ru6)       r1, 0x1c
             0x000118a4: d5 20:       shl (3r)        r1, r5, r1
             0x000118a6: 41 40:       or (3r)         r4, r0, r1
             0x000118a8: 54 ab:       shr (2rus)      r5, r5, 0x4
             0x000118aa: 01 43:       or (3r)         r0, r4, r5
             0x000118ac: 3d 9a:       sub (2rus)      r11, r11, 0x1
             0x000118ae: 0d 74:       bt (ru6)        r0, -0xd <.label268>
             0x000118b0: 01 f0 13 73: bu (lu6)        0x53 <.label266>
.label267    0x000118b4: 01 b0:       eq (2rus)       r0, r0, 0x1
             0x000118b6: 3b 78:       bf (ru6)        r0, 0x3b <.label269>
             0x000118b8: 98 56:       stw (ru6)       r10, sp[0x18]
             0x000118ba: 43 79:       bf (ru6)        r5, 0x3 <.label270>
             0x000118bc: c4 b0:       eq (2rus)       r0, r5, 0x0
             0x000118be: 00 b0:       eq (2rus)       r0, r0, 0x0
             0x000118c0: 02 73:       bu (u6)         0x2 <.label271>
.label270    0x000118c2: 09 68:       ldc (ru6)       r0, 0x9
             0x000118c4: 40 ca:       lsu (3r)        r0, r0, r4
.label271    0x000118c6: 93 5c:       ldw (ru6)       r2, sp[0x13]
             0x000118c8: 2b 78:       bf (ru6)        r0, 0x2b <.label272>
.label275    0x000118ca: c0 6a:       ldc (ru6)       r11, 0x0
             0x000118cc: 9d 54:       stw (ru6)       r2, sp[0x1d]
             0x000118ce: 8a 68:       ldc (ru6)       r2, 0xa
             0x000118d0: c0 90:       add (2rus)      r0, r4, 0x0
             0x000118d2: d4 90:       add (2rus)      r1, r5, 0x0
             0x000118d4: bc 91:       add (2rus)      r3, r11, 0x0
             0x000118d6: 2c 92:       add (2rus)      r10, r11, 0x0
             0x000118d8: 01 f0 ec d2: bl (lu10)       0x6ec <__udivdi3>
             0x000118dc: 1b 54:       stw (ru6)       r0, sp[0x1b]
             0x000118de: c0 90:       add (2rus)      r0, r4, 0x0
             0x000118e0: 5a 54:       stw (ru6)       r1, sp[0x1a]
             0x000118e2: d4 90:       add (2rus)      r1, r5, 0x0
             0x000118e4: b8 91:       add (2rus)      r3, r10, 0x0
             0x000118e6: 8a 68:       ldc (ru6)       r2, 0xa
             0x000118e8: 01 f0 24 d3: bl (lu10)       0x724 <__umoddi3>
             0x000118ec: 9d 5c:       ldw (ru6)       r2, sp[0x1d]
             0x000118ee: 70 68:       ldc (ru6)       r1, 0x30
             0x000118f0: 01 40:       or (3r)         r0, r0, r1
             0x000118f2: 8a fc ec 8f: st8 (l3r)       r0, r2[r10]
             0x000118f6: 4b 79:       bf (ru6)        r5, 0xb <.label273>
             0x000118f8: c4 b0:       eq (2rus)       r0, r5, 0x0
             0x000118fa: 00 b0:       eq (2rus)       r0, r0, 0x0
             0x000118fc: 0b 73:       bu (u6)         0xb <.label274>
.label265    0x000118fe: 70 91:       add (2rus)      r11, r4, 0x0
             0x00011900: 3c 47:       zext (rus)      r3, 0x8
             0x00011902: 3d 30:       eq (3r)         r3, r3, r1
             0x00011904: ea 70:       bt (ru6)        r3, 0x2a <.label266>
             0x00011906: 12 f8 ec 8f: st8 (l3r)       r1, r0[r2]
             0x0001190a: b0 90:       add (2rus)      r11, r0, 0x0
             0x0001190c: 26 73:       bu (u6)         0x26 <.label266>
.label273    0x0001190e: 01 f0 23 68: ldc (lru6)      r0, 0x63
             0x00011912: 40 ca:       lsu (3r)        r0, r0, r4
.label274    0x00011914: 5b 5c:       ldw (ru6)       r1, sp[0x1b]
             0x00011916: 44 90:       add (2rus)      r4, r1, 0x0
             0x00011918: 5a 5d:       ldw (ru6)       r5, sp[0x1a]
             0x0001191a: 29 98:       sub (2rus)      r2, r2, 0x1
             0x0001191c: 2a 74:       bt (ru6)        r0, -0x2a <.label275>
             0x0001191e: 44 90:       add (2rus)      r4, r1, 0x0
.label272    0x00011920: 40 68:       ldc (ru6)       r1, 0x0
             0x00011922: 30 68:       ldc (ru6)       r0, 0x30
             0x00011924: c0 10:       add (3r)        r0, r4, r0
             0x00011926: 09 f8 ec 8f: st8 (l3r)       r0, r2[r1]
             0x0001192a: 98 5e:       ldw (ru6)       r10, sp[0x18]
             0x0001192c: 15 73:       bu (u6)         0x15 <.label276>
.label269    0x0001192e: 98 56:       stw (ru6)       r10, sp[0x18]
             0x00011930: 01 f0 1d 60: ldaw (lru6)     r0, dp[0x5d]
             0x00011934: 1d 54:       stw (ru6)       r0, sp[0x1d]
             0x00011936: 01 f0 97 d5: bl (lu10)       -0x597 <strlen>
             0x0001193a: 30 90:       add (2rus)      r3, r0, 0x0
             0x0001193c: 12 73:       bu (u6)         0x12 <.label277>
.label262    0x0001193e: 6e 64:       ldaw (ru6)      r1, sp[0x2e]
             0x00011940: b4 90:       add (2rus)      r11, r1, 0x0
             0x00011942: 0b 70:       bt (ru6)        r0, 0xb <.label266>
             0x00011944: 6e 64:       ldaw (ru6)      r1, sp[0x2e]
             0x00011946: b4 90:       add (2rus)      r11, r1, 0x0
             0x00011948: 22 5c:       ldw (ru6)       r0, sp[0x22]
             0x0001194a: d1 46:       zext (rus)      r0, 0x1
             0x0001194c: 06 78:       bf (ru6)        r0, 0x6 <.label266>
             0x0001194e: 70 68:       ldc (ru6)       r1, 0x30
             0x00011950: 93 5c:       ldw (ru6)       r2, sp[0x13]
             0x00011952: 00 68:       ldc (ru6)       r0, 0x0
             0x00011954: 18 f8 ec 8f: st8 (l3r)       r1, r2[r0]
.label276    0x00011958: b8 90:       add (2rus)      r11, r2, 0x0
.label266    0x0001195a: 2e 64:       ldaw (ru6)      r0, sp[0x2e]
             0x0001195c: b3 1c:       sub (3r)        r3, r0, r11
             0x0001195e: dd 56:       stw (ru6)       r11, sp[0x1d]
             0x00011960: 98 56:       stw (ru6)       r10, sp[0x18]
.label277    0x00011962: c0 91:       add (2rus)      r4, r8, 0x0
.label142    0x00011964: a0 5c:       ldw (ru6)       r2, sp[0x20]
.label181    0x00011966: c0 90:       add (2rus)      r0, r4, 0x0
             0x00011968: 5c c2:       lss (3r)        r1, r3, r4
             0x0001196a: 1a 55:       stw (ru6)       r4, sp[0x1a]
             0x0001196c: a0 54:       stw (ru6)       r2, sp[0x20]
             0x0001196e: 41 70:       bt (ru6)        r1, 0x1 <.label278>
             0x00011970: 0c 90:       add (2rus)      r0, r3, 0x0
.label278    0x00011972: db 54:       stw (ru6)       r3, sp[0x1b]
             0x00011974: 01 f0 84 64: ldaw (lru6)     r2, sp[0x44]
             0x00011978: 40 68:       ldc (ru6)       r1, 0x0
             0x0001197a: 19 88:       ld8u (3r)       r1, r2[r1]
             0x0001197c: 14 b0:       eq (2rus)       r1, r1, 0x0
             0x0001197e: 14 b0:       eq (2rus)       r1, r1, 0x0
             0x00011980: 44 10:       add (3r)        r4, r1, r0
             0x00011982: 62 5c:       ldw (ru6)       r1, sp[0x22]
             0x00011984: 02 68:       ldc (ru6)       r0, 0x2
             0x00011986: dc 5c:       ldw (ru6)       r3, sp[0x1c]
             0x00011988: 84 38:       and (3r)        r8, r1, r0
             0x0001198a: 01 7a:       bf (ru6)        r8, 0x1 <.label279>
             0x0001198c: 02 91:       add (2rus)      r4, r4, 0x2
.label279    0x0001198e: 02 f0 04 68: ldc (lru6)      r0, 0x84
             0x00011992: 04 38:       and (3r)        r0, r1, r0
             0x00011994: 50 90:       add (2rus)      r5, r0, 0x0
             0x00011996: 01 f0 0e 70: bt (lru6)       r0, 0x4e <.label280>
             0x0001199a: 21 5c:       ldw (ru6)       r0, sp[0x21]
             0x0001199c: e0 1a:       sub (3r)        r10, r0, r4
             0x0001199e: 00 68:       ldc (ru6)       r0, 0x0
             0x000119a0: 82 c4:       lss (3r)        r0, r0, r10
             0x000119a2: 01 f0 08 78: bf (lru6)       r0, 0x48 <.label280>
.label283    0x000119a6: 50 68:       ldc (ru6)       r1, 0x10
             0x000119a8: 01 f0 24 60: ldaw (lru6)     r0, dp[0x64]
             0x000119ac: 0c 00:       stw (2rus)      r0, r3[0x0]
             0x000119ae: 86 c4:       lss (3r)        r0, r1, r10
             0x000119b0: 24 78:       bf (ru6)        r0, 0x24 <.label281>
             0x000119b2: 1d 00:       stw (2rus)      r1, r3[0x1]
             0x000119b4: 01 f0 00 5c: ldw (lru6)      r0, sp[0x40]
             0x000119b8: 40 fa ec 9f: ldaw (l2rus)    r0, r0[0x4]
             0x000119bc: 88 68:       ldc (ru6)       r2, 0x8
             0x000119be: 01 f0 00 54: stw (lru6)      r0, sp[0x40]
             0x000119c2: 7f 5c:       ldw (ru6)       r1, sp[0x3f]
             0x000119c4: 15 90:       add (2rus)      r1, r1, 0x1
             0x000119c6: 7f 54:       stw (ru6)       r1, sp[0x3f]
             0x000119c8: 16 c0:       lss (3r)        r1, r1, r2
             0x000119ca: 44 78:       bf (ru6)        r1, 0x4 <.label282>
             0x000119cc: 68 fc ec a7: ldaw (l2rus)    r10, r10[-0x4]
             0x000119d0: bc 94:       add (2rus)      r3, r3, 0x8
             0x000119d2: 17 77:       bu (u6)         -0x17 <.label283>
.label282    0x000119d4: 06 70:       bt (ru6)        r0, 0x6 <.label284>
             0x000119d6: 00 68:       ldc (ru6)       r0, 0x0
             0x000119d8: 3f 54:       stw (ru6)       r0, sp[0x3f]
.label285    0x000119da: ee 64:       ldaw (ru6)      r3, sp[0x2e]
             0x000119dc: 68 fc ec a7: ldaw (l2rus)    r10, r10[-0x4]
             0x000119e0: 1e 77:       bu (u6)         -0x1e <.label283>
.label284    0x000119e2: 1e 5c:       ldw (ru6)       r0, sp[0x1e]
             0x000119e4: 7e 64:       ldaw (ru6)      r1, sp[0x3e]
             0x000119e6: 02 f0 d5 d4: bl (lu10)       -0x8d5 <__sfvwrite>
             0x000119ea: 40 68:       ldc (ru6)       r1, 0x0
             0x000119ec: 01 f0 40 54: stw (lru6)      r1, sp[0x40]
             0x000119f0: 7f 54:       stw (ru6)       r1, sp[0x3f]
             0x000119f2: 0d 7c:       bf (ru6)        r0, -0xd <.label285>
             0x000119f4: 9e 5e:       ldw (ru6)       r10, sp[0x1e]
             0x000119f6: 12 f0 2c 73: bu (lu6)        0x4ac <.label146>
.label281    0x000119fa: ad 00:       stw (2rus)      r10, r3[0x1]
             0x000119fc: db a6:       mkmsk (rus)     r2, 0x3
             0x000119fe: 01 f0 00 5c: ldw (lru6)      r0, sp[0x40]
             0x00011a02: 82 14:       add (3r)        r0, r0, r10
             0x00011a04: 01 f0 00 54: stw (lru6)      r0, sp[0x40]
             0x00011a08: 7f 5c:       ldw (ru6)       r1, sp[0x3f]
             0x00011a0a: 15 90:       add (2rus)      r1, r1, 0x1
             0x00011a0c: 7f 54:       stw (ru6)       r1, sp[0x3f]
             0x00011a0e: 19 c0:       lss (3r)        r1, r2, r1
             0x00011a10: 42 70:       bt (ru6)        r1, 0x2 <.label286>
             0x00011a12: bc 94:       add (2rus)      r3, r3, 0x8
             0x00011a14: 10 73:       bu (u6)         0x10 <.label280>
.label286    0x00011a16: 03 70:       bt (ru6)        r0, 0x3 <.label287>
             0x00011a18: 00 68:       ldc (ru6)       r0, 0x0
             0x00011a1a: 3f 54:       stw (ru6)       r0, sp[0x3f]
             0x00011a1c: 0b 73:       bu (u6)         0xb <.label288>
.label287    0x00011a1e: 7e 64:       ldaw (ru6)      r1, sp[0x3e]
             0x00011a20: 9e 5e:       ldw (ru6)       r10, sp[0x1e]
             0x00011a22: 88 91:       add (2rus)      r0, r10, 0x0
             0x00011a24: 02 f0 f4 d4: bl (lu10)       -0x8f4 <__sfvwrite>
             0x00011a28: 40 68:       ldc (ru6)       r1, 0x0
             0x00011a2a: 01 f0 40 54: stw (lru6)      r1, sp[0x40]
             0x00011a2e: 7f 54:       stw (ru6)       r1, sp[0x3f]
             0x00011a30: 12 f0 0f 70: bt (lru6)       r0, 0x48f <.label146>
.label288    0x00011a34: ee 64:       ldaw (ru6)      r3, sp[0x2e]
.label280    0x00011a36: 00 68:       ldc (ru6)       r0, 0x0
             0x00011a38: 01 f0 44 64: ldaw (lru6)     r1, sp[0x44]
             0x00011a3c: 04 88:       ld8u (3r)       r0, r1[r0]
             0x00011a3e: 02 70:       bt (ru6)        r0, 0x2 <.label289>
             0x00011a40: 9e 5e:       ldw (ru6)       r10, sp[0x1e]
             0x00011a42: 20 73:       bu (u6)         0x20 <.label290>
.label289    0x00011a44: 1c 00:       stw (2rus)      r1, r3[0x0]
             0x00011a46: d1 a6:       mkmsk (rus)     r0, 0x1
             0x00011a48: 0d 00:       stw (2rus)      r0, r3[0x1]
             0x00011a4a: 01 f0 00 5c: ldw (lru6)      r0, sp[0x40]
             0x00011a4e: 01 90:       add (2rus)      r0, r0, 0x1
             0x00011a50: 01 f0 00 54: stw (lru6)      r0, sp[0x40]
             0x00011a54: 88 68:       ldc (ru6)       r2, 0x8
             0x00011a56: 7f 5c:       ldw (ru6)       r1, sp[0x3f]
             0x00011a58: 15 90:       add (2rus)      r1, r1, 0x1
             0x00011a5a: 7f 54:       stw (ru6)       r1, sp[0x3f]
             0x00011a5c: 9e 5e:       ldw (ru6)       r10, sp[0x1e]
             0x00011a5e: 16 c0:       lss (3r)        r1, r1, r2
             0x00011a60: 42 78:       bf (ru6)        r1, 0x2 <.label291>
             0x00011a62: bc 94:       add (2rus)      r3, r3, 0x8
             0x00011a64: 0f 73:       bu (u6)         0xf <.label290>
.label291    0x00011a66: 03 70:       bt (ru6)        r0, 0x3 <.label292>
             0x00011a68: 00 68:       ldc (ru6)       r0, 0x0
             0x00011a6a: 3f 54:       stw (ru6)       r0, sp[0x3f]
             0x00011a6c: 0a 73:       bu (u6)         0xa <.label293>
.label292    0x00011a6e: 7e 64:       ldaw (ru6)      r1, sp[0x3e]
             0x00011a70: 88 91:       add (2rus)      r0, r10, 0x0
             0x00011a72: 02 f0 1b d5: bl (lu10)       -0x91b <__sfvwrite>
             0x00011a76: 40 68:       ldc (ru6)       r1, 0x0
             0x00011a78: 01 f0 40 54: stw (lru6)      r1, sp[0x40]
             0x00011a7c: 7f 54:       stw (ru6)       r1, sp[0x3f]
             0x00011a7e: 11 f0 28 70: bt (lru6)       r0, 0x468 <.label146>
.label293    0x00011a82: ee 64:       ldaw (ru6)      r3, sp[0x2e]
.label290    0x00011a84: 20 7a:       bf (ru6)        r8, 0x20 <.label294>
             0x00011a86: 23 64:       ldaw (ru6)      r0, sp[0x23]
             0x00011a88: 0c 00:       stw (2rus)      r0, r3[0x0]
             0x00011a8a: 02 68:       ldc (ru6)       r0, 0x2
             0x00011a8c: 88 68:       ldc (ru6)       r2, 0x8
             0x00011a8e: 0d 00:       stw (2rus)      r0, r3[0x1]
             0x00011a90: 01 f0 00 5c: ldw (lru6)      r0, sp[0x40]
             0x00011a94: 02 90:       add (2rus)      r0, r0, 0x2
             0x00011a96: 01 f0 00 54: stw (lru6)      r0, sp[0x40]
             0x00011a9a: 7f 5c:       ldw (ru6)       r1, sp[0x3f]
             0x00011a9c: 15 90:       add (2rus)      r1, r1, 0x1
             0x00011a9e: 7f 54:       stw (ru6)       r1, sp[0x3f]
             0x00011aa0: 16 c0:       lss (3r)        r1, r1, r2
             0x00011aa2: 42 78:       bf (ru6)        r1, 0x2 <.label295>
             0x00011aa4: bc 94:       add (2rus)      r3, r3, 0x8
             0x00011aa6: 0f 73:       bu (u6)         0xf <.label294>
.label295    0x00011aa8: 03 70:       bt (ru6)        r0, 0x3 <.label296>
             0x00011aaa: 00 68:       ldc (ru6)       r0, 0x0
             0x00011aac: 3f 54:       stw (ru6)       r0, sp[0x3f]
             0x00011aae: 0a 73:       bu (u6)         0xa <.label297>
.label296    0x00011ab0: 7e 64:       ldaw (ru6)      r1, sp[0x3e]
             0x00011ab2: 88 91:       add (2rus)      r0, r10, 0x0
             0x00011ab4: 02 f0 3c d5: bl (lu10)       -0x93c <__sfvwrite>
             0x00011ab8: 40 68:       ldc (ru6)       r1, 0x0
             0x00011aba: 01 f0 40 54: stw (lru6)      r1, sp[0x40]
             0x00011abe: 7f 54:       stw (ru6)       r1, sp[0x3f]
             0x00011ac0: 11 f0 07 70: bt (lru6)       r0, 0x447 <.label146>
.label297    0x00011ac4: ee 64:       ldaw (ru6)      r3, sp[0x2e]
.label294    0x00011ac6: 02 f0 00 68: ldc (lru6)      r0, 0x80
             0x00011aca: c4 30:       eq (3r)         r0, r5, r0
             0x00011acc: 01 f0 0a 78: bf (lru6)       r0, 0x4a <.label298>
             0x00011ad0: 21 5c:       ldw (ru6)       r0, sp[0x21]
             0x00011ad2: c0 1a:       sub (3r)        r8, r0, r4
             0x00011ad4: 00 68:       ldc (ru6)       r0, 0x0
             0x00011ad6: 80 c4:       lss (3r)        r0, r0, r8
             0x00011ad8: 22 70:       bt (ru6)        r0, 0x22 <.label299>
             0x00011ada: 01 f0 03 73: bu (lu6)        0x43 <.label298>
.label304    0x00011ade: 1d 00:       stw (2rus)      r1, r3[0x1]
             0x00011ae0: 01 f0 00 5c: ldw (lru6)      r0, sp[0x40]
             0x00011ae4: 40 fa ec 9f: ldaw (l2rus)    r0, r0[0x4]
             0x00011ae8: 88 68:       ldc (ru6)       r2, 0x8
             0x00011aea: 01 f0 00 54: stw (lru6)      r0, sp[0x40]
             0x00011aee: 7f 5c:       ldw (ru6)       r1, sp[0x3f]
             0x00011af0: 15 90:       add (2rus)      r1, r1, 0x1
             0x00011af2: 7f 54:       stw (ru6)       r1, sp[0x3f]
             0x00011af4: 16 c0:       lss (3r)        r1, r1, r2
             0x00011af6: 42 78:       bf (ru6)        r1, 0x2 <.label300>
             0x00011af8: bc 94:       add (2rus)      r3, r3, 0x8
             0x00011afa: 0f 73:       bu (u6)         0xf <.label301>
.label300    0x00011afc: 03 70:       bt (ru6)        r0, 0x3 <.label302>
             0x00011afe: 00 68:       ldc (ru6)       r0, 0x0
             0x00011b00: 3f 54:       stw (ru6)       r0, sp[0x3f]
             0x00011b02: 0a 73:       bu (u6)         0xa <.label303>
.label302    0x00011b04: 7e 64:       ldaw (ru6)      r1, sp[0x3e]
             0x00011b06: 88 91:       add (2rus)      r0, r10, 0x0
             0x00011b08: 02 f0 66 d5: bl (lu10)       -0x966 <__sfvwrite>
             0x00011b0c: 40 68:       ldc (ru6)       r1, 0x0
             0x00011b0e: 01 f0 40 54: stw (lru6)      r1, sp[0x40]
             0x00011b12: 7f 54:       stw (ru6)       r1, sp[0x3f]
             0x00011b14: 10 f0 1d 70: bt (lru6)       r0, 0x41d <.label146>
.label303    0x00011b18: ee 64:       ldaw (ru6)      r3, sp[0x2e]
.label301    0x00011b1a: 40 fc ec a7: ldaw (l2rus)    r8, r8[-0x4]
.label299    0x00011b1e: 50 68:       ldc (ru6)       r1, 0x10
             0x00011b20: 01 f0 28 60: ldaw (lru6)     r0, dp[0x68]
             0x00011b24: 0c 00:       stw (2rus)      r0, r3[0x0]
             0x00011b26: 84 c4:       lss (3r)        r0, r1, r8
             0x00011b28: 26 74:       bt (ru6)        r0, -0x26 <.label304>
             0x00011b2a: 8d 00:       stw (2rus)      r8, r3[0x1]
             0x00011b2c: 88 68:       ldc (ru6)       r2, 0x8
             0x00011b2e: 01 f0 00 5c: ldw (lru6)      r0, sp[0x40]
             0x00011b32: 80 14:       add (3r)        r0, r0, r8
             0x00011b34: 01 f0 00 54: stw (lru6)      r0, sp[0x40]
             0x00011b38: 7f 5c:       ldw (ru6)       r1, sp[0x3f]
             0x00011b3a: 15 90:       add (2rus)      r1, r1, 0x1
             0x00011b3c: 7f 54:       stw (ru6)       r1, sp[0x3f]
             0x00011b3e: 16 c0:       lss (3r)        r1, r1, r2
             0x00011b40: 42 78:       bf (ru6)        r1, 0x2 <.label305>
             0x00011b42: bc 94:       add (2rus)      r3, r3, 0x8
             0x00011b44: 0f 73:       bu (u6)         0xf <.label298>
.label305    0x00011b46: 03 70:       bt (ru6)        r0, 0x3 <.label306>
             0x00011b48: 00 68:       ldc (ru6)       r0, 0x0
             0x00011b4a: 3f 54:       stw (ru6)       r0, sp[0x3f]
             0x00011b4c: 0a 73:       bu (u6)         0xa <.label307>
.label306    0x00011b4e: 7e 64:       ldaw (ru6)      r1, sp[0x3e]
             0x00011b50: 88 91:       add (2rus)      r0, r10, 0x0
             0x00011b52: 02 f0 8b d5: bl (lu10)       -0x98b <__sfvwrite>
             0x00011b56: 40 68:       ldc (ru6)       r1, 0x0
             0x00011b58: 01 f0 40 54: stw (lru6)      r1, sp[0x40]
             0x00011b5c: 7f 54:       stw (ru6)       r1, sp[0x3f]
             0x00011b5e: 0f f0 38 70: bt (lru6)       r0, 0x3f8 <.label146>
.label307    0x00011b62: ee 64:       ldaw (ru6)      r3, sp[0x2e]
.label298    0x00011b64: 1c 55:       stw (ru6)       r4, sp[0x1c]
             0x00011b66: 1a 5c:       ldw (ru6)       r0, sp[0x1a]
             0x00011b68: 5b 5c:       ldw (ru6)       r1, sp[0x1b]
             0x00011b6a: 41 18:       sub (3r)        r4, r0, r1
             0x00011b6c: 00 68:       ldc (ru6)       r0, 0x0
             0x00011b6e: 40 c2:       lss (3r)        r0, r0, r4
             0x00011b70: 22 70:       bt (ru6)        r0, 0x22 <.label308>
             0x00011b72: 01 f0 03 73: bu (lu6)        0x43 <.label309>
.label314    0x00011b76: 1d 00:       stw (2rus)      r1, r3[0x1]
             0x00011b78: 01 f0 00 5c: ldw (lru6)      r0, sp[0x40]
             0x00011b7c: 40 fa ec 9f: ldaw (l2rus)    r0, r0[0x4]
             0x00011b80: 88 68:       ldc (ru6)       r2, 0x8
             0x00011b82: 01 f0 00 54: stw (lru6)      r0, sp[0x40]
             0x00011b86: 7f 5c:       ldw (ru6)       r1, sp[0x3f]
             0x00011b88: 15 90:       add (2rus)      r1, r1, 0x1
             0x00011b8a: 7f 54:       stw (ru6)       r1, sp[0x3f]
             0x00011b8c: 16 c0:       lss (3r)        r1, r1, r2
             0x00011b8e: 42 78:       bf (ru6)        r1, 0x2 <.label310>
             0x00011b90: bc 94:       add (2rus)      r3, r3, 0x8
             0x00011b92: 0f 73:       bu (u6)         0xf <.label311>
.label310    0x00011b94: 03 70:       bt (ru6)        r0, 0x3 <.label312>
             0x00011b96: 00 68:       ldc (ru6)       r0, 0x0
             0x00011b98: 3f 54:       stw (ru6)       r0, sp[0x3f]
             0x00011b9a: 0a 73:       bu (u6)         0xa <.label313>
.label312    0x00011b9c: 7e 64:       ldaw (ru6)      r1, sp[0x3e]
             0x00011b9e: 88 91:       add (2rus)      r0, r10, 0x0
             0x00011ba0: 02 f0 b2 d5: bl (lu10)       -0x9b2 <__sfvwrite>
             0x00011ba4: 40 68:       ldc (ru6)       r1, 0x0
             0x00011ba6: 01 f0 40 54: stw (lru6)      r1, sp[0x40]
             0x00011baa: 7f 54:       stw (ru6)       r1, sp[0x3f]
             0x00011bac: 0f f0 11 70: bt (lru6)       r0, 0x3d1 <.label146>
.label313    0x00011bb0: ee 64:       ldaw (ru6)      r3, sp[0x2e]
.label311    0x00011bb2: 40 fb ec a7: ldaw (l2rus)    r4, r4[-0x4]
.label308    0x00011bb6: 50 68:       ldc (ru6)       r1, 0x10
             0x00011bb8: 01 f0 28 60: ldaw (lru6)     r0, dp[0x68]
             0x00011bbc: 0c 00:       stw (2rus)      r0, r3[0x0]
             0x00011bbe: 44 c2:       lss (3r)        r0, r1, r4
             0x00011bc0: 26 74:       bt (ru6)        r0, -0x26 <.label314>
             0x00011bc2: 4d 00:       stw (2rus)      r4, r3[0x1]
             0x00011bc4: 88 68:       ldc (ru6)       r2, 0x8
             0x00011bc6: 01 f0 00 5c: ldw (lru6)      r0, sp[0x40]
             0x00011bca: 40 12:       add (3r)        r0, r0, r4
             0x00011bcc: 01 f0 00 54: stw (lru6)      r0, sp[0x40]
             0x00011bd0: 7f 5c:       ldw (ru6)       r1, sp[0x3f]
             0x00011bd2: 15 90:       add (2rus)      r1, r1, 0x1
             0x00011bd4: 7f 54:       stw (ru6)       r1, sp[0x3f]
             0x00011bd6: 16 c0:       lss (3r)        r1, r1, r2
             0x00011bd8: 42 78:       bf (ru6)        r1, 0x2 <.label315>
             0x00011bda: bc 94:       add (2rus)      r3, r3, 0x8
             0x00011bdc: 0f 73:       bu (u6)         0xf <.label309>
.label315    0x00011bde: 03 70:       bt (ru6)        r0, 0x3 <.label316>
             0x00011be0: 00 68:       ldc (ru6)       r0, 0x0
             0x00011be2: 3f 54:       stw (ru6)       r0, sp[0x3f]
             0x00011be4: 0a 73:       bu (u6)         0xa <.label317>
.label316    0x00011be6: 7e 64:       ldaw (ru6)      r1, sp[0x3e]
             0x00011be8: 88 91:       add (2rus)      r0, r10, 0x0
             0x00011bea: 02 f0 d7 d5: bl (lu10)       -0x9d7 <__sfvwrite>
             0x00011bee: 40 68:       ldc (ru6)       r1, 0x0
             0x00011bf0: 01 f0 40 54: stw (lru6)      r1, sp[0x40]
             0x00011bf4: 7f 54:       stw (ru6)       r1, sp[0x3f]
             0x00011bf6: 0e f0 2c 70: bt (lru6)       r0, 0x3ac <.label146>
.label317    0x00011bfa: ee 64:       ldaw (ru6)      r3, sp[0x2e]
.label309    0x00011bfc: 04 f0 00 68: ldc (lru6)      r0, 0x100
             0x00011c00: 62 5c:       ldw (ru6)       r1, sp[0x22]
             0x00011c02: 04 38:       and (3r)        r0, r1, r0
             0x00011c04: 1b 70:       bt (ru6)        r0, 0x1b <.label318>
             0x00011c06: 1d 5c:       ldw (ru6)       r0, sp[0x1d]
             0x00011c08: 0c 00:       stw (2rus)      r0, r3[0x0]
             0x00011c0a: 5b 5d:       ldw (ru6)       r5, sp[0x1b]
             0x00011c0c: 5d 00:       stw (2rus)      r5, r3[0x1]
             0x00011c0e: 40 6a:       ldc (ru6)       r9, 0x0
             0x00011c10: 88 68:       ldc (ru6)       r2, 0x8
             0x00011c12: 01 f0 00 5c: ldw (lru6)      r0, sp[0x40]
             0x00011c16: 51 12:       add (3r)        r1, r0, r5
             0x00011c18: 01 f0 40 54: stw (lru6)      r1, sp[0x40]
             0x00011c1c: 3f 5c:       ldw (ru6)       r0, sp[0x3f]
             0x00011c1e: 01 90:       add (2rus)      r0, r0, 0x1
             0x00011c20: 3f 54:       stw (ru6)       r0, sp[0x3f]
             0x00011c22: 02 c0:       lss (3r)        r0, r0, r2
             0x00011c24: 04 78:       bf (ru6)        r0, 0x4 <.label319>
             0x00011c26: 8c 94:       add (2rus)      r0, r3, 0x8
             0x00011c28: 50 69:       ldc (ru6)       r5, 0x10
             0x00011c2a: 0c f0 19 73: bu (lu6)        0x319 <.label320>
.label319    0x00011c2e: 50 69:       ldc (ru6)       r5, 0x10
             0x00011c30: 0c f0 4b 70: bt (lru6)       r1, 0x30b <.label321>
.label341    0x00011c34: 40 68:       ldc (ru6)       r1, 0x0
             0x00011c36: 7f 54:       stw (ru6)       r1, sp[0x3f]
             0x00011c38: 0c f0 11 73: bu (lu6)        0x311 <.label322>
.label318    0x00011c3c: 50 69:       ldc (ru6)       r5, 0x10
             0x00011c3e: 01 f0 26 68: ldc (lru6)      r0, 0x66
             0x00011c42: 84 c1:       lss (3r)        r0, r9, r0
             0x00011c44: 08 f0 1f 70: bt (lru6)       r0, 0x21f <.label323>
             0x00011c48: 4c 90:       add (2rus)      r4, r3, 0x0
             0x00011c4a: 17 5c:       ldw (ru6)       r0, sp[0x17]
             0x00011c4c: 40 6a:       ldc (ru6)       r9, 0x0
             0x00011c4e: 56 5c:       ldw (ru6)       r1, sp[0x16]
             0x00011c50: b4 91:       add (2rus)      r3, r9, 0x0
             0x00011c52: a4 91:       add (2rus)      r2, r9, 0x0
             0x00011c54: 01 f0 04 d0: bl (lu10)       0x404 <__nedf2>
             0x00011c58: 02 f0 06 70: bt (lru6)       r0, 0x86 <.label324>
             0x00011c5c: 01 f0 2c 60: ldaw (lru6)     r0, dp[0x6c]
             0x00011c60: c0 00:       stw (2rus)      r0, r4[0x0]
             0x00011c62: 88 68:       ldc (ru6)       r2, 0x8
             0x00011c64: d1 a6:       mkmsk (rus)     r0, 0x1
             0x00011c66: c1 00:       stw (2rus)      r0, r4[0x1]
             0x00011c68: 01 f0 00 5c: ldw (lru6)      r0, sp[0x40]
             0x00011c6c: 11 90:       add (2rus)      r1, r0, 0x1
             0x00011c6e: 01 f0 40 54: stw (lru6)      r1, sp[0x40]
             0x00011c72: 3f 5c:       ldw (ru6)       r0, sp[0x3f]
             0x00011c74: 01 90:       add (2rus)      r0, r0, 0x1
             0x00011c76: 3f 54:       stw (ru6)       r0, sp[0x3f]
             0x00011c78: 02 c0:       lss (3r)        r0, r0, r2
             0x00011c7a: 02 78:       bf (ru6)        r0, 0x2 <.label325>
             0x00011c7c: 40 95:       add (2rus)      r0, r4, 0x8
             0x00011c7e: 0f 73:       bu (u6)         0xf <.label326>
.label325    0x00011c80: 43 70:       bt (ru6)        r1, 0x3 <.label327>
             0x00011c82: 40 68:       ldc (ru6)       r1, 0x0
             0x00011c84: 7f 54:       stw (ru6)       r1, sp[0x3f]
             0x00011c86: 0a 73:       bu (u6)         0xa <.label328>
.label327    0x00011c88: 7e 64:       ldaw (ru6)      r1, sp[0x3e]
             0x00011c8a: 88 91:       add (2rus)      r0, r10, 0x0
             0x00011c8c: 02 f0 28 d6: bl (lu10)       -0xa28 <__sfvwrite>
             0x00011c90: 40 68:       ldc (ru6)       r1, 0x0
             0x00011c92: 01 f0 40 54: stw (lru6)      r1, sp[0x40]
             0x00011c96: 7f 54:       stw (ru6)       r1, sp[0x3f]
             0x00011c98: 0d f0 1b 70: bt (lru6)       r0, 0x35b <.label146>
.label328    0x00011c9c: 2e 64:       ldaw (ru6)      r0, sp[0x2e]
.label326    0x00011c9e: 01 f0 83 5c: ldw (lru6)      r2, sp[0x43]
             0x00011ca2: d9 5c:       ldw (ru6)       r3, sp[0x19]
             0x00011ca4: 2b c0:       lss (3r)        r2, r2, r3
             0x00011ca6: 84 70:       bt (ru6)        r2, 0x4 <.label329>
             0x00011ca8: a2 5c:       ldw (ru6)       r2, sp[0x22]
             0x00011caa: d9 46:       zext (rus)      r2, 0x1
             0x00011cac: 0b f0 98 78: bf (lru6)       r2, 0x2d8 <.label320>
.label329    0x00011cb0: 55 5c:       ldw (ru6)       r1, sp[0x15]
             0x00011cb2: 10 00:       stw (2rus)      r1, r0[0x0]
             0x00011cb4: d5 a6:       mkmsk (rus)     r1, 0x1
             0x00011cb6: 11 00:       stw (2rus)      r1, r0[0x1]
             0x00011cb8: 01 f0 40 5c: ldw (lru6)      r1, sp[0x40]
             0x00011cbc: 15 90:       add (2rus)      r1, r1, 0x1
             0x00011cbe: 01 f0 40 54: stw (lru6)      r1, sp[0x40]
             0x00011cc2: c8 68:       ldc (ru6)       r3, 0x8
             0x00011cc4: bf 5c:       ldw (ru6)       r2, sp[0x3f]
             0x00011cc6: 29 90:       add (2rus)      r2, r2, 0x1
             0x00011cc8: bf 54:       stw (ru6)       r2, sp[0x3f]
             0x00011cca: 2b c0:       lss (3r)        r2, r2, r3
             0x00011ccc: 82 78:       bf (ru6)        r2, 0x2 <.label330>
             0x00011cce: 80 94:       add (2rus)      r0, r0, 0x8
             0x00011cd0: 0f 73:       bu (u6)         0xf <.label331>
.label330    0x00011cd2: 43 70:       bt (ru6)        r1, 0x3 <.label332>
             0x00011cd4: 40 68:       ldc (ru6)       r1, 0x0
             0x00011cd6: 7f 54:       stw (ru6)       r1, sp[0x3f]
             0x00011cd8: 0a 73:       bu (u6)         0xa <.label333>
.label332    0x00011cda: 7e 64:       ldaw (ru6)      r1, sp[0x3e]
             0x00011cdc: 88 91:       add (2rus)      r0, r10, 0x0
             0x00011cde: 02 f0 51 d6: bl (lu10)       -0xa51 <__sfvwrite>
             0x00011ce2: 40 68:       ldc (ru6)       r1, 0x0
             0x00011ce4: 01 f0 40 54: stw (lru6)      r1, sp[0x40]
             0x00011ce8: 7f 54:       stw (ru6)       r1, sp[0x3f]
             0x00011cea: 0c f0 32 70: bt (lru6)       r0, 0x332 <.label146>
.label333    0x00011cee: 2e 64:       ldaw (ru6)      r0, sp[0x2e]
.label331    0x00011cf0: 99 5c:       ldw (ru6)       r2, sp[0x19]
             0x00011cf2: 49 98:       sub (2rus)      r4, r2, 0x1
             0x00011cf4: e4 c3:       lss (3r)        r2, r9, r4
             0x00011cf6: a0 70:       bt (ru6)        r2, 0x20 <.label334>
             0x00011cf8: 0a f0 32 73: bu (lu6)        0x2b2 <.label320>
.label339    0x00011cfc: c8 68:       ldc (ru6)       r3, 0x8
             0x00011cfe: 51 00:       stw (2rus)      r5, r0[0x1]
             0x00011d00: 01 f0 40 5c: ldw (lru6)      r1, sp[0x40]
             0x00011d04: 54 fa ec 9f: ldaw (l2rus)    r1, r1[0x4]
             0x00011d08: 01 f0 40 54: stw (lru6)      r1, sp[0x40]
             0x00011d0c: bf 5c:       ldw (ru6)       r2, sp[0x3f]
             0x00011d0e: 29 90:       add (2rus)      r2, r2, 0x1
             0x00011d10: bf 54:       stw (ru6)       r2, sp[0x3f]
             0x00011d12: 2b c0:       lss (3r)        r2, r2, r3
             0x00011d14: 82 78:       bf (ru6)        r2, 0x2 <.label335>
             0x00011d16: 80 94:       add (2rus)      r0, r0, 0x8
             0x00011d18: 0d 73:       bu (u6)         0xd <.label336>
.label335    0x00011d1a: 42 70:       bt (ru6)        r1, 0x2 <.label337>
             0x00011d1c: 7f 56:       stw (ru6)       r9, sp[0x3f]
             0x00011d1e: 09 73:       bu (u6)         0x9 <.label338>
.label337    0x00011d20: 7e 64:       ldaw (ru6)      r1, sp[0x3e]
             0x00011d22: 88 91:       add (2rus)      r0, r10, 0x0
             0x00011d24: 02 f0 74 d6: bl (lu10)       -0xa74 <__sfvwrite>
             0x00011d28: 01 f0 40 56: stw (lru6)      r9, sp[0x40]
             0x00011d2c: 7f 56:       stw (ru6)       r9, sp[0x3f]
             0x00011d2e: 0c f0 10 70: bt (lru6)       r0, 0x310 <.label146>
.label338    0x00011d32: 2e 64:       ldaw (ru6)      r0, sp[0x2e]
.label336    0x00011d34: 40 fb ec a7: ldaw (l2rus)    r4, r4[-0x4]
.label334    0x00011d38: 01 f0 68 60: ldaw (lru6)     r1, dp[0x68]
             0x00011d3c: 10 00:       stw (2rus)      r1, r0[0x0]
             0x00011d3e: 14 c3:       lss (3r)        r1, r5, r4
             0x00011d40: 63 74:       bt (ru6)        r1, -0x23 <.label339>
             0x00011d42: 41 00:       stw (2rus)      r4, r0[0x1]
             0x00011d44: c8 68:       ldc (ru6)       r3, 0x8
             0x00011d46: 01 f0 40 5c: ldw (lru6)      r1, sp[0x40]
             0x00011d4a: 54 12:       add (3r)        r1, r1, r4
             0x00011d4c: 01 f0 40 54: stw (lru6)      r1, sp[0x40]
             0x00011d50: bf 5c:       ldw (ru6)       r2, sp[0x3f]
             0x00011d52: 29 90:       add (2rus)      r2, r2, 0x1
             0x00011d54: bf 54:       stw (ru6)       r2, sp[0x3f]
             0x00011d56: 2b c0:       lss (3r)        r2, r2, r3
             0x00011d58: 83 78:       bf (ru6)        r2, 0x3 <.label340>
             0x00011d5a: 80 94:       add (2rus)      r0, r0, 0x8
             0x00011d5c: 0a f0 00 73: bu (lu6)        0x280 <.label320>
.label340    0x00011d60: 02 f0 58 7c: bf (lru6)       r1, -0x98 <.label341>
             0x00011d64: 09 f0 31 73: bu (lu6)        0x271 <.label321>
.label324    0x00011d68: 70 91:       add (2rus)      r11, r4, 0x0
             0x00011d6a: 01 f0 03 5c: ldw (lru6)      r0, sp[0x43]
             0x00011d6e: 94 c1:       lss (3r)        r1, r9, r0
             0x00011d70: 02 f0 64 70: bt (lru6)       r1, 0xa4 <.label342>
             0x00011d74: 01 f0 2c 60: ldaw (lru6)     r0, dp[0x6c]
             0x00011d78: 8c 01:       stw (2rus)      r0, r11[0x0]
             0x00011d7a: 88 68:       ldc (ru6)       r2, 0x8
             0x00011d7c: d1 a6:       mkmsk (rus)     r0, 0x1
             0x00011d7e: 8d 01:       stw (2rus)      r0, r11[0x1]
             0x00011d80: 01 f0 00 5c: ldw (lru6)      r0, sp[0x40]
             0x00011d84: 11 90:       add (2rus)      r1, r0, 0x1
             0x00011d86: 01 f0 40 54: stw (lru6)      r1, sp[0x40]
             0x00011d8a: 3f 5c:       ldw (ru6)       r0, sp[0x3f]
             0x00011d8c: 01 90:       add (2rus)      r0, r0, 0x1
             0x00011d8e: 3f 54:       stw (ru6)       r0, sp[0x3f]
             0x00011d90: 02 c0:       lss (3r)        r0, r0, r2
             0x00011d92: 02 78:       bf (ru6)        r0, 0x2 <.label343>
             0x00011d94: 0c 96:       add (2rus)      r0, r11, 0x8
             0x00011d96: 0f 73:       bu (u6)         0xf <.label344>
.label343    0x00011d98: 43 70:       bt (ru6)        r1, 0x3 <.label345>
             0x00011d9a: 40 68:       ldc (ru6)       r1, 0x0
             0x00011d9c: 7f 54:       stw (ru6)       r1, sp[0x3f]
             0x00011d9e: 0a 73:       bu (u6)         0xa <.label346>
.label345    0x00011da0: 7e 64:       ldaw (ru6)      r1, sp[0x3e]
             0x00011da2: 88 91:       add (2rus)      r0, r10, 0x0
             0x00011da4: 02 f0 b4 d6: bl (lu10)       -0xab4 <__sfvwrite>
             0x00011da8: 40 68:       ldc (ru6)       r1, 0x0
             0x00011daa: 01 f0 40 54: stw (lru6)      r1, sp[0x40]
             0x00011dae: 7f 54:       stw (ru6)       r1, sp[0x3f]
             0x00011db0: 0b f0 0f 70: bt (lru6)       r0, 0x2cf <.label146>
.label346    0x00011db4: 2e 64:       ldaw (ru6)      r0, sp[0x2e]
.label344    0x00011db6: 01 f0 83 5c: ldw (lru6)      r2, sp[0x43]
             0x00011dba: d9 5c:       ldw (ru6)       r3, sp[0x19]
             0x00011dbc: 2b 40:       or (3r)         r2, r2, r3
             0x00011dbe: 84 70:       bt (ru6)        r2, 0x4 <.label347>
             0x00011dc0: a2 5c:       ldw (ru6)       r2, sp[0x22]
             0x00011dc2: d9 46:       zext (rus)      r2, 0x1
             0x00011dc4: 09 f0 8c 78: bf (lru6)       r2, 0x24c <.label320>
.label347    0x00011dc8: 55 5c:       ldw (ru6)       r1, sp[0x15]
             0x00011dca: 10 00:       stw (2rus)      r1, r0[0x0]
             0x00011dcc: d5 a6:       mkmsk (rus)     r1, 0x1
             0x00011dce: 11 00:       stw (2rus)      r1, r0[0x1]
             0x00011dd0: 01 f0 40 5c: ldw (lru6)      r1, sp[0x40]
             0x00011dd4: 15 90:       add (2rus)      r1, r1, 0x1
             0x00011dd6: 01 f0 40 54: stw (lru6)      r1, sp[0x40]
             0x00011dda: c8 68:       ldc (ru6)       r3, 0x8
             0x00011ddc: bf 5c:       ldw (ru6)       r2, sp[0x3f]
             0x00011dde: 29 90:       add (2rus)      r2, r2, 0x1
             0x00011de0: bf 54:       stw (ru6)       r2, sp[0x3f]
             0x00011de2: 2b c0:       lss (3r)        r2, r2, r3
             0x00011de4: 82 78:       bf (ru6)        r2, 0x2 <.label348>
             0x00011de6: 80 94:       add (2rus)      r0, r0, 0x8
             0x00011de8: 0d 73:       bu (u6)         0xd <.label349>
.label348    0x00011dea: 42 70:       bt (ru6)        r1, 0x2 <.label350>
             0x00011dec: 7f 56:       stw (ru6)       r9, sp[0x3f]
             0x00011dee: 09 73:       bu (u6)         0x9 <.label351>
.label350    0x00011df0: 7e 64:       ldaw (ru6)      r1, sp[0x3e]
             0x00011df2: 88 91:       add (2rus)      r0, r10, 0x0
             0x00011df4: 02 f0 dc d6: bl (lu10)       -0xadc <__sfvwrite>
             0x00011df8: 01 f0 40 56: stw (lru6)      r9, sp[0x40]
             0x00011dfc: 7f 56:       stw (ru6)       r9, sp[0x3f]
             0x00011dfe: 0a f0 28 70: bt (lru6)       r0, 0x2a8 <.label146>
.label351    0x00011e02: 2e 64:       ldaw (ru6)      r0, sp[0x2e]
.label349    0x00011e04: 01 f0 43 5c: ldw (lru6)      r1, sp[0x43]
             0x00011e08: 24 f8 ec 97: ashr (l2rus)    r2, r1, 0x20
             0x00011e0c: 01 f0 80 78: bf (lru6)       r2, 0x40 <.label352>
             0x00011e10: 01 97:       neg (2r)        r4, r1
             0x00011e12: 1e 73:       bu (u6)         0x1e <.label353>
.label358    0x00011e14: c8 68:       ldc (ru6)       r3, 0x8
             0x00011e16: 51 00:       stw (2rus)      r5, r0[0x1]
             0x00011e18: 01 f0 40 5c: ldw (lru6)      r1, sp[0x40]
             0x00011e1c: 54 fa ec 9f: ldaw (l2rus)    r1, r1[0x4]
             0x00011e20: 01 f0 40 54: stw (lru6)      r1, sp[0x40]
             0x00011e24: bf 5c:       ldw (ru6)       r2, sp[0x3f]
             0x00011e26: 29 90:       add (2rus)      r2, r2, 0x1
             0x00011e28: bf 54:       stw (ru6)       r2, sp[0x3f]
             0x00011e2a: 2b c0:       lss (3r)        r2, r2, r3
             0x00011e2c: 82 78:       bf (ru6)        r2, 0x2 <.label354>
             0x00011e2e: 80 94:       add (2rus)      r0, r0, 0x8
             0x00011e30: 0d 73:       bu (u6)         0xd <.label355>
.label354    0x00011e32: 42 70:       bt (ru6)        r1, 0x2 <.label356>
             0x00011e34: 7f 56:       stw (ru6)       r9, sp[0x3f]
             0x00011e36: 09 73:       bu (u6)         0x9 <.label357>
.label356    0x00011e38: 7e 64:       ldaw (ru6)      r1, sp[0x3e]
             0x00011e3a: 88 91:       add (2rus)      r0, r10, 0x0
             0x00011e3c: 02 f0 00 d7: bl (lu10)       -0xb00 <__sfvwrite>
             0x00011e40: 01 f0 40 56: stw (lru6)      r9, sp[0x40]
             0x00011e44: 7f 56:       stw (ru6)       r9, sp[0x3f]
             0x00011e46: 0a f0 04 70: bt (lru6)       r0, 0x284 <.label146>
.label357    0x00011e4a: 2e 64:       ldaw (ru6)      r0, sp[0x2e]
.label355    0x00011e4c: 40 fb ec a7: ldaw (l2rus)    r4, r4[-0x4]
.label353    0x00011e50: 01 f0 68 60: ldaw (lru6)     r1, dp[0x68]
             0x00011e54: 10 00:       stw (2rus)      r1, r0[0x0]
             0x00011e56: 14 c3:       lss (3r)        r1, r5, r4
             0x00011e58: 63 74:       bt (ru6)        r1, -0x23 <.label358>
             0x00011e5a: 41 00:       stw (2rus)      r4, r0[0x1]
             0x00011e5c: c8 68:       ldc (ru6)       r3, 0x8
             0x00011e5e: 01 f0 40 5c: ldw (lru6)      r1, sp[0x40]
             0x00011e62: 54 12:       add (3r)        r1, r1, r4
             0x00011e64: 01 f0 40 54: stw (lru6)      r1, sp[0x40]
             0x00011e68: bf 5c:       ldw (ru6)       r2, sp[0x3f]
             0x00011e6a: 29 90:       add (2rus)      r2, r2, 0x1
             0x00011e6c: bf 54:       stw (ru6)       r2, sp[0x3f]
             0x00011e6e: 2b c0:       lss (3r)        r2, r2, r3
             0x00011e70: 82 78:       bf (ru6)        r2, 0x2 <.label359>
             0x00011e72: 80 94:       add (2rus)      r0, r0, 0x8
             0x00011e74: 0d 73:       bu (u6)         0xd <.label352>
.label359    0x00011e76: 42 70:       bt (ru6)        r1, 0x2 <.label360>
             0x00011e78: 7f 56:       stw (ru6)       r9, sp[0x3f]
             0x00011e7a: 09 73:       bu (u6)         0x9 <.label361>
.label360    0x00011e7c: 7e 64:       ldaw (ru6)      r1, sp[0x3e]
             0x00011e7e: 88 91:       add (2rus)      r0, r10, 0x0
             0x00011e80: 02 f0 22 d7: bl (lu10)       -0xb22 <__sfvwrite>
             0x00011e84: 01 f0 40 56: stw (lru6)      r9, sp[0x40]
             0x00011e88: 7f 56:       stw (ru6)       r9, sp[0x3f]
             0x00011e8a: 09 f0 22 70: bt (lru6)       r0, 0x262 <.label146>
.label361    0x00011e8e: 2e 64:       ldaw (ru6)      r0, sp[0x2e]
.label352    0x00011e90: 5d 5c:       ldw (ru6)       r1, sp[0x1d]
             0x00011e92: 10 00:       stw (2rus)      r1, r0[0x0]
             0x00011e94: 99 5c:       ldw (ru6)       r2, sp[0x19]
             0x00011e96: 21 00:       stw (2rus)      r2, r0[0x1]
             0x00011e98: 01 f0 40 5c: ldw (lru6)      r1, sp[0x40]
             0x00011e9c: 16 10:       add (3r)        r1, r1, r2
             0x00011e9e: 01 f0 40 54: stw (lru6)      r1, sp[0x40]
             0x00011ea2: c8 68:       ldc (ru6)       r3, 0x8
             0x00011ea4: bf 5c:       ldw (ru6)       r2, sp[0x3f]
             0x00011ea6: 29 90:       add (2rus)      r2, r2, 0x1
             0x00011ea8: bf 54:       stw (ru6)       r2, sp[0x3f]
             0x00011eaa: 2b c0:       lss (3r)        r2, r2, r3
             0x00011eac: 83 78:       bf (ru6)        r2, 0x3 <.label362>
             0x00011eae: 80 94:       add (2rus)      r0, r0, 0x8
             0x00011eb0: 07 f0 16 73: bu (lu6)        0x1d6 <.label320>
.label362    0x00011eb4: 05 f0 42 7c: bf (lru6)       r1, -0x142 <.label341>
             0x00011eb8: 07 f0 07 73: bu (lu6)        0x1c7 <.label321>
.label342    0x00011ebc: 5d 5c:       ldw (ru6)       r1, sp[0x1d]
             0x00011ebe: 9c 01:       stw (2rus)      r1, r11[0x0]
             0x00011ec0: 99 5c:       ldw (ru6)       r2, sp[0x19]
             0x00011ec2: 02 c0:       lss (3r)        r0, r0, r2
             0x00011ec4: 02 f0 00 70: bt (lru6)       r0, 0x80 <.label363>
             0x00011ec8: ad 01:       stw (2rus)      r2, r11[0x1]
             0x00011eca: 01 f0 00 5c: ldw (lru6)      r0, sp[0x40]
             0x00011ece: 99 54:       stw (ru6)       r2, sp[0x19]
             0x00011ed0: 12 10:       add (3r)        r1, r0, r2
             0x00011ed2: 01 f0 40 54: stw (lru6)      r1, sp[0x40]
             0x00011ed6: 88 68:       ldc (ru6)       r2, 0x8
             0x00011ed8: 3f 5c:       ldw (ru6)       r0, sp[0x3f]
             0x00011eda: 01 90:       add (2rus)      r0, r0, 0x1
             0x00011edc: 3f 54:       stw (ru6)       r0, sp[0x3f]
             0x00011ede: 02 c0:       lss (3r)        r0, r0, r2
             0x00011ee0: 02 78:       bf (ru6)        r0, 0x2 <.label364>
             0x00011ee2: 0c 96:       add (2rus)      r0, r11, 0x8
             0x00011ee4: 0f 73:       bu (u6)         0xf <.label365>
.label364    0x00011ee6: 43 70:       bt (ru6)        r1, 0x3 <.label366>
             0x00011ee8: 40 68:       ldc (ru6)       r1, 0x0
             0x00011eea: 7f 54:       stw (ru6)       r1, sp[0x3f]
             0x00011eec: 0a 73:       bu (u6)         0xa <.label367>
.label366    0x00011eee: 7e 64:       ldaw (ru6)      r1, sp[0x3e]
             0x00011ef0: 88 91:       add (2rus)      r0, r10, 0x0
             0x00011ef2: 02 f0 5b d7: bl (lu10)       -0xb5b <__sfvwrite>
             0x00011ef6: 40 68:       ldc (ru6)       r1, 0x0
             0x00011ef8: 01 f0 40 54: stw (lru6)      r1, sp[0x40]
             0x00011efc: 7f 54:       stw (ru6)       r1, sp[0x3f]
             0x00011efe: 08 f0 28 70: bt (lru6)       r0, 0x228 <.label146>
.label367    0x00011f02: 2e 64:       ldaw (ru6)      r0, sp[0x2e]
.label365    0x00011f04: 01 f0 83 5c: ldw (lru6)      r2, sp[0x43]
             0x00011f08: d9 5c:       ldw (ru6)       r3, sp[0x19]
             0x00011f0a: 4b 18:       sub (3r)        r4, r2, r3
             0x00011f0c: e4 c3:       lss (3r)        r2, r9, r4
             0x00011f0e: a0 70:       bt (ru6)        r2, 0x20 <.label368>
             0x00011f10: 01 f0 00 73: bu (lu6)        0x40 <.label369>
.label374    0x00011f14: c8 68:       ldc (ru6)       r3, 0x8
             0x00011f16: 51 00:       stw (2rus)      r5, r0[0x1]
             0x00011f18: 01 f0 40 5c: ldw (lru6)      r1, sp[0x40]
             0x00011f1c: 54 fa ec 9f: ldaw (l2rus)    r1, r1[0x4]
             0x00011f20: 01 f0 40 54: stw (lru6)      r1, sp[0x40]
             0x00011f24: bf 5c:       ldw (ru6)       r2, sp[0x3f]
             0x00011f26: 29 90:       add (2rus)      r2, r2, 0x1
             0x00011f28: bf 54:       stw (ru6)       r2, sp[0x3f]
             0x00011f2a: 2b c0:       lss (3r)        r2, r2, r3
             0x00011f2c: 82 78:       bf (ru6)        r2, 0x2 <.label370>
             0x00011f2e: 80 94:       add (2rus)      r0, r0, 0x8
             0x00011f30: 0d 73:       bu (u6)         0xd <.label371>
.label370    0x00011f32: 42 70:       bt (ru6)        r1, 0x2 <.label372>
             0x00011f34: 7f 56:       stw (ru6)       r9, sp[0x3f]
             0x00011f36: 09 73:       bu (u6)         0x9 <.label373>
.label372    0x00011f38: 7e 64:       ldaw (ru6)      r1, sp[0x3e]
             0x00011f3a: 88 91:       add (2rus)      r0, r10, 0x0
             0x00011f3c: 02 f0 80 d7: bl (lu10)       -0xb80 <__sfvwrite>
             0x00011f40: 01 f0 40 56: stw (lru6)      r9, sp[0x40]
             0x00011f44: 7f 56:       stw (ru6)       r9, sp[0x3f]
             0x00011f46: 08 f0 04 70: bt (lru6)       r0, 0x204 <.label146>
.label373    0x00011f4a: 2e 64:       ldaw (ru6)      r0, sp[0x2e]
.label371    0x00011f4c: 40 fb ec a7: ldaw (l2rus)    r4, r4[-0x4]
.label368    0x00011f50: 01 f0 68 60: ldaw (lru6)     r1, dp[0x68]
             0x00011f54: 10 00:       stw (2rus)      r1, r0[0x0]
             0x00011f56: 14 c3:       lss (3r)        r1, r5, r4
             0x00011f58: 63 74:       bt (ru6)        r1, -0x23 <.label374>
             0x00011f5a: 41 00:       stw (2rus)      r4, r0[0x1]
             0x00011f5c: c8 68:       ldc (ru6)       r3, 0x8
             0x00011f5e: 01 f0 40 5c: ldw (lru6)      r1, sp[0x40]
             0x00011f62: 54 12:       add (3r)        r1, r1, r4
             0x00011f64: 01 f0 40 54: stw (lru6)      r1, sp[0x40]
             0x00011f68: bf 5c:       ldw (ru6)       r2, sp[0x3f]
             0x00011f6a: 29 90:       add (2rus)      r2, r2, 0x1
             0x00011f6c: bf 54:       stw (ru6)       r2, sp[0x3f]
             0x00011f6e: 2b c0:       lss (3r)        r2, r2, r3
             0x00011f70: 82 78:       bf (ru6)        r2, 0x2 <.label375>
             0x00011f72: 80 94:       add (2rus)      r0, r0, 0x8
             0x00011f74: 0f 73:       bu (u6)         0xf <.label369>
.label375    0x00011f76: 43 70:       bt (ru6)        r1, 0x3 <.label376>
             0x00011f78: 40 68:       ldc (ru6)       r1, 0x0
             0x00011f7a: 7f 54:       stw (ru6)       r1, sp[0x3f]
             0x00011f7c: 0a 73:       bu (u6)         0xa <.label377>
.label376    0x00011f7e: 7e 64:       ldaw (ru6)      r1, sp[0x3e]
             0x00011f80: 88 91:       add (2rus)      r0, r10, 0x0
             0x00011f82: 02 f0 a3 d7: bl (lu10)       -0xba3 <__sfvwrite>
             0x00011f86: 40 68:       ldc (ru6)       r1, 0x0
             0x00011f88: 01 f0 40 54: stw (lru6)      r1, sp[0x40]
             0x00011f8c: 7f 54:       stw (ru6)       r1, sp[0x3f]
             0x00011f8e: 07 f0 20 70: bt (lru6)       r0, 0x1e0 <.label146>
.label377    0x00011f92: 2e 64:       ldaw (ru6)      r0, sp[0x2e]
.label369    0x00011f94: a2 5c:       ldw (ru6)       r2, sp[0x22]
             0x00011f96: d9 46:       zext (rus)      r2, 0x1
             0x00011f98: 05 f0 a2 78: bf (lru6)       r2, 0x162 <.label320>
             0x00011f9c: 55 5c:       ldw (ru6)       r1, sp[0x15]
             0x00011f9e: 10 00:       stw (2rus)      r1, r0[0x0]
             0x00011fa0: d5 a6:       mkmsk (rus)     r1, 0x1
             0x00011fa2: 11 00:       stw (2rus)      r1, r0[0x1]
             0x00011fa4: 01 f0 40 5c: ldw (lru6)      r1, sp[0x40]
             0x00011fa8: 15 90:       add (2rus)      r1, r1, 0x1
             0x00011faa: 01 f0 40 54: stw (lru6)      r1, sp[0x40]
             0x00011fae: c8 68:       ldc (ru6)       r3, 0x8
             0x00011fb0: bf 5c:       ldw (ru6)       r2, sp[0x3f]
             0x00011fb2: 29 90:       add (2rus)      r2, r2, 0x1
             0x00011fb4: bf 54:       stw (ru6)       r2, sp[0x3f]
             0x00011fb6: 2b c0:       lss (3r)        r2, r2, r3
             0x00011fb8: 83 78:       bf (ru6)        r2, 0x3 <.label378>
             0x00011fba: 80 94:       add (2rus)      r0, r0, 0x8
             0x00011fbc: 05 f0 10 73: bu (lu6)        0x150 <.label320>
.label378    0x00011fc0: 07 f0 48 7c: bf (lru6)       r1, -0x1c8 <.label341>
             0x00011fc4: 05 f0 01 73: bu (lu6)        0x141 <.label321>
.label363    0x00011fc8: 01 f0 03 5c: ldw (lru6)      r0, sp[0x43]
             0x00011fcc: 88 90:       add (2rus)      r8, r2, 0x0
             0x00011fce: 8d 01:       stw (2rus)      r0, r11[0x1]
             0x00011fd0: 01 f0 40 5c: ldw (lru6)      r1, sp[0x40]
             0x00011fd4: 01 f0 03 5c: ldw (lru6)      r0, sp[0x43]
             0x00011fd8: 11 10:       add (3r)        r1, r0, r1
             0x00011fda: 01 f0 40 54: stw (lru6)      r1, sp[0x40]
             0x00011fde: c8 68:       ldc (ru6)       r3, 0x8
             0x00011fe0: bf 5c:       ldw (ru6)       r2, sp[0x3f]
             0x00011fe2: 29 90:       add (2rus)      r2, r2, 0x1
             0x00011fe4: bf 54:       stw (ru6)       r2, sp[0x3f]
             0x00011fe6: 2b c0:       lss (3r)        r2, r2, r3
             0x00011fe8: 82 78:       bf (ru6)        r2, 0x2 <.label379>
             0x00011fea: 1c 96:       add (2rus)      r1, r11, 0x8
             0x00011fec: 0f 73:       bu (u6)         0xf <.label380>
.label379    0x00011fee: 42 70:       bt (ru6)        r1, 0x2 <.label381>
             0x00011ff0: 7f 56:       stw (ru6)       r9, sp[0x3f]
             0x00011ff2: 0b 73:       bu (u6)         0xb <.label382>
.label381    0x00011ff4: 7e 64:       ldaw (ru6)      r1, sp[0x3e]
             0x00011ff6: 88 91:       add (2rus)      r0, r10, 0x0
             0x00011ff8: 02 f0 de d7: bl (lu10)       -0xbde <__sfvwrite>
             0x00011ffc: 01 f0 40 56: stw (lru6)      r9, sp[0x40]
             0x00012000: 7f 56:       stw (ru6)       r9, sp[0x3f]
             0x00012002: 06 f0 26 70: bt (lru6)       r0, 0x1a6 <.label146>
             0x00012006: 01 f0 03 5c: ldw (lru6)      r0, sp[0x43]
.label382    0x0001200a: 6e 64:       ldaw (ru6)      r1, sp[0x2e]
.label380    0x0001200c: 95 5c:       ldw (ru6)       r2, sp[0x15]
             0x0001200e: 24 00:       stw (2rus)      r2, r1[0x0]
             0x00012010: d9 a6:       mkmsk (rus)     r2, 0x1
             0x00012012: 25 00:       stw (2rus)      r2, r1[0x1]
             0x00012014: 01 f0 80 5c: ldw (lru6)      r2, sp[0x40]
             0x00012018: 29 90:       add (2rus)      r2, r2, 0x1
             0x0001201a: 01 f0 80 54: stw (lru6)      r2, sp[0x40]
             0x0001201e: dd 5c:       ldw (ru6)       r3, sp[0x1d]
             0x00012020: 4c 10:       add (3r)        r4, r3, r0
             0x00012022: c8 68:       ldc (ru6)       r3, 0x8
             0x00012024: 3f 5c:       ldw (ru6)       r0, sp[0x3f]
             0x00012026: 01 90:       add (2rus)      r0, r0, 0x1
             0x00012028: 3f 54:       stw (ru6)       r0, sp[0x3f]
             0x0001202a: 03 c0:       lss (3r)        r0, r0, r3
             0x0001202c: 02 78:       bf (ru6)        r0, 0x2 <.label383>
             0x0001202e: 84 94:       add (2rus)      r0, r1, 0x8
             0x00012030: 0d 73:       bu (u6)         0xd <.label384>
.label383    0x00012032: 82 70:       bt (ru6)        r2, 0x2 <.label385>
             0x00012034: 7f 56:       stw (ru6)       r9, sp[0x3f]
             0x00012036: 09 73:       bu (u6)         0x9 <.label386>
.label385    0x00012038: 7e 64:       ldaw (ru6)      r1, sp[0x3e]
             0x0001203a: 88 91:       add (2rus)      r0, r10, 0x0
             0x0001203c: 03 f0 00 d4: bl (lu10)       -0xc00 <__sfvwrite>
             0x00012040: 01 f0 40 56: stw (lru6)      r9, sp[0x40]
             0x00012044: 7f 56:       stw (ru6)       r9, sp[0x3f]
             0x00012046: 06 f0 04 70: bt (lru6)       r0, 0x184 <.label146>
.label386    0x0001204a: 2e 64:       ldaw (ru6)      r0, sp[0x2e]
.label384    0x0001204c: 40 00:       stw (2rus)      r4, r0[0x0]
             0x0001204e: 01 f0 43 5c: ldw (lru6)      r1, sp[0x43]
             0x00012052: 91 19:       sub (3r)        r1, r8, r1
             0x00012054: 08 69:       ldc (ru6)       r4, 0x8
             0x00012056: 19 56:       stw (ru6)       r8, sp[0x19]
             0x00012058: 11 00:       stw (2rus)      r1, r0[0x1]
             0x0001205a: 01 f0 40 5c: ldw (lru6)      r1, sp[0x40]
             0x0001205e: 01 f0 c3 5c: ldw (lru6)      r3, sp[0x43]
             0x00012062: a4 14:       add (3r)        r2, r1, r8
             0x00012064: 1b 18:       sub (3r)        r1, r2, r3
             0x00012066: 01 f0 40 54: stw (lru6)      r1, sp[0x40]
             0x0001206a: ff 5e:       ldw (ru6)       r11, sp[0x3f]
             0x0001206c: 3d 92:       add (2rus)      r11, r11, 0x1
             0x0001206e: ff 56:       stw (ru6)       r11, sp[0x3f]
             0x00012070: 7c c4:       lss (3r)        r11, r11, r4
             0x00012072: c3 7a:       bf (ru6)        r11, 0x3 <.label387>
             0x00012074: 80 94:       add (2rus)      r0, r0, 0x8
             0x00012076: 03 f0 33 73: bu (lu6)        0xf3 <.label320>
.label387    0x0001207a: 0b 30:       eq (3r)         r0, r2, r3
             0x0001207c: 03 f0 25 78: bf (lru6)       r0, 0xe5 <.label321>
             0x00012080: 7f 56:       stw (ru6)       r9, sp[0x3f]
             0x00012082: 03 f0 2c 73: bu (lu6)        0xec <.label322>
.label323    0x00012086: d1 a6:       mkmsk (rus)     r0, 0x1
             0x00012088: 59 5c:       ldw (ru6)       r1, sp[0x19]
             0x0001208a: 01 c0:       lss (3r)        r0, r0, r1
             0x0001208c: 5d 5c:       ldw (ru6)       r1, sp[0x1d]
             0x0001208e: 04 70:       bt (ru6)        r0, 0x4 <.label388>
             0x00012090: 22 5c:       ldw (ru6)       r0, sp[0x22]
             0x00012092: d1 46:       zext (rus)      r0, 0x1
             0x00012094: 02 f0 21 78: bf (lru6)       r0, 0xa1 <.label389>
.label388    0x00012098: 1c 00:       stw (2rus)      r1, r3[0x0]
             0x0001209a: d1 a6:       mkmsk (rus)     r0, 0x1
             0x0001209c: 0d 00:       stw (2rus)      r0, r3[0x1]
             0x0001209e: 01 f0 00 5c: ldw (lru6)      r0, sp[0x40]
             0x000120a2: 01 90:       add (2rus)      r0, r0, 0x1
             0x000120a4: 01 f0 00 54: stw (lru6)      r0, sp[0x40]
             0x000120a8: 88 68:       ldc (ru6)       r2, 0x8
             0x000120aa: 7f 5c:       ldw (ru6)       r1, sp[0x3f]
             0x000120ac: 15 90:       add (2rus)      r1, r1, 0x1
             0x000120ae: 7f 54:       stw (ru6)       r1, sp[0x3f]
             0x000120b0: 16 c0:       lss (3r)        r1, r1, r2
             0x000120b2: 43 78:       bf (ru6)        r1, 0x3 <.label390>
             0x000120b4: 40 6a:       ldc (ru6)       r9, 0x0
             0x000120b6: 8c 94:       add (2rus)      r0, r3, 0x8
             0x000120b8: 0e 73:       bu (u6)         0xe <.label391>
.label390    0x000120ba: 40 6a:       ldc (ru6)       r9, 0x0
             0x000120bc: 02 70:       bt (ru6)        r0, 0x2 <.label392>
             0x000120be: 7f 56:       stw (ru6)       r9, sp[0x3f]
             0x000120c0: 09 73:       bu (u6)         0x9 <.label393>
.label392    0x000120c2: 7e 64:       ldaw (ru6)      r1, sp[0x3e]
             0x000120c4: 88 91:       add (2rus)      r0, r10, 0x0
             0x000120c6: 03 f0 45 d4: bl (lu10)       -0xc45 <__sfvwrite>
             0x000120ca: 01 f0 40 56: stw (lru6)      r9, sp[0x40]
             0x000120ce: 7f 56:       stw (ru6)       r9, sp[0x3f]
             0x000120d0: 04 f0 3f 70: bt (lru6)       r0, 0x13f <.label146>
.label393    0x000120d4: 2e 64:       ldaw (ru6)      r0, sp[0x2e]
.label391    0x000120d6: 55 5c:       ldw (ru6)       r1, sp[0x15]
             0x000120d8: 10 00:       stw (2rus)      r1, r0[0x0]
             0x000120da: c8 68:       ldc (ru6)       r3, 0x8
             0x000120dc: d5 a6:       mkmsk (rus)     r1, 0x1
             0x000120de: 11 00:       stw (2rus)      r1, r0[0x1]
             0x000120e0: 01 f0 40 5c: ldw (lru6)      r1, sp[0x40]
             0x000120e4: 15 90:       add (2rus)      r1, r1, 0x1
             0x000120e6: 01 f0 40 54: stw (lru6)      r1, sp[0x40]
             0x000120ea: bf 5c:       ldw (ru6)       r2, sp[0x3f]
             0x000120ec: 29 90:       add (2rus)      r2, r2, 0x1
             0x000120ee: bf 54:       stw (ru6)       r2, sp[0x3f]
             0x000120f0: 2b c0:       lss (3r)        r2, r2, r3
             0x000120f2: 82 78:       bf (ru6)        r2, 0x2 <.label394>
             0x000120f4: c0 94:       add (2rus)      r4, r0, 0x8
             0x000120f6: 0d 73:       bu (u6)         0xd <.label395>
.label394    0x000120f8: 42 70:       bt (ru6)        r1, 0x2 <.label396>
             0x000120fa: 7f 56:       stw (ru6)       r9, sp[0x3f]
             0x000120fc: 09 73:       bu (u6)         0x9 <.label397>
.label396    0x000120fe: 7e 64:       ldaw (ru6)      r1, sp[0x3e]
             0x00012100: 88 91:       add (2rus)      r0, r10, 0x0
             0x00012102: 03 f0 63 d4: bl (lu10)       -0xc63 <__sfvwrite>
             0x00012106: 01 f0 40 56: stw (lru6)      r9, sp[0x40]
             0x0001210a: 7f 56:       stw (ru6)       r9, sp[0x3f]
             0x0001210c: 04 f0 21 70: bt (lru6)       r0, 0x121 <.label146>
.label397    0x00012110: 2e 65:       ldaw (ru6)      r4, sp[0x2e]
.label395    0x00012112: 17 5c:       ldw (ru6)       r0, sp[0x17]
             0x00012114: b4 91:       add (2rus)      r3, r9, 0x0
             0x00012116: 17 54:       stw (ru6)       r0, sp[0x17]
             0x00012118: a4 91:       add (2rus)      r2, r9, 0x0
             0x0001211a: 56 5c:       ldw (ru6)       r1, sp[0x16]
             0x0001211c: 00 f0 3e d1: bl (lu10)       0x13e <__eqdf2>
             0x00012120: 19 78:       bf (ru6)        r0, 0x19 <.label398>
             0x00012122: 1d 5c:       ldw (ru6)       r0, sp[0x1d]
             0x00012124: 01 90:       add (2rus)      r0, r0, 0x1
             0x00012126: c0 00:       stw (2rus)      r0, r4[0x0]
             0x00012128: 44 91:       add (2rus)      r8, r5, 0x0
             0x0001212a: 19 5c:       ldw (ru6)       r0, sp[0x19]
             0x0001212c: 01 98:       sub (2rus)      r0, r0, 0x1
             0x0001212e: c1 00:       stw (2rus)      r0, r4[0x1]
             0x00012130: 88 68:       ldc (ru6)       r2, 0x8
             0x00012132: 01 f0 40 5c: ldw (lru6)      r1, sp[0x40]
             0x00012136: 04 10:       add (3r)        r0, r1, r0
             0x00012138: 01 f0 00 54: stw (lru6)      r0, sp[0x40]
             0x0001213c: 7f 5c:       ldw (ru6)       r1, sp[0x3f]
             0x0001213e: 15 90:       add (2rus)      r1, r1, 0x1
             0x00012140: 7f 54:       stw (ru6)       r1, sp[0x3f]
             0x00012142: 16 c0:       lss (3r)        r1, r1, r2
             0x00012144: 43 78:       bf (ru6)        r1, 0x3 <.label399>
             0x00012146: 80 95:       add (2rus)      r4, r4, 0x8
             0x00012148: 01 f0 29 73: bu (lu6)        0x69 <.label400>
.label399    0x0001214c: 3c 70:       bt (ru6)        r0, 0x3c <.label401>
.label410    0x0001214e: 7f 56:       stw (ru6)       r9, sp[0x3f]
             0x00012150: 01 f0 24 73: bu (lu6)        0x64 <.label402>
.label398    0x00012154: 19 5c:       ldw (ru6)       r0, sp[0x19]
             0x00012156: 44 91:       add (2rus)      r8, r5, 0x0
             0x00012158: 51 98:       sub (2rus)      r5, r0, 0x1
             0x0001215a: c5 c3:       lss (3r)        r0, r9, r5
             0x0001215c: 20 70:       bt (ru6)        r0, 0x20 <.label403>
             0x0001215e: 01 f0 1e 73: bu (lu6)        0x5e <.label400>
.label408    0x00012162: 41 01:       stw (2rus)      r8, r4[0x1]
             0x00012164: 01 f0 00 5c: ldw (lru6)      r0, sp[0x40]
             0x00012168: 40 fa ec 9f: ldaw (l2rus)    r0, r0[0x4]
             0x0001216c: 88 68:       ldc (ru6)       r2, 0x8
             0x0001216e: 01 f0 00 54: stw (lru6)      r0, sp[0x40]
             0x00012172: 7f 5c:       ldw (ru6)       r1, sp[0x3f]
             0x00012174: 15 90:       add (2rus)      r1, r1, 0x1
             0x00012176: 7f 54:       stw (ru6)       r1, sp[0x3f]
             0x00012178: 16 c0:       lss (3r)        r1, r1, r2
             0x0001217a: 42 78:       bf (ru6)        r1, 0x2 <.label404>
             0x0001217c: 80 95:       add (2rus)      r4, r4, 0x8
             0x0001217e: 0d 73:       bu (u6)         0xd <.label405>
.label404    0x00012180: 02 70:       bt (ru6)        r0, 0x2 <.label406>
             0x00012182: 7f 56:       stw (ru6)       r9, sp[0x3f]
             0x00012184: 09 73:       bu (u6)         0x9 <.label407>
.label406    0x00012186: 7e 64:       ldaw (ru6)      r1, sp[0x3e]
             0x00012188: 88 91:       add (2rus)      r0, r10, 0x0
             0x0001218a: 03 f0 a7 d4: bl (lu10)       -0xca7 <__sfvwrite>
             0x0001218e: 01 f0 40 56: stw (lru6)      r9, sp[0x40]
             0x00012192: 7f 56:       stw (ru6)       r9, sp[0x3f]
             0x00012194: 03 f0 1d 70: bt (lru6)       r0, 0xdd <.label146>
.label407    0x00012198: 2e 65:       ldaw (ru6)      r4, sp[0x2e]
.label405    0x0001219a: 54 fb ec a7: ldaw (l2rus)    r5, r5[-0x4]
.label403    0x0001219e: 01 f0 28 60: ldaw (lru6)     r0, dp[0x68]
             0x000121a2: c0 00:       stw (2rus)      r0, r4[0x0]
             0x000121a4: c1 c3:       lss (3r)        r0, r8, r5
             0x000121a6: 23 74:       bt (ru6)        r0, -0x23 <.label408>
             0x000121a8: 11 01:       stw (2rus)      r5, r4[0x1]
             0x000121aa: 01 f0 00 5c: ldw (lru6)      r0, sp[0x40]
             0x000121ae: 41 12:       add (3r)        r0, r0, r5
             0x000121b0: 88 68:       ldc (ru6)       r2, 0x8
             0x000121b2: 01 f0 00 54: stw (lru6)      r0, sp[0x40]
             0x000121b6: 7f 5c:       ldw (ru6)       r1, sp[0x3f]
             0x000121b8: 15 90:       add (2rus)      r1, r1, 0x1
             0x000121ba: 7f 54:       stw (ru6)       r1, sp[0x3f]
             0x000121bc: 16 c0:       lss (3r)        r1, r1, r2
             0x000121be: 42 78:       bf (ru6)        r1, 0x2 <.label409>
             0x000121c0: 80 95:       add (2rus)      r4, r4, 0x8
             0x000121c2: 2d 73:       bu (u6)         0x2d <.label400>
.label409    0x000121c4: 3c 7c:       bf (ru6)        r0, -0x3c <.label410>
.label401    0x000121c6: 7e 64:       ldaw (ru6)      r1, sp[0x3e]
             0x000121c8: 88 91:       add (2rus)      r0, r10, 0x0
             0x000121ca: 03 f0 c7 d4: bl (lu10)       -0xcc7 <__sfvwrite>
             0x000121ce: 01 f0 40 56: stw (lru6)      r9, sp[0x40]
             0x000121d2: 7f 56:       stw (ru6)       r9, sp[0x3f]
             0x000121d4: 23 78:       bf (ru6)        r0, 0x23 <.label402>
             0x000121d6: 02 f0 3c 73: bu (lu6)        0xbc <.label146>
.label389    0x000121da: 1c 00:       stw (2rus)      r1, r3[0x0]
             0x000121dc: d1 a6:       mkmsk (rus)     r0, 0x1
             0x000121de: 0d 00:       stw (2rus)      r0, r3[0x1]
             0x000121e0: 01 f0 00 5c: ldw (lru6)      r0, sp[0x40]
             0x000121e4: 01 90:       add (2rus)      r0, r0, 0x1
             0x000121e6: 01 f0 00 54: stw (lru6)      r0, sp[0x40]
             0x000121ea: 88 68:       ldc (ru6)       r2, 0x8
             0x000121ec: 7f 5c:       ldw (ru6)       r1, sp[0x3f]
             0x000121ee: 15 90:       add (2rus)      r1, r1, 0x1
             0x000121f0: 7f 54:       stw (ru6)       r1, sp[0x3f]
             0x000121f2: 16 c0:       lss (3r)        r1, r1, r2
             0x000121f4: 44 78:       bf (ru6)        r1, 0x4 <.label411>
             0x000121f6: 40 6a:       ldc (ru6)       r9, 0x0
             0x000121f8: cc 94:       add (2rus)      r4, r3, 0x8
             0x000121fa: 44 91:       add (2rus)      r8, r5, 0x0
             0x000121fc: 10 73:       bu (u6)         0x10 <.label400>
.label411    0x000121fe: 40 6a:       ldc (ru6)       r9, 0x0
             0x00012200: 03 70:       bt (ru6)        r0, 0x3 <.label412>
             0x00012202: 44 91:       add (2rus)      r8, r5, 0x0
             0x00012204: 7f 56:       stw (ru6)       r9, sp[0x3f]
             0x00012206: 0a 73:       bu (u6)         0xa <.label402>
.label412    0x00012208: 7e 64:       ldaw (ru6)      r1, sp[0x3e]
             0x0001220a: 88 91:       add (2rus)      r0, r10, 0x0
             0x0001220c: 03 f0 e8 d4: bl (lu10)       -0xce8 <__sfvwrite>
             0x00012210: 01 f0 40 56: stw (lru6)      r9, sp[0x40]
             0x00012214: 7f 56:       stw (ru6)       r9, sp[0x3f]
             0x00012216: 02 f0 1c 70: bt (lru6)       r0, 0x9c <.label146>
             0x0001221a: 44 91:       add (2rus)      r8, r5, 0x0
.label402    0x0001221c: 2e 65:       ldaw (ru6)      r4, sp[0x2e]
.label400    0x0001221e: 88 68:       ldc (ru6)       r2, 0x8
             0x00012220: 01 f0 01 64: ldaw (lru6)     r0, sp[0x41]
             0x00012224: c0 00:       stw (2rus)      r0, r4[0x0]
             0x00012226: 52 5c:       ldw (ru6)       r1, sp[0x12]
             0x00012228: d1 00:       stw (2rus)      r1, r4[0x1]
             0x0001222a: 01 f0 00 5c: ldw (lru6)      r0, sp[0x40]
             0x0001222e: 11 10:       add (3r)        r1, r0, r1
             0x00012230: 01 f0 40 54: stw (lru6)      r1, sp[0x40]
             0x00012234: 3f 5c:       ldw (ru6)       r0, sp[0x3f]
             0x00012236: 01 90:       add (2rus)      r0, r0, 0x1
             0x00012238: 3f 54:       stw (ru6)       r0, sp[0x3f]
             0x0001223a: 02 c0:       lss (3r)        r0, r0, r2
             0x0001223c: 03 78:       bf (ru6)        r0, 0x3 <.label413>
             0x0001223e: 40 95:       add (2rus)      r0, r4, 0x8
             0x00012240: d0 91:       add (2rus)      r5, r8, 0x0
             0x00012242: 0e 73:       bu (u6)         0xe <.label320>
.label413    0x00012244: d0 91:       add (2rus)      r5, r8, 0x0
             0x00012246: 0c f0 4b 7c: bf (lru6)       r1, -0x30b <.label341>
.label321    0x0001224a: 7e 64:       ldaw (ru6)      r1, sp[0x3e]
             0x0001224c: 88 91:       add (2rus)      r0, r10, 0x0
             0x0001224e: 03 f0 09 d5: bl (lu10)       -0xd09 <__sfvwrite>
             0x00012252: 40 68:       ldc (ru6)       r1, 0x0
             0x00012254: 01 f0 40 54: stw (lru6)      r1, sp[0x40]
             0x00012258: 7f 54:       stw (ru6)       r1, sp[0x3f]
             0x0001225a: 01 f0 3a 70: bt (lru6)       r0, 0x7a <.label146>
.label322    0x0001225e: 2e 64:       ldaw (ru6)      r0, sp[0x2e]
.label320    0x00012260: 84 68:       ldc (ru6)       r2, 0x4
             0x00012262: e2 5c:       ldw (ru6)       r3, sp[0x22]
             0x00012264: 2e 38:       and (3r)        r2, r3, r2
             0x00012266: 85 78:       bf (ru6)        r2, 0x5 <.label414>
             0x00012268: a1 5c:       ldw (ru6)       r2, sp[0x21]
             0x0001226a: dc 5c:       ldw (ru6)       r3, sp[0x1c]
             0x0001226c: 4b 18:       sub (3r)        r4, r2, r3
             0x0001226e: e4 c3:       lss (3r)        r2, r9, r4
             0x00012270: ac 70:       bt (ru6)        r2, 0x2c <.label415>
.label414    0x00012272: a1 5c:       ldw (ru6)       r2, sp[0x21]
             0x00012274: dc 5c:       ldw (ru6)       r3, sp[0x1c]
             0x00012276: 0e c0:       lss (3r)        r0, r3, r2
             0x00012278: 01 70:       bt (ru6)        r0, 0x1 <.label416>
             0x0001227a: 2c 90:       add (2rus)      r2, r3, 0x0
.label416    0x0001227c: 1f 5c:       ldw (ru6)       r0, sp[0x1f]
             0x0001227e: 08 10:       add (3r)        r0, r2, r0
             0x00012280: 1f 54:       stw (ru6)       r0, sp[0x1f]
             0x00012282: 01 f0 4b 70: bt (lru6)       r1, 0x4b <.label417>
             0x00012286: a0 5c:       ldw (ru6)       r2, sp[0x20]
             0x00012288: 7f 56:       stw (ru6)       r9, sp[0x3f]
             0x0001228a: 27 f0 13 77: bu (lu6)        -0x9d3 <.label418>
.label423    0x0001228e: 51 00:       stw (2rus)      r5, r0[0x1]
             0x00012290: 01 f0 40 5c: ldw (lru6)      r1, sp[0x40]
             0x00012294: 54 fa ec 9f: ldaw (l2rus)    r1, r1[0x4]
             0x00012298: c8 68:       ldc (ru6)       r3, 0x8
             0x0001229a: 01 f0 40 54: stw (lru6)      r1, sp[0x40]
             0x0001229e: bf 5c:       ldw (ru6)       r2, sp[0x3f]
             0x000122a0: 29 90:       add (2rus)      r2, r2, 0x1
             0x000122a2: bf 54:       stw (ru6)       r2, sp[0x3f]
             0x000122a4: 2b c0:       lss (3r)        r2, r2, r3
             0x000122a6: 82 78:       bf (ru6)        r2, 0x2 <.label419>
             0x000122a8: 80 94:       add (2rus)      r0, r0, 0x8
             0x000122aa: 0d 73:       bu (u6)         0xd <.label420>
.label419    0x000122ac: 42 70:       bt (ru6)        r1, 0x2 <.label421>
             0x000122ae: 7f 56:       stw (ru6)       r9, sp[0x3f]
             0x000122b0: 09 73:       bu (u6)         0x9 <.label422>
.label421    0x000122b2: 7e 64:       ldaw (ru6)      r1, sp[0x3e]
             0x000122b4: 88 91:       add (2rus)      r0, r10, 0x0
             0x000122b6: 03 f0 3d d5: bl (lu10)       -0xd3d <__sfvwrite>
             0x000122ba: 01 f0 40 56: stw (lru6)      r9, sp[0x40]
             0x000122be: 7f 56:       stw (ru6)       r9, sp[0x3f]
             0x000122c0: 01 f0 07 70: bt (lru6)       r0, 0x47 <.label146>
.label422    0x000122c4: 2e 64:       ldaw (ru6)      r0, sp[0x2e]
.label420    0x000122c6: 40 fb ec a7: ldaw (l2rus)    r4, r4[-0x4]
.label415    0x000122ca: 01 f0 64 60: ldaw (lru6)     r1, dp[0x64]
             0x000122ce: 10 00:       stw (2rus)      r1, r0[0x0]
             0x000122d0: 14 c3:       lss (3r)        r1, r5, r4
             0x000122d2: 63 74:       bt (ru6)        r1, -0x23 <.label423>
             0x000122d4: 41 00:       stw (2rus)      r4, r0[0x1]
             0x000122d6: 01 f0 00 5c: ldw (lru6)      r0, sp[0x40]
             0x000122da: 50 12:       add (3r)        r1, r0, r4
             0x000122dc: 88 68:       ldc (ru6)       r2, 0x8
             0x000122de: 01 f0 40 54: stw (lru6)      r1, sp[0x40]
             0x000122e2: 3f 5c:       ldw (ru6)       r0, sp[0x3f]
             0x000122e4: 01 90:       add (2rus)      r0, r0, 0x1
             0x000122e6: 3f 54:       stw (ru6)       r0, sp[0x3f]
             0x000122e8: 02 c0:       lss (3r)        r0, r0, r2
             0x000122ea: 3d 74:       bt (ru6)        r0, -0x3d <.label414>
             0x000122ec: 21 5d:       ldw (ru6)       r4, sp[0x21]
             0x000122ee: 43 70:       bt (ru6)        r1, 0x3 <.label424>
             0x000122f0: 7f 56:       stw (ru6)       r9, sp[0x3f]
             0x000122f2: df 5c:       ldw (ru6)       r3, sp[0x1f]
             0x000122f4: 09 73:       bu (u6)         0x9 <.label425>
.label424    0x000122f6: 7e 64:       ldaw (ru6)      r1, sp[0x3e]
             0x000122f8: 88 91:       add (2rus)      r0, r10, 0x0
             0x000122fa: 03 f0 5f d5: bl (lu10)       -0xd5f <__sfvwrite>
             0x000122fe: 01 f0 40 56: stw (lru6)      r9, sp[0x40]
             0x00012302: 7f 56:       stw (ru6)       r9, sp[0x3f]
             0x00012304: df 5c:       ldw (ru6)       r3, sp[0x1f]
             0x00012306: 25 70:       bt (ru6)        r0, 0x25 <.label146>
.label425    0x00012308: 5c 5c:       ldw (ru6)       r1, sp[0x1c]
             0x0001230a: 44 c2:       lss (3r)        r0, r1, r4
             0x0001230c: a0 5c:       ldw (ru6)       r2, sp[0x20]
             0x0001230e: 01 70:       bt (ru6)        r0, 0x1 <.label426>
             0x00012310: 44 90:       add (2rus)      r4, r1, 0x0
.label426    0x00012312: f3 10:       add (3r)        r3, r4, r3
             0x00012314: df 54:       stw (ru6)       r3, sp[0x1f]
             0x00012316: 7f 56:       stw (ru6)       r9, sp[0x3f]
             0x00012318: 28 f0 1a 77: bu (lu6)        -0xa1a <.label418>
.label417    0x0001231c: 7e 64:       ldaw (ru6)      r1, sp[0x3e]
             0x0001231e: 88 91:       add (2rus)      r0, r10, 0x0
             0x00012320: 03 f0 72 d5: bl (lu10)       -0xd72 <__sfvwrite>
             0x00012324: 01 f0 40 56: stw (lru6)      r9, sp[0x40]
             0x00012328: 7f 56:       stw (ru6)       r9, sp[0x3f]
             0x0001232a: a0 5c:       ldw (ru6)       r2, sp[0x20]
             0x0001232c: 12 70:       bt (ru6)        r0, 0x12 <.label146>
             0x0001232e: 7f 56:       stw (ru6)       r9, sp[0x3f]
             0x00012330: 28 f0 26 77: bu (lu6)        -0xa26 <.label418>
.label140    0x00012334: 01 f0 00 5c: ldw (lru6)      r0, sp[0x40]
             0x00012338: 9e 5e:       ldw (ru6)       r10, sp[0x1e]
             0x0001233a: 09 78:       bf (ru6)        r0, 0x9 <.label427>
             0x0001233c: 88 91:       add (2rus)      r0, r10, 0x0
             0x0001233e: 7e 64:       ldaw (ru6)      r1, sp[0x3e]
             0x00012340: 03 f0 82 d5: bl (lu10)       -0xd82 <__sfvwrite>
             0x00012344: 40 68:       ldc (ru6)       r1, 0x0
             0x00012346: 01 f0 40 54: stw (lru6)      r1, sp[0x40]
             0x0001234a: 7f 54:       stw (ru6)       r1, sp[0x3f]
             0x0001234c: 02 70:       bt (ru6)        r0, 0x2 <.label146>
.label427    0x0001234e: 00 68:       ldc (ru6)       r0, 0x0
             0x00012350: 3f 54:       stw (ru6)       r0, sp[0x3f]
.label146    0x00012352: 4d 5d:       ldw (ru6)       r5, sp[0xd]
             0x00012354: 00 69:       ldc (ru6)       r4, 0x0
             0x00012356: 04 83:       ld16s (3r)      r0, r5[r4]
             0x00012358: 08 f0 40 68: ldc (lru6)      r1, 0x200
             0x0001235c: 11 38:       and (3r)        r1, r0, r1
             0x0001235e: 42 78:       bf (ru6)        r1, 0x2 <.label428>
             0x00012360: 31 47:       zext (rus)      r0, 0x10
             0x00012362: 06 73:       bu (u6)         0x6 <.label429>
.label428    0x00012364: 01 f0 14 68: ldc (lru6)      r0, 0x54
             0x00012368: 88 11:       add (3r)        r0, r10, r0
             0x0001236a: 03 f0 13 d4: bl (lu10)       -0xc13 <__spin_lock_release_recursive>
             0x0001236e: 04 83:       ld16s (3r)      r0, r5[r4]
.label429    0x00012370: 01 f0 40 68: ldc (lru6)      r1, 0x40
             0x00012374: 11 38:       and (3r)        r1, r0, r1
             0x00012376: 1f 5c:       ldw (ru6)       r0, sp[0x1f]
             0x00012378: 41 78:       bf (ru6)        r1, 0x1 <.label430>
.label133    0x0001237a: d0 a6:       mkmsk (rus)     r0, 0x20
.label430    0x0001237c: 01 f0 89 5e: ldw (lru6)      r10, sp[0x49]
             0x00012380: 01 f0 4a 5e: ldw (lru6)      r9, sp[0x4a]
             0x00012384: 01 f0 0b 5e: ldw (lru6)      r8, sp[0x4b]
             0x00012388: 01 f0 cc 5d: ldw (lru6)      r7, sp[0x4c]
             0x0001238c: 01 f0 8d 5d: ldw (lru6)      r6, sp[0x4d]
             0x00012390: 01 f0 4e 5d: ldw (lru6)      r5, sp[0x4e]
             0x00012394: 01 f0 0f 5d: ldw (lru6)      r4, sp[0x4f]
             0x00012398: 01 f0 d0 77: retsp (lu6)     0x50

<__eqdf2>:
             0x0001239c: 4f 77:       entsp (u6)      0xf
             0x0001239e: 44 54:       stw (ru6)       r1, sp[0x4]
             0x000123a0: 03 54:       stw (ru6)       r0, sp[0x3]
             0x000123a2: c2 54:       stw (ru6)       r3, sp[0x2]
             0x000123a4: 03 64:       ldaw (ru6)      r0, sp[0x3]
             0x000123a6: 81 54:       stw (ru6)       r2, sp[0x1]
             0x000123a8: 4a 64:       ldaw (ru6)      r1, sp[0xa]
             0x000123aa: 05 f0 17 d1: bl (lu10)       0x1517 <__unpack_d>
             0x000123ae: 01 64:       ldaw (ru6)      r0, sp[0x1]
             0x000123b0: 45 64:       ldaw (ru6)      r1, sp[0x5]
             0x000123b2: 05 f0 13 d1: bl (lu10)       0x1513 <__unpack_d>
             0x000123b6: 02 68:       ldc (ru6)       r0, 0x2
             0x000123b8: 4a 5c:       ldw (ru6)       r1, sp[0xa]
             0x000123ba: 14 c8:       lsu (3r)        r1, r1, r0
             0x000123bc: 42 78:       bf (ru6)        r1, 0x2 <.label431>
             0x000123be: d1 a6:       mkmsk (rus)     r0, 0x1
             0x000123c0: cf 77:       retsp (u6)      0xf
.label431    0x000123c2: 45 5c:       ldw (ru6)       r1, sp[0x5]
             0x000123c4: 04 c8:       lsu (3r)        r0, r1, r0
             0x000123c6: 02 78:       bf (ru6)        r0, 0x2 <.label432>
             0x000123c8: d1 a6:       mkmsk (rus)     r0, 0x1
             0x000123ca: cf 77:       retsp (u6)      0xf
.label432    0x000123cc: 45 64:       ldaw (ru6)      r1, sp[0x5]
             0x000123ce: 0a 64:       ldaw (ru6)      r0, sp[0xa]
             0x000123d0: 04 f0 82 d3: bl (lu10)       0x1382 <__fpcmp_parts_d>
             0x000123d4: cf 77:       retsp (u6)      0xf
             0x000123d6: 00 00:       stw (2rus)      r0, r0[0x0]

<__errno>:
             0x000123d8: 03 f0 1a 60: ldaw (lru6)     r0, dp[0xda]
             0x000123dc: ee 17:       get (0r)        r11, id
             0x000123de: 83 fc ec 1f: ldaw (l3r)      r0, r0[r11]
             0x000123e2: c0 77:       retsp (u6)      0x0

<__gedf2>:
             0x000123e4: 4f 77:       entsp (u6)      0xf
             0x000123e6: 44 54:       stw (ru6)       r1, sp[0x4]
             0x000123e8: 03 54:       stw (ru6)       r0, sp[0x3]
             0x000123ea: c2 54:       stw (ru6)       r3, sp[0x2]
             0x000123ec: 03 64:       ldaw (ru6)      r0, sp[0x3]
             0x000123ee: 81 54:       stw (ru6)       r2, sp[0x1]
             0x000123f0: 4a 64:       ldaw (ru6)      r1, sp[0xa]
             0x000123f2: 05 f0 f3 d0: bl (lu10)       0x14f3 <__unpack_d>
             0x000123f6: 01 64:       ldaw (ru6)      r0, sp[0x1]
             0x000123f8: 45 64:       ldaw (ru6)      r1, sp[0x5]
             0x000123fa: 05 f0 ef d0: bl (lu10)       0x14ef <__unpack_d>
             0x000123fe: 02 68:       ldc (ru6)       r0, 0x2
             0x00012400: 4a 5c:       ldw (ru6)       r1, sp[0xa]
             0x00012402: 14 c8:       lsu (3r)        r1, r1, r0
             0x00012404: 42 78:       bf (ru6)        r1, 0x2 <.label433>
             0x00012406: d0 a6:       mkmsk (rus)     r0, 0x20
             0x00012408: cf 77:       retsp (u6)      0xf
.label433    0x0001240a: 45 5c:       ldw (ru6)       r1, sp[0x5]
             0x0001240c: 04 c8:       lsu (3r)        r0, r1, r0
             0x0001240e: 02 78:       bf (ru6)        r0, 0x2 <.label434>
             0x00012410: d0 a6:       mkmsk (rus)     r0, 0x20
             0x00012412: cf 77:       retsp (u6)      0xf
.label434    0x00012414: 45 64:       ldaw (ru6)      r1, sp[0x5]
             0x00012416: 0a 64:       ldaw (ru6)      r0, sp[0xa]
             0x00012418: 04 f0 5e d3: bl (lu10)       0x135e <__fpcmp_parts_d>
             0x0001241c: cf 77:       retsp (u6)      0xf
             0x0001241e: 00 00:       stw (2rus)      r0, r0[0x0]

<__isinfd>:
             0x00012420: 01 f0 88 6c: ldw (lru6)      r2, cp[0x48]
             0x00012424: 16 38:       and (3r)        r1, r1, r2
             0x00012426: c8 96:       neg (2r)        r2, r0
             0x00012428: 22 40:       or (3r)         r2, r0, r2
             0x0001242a: 91 a7:       mkmsk (rus)     r0, 0x5
             0x0001242c: 28 28:       shr (3r)        r2, r2, r0
             0x0001242e: 19 40:       or (3r)         r1, r2, r1
             0x00012430: 01 f0 91 6c: ldw (lru6)      r2, cp[0x51]
             0x00012434: 19 18:       sub (3r)        r1, r2, r1
             0x00012436: c9 96:       neg (2r)        r2, r1
             0x00012438: 16 40:       or (3r)         r1, r1, r2
             0x0001243a: 04 28:       shr (3r)        r0, r1, r0
             0x0001243c: d5 a6:       mkmsk (rus)     r1, 0x1
             0x0001243e: 04 18:       sub (3r)        r0, r1, r0
             0x00012440: c0 77:       retsp (u6)      0x0
             0x00012442: 00 00:       stw (2rus)      r0, r0[0x0]

<__isnand>:
             0x00012444: 01 f0 88 6c: ldw (lru6)      r2, cp[0x48]
             0x00012448: 16 38:       and (3r)        r1, r1, r2
             0x0001244a: c8 96:       neg (2r)        r2, r0
             0x0001244c: 22 40:       or (3r)         r2, r0, r2
             0x0001244e: 91 a7:       mkmsk (rus)     r0, 0x5
             0x00012450: 28 28:       shr (3r)        r2, r2, r0
             0x00012452: 19 40:       or (3r)         r1, r2, r1
             0x00012454: 01 f0 91 6c: ldw (lru6)      r2, cp[0x51]
             0x00012458: 19 18:       sub (3r)        r1, r2, r1
             0x0001245a: 04 28:       shr (3r)        r0, r1, r0
             0x0001245c: c0 77:       retsp (u6)      0x0
             0x0001245e: 00 00:       stw (2rus)      r0, r0[0x0]

<__nedf2>:
             0x00012460: 4f 77:       entsp (u6)      0xf
             0x00012462: 44 54:       stw (ru6)       r1, sp[0x4]
             0x00012464: 03 54:       stw (ru6)       r0, sp[0x3]
             0x00012466: c2 54:       stw (ru6)       r3, sp[0x2]
             0x00012468: 03 64:       ldaw (ru6)      r0, sp[0x3]
             0x0001246a: 81 54:       stw (ru6)       r2, sp[0x1]
             0x0001246c: 4a 64:       ldaw (ru6)      r1, sp[0xa]
             0x0001246e: 05 f0 b5 d0: bl (lu10)       0x14b5 <__unpack_d>
             0x00012472: 01 64:       ldaw (ru6)      r0, sp[0x1]
             0x00012474: 45 64:       ldaw (ru6)      r1, sp[0x5]
             0x00012476: 05 f0 b1 d0: bl (lu10)       0x14b1 <__unpack_d>
             0x0001247a: 02 68:       ldc (ru6)       r0, 0x2
             0x0001247c: 4a 5c:       ldw (ru6)       r1, sp[0xa]
             0x0001247e: 14 c8:       lsu (3r)        r1, r1, r0
             0x00012480: 42 78:       bf (ru6)        r1, 0x2 <.label435>
             0x00012482: d1 a6:       mkmsk (rus)     r0, 0x1
             0x00012484: cf 77:       retsp (u6)      0xf
.label435    0x00012486: 45 5c:       ldw (ru6)       r1, sp[0x5]
             0x00012488: 04 c8:       lsu (3r)        r0, r1, r0
             0x0001248a: 02 78:       bf (ru6)        r0, 0x2 <.label436>
             0x0001248c: d1 a6:       mkmsk (rus)     r0, 0x1
             0x0001248e: cf 77:       retsp (u6)      0xf
.label436    0x00012490: 45 64:       ldaw (ru6)      r1, sp[0x5]
             0x00012492: 0a 64:       ldaw (ru6)      r0, sp[0xa]
             0x00012494: 04 f0 20 d3: bl (lu10)       0x1320 <__fpcmp_parts_d>
             0x00012498: cf 77:       retsp (u6)      0xf
             0x0001249a: 00 00:       stw (2rus)      r0, r0[0x0]

<__sread>:
             0x0001249c: 43 77:       entsp (u6)      0x3
             0x0001249e: 0e 68:       ldc (ru6)       r0, 0xe
             0x000124a0: 02 55:       stw (ru6)       r4, sp[0x2]
             0x000124a2: 44 90:       add (2rus)      r4, r1, 0x0
             0x000124a4: 41 55:       stw (ru6)       r5, sp[0x1]
             0x000124a6: c0 10:       add (3r)        r0, r4, r0
             0x000124a8: 18 90:       add (2rus)      r1, r2, 0x0
             0x000124aa: 2c 90:       add (2rus)      r2, r3, 0x0
             0x000124ac: 40 69:       ldc (ru6)       r5, 0x0
             0x000124ae: 41 82:       ld16s (3r)      r0, r0[r5]
             0x000124b0: 05 f0 e8 d0: bl (lu10)       0x14e8 <_read>
             0x000124b4: 10 f8 ec 97: ashr (l2rus)    r1, r0, 0x20
             0x000124b8: 47 70:       bt (ru6)        r1, 0x7 <.label437>
             0x000124ba: 01 f0 50 68: ldc (lru6)      r1, 0x50
             0x000124be: d1 10:       add (3r)        r1, r4, r1
             0x000124c0: 24 08:       ldw (2rus)      r2, r1[0x0]
             0x000124c2: 28 10:       add (3r)        r2, r2, r0
             0x000124c4: 24 00:       stw (2rus)      r2, r1[0x0]
             0x000124c6: 08 73:       bu (u6)         0x8 <.label438>
.label437    0x000124c8: bf f3 ff 68: ldc (lru6)      r3, 0xefff
             0x000124cc: d3 f8 ec 9f: ldaw (l2rus)    r1, r4[0x3]
             0x000124d0: 65 82:       ld16s (3r)      r2, r1[r5]
             0x000124d2: 2b 38:       and (3r)        r2, r2, r3
             0x000124d4: 65 fa ec 87: st16 (l3r)      r2, r1[r5]
.label438    0x000124d8: 41 5d:       ldw (ru6)       r5, sp[0x1]
             0x000124da: 02 5d:       ldw (ru6)       r4, sp[0x2]
             0x000124dc: c3 77:       retsp (u6)      0x3
             0x000124de: 00 90:       add (2rus)      r0, r0, 0x0

<__sclose>:
             0x000124e0: 0e 68:       ldc (ru6)       r0, 0xe
             0x000124e2: 04 10:       add (3r)        r0, r1, r0
             0x000124e4: 40 68:       ldc (ru6)       r1, 0x0
             0x000124e6: 41 77:       entsp (u6)      0x1
             0x000124e8: 01 80:       ld16s (3r)      r0, r0[r1]
             0x000124ea: 05 f0 c1 d0: bl (lu10)       0x14c1 <_close>
             0x000124ee: c1 77:       retsp (u6)      0x1

<__sseek>:
             0x000124f0: 43 77:       entsp (u6)      0x3
             0x000124f2: 0e 68:       ldc (ru6)       r0, 0xe
             0x000124f4: 02 55:       stw (ru6)       r4, sp[0x2]
             0x000124f6: 44 90:       add (2rus)      r4, r1, 0x0
             0x000124f8: 41 55:       stw (ru6)       r5, sp[0x1]
             0x000124fa: c0 10:       add (3r)        r0, r4, r0
             0x000124fc: 40 69:       ldc (ru6)       r5, 0x0
             0x000124fe: 41 82:       ld16s (3r)      r0, r0[r5]
             0x00012500: 18 90:       add (2rus)      r1, r2, 0x0
             0x00012502: 2c 90:       add (2rus)      r2, r3, 0x0
             0x00012504: 05 f0 b8 d0: bl (lu10)       0x14b8 <_lseek>
             0x00012508: d3 f8 ec 9f: ldaw (l2rus)    r1, r4[0x3]
             0x0001250c: 65 82:       ld16s (3r)      r2, r1[r5]
             0x0001250e: dc a6:       mkmsk (rus)     r3, 0x20
             0x00012510: 33 30:       eq (3r)         r3, r0, r3
             0x00012512: c6 78:       bf (ru6)        r3, 0x6 <.label439>
             0x00012514: bf f3 ff 68: ldc (lru6)      r3, 0xefff
             0x00012518: 2b 38:       and (3r)        r2, r2, r3
             0x0001251a: 65 fa ec 87: st16 (l3r)      r2, r1[r5]
             0x0001251e: 09 73:       bu (u6)         0x9 <.label440>
.label439    0x00012520: 40 f0 c0 68: ldc (lru6)      r3, 0x1000
             0x00012524: 2b 40:       or (3r)         r2, r2, r3
             0x00012526: 65 fa ec 87: st16 (l3r)      r2, r1[r5]
             0x0001252a: 01 f0 50 68: ldc (lru6)      r1, 0x50
             0x0001252e: d1 10:       add (3r)        r1, r4, r1
             0x00012530: 04 00:       stw (2rus)      r0, r1[0x0]
.label440    0x00012532: 41 5d:       ldw (ru6)       r5, sp[0x1]
             0x00012534: 02 5d:       ldw (ru6)       r4, sp[0x2]
             0x00012536: c3 77:       retsp (u6)      0x3

<__swrite>:
             0x00012538: 44 77:       entsp (u6)      0x4
             0x0001253a: 03 55:       stw (ru6)       r4, sp[0x3]
             0x0001253c: 42 55:       stw (ru6)       r5, sp[0x2]
             0x0001253e: 4c 90:       add (2rus)      r4, r3, 0x0
             0x00012540: 81 55:       stw (ru6)       r6, sp[0x1]
             0x00012542: 58 90:       add (2rus)      r5, r2, 0x0
             0x00012544: 04 f0 00 68: ldc (lru6)      r0, 0x100
             0x00012548: 64 90:       add (2rus)      r6, r1, 0x0
             0x0001254a: db 08:       ldw (2rus)      r1, r6[0x3]
             0x0001254c: 24 38:       and (3r)        r2, r1, r0
             0x0001254e: 85 ac:       shr (2rus)      r0, r1, 0x10
             0x00012550: 87 78:       bf (ru6)        r2, 0x7 <.label441>
             0x00012552: 82 68:       ldc (ru6)       r2, 0x2
             0x00012554: 40 68:       ldc (ru6)       r1, 0x0
             0x00012556: 31 37:       sext (rus)      r0, 0x10
             0x00012558: 05 f0 8e d0: bl (lu10)       0x148e <_lseek>
             0x0001255c: db 08:       ldw (2rus)      r1, r6[0x3]
             0x0001255e: 85 ac:       shr (2rus)      r0, r1, 0x10
.label441    0x00012560: bf f3 bf 68: ldc (lru6)      r2, 0xefff
             0x00012564: 16 38:       and (3r)        r1, r1, r2
             0x00012566: eb f8 ec 9f: ldaw (l2rus)    r2, r6[0x3]
             0x0001256a: 31 37:       sext (rus)      r0, 0x10
             0x0001256c: c0 68:       ldc (ru6)       r3, 0x0
             0x0001256e: 1b f8 ec 87: st16 (l3r)      r1, r2[r3]
             0x00012572: e0 90:       add (2rus)      r2, r4, 0x0
             0x00012574: d4 90:       add (2rus)      r1, r5, 0x0
             0x00012576: 05 f0 8b d0: bl (lu10)       0x148b <_write>
             0x0001257a: 81 5d:       ldw (ru6)       r6, sp[0x1]
             0x0001257c: 42 5d:       ldw (ru6)       r5, sp[0x2]
             0x0001257e: 03 5d:       ldw (ru6)       r4, sp[0x3]
             0x00012580: c4 77:       retsp (u6)      0x4
             0x00012582: 00 00:       stw (2rus)      r0, r0[0x0]

<__smakebuf>:
             0x00012584: 47 77:       entsp (u6)      0x7
             0x00012586: 06 55:       stw (ru6)       r4, sp[0x6]
             0x00012588: 45 55:       stw (ru6)       r5, sp[0x5]
             0x0001258a: 84 55:       stw (ru6)       r6, sp[0x4]
             0x0001258c: c3 55:       stw (ru6)       r7, sp[0x3]
             0x0001258e: 40 90:       add (2rus)      r4, r0, 0x0
             0x00012590: 02 56:       stw (ru6)       r8, sp[0x2]
             0x00012592: c0 69:       ldc (ru6)       r7, 0x0
             0x00012594: 41 56:       stw (ru6)       r9, sp[0x1]
             0x00012596: 42 6a:       ldc (ru6)       r9, 0x2
             0x00012598: 23 f9 ec 9f: ldaw (l2rus)    r6, r4[0x3]
             0x0001259c: 8b 83:       ld16s (3r)      r8, r6[r7]
             0x0001259e: 01 3e:       and (3r)        r0, r8, r9
             0x000125a0: 08 78:       bf (ru6)        r0, 0x8 <.label442>
.label445    0x000125a2: 01 f0 03 68: ldc (lru6)      r0, 0x43
             0x000125a6: c0 10:       add (3r)        r0, r4, r0
             0x000125a8: c0 00:       stw (2rus)      r0, r4[0x0]
             0x000125aa: 00 03:       stw (2rus)      r0, r4[0x4]
             0x000125ac: d1 a6:       mkmsk (rus)     r0, 0x1
             0x000125ae: 01 03:       stw (2rus)      r0, r4[0x5]
             0x000125b0: 17 73:       bu (u6)         0x17 <.label443>
.label442    0x000125b2: b1 47:       zext (rus)      r8, 0x10
             0x000125b4: 01 f0 40 69: ldc (lru6)      r5, 0x40
             0x000125b8: c4 90:       add (2rus)      r0, r5, 0x0
             0x000125ba: 02 f0 93 d2: bl (lu10)       0xa93 <malloc>
             0x000125be: 08 70:       bt (ru6)        r0, 0x8 <.label444>
             0x000125c0: 08 f0 00 68: ldc (lru6)      r0, 0x200
             0x000125c4: 80 39:       and (3r)        r0, r8, r0
             0x000125c6: 0c 70:       bt (ru6)        r0, 0xc <.label443>
             0x000125c8: 01 46:       or (3r)         r0, r8, r9
             0x000125ca: 0b fb ec 87: st16 (l3r)      r0, r6[r7]
             0x000125ce: 17 77:       bu (u6)         -0x17 <.label445>
.label444    0x000125d0: 02 f0 40 68: ldc (lru6)      r1, 0x80
             0x000125d4: 91 41:       or (3r)         r1, r8, r1
             0x000125d6: 1b fb ec 87: st16 (l3r)      r1, r6[r7]
             0x000125da: c0 00:       stw (2rus)      r0, r4[0x0]
             0x000125dc: 00 03:       stw (2rus)      r0, r4[0x4]
             0x000125de: 51 03:       stw (2rus)      r5, r4[0x5]
.label443    0x000125e0: 41 5e:       ldw (ru6)       r9, sp[0x1]
             0x000125e2: 02 5e:       ldw (ru6)       r8, sp[0x2]
             0x000125e4: c3 5d:       ldw (ru6)       r7, sp[0x3]
             0x000125e6: 84 5d:       ldw (ru6)       r6, sp[0x4]
             0x000125e8: 45 5d:       ldw (ru6)       r5, sp[0x5]
             0x000125ea: 06 5d:       ldw (ru6)       r4, sp[0x6]
             0x000125ec: c7 77:       retsp (u6)      0x7
             0x000125ee: 00 00:       stw (2rus)      r0, r0[0x0]

<__swsetup>:
             0x000125f0: 46 77:       entsp (u6)      0x6
             0x000125f2: 05 55:       stw (ru6)       r4, sp[0x5]
             0x000125f4: 44 55:       stw (ru6)       r5, sp[0x4]
             0x000125f6: 83 55:       stw (ru6)       r6, sp[0x3]
             0x000125f8: c2 55:       stw (ru6)       r7, sp[0x2]
             0x000125fa: 01 56:       stw (ru6)       r8, sp[0x1]
             0x000125fc: 50 90:       add (2rus)      r5, r0, 0x0
             0x000125fe: 02 f0 10 58: ldw (lru6)      r0, dp[0x90]
             0x00012602: 02 70:       bt (ru6)        r0, 0x2 <.label446>
             0x00012604: 03 f0 68 d7: bl (lu10)       -0xf68 <__sinit>
.label446    0x00012608: 27 f9 ec 9f: ldaw (l2rus)    r6, r5[0x3]
             0x0001260c: 00 69:       ldc (ru6)       r4, 0x0
             0x0001260e: 18 83:       ld16s (3r)      r1, r6[r4]
             0x00012610: c8 69:       ldc (ru6)       r7, 0x8
             0x00012612: 47 3a:       and (3r)        r0, r1, r7
             0x00012614: 35 47:       zext (rus)      r1, 0x10
             0x00012616: 23 70:       bt (ru6)        r0, 0x23 <.label447>
             0x00012618: 10 68:       ldc (ru6)       r0, 0x10
             0x0001261a: 04 38:       and (3r)        r0, r1, r0
             0x0001261c: 01 f0 02 78: bf (lru6)       r0, 0x42 <.label448>
             0x00012620: 04 68:       ldc (ru6)       r0, 0x4
             0x00012622: 04 38:       and (3r)        r0, r1, r0
             0x00012624: 18 78:       bf (ru6)        r0, 0x18 <.label449>
             0x00012626: 30 68:       ldc (ru6)       r0, 0x30
             0x00012628: 44 11:       add (3r)        r8, r5, r0
             0x0001262a: 80 09:       ldw (2rus)      r0, r8[0x0]
             0x0001262c: 0b 78:       bf (ru6)        r0, 0xb <.label450>
             0x0001262e: 01 f0 80 68: ldc (lru6)      r2, 0x40
             0x00012632: e6 10:       add (3r)        r2, r5, r2
             0x00012634: 22 30:       eq (3r)         r2, r0, r2
             0x00012636: 84 70:       bt (ru6)        r2, 0x4 <.label451>
             0x00012638: 02 f0 d0 d1: bl (lu10)       0x9d0 <free>
             0x0001263c: 00 68:       ldc (ru6)       r0, 0x0
             0x0001263e: d8 80:       ld16s (3r)      r1, r6[r0]
.label451    0x00012640: 00 68:       ldc (ru6)       r0, 0x0
             0x00012642: 80 01:       stw (2rus)      r0, r8[0x0]
.label450    0x00012644: ff f3 1b 68: ldc (lru6)      r0, 0xffdb
             0x00012648: 14 38:       and (3r)        r1, r1, r0
             0x0001264a: 00 68:       ldc (ru6)       r0, 0x0
             0x0001264c: d8 f8 ec 87: st16 (l3r)      r1, r6[r0]
             0x00012650: c5 00:       stw (2rus)      r0, r5[0x1]
             0x00012652: 04 0b:       ldw (2rus)      r0, r5[0x4]
             0x00012654: c4 00:       stw (2rus)      r0, r5[0x0]
.label449    0x00012656: 00 68:       ldc (ru6)       r0, 0x0
             0x00012658: 57 42:       or (3r)         r1, r1, r7
             0x0001265a: d8 f8 ec 87: st16 (l3r)      r1, r6[r0]
.label447    0x0001265e: 04 0b:       ldw (2rus)      r0, r5[0x4]
             0x00012660: 0c 70:       bt (ru6)        r0, 0xc <.label452>
             0x00012662: 0a f0 00 68: ldc (lru6)      r0, 0x280
             0x00012666: 04 38:       and (3r)        r0, r1, r0
             0x00012668: 08 f0 80 68: ldc (lru6)      r2, 0x200
             0x0001266c: 02 30:       eq (3r)         r0, r0, r2
             0x0001266e: 05 70:       bt (ru6)        r0, 0x5 <.label452>
             0x00012670: c4 90:       add (2rus)      r0, r5, 0x0
             0x00012672: 00 f0 79 d4: bl (lu10)       -0x79 <__smakebuf>
             0x00012676: 00 68:       ldc (ru6)       r0, 0x0
             0x00012678: d8 80:       ld16s (3r)      r1, r6[r0]
.label452    0x0001267a: 04 90:       add (2rus)      r0, r1, 0x0
             0x0001267c: d1 46:       zext (rus)      r0, 0x1
             0x0001267e: 05 78:       bf (ru6)        r0, 0x5 <.label453>
             0x00012680: 06 01:       stw (2rus)      r4, r5[0x2]
             0x00012682: 05 0b:       ldw (2rus)      r0, r5[0x5]
             0x00012684: c0 96:       neg (2r)        r0, r0
             0x00012686: 06 03:       stw (2rus)      r0, r5[0x6]
             0x00012688: 07 73:       bu (u6)         0x7 <.label454>
.label453    0x0001268a: 02 68:       ldc (ru6)       r0, 0x2
             0x0001268c: 04 38:       and (3r)        r0, r1, r0
             0x0001268e: 02 78:       bf (ru6)        r0, 0x2 <.label455>
             0x00012690: 00 68:       ldc (ru6)       r0, 0x0
             0x00012692: 01 73:       bu (u6)         0x1 <.label456>
.label455    0x00012694: 05 0b:       ldw (2rus)      r0, r5[0x5]
.label456    0x00012696: c6 00:       stw (2rus)      r0, r5[0x2]
.label454    0x00012698: 04 0b:       ldw (2rus)      r0, r5[0x4]
             0x0001269a: 05 70:       bt (ru6)        r0, 0x5 <.label457>
             0x0001269c: 02 f0 00 68: ldc (lru6)      r0, 0x80
             0x000126a0: 04 38:       and (3r)        r0, r1, r0
             0x000126a2: 01 78:       bf (ru6)        r0, 0x1 <.label457>
.label448    0x000126a4: 10 a7:       mkmsk (rus)     r4, 0x20
.label457    0x000126a6: 01 5e:       ldw (ru6)       r8, sp[0x1]
             0x000126a8: c2 5d:       ldw (ru6)       r7, sp[0x2]
             0x000126aa: 83 5d:       ldw (ru6)       r6, sp[0x3]
             0x000126ac: c0 90:       add (2rus)      r0, r4, 0x0
             0x000126ae: 44 5d:       ldw (ru6)       r5, sp[0x4]
             0x000126b0: 05 5d:       ldw (ru6)       r4, sp[0x5]
             0x000126b2: c6 77:       retsp (u6)      0x6

<__udivdi3>:
             0x000126b4: 43 77:       entsp (u6)      0x3
             0x000126b6: 02 55:       stw (ru6)       r4, sp[0x2]
             0x000126b8: 41 55:       stw (ru6)       r5, sp[0x1]
             0x000126ba: 80 55:       stw (ru6)       r6, sp[0x0]
             0x000126bc: cb 70:       bt (ru6)        r3, 0xb <.label458>
             0x000126be: 36 c8:       lsu (3r)        r3, r1, r2
             0x000126c0: c3 78:       bf (ru6)        r3, 0x3 <.label459>
             0x000126c2: 32 f8 c1 06: ldivu (l5r)     r3, r0, r1, r0, r2
             0x000126c6: 2e 73:       bu (u6)         0x2e <.label460>
.label459    0x000126c8: c0 6a:       ldc (ru6)       r11, 0x0
             0x000126ca: 16 f8 2f 07: ldivu (l5r)     r1, r3, r11, r1, r2
             0x000126ce: 32 f8 c3 06: ldivu (l5r)     r3, r0, r3, r0, r2
             0x000126d2: 2a 73:       bu (u6)         0x2a <.label461>
.label458    0x000126d4: b7 c8:       lsu (3r)        r11, r1, r3
             0x000126d6: c4 7a:       bf (ru6)        r11, 0x4 <.label462>
             0x000126d8: c0 68:       ldc (ru6)       r3, 0x0
             0x000126da: bc 90:       add (2rus)      r11, r3, 0x0
             0x000126dc: 1c 90:       add (2rus)      r1, r3, 0x0
             0x000126de: 24 73:       bu (u6)         0x24 <.label461>
.label462    0x000126e0: 03 ff ec 0f: clz (l2r)       r4, r3
             0x000126e4: 08 71:       bt (ru6)        r4, 0x8 <.label463>
             0x000126e6: 1d c8:       lsu (3r)        r1, r3, r1
             0x000126e8: 14 b0:       eq (2rus)       r1, r1, 0x0
             0x000126ea: 02 c8:       lsu (3r)        r0, r0, r2
             0x000126ec: 04 38:       and (3r)        r0, r1, r0
             0x000126ee: d5 a6:       mkmsk (rus)     r1, 0x1
             0x000126f0: 31 f8 ec 0f: xor (l3r)       r3, r0, r1
             0x000126f4: 17 73:       bu (u6)         0x17 <.label460>
.label463    0x000126f6: 94 22:       shl (3r)        r5, r1, r4
             0x000126f8: e0 6a:       ldc (ru6)       r11, 0x20
             0x000126fa: 7c 1c:       sub (3r)        r11, r11, r4
             0x000126fc: e3 2c:       shr (3r)        r6, r0, r11
             0x000126fe: 59 43:       or (3r)         r5, r6, r5
             0x00012700: 7c 22:       shl (3r)        r3, r3, r4
             0x00012702: eb 2c:       shr (3r)        r6, r2, r11
             0x00012704: fb 40:       or (3r)         r3, r6, r3
             0x00012706: 97 2c:       shr (3r)        r1, r1, r11
             0x00012708: f7 f8 05 07: ldivu (l5r)     r3, r5, r1, r5, r3
             0x0001270c: 58 22:       shl (3r)        r1, r2, r4
             0x0001270e: c0 6a:       ldc (ru6)       r11, 0x0
             0x00012710: 2d f8 1f 06: lmul (l6r)      r2, r1, r3, r1, r11, r11
             0x00012714: 26 c9:       lsu (3r)        r6, r5, r2
             0x00012716: 85 71:       bt (ru6)        r6, 0x5 <.label464>
             0x00012718: 69 32:       eq (3r)         r2, r2, r5
             0x0001271a: 85 78:       bf (ru6)        r2, 0x5 <.label465>
             0x0001271c: 40 22:       shl (3r)        r0, r0, r4
             0x0001271e: 01 c8:       lsu (3r)        r0, r0, r1
             0x00012720: 02 78:       bf (ru6)        r0, 0x2 <.label465>
.label464    0x00012722: 3d 98:       sub (2rus)      r3, r3, 0x1
.label460    0x00012724: c0 6a:       ldc (ru6)       r11, 0x0
.label465    0x00012726: 9c 91:       add (2rus)      r1, r11, 0x0
.label461    0x00012728: 80 5d:       ldw (ru6)       r6, sp[0x0]
             0x0001272a: 41 5d:       ldw (ru6)       r5, sp[0x1]
             0x0001272c: 02 5d:       ldw (ru6)       r4, sp[0x2]
             0x0001272e: 8f 41:       or (3r)         r0, r11, r3
             0x00012730: c3 77:       retsp (u6)      0x3
             0x00012732: 00 00:       stw (2rus)      r0, r0[0x0]

<__umoddi3>:
             0x00012734: 47 77:       entsp (u6)      0x7
             0x00012736: 06 55:       stw (ru6)       r4, sp[0x6]
             0x00012738: 45 55:       stw (ru6)       r5, sp[0x5]
             0x0001273a: 84 55:       stw (ru6)       r6, sp[0x4]
             0x0001273c: c3 55:       stw (ru6)       r7, sp[0x3]
             0x0001273e: 02 56:       stw (ru6)       r8, sp[0x2]
             0x00012740: cf 70:       bt (ru6)        r3, 0xf <.label466>
             0x00012742: 36 c8:       lsu (3r)        r3, r1, r2
             0x00012744: c5 78:       bf (ru6)        r3, 0x5 <.label467>
             0x00012746: 12 f8 c1 06: ldivu (l5r)     r1, r0, r1, r0, r2
             0x0001274a: 40 68:       ldc (ru6)       r1, 0x0
             0x0001274c: 41 54:       stw (ru6)       r1, sp[0x1]
             0x0001274e: 3f 73:       bu (u6)         0x3f <.label468>
.label467    0x00012750: c0 68:       ldc (ru6)       r3, 0x0
             0x00012752: 36 f8 c7 06: ldivu (l5r)     r3, r1, r3, r1, r2
             0x00012756: 12 f8 c1 06: ldivu (l5r)     r1, r0, r1, r0, r2
             0x0001275a: 40 68:       ldc (ru6)       r1, 0x0
             0x0001275c: 41 54:       stw (ru6)       r1, sp[0x1]
             0x0001275e: 37 73:       bu (u6)         0x37 <.label468>
.label466    0x00012760: b7 c8:       lsu (3r)        r11, r1, r3
             0x00012762: c3 7a:       bf (ru6)        r11, 0x3 <.label469>
             0x00012764: 00 54:       stw (ru6)       r0, sp[0x0]
             0x00012766: 41 54:       stw (ru6)       r1, sp[0x1]
             0x00012768: 33 73:       bu (u6)         0x33 <.label470>
.label469    0x0001276a: 4f ff ec 0f: clz (l2r)       r11, r3
             0x0001276e: cb 72:       bt (ru6)        r11, 0xb <.label471>
             0x00012770: bd c8:       lsu (3r)        r11, r3, r1
             0x00012772: c2 72:       bt (ru6)        r11, 0x2 <.label472>
             0x00012774: b2 c8:       lsu (3r)        r11, r0, r2
             0x00012776: c5 72:       bt (ru6)        r11, 0x5 <.label473>
.label472    0x00012778: c0 6a:       ldc (ru6)       r11, 0x0
             0x0001277a: 02 f8 2b 0f: lsub (l5r)      r2, r0, r0, r2, r11
             0x0001277e: 17 f8 ca 0e: lsub (l5r)      r2, r1, r1, r3, r2
.label473    0x00012782: 41 54:       stw (ru6)       r1, sp[0x1]
             0x00012784: 24 73:       bu (u6)         0x24 <.label468>
.label471    0x00012786: d7 24:       shl (3r)        r5, r1, r11
             0x00012788: 20 69:       ldc (ru6)       r4, 0x20
             0x0001278a: 83 1d:       sub (3r)        r4, r4, r11
             0x0001278c: a0 2a:       shr (3r)        r6, r0, r4
             0x0001278e: 59 43:       or (3r)         r5, r6, r5
             0x00012790: bf 24:       shl (3r)        r3, r3, r11
             0x00012792: a8 2a:       shr (3r)        r6, r2, r4
             0x00012794: 2b 41:       or (3r)         r6, r6, r3
             0x00012796: 54 2a:       shr (3r)        r1, r1, r4
             0x00012798: 56 fb c5 06: ldivu (l5r)     r5, r1, r1, r5, r6
             0x0001279c: c0 68:       ldc (ru6)       r3, 0x0
             0x0001279e: 83 24:       shl (3r)        r0, r0, r11
             0x000127a0: fb 24:       shl (3r)        r7, r2, r11
             0x000127a2: 27 fb 5f 00: lmul (l6r)      r2, r5, r5, r7, r3, r3
             0x000127a6: 86 c8:       lsu (3r)        r8, r1, r2
             0x000127a8: 04 72:       bt (ru6)        r8, 0x4 <.label474>
             0x000127aa: 89 30:       eq (3r)         r8, r2, r1
             0x000127ac: 07 7a:       bf (ru6)        r8, 0x7 <.label475>
             0x000127ae: c1 ca:       lsu (3r)        r8, r0, r5
             0x000127b0: 05 7a:       bf (ru6)        r8, 0x5 <.label475>
.label474    0x000127b2: 2b 41:       or (3r)         r6, r6, r3
             0x000127b4: 57 fb 0f 0f: lsub (l5r)      r7, r5, r5, r7, r3
             0x000127b8: 6a fa cb 0f: lsub (l5r)      r6, r2, r2, r6, r7
.label475    0x000127bc: 71 fa c3 0e: lsub (l5r)      r0, r3, r0, r5, r3
             0x000127c0: 06 f8 c4 0e: lsub (l5r)      r1, r0, r1, r2, r0
             0x000127c4: 93 2c:       shr (3r)        r1, r0, r11
             0x000127c6: 41 54:       stw (ru6)       r1, sp[0x1]
             0x000127c8: af 2c:       shr (3r)        r2, r3, r11
             0x000127ca: 40 22:       shl (3r)        r0, r0, r4
             0x000127cc: 02 40:       or (3r)         r0, r0, r2
.label468    0x000127ce: 00 54:       stw (ru6)       r0, sp[0x0]
.label470    0x000127d0: 02 5e:       ldw (ru6)       r8, sp[0x2]
             0x000127d2: c3 5d:       ldw (ru6)       r7, sp[0x3]
             0x000127d4: 84 5d:       ldw (ru6)       r6, sp[0x4]
             0x000127d6: 45 5d:       ldw (ru6)       r5, sp[0x5]
             0x000127d8: 06 5d:       ldw (ru6)       r4, sp[0x6]
             0x000127da: c7 77:       retsp (u6)      0x7

<__unorddf2>:
             0x000127dc: 4f 77:       entsp (u6)      0xf
             0x000127de: 44 54:       stw (ru6)       r1, sp[0x4]
             0x000127e0: 03 54:       stw (ru6)       r0, sp[0x3]
             0x000127e2: c2 54:       stw (ru6)       r3, sp[0x2]
             0x000127e4: 03 64:       ldaw (ru6)      r0, sp[0x3]
             0x000127e6: 81 54:       stw (ru6)       r2, sp[0x1]
             0x000127e8: 4a 64:       ldaw (ru6)      r1, sp[0xa]
             0x000127ea: 04 f0 f7 d2: bl (lu10)       0x12f7 <__unpack_d>
             0x000127ee: 01 64:       ldaw (ru6)      r0, sp[0x1]
             0x000127f0: 45 64:       ldaw (ru6)      r1, sp[0x5]
             0x000127f2: 04 f0 f3 d2: bl (lu10)       0x12f3 <__unpack_d>
             0x000127f6: 02 68:       ldc (ru6)       r0, 0x2
             0x000127f8: 4a 5c:       ldw (ru6)       r1, sp[0xa]
             0x000127fa: 14 c8:       lsu (3r)        r1, r1, r0
             0x000127fc: 42 78:       bf (ru6)        r1, 0x2 <.label476>
             0x000127fe: d1 a6:       mkmsk (rus)     r0, 0x1
             0x00012800: cf 77:       retsp (u6)      0xf
.label476    0x00012802: 45 5c:       ldw (ru6)       r1, sp[0x5]
             0x00012804: 04 c8:       lsu (3r)        r0, r1, r0
             0x00012806: 02 78:       bf (ru6)        r0, 0x2 <.label477>
             0x00012808: d1 a6:       mkmsk (rus)     r0, 0x1
             0x0001280a: cf 77:       retsp (u6)      0xf
.label477    0x0001280c: 00 68:       ldc (ru6)       r0, 0x0
             0x0001280e: cf 77:       retsp (u6)      0xf

<_fflush>:
             0x00012810: 48 77:       entsp (u6)      0x8
             0x00012812: 07 55:       stw (ru6)       r4, sp[0x7]
             0x00012814: 46 55:       stw (ru6)       r5, sp[0x6]
             0x00012816: 85 55:       stw (ru6)       r6, sp[0x5]
             0x00012818: c4 55:       stw (ru6)       r7, sp[0x4]
             0x0001281a: 03 56:       stw (ru6)       r8, sp[0x3]
             0x0001281c: 42 56:       stw (ru6)       r9, sp[0x2]
             0x0001281e: 81 56:       stw (ru6)       r10, sp[0x1]
             0x00012820: 40 90:       add (2rus)      r4, r0, 0x0
             0x00012822: 02 f0 10 58: ldw (lru6)      r0, dp[0x90]
             0x00012826: 02 70:       bt (ru6)        r0, 0x2 <.label478>
             0x00012828: 04 f0 7a d4: bl (lu10)       -0x107a <__sinit>
.label478    0x0001282c: 08 f0 80 6a: ldc (lru6)      r10, 0x200
             0x00012830: 53 f9 ec 9f: ldaw (l2rus)    r9, r4[0x3]
             0x00012834: 40 69:       ldc (ru6)       r5, 0x0
             0x00012836: c5 83:       ld16s (3r)      r0, r9[r5]
             0x00012838: 92 3c:       and (3r)        r1, r0, r10
             0x0001283a: 42 78:       bf (ru6)        r1, 0x2 <.label479>
             0x0001283c: 31 47:       zext (rus)      r0, 0x10
             0x0001283e: 07 73:       bu (u6)         0x7 <.label480>
.label479    0x00012840: 01 f0 14 68: ldc (lru6)      r0, 0x54
             0x00012844: c0 10:       add (3r)        r0, r4, r0
             0x00012846: 03 f0 71 d6: bl (lu10)       -0xe71 <__spin_lock_acquire_recursive>
             0x0001284a: 00 68:       ldc (ru6)       r0, 0x0
             0x0001284c: 84 81:       ld16s (3r)      r0, r9[r0]
.label480    0x0001284e: 10 90:       add (2rus)      r1, r0, 0x0
             0x00012850: 35 37:       sext (rus)      r1, 0x10
             0x00012852: 88 68:       ldc (ru6)       r2, 0x8
             0x00012854: 26 38:       and (3r)        r2, r1, r2
             0x00012856: 02 f0 85 70: bt (lru6)       r2, 0x85 <.label481>
             0x0001285a: 00 6a:       ldc (ru6)       r8, 0x0
             0x0001285c: 20 f0 40 68: ldc (lru6)      r1, 0x800
             0x00012860: 11 40:       or (3r)         r1, r0, r1
             0x00012862: 14 fe ec 87: st16 (l3r)      r1, r9[r8]
             0x00012866: e1 08:       ldw (2rus)      r2, r4[0x1]
             0x00012868: a2 c1:       lss (3r)        r2, r8, r2
             0x0001286a: 86 70:       bt (ru6)        r2, 0x6 <.label482>
             0x0001286c: bc 68:       ldc (ru6)       r2, 0x3c
             0x0001286e: e2 10:       add (3r)        r2, r4, r2
             0x00012870: 28 08:       ldw (2rus)      r2, r2[0x0]
             0x00012872: dd a6:       mkmsk (rus)     r3, 0x1
             0x00012874: 2b c0:       lss (3r)        r2, r2, r3
             0x00012876: bf 70:       bt (ru6)        r2, 0x3f <.label483>
.label482    0x00012878: f2 0d:       ldw (2rus)      r11, r4[0xa]
             0x0001287a: fd 7a:       bf (ru6)        r11, 0x3d <.label483>
             0x0001287c: 40 f0 80 68: ldc (lru6)      r2, 0x1000
             0x00012880: 02 38:       and (3r)        r0, r0, r2
             0x00012882: 3e 78:       bf (ru6)        r0, 0x3e <.label484>
             0x00012884: 01 f0 10 68: ldc (lru6)      r0, 0x50
             0x00012888: c0 10:       add (3r)        r0, r4, r0
             0x0001288a: 60 08:       ldw (2rus)      r6, r0[0x0]
.label492    0x0001288c: 04 68:       ldc (ru6)       r0, 0x4
             0x0001288e: 04 38:       and (3r)        r0, r1, r0
             0x00012890: 0a 78:       bf (ru6)        r0, 0xa <.label485>
             0x00012892: c1 08:       ldw (2rus)      r0, r4[0x1]
             0x00012894: 28 19:       sub (3r)        r6, r6, r0
             0x00012896: 30 68:       ldc (ru6)       r0, 0x30
             0x00012898: c0 10:       add (3r)        r0, r4, r0
             0x0001289a: 00 08:       ldw (2rus)      r0, r0[0x0]
             0x0001289c: 04 78:       bf (ru6)        r0, 0x4 <.label485>
             0x0001289e: 3c 68:       ldc (ru6)       r0, 0x3c
             0x000128a0: c0 10:       add (3r)        r0, r4, r0
             0x000128a2: 00 08:       ldw (2rus)      r0, r0[0x0]
             0x000128a4: 28 19:       sub (3r)        r6, r6, r0
.label485    0x000128a6: c0 69:       ldc (ru6)       r7, 0x0
             0x000128a8: 13 0b:       ldw (2rus)      r1, r4[0x7]
             0x000128aa: cc 90:       add (2rus)      r0, r7, 0x0
             0x000128ac: f2 0d:       ldw (2rus)      r11, r4[0xa]
             0x000128ae: e8 90:       add (2rus)      r2, r6, 0x0
             0x000128b0: fc 90:       add (2rus)      r3, r7, 0x0
             0x000128b2: eb 27:       bla (1r)        r11
             0x000128b4: 52 32:       eq (3r)         r1, r0, r6
             0x000128b6: c7 83:       ld16s (3r)      r0, r9[r7]
             0x000128b8: 01 f0 4b 78: bf (lru6)       r1, 0x4b <.label486>
             0x000128bc: df f3 7f 68: ldc (lru6)      r1, 0xf7ff
             0x000128c0: 11 38:       and (3r)        r1, r0, r1
             0x000128c2: d7 fb ec 87: st16 (l3r)      r1, r9[r7]
             0x000128c6: 31 01:       stw (2rus)      r7, r4[0x1]
             0x000128c8: 20 0b:       ldw (2rus)      r2, r4[0x4]
             0x000128ca: e0 00:       stw (2rus)      r2, r4[0x0]
             0x000128cc: 40 f0 80 68: ldc (lru6)      r2, 0x1000
             0x000128d0: 02 38:       and (3r)        r0, r0, r2
             0x000128d2: 04 78:       bf (ru6)        r0, 0x4 <.label487>
             0x000128d4: 01 f0 10 68: ldc (lru6)      r0, 0x50
             0x000128d8: c0 10:       add (3r)        r0, r4, r0
             0x000128da: 60 00:       stw (2rus)      r6, r0[0x0]
.label487    0x000128dc: 30 68:       ldc (ru6)       r0, 0x30
             0x000128de: 10 11:       add (3r)        r5, r4, r0
             0x000128e0: c4 08:       ldw (2rus)      r0, r5[0x0]
             0x000128e2: 09 78:       bf (ru6)        r0, 0x9 <.label483>
             0x000128e4: 01 f0 80 68: ldc (lru6)      r2, 0x40
             0x000128e8: e2 10:       add (3r)        r2, r4, r2
             0x000128ea: 22 30:       eq (3r)         r2, r0, r2
             0x000128ec: 83 70:       bt (ru6)        r2, 0x3 <.label488>
             0x000128ee: 02 f0 75 d0: bl (lu10)       0x875 <free>
             0x000128f2: d7 83:       ld16s (3r)      r1, r9[r7]
.label488    0x000128f4: 34 01:       stw (2rus)      r7, r5[0x0]
.label483    0x000128f6: 86 3c:       and (3r)        r0, r1, r10
             0x000128f8: 01 f0 25 78: bf (lru6)       r0, 0x65 <.label489>
             0x000128fc: 01 f0 29 73: bu (lu6)        0x69 <.label490>
.label484    0x00012900: 13 0b:       ldw (2rus)      r1, r4[0x7]
             0x00012902: c0 69:       ldc (ru6)       r7, 0x0
             0x00012904: dd a6:       mkmsk (rus)     r3, 0x1
             0x00012906: cc 90:       add (2rus)      r0, r7, 0x0
             0x00012908: ec 90:       add (2rus)      r2, r7, 0x0
             0x0001290a: eb 27:       bla (1r)        r11
             0x0001290c: 60 90:       add (2rus)      r6, r0, 0x0
             0x0001290e: 14 a7:       mkmsk (rus)     r5, 0x20
             0x00012910: 09 33:       eq (3r)         r0, r6, r5
             0x00012912: 03 70:       bt (ru6)        r0, 0x3 <.label491>
             0x00012914: d7 83:       ld16s (3r)      r1, r9[r7]
             0x00012916: 01 f0 07 77: bu (lu6)        -0x47 <.label492>
.label491    0x0001291a: 00 f0 a3 d6: bl (lu10)       -0x2a3 <__errno>
             0x0001291e: 9d 68:       ldc (ru6)       r2, 0x1d
             0x00012920: d7 83:       ld16s (3r)      r1, r9[r7]
             0x00012922: 00 08:       ldw (2rus)      r0, r0[0x0]
             0x00012924: 02 30:       eq (3r)         r0, r0, r2
             0x00012926: 02 78:       bf (ru6)        r0, 0x2 <.label493>
             0x00012928: 1c 91:       add (2rus)      r5, r7, 0x0
             0x0001292a: 06 73:       bu (u6)         0x6 <.label494>
.label493    0x0001292c: 01 f0 00 68: ldc (lru6)      r0, 0x40
             0x00012930: 14 40:       or (3r)         r1, r1, r0
             0x00012932: 00 68:       ldc (ru6)       r0, 0x0
             0x00012934: 94 f9 ec 87: st16 (l3r)      r1, r9[r0]
.label494    0x00012938: 86 3c:       and (3r)        r0, r1, r10
             0x0001293a: 03 78:       bf (ru6)        r0, 0x3 <.label495>
             0x0001293c: 44 91:       add (2rus)      r8, r5, 0x0
             0x0001293e: 01 f0 08 73: bu (lu6)        0x48 <.label490>
.label495    0x00012942: 01 f0 14 68: ldc (lru6)      r0, 0x54
             0x00012946: c0 10:       add (3r)        r0, r4, r0
             0x00012948: 03 f0 02 d7: bl (lu10)       -0xf02 <__spin_lock_release_recursive>
             0x0001294c: 44 91:       add (2rus)      r8, r5, 0x0
             0x0001294e: 01 f0 00 73: bu (lu6)        0x40 <.label490>
.label486    0x00012952: 01 f0 40 68: ldc (lru6)      r1, 0x40
             0x00012956: 11 40:       or (3r)         r1, r0, r1
             0x00012958: 82 3c:       and (3r)        r0, r0, r10
             0x0001295a: d7 fb ec 87: st16 (l3r)      r1, r9[r7]
             0x0001295e: 23 78:       bf (ru6)        r0, 0x23 <.label496>
             0x00012960: 50 a7:       mkmsk (rus)     r8, 0x20
             0x00012962: 37 73:       bu (u6)         0x37 <.label490>
.label481    0x00012964: 60 0b:       ldw (2rus)      r6, r4[0x4]
             0x00012966: 83 71:       bt (ru6)        r6, 0x3 <.label497>
             0x00012968: 82 3c:       and (3r)        r0, r0, r10
             0x0001296a: 2d 78:       bf (ru6)        r0, 0x2d <.label489>
             0x0001296c: 31 73:       bu (u6)         0x31 <.label498>
.label497    0x0001296e: e4 90:       add (2rus)      r2, r5, 0x0
             0x00012970: d6 46:       zext (rus)      r1, 0x2
             0x00012972: c0 08:       ldw (2rus)      r0, r4[0x0]
             0x00012974: 20 01:       stw (2rus)      r6, r4[0x0]
             0x00012976: 41 70:       bt (ru6)        r1, 0x1 <.label499>
             0x00012978: 21 0b:       ldw (2rus)      r2, r4[0x5]
.label499    0x0001297a: b2 1a:       sub (3r)        r7, r0, r6
             0x0001297c: e2 00:       stw (2rus)      r2, r4[0x2]
             0x0001297e: 1c 73:       bu (u6)         0x1c <.label500>
.label502    0x00012980: 13 0b:       ldw (2rus)      r1, r4[0x7]
             0x00012982: c4 90:       add (2rus)      r0, r5, 0x0
             0x00012984: f1 0d:       ldw (2rus)      r11, r4[0x9]
             0x00012986: e8 90:       add (2rus)      r2, r6, 0x0
             0x00012988: fc 90:       add (2rus)      r3, r7, 0x0
             0x0001298a: eb 27:       bla (1r)        r11
             0x0001298c: d4 c0:       lss (3r)        r1, r5, r0
             0x0001298e: 52 70:       bt (ru6)        r1, 0x12 <.label501>
             0x00012990: 01 f0 80 68: ldc (lru6)      r2, 0x40
             0x00012994: 40 68:       ldc (ru6)       r1, 0x0
             0x00012996: 85 81:       ld16s (3r)      r0, r9[r1]
             0x00012998: 22 40:       or (3r)         r2, r0, r2
             0x0001299a: a5 f9 ec 87: st16 (l3r)      r2, r9[r1]
             0x0001299e: 82 3c:       and (3r)        r0, r0, r10
             0x000129a0: 02 78:       bf (ru6)        r0, 0x2 <.label496>
             0x000129a2: 50 a7:       mkmsk (rus)     r8, 0x20
             0x000129a4: 16 73:       bu (u6)         0x16 <.label490>
.label496    0x000129a6: 01 f0 14 68: ldc (lru6)      r0, 0x54
             0x000129aa: c0 10:       add (3r)        r0, r4, r0
             0x000129ac: 03 f0 34 d7: bl (lu10)       -0xf34 <__spin_lock_release_recursive>
             0x000129b0: 50 a7:       mkmsk (rus)     r8, 0x20
             0x000129b2: 0f 73:       bu (u6)         0xf <.label490>
.label501    0x000129b4: 28 11:       add (3r)        r6, r6, r0
             0x000129b6: 3c 19:       sub (3r)        r7, r7, r0
.label500    0x000129b8: 07 c3:       lss (3r)        r0, r5, r7
             0x000129ba: 1e 74:       bt (ru6)        r0, -0x1e <.label502>
             0x000129bc: 42 68:       ldc (ru6)       r1, 0x2
             0x000129be: 0d 68:       ldc (ru6)       r0, 0xd
             0x000129c0: c0 88:       ld8u (3r)       r0, r4[r0]
             0x000129c2: 01 38:       and (3r)        r0, r0, r1
             0x000129c4: 05 70:       bt (ru6)        r0, 0x5 <.label498>
.label489    0x000129c6: 01 f0 14 68: ldc (lru6)      r0, 0x54
             0x000129ca: c0 10:       add (3r)        r0, r4, r0
             0x000129cc: 03 f0 44 d7: bl (lu10)       -0xf44 <__spin_lock_release_recursive>
.label498    0x000129d0: 00 6a:       ldc (ru6)       r8, 0x0
.label490    0x000129d2: 81 5e:       ldw (ru6)       r10, sp[0x1]
             0x000129d4: 42 5e:       ldw (ru6)       r9, sp[0x2]
             0x000129d6: 80 91:       add (2rus)      r0, r8, 0x0
             0x000129d8: 03 5e:       ldw (ru6)       r8, sp[0x3]
             0x000129da: c4 5d:       ldw (ru6)       r7, sp[0x4]
             0x000129dc: 85 5d:       ldw (ru6)       r6, sp[0x5]
             0x000129de: 46 5d:       ldw (ru6)       r5, sp[0x6]
             0x000129e0: 07 5d:       ldw (ru6)       r4, sp[0x7]
             0x000129e2: c8 77:       retsp (u6)      0x8

<fflush>:
             0x000129e4: 41 77:       entsp (u6)      0x1
             0x000129e6: 05 70:       bt (ru6)        r0, 0x5 <.label503>
             0x000129e8: 03 dc:       ldap (u10)      r11, -0x3 <fflush>
             0x000129ea: 8c 91:       add (2rus)      r0, r11, 0x0
             0x000129ec: 00 f0 04 d0: bl (lu10)       0x4 <_fwalk>
             0x000129f0: c1 77:       retsp (u6)      0x1
.label503    0x000129f2: f2 d4:       bl (u10)        -0xf2 <_fflush>
             0x000129f4: c1 77:       retsp (u6)      0x1
             0x000129f6: 00 00:       stw (2rus)      r0, r0[0x0]

<_fwalk>:
             0x000129f8: 49 77:       entsp (u6)      0x9
             0x000129fa: 08 55:       stw (ru6)       r4, sp[0x8]
             0x000129fc: 47 55:       stw (ru6)       r5, sp[0x7]
             0x000129fe: 86 55:       stw (ru6)       r6, sp[0x6]
             0x00012a00: c5 55:       stw (ru6)       r7, sp[0x5]
             0x00012a02: 04 56:       stw (ru6)       r8, sp[0x4]
             0x00012a04: 43 56:       stw (ru6)       r9, sp[0x3]
             0x00012a06: 82 56:       stw (ru6)       r10, sp[0x2]
             0x00012a08: 01 54:       stw (ru6)       r0, sp[0x1]
             0x00012a0a: 04 f0 79 d5: bl (lu10)       -0x1179 <__sfp_lock_acquire>
             0x00012a0e: c0 69:       ldc (ru6)       r7, 0x0
             0x00012a10: 08 f0 40 6a: ldc (lru6)      r9, 0x200
             0x00012a14: 01 f0 94 6a: ldc (lru6)      r10, 0x54
             0x00012a18: 02 f0 11 62: ldaw (lru6)     r8, dp[0x91]
             0x00012a1c: 1c 91:       add (2rus)      r5, r7, 0x0
.label510    0x00012a1e: d1 a6:       mkmsk (rus)     r0, 0x1
             0x00012a20: c1 09:       ldw (2rus)      r4, r8[0x1]
             0x00012a22: c0 c0:       lss (3r)        r0, r4, r0
             0x00012a24: 27 70:       bt (ru6)        r0, 0x27 <.label504>
             0x00012a26: e2 09:       ldw (2rus)      r6, r8[0x2]
.label509    0x00012a28: db 08:       ldw (2rus)      r1, r6[0x3]
             0x00012a2a: 04 90:       add (2rus)      r0, r1, 0x0
             0x00012a2c: 31 47:       zext (rus)      r0, 0x10
             0x00012a2e: 1c 78:       bf (ru6)        r0, 0x1c <.label505>
             0x00012a30: 04 90:       add (2rus)      r0, r1, 0x0
             0x00012a32: a5 3c:       and (3r)        r2, r1, r9
             0x00012a34: 88 70:       bt (ru6)        r2, 0x8 <.label506>
             0x00012a36: 4a 15:       add (3r)        r0, r6, r10
             0x00012a38: 03 f0 6a d7: bl (lu10)       -0xf6a <__spin_lock_acquire_recursive>
             0x00012a3c: db 08:       ldw (2rus)      r1, r6[0x3]
             0x00012a3e: 04 90:       add (2rus)      r0, r1, 0x0
             0x00012a40: 24 90:       add (2rus)      r2, r1, 0x0
             0x00012a42: 39 47:       zext (rus)      r2, 0x10
             0x00012a44: 8e 78:       bf (ru6)        r2, 0xe <.label507>
.label506    0x00012a46: 01 f0 92 6c: ldw (lru6)      r2, cp[0x52]
             0x00012a4a: 02 38:       and (3r)        r0, r0, r2
             0x00012a4c: 02 30:       eq (3r)         r0, r0, r2
             0x00012a4e: 07 70:       bt (ru6)        r0, 0x7 <.label508>
             0x00012a50: 41 5c:       ldw (ru6)       r1, sp[0x1]
             0x00012a52: c8 90:       add (2rus)      r0, r6, 0x0
             0x00012a54: e1 27:       bla (1r)        r1
             0x00012a56: 91 42:       or (3r)         r5, r0, r5
             0x00012a58: db f8 ec 9f: ldaw (l2rus)    r1, r6[0x3]
             0x00012a5c: 57 82:       ld16s (3r)      r1, r1[r7]
.label508    0x00012a5e: 85 3c:       and (3r)        r0, r1, r9
             0x00012a60: 03 70:       bt (ru6)        r0, 0x3 <.label505>
.label507    0x00012a62: 4a 15:       add (3r)        r0, r6, r10
             0x00012a64: 03 f0 90 d7: bl (lu10)       -0xf90 <__spin_lock_release_recursive>
.label505    0x00012a68: 01 99:       sub (2rus)      r4, r4, 0x1
             0x00012a6a: 01 f0 1c 68: ldc (lru6)      r0, 0x5c
             0x00012a6e: 28 11:       add (3r)        r6, r6, r0
             0x00012a70: 0c c3:       lss (3r)        r0, r7, r4
             0x00012a72: 26 74:       bt (ru6)        r0, -0x26 <.label509>
.label504    0x00012a74: 00 0a:       ldw (2rus)      r8, r8[0x0]
             0x00012a76: 2d 76:       bt (ru6)        r8, -0x2d <.label510>
             0x00012a78: 04 f0 b6 d5: bl (lu10)       -0x11b6 <__sfp_lock_release>
             0x00012a7c: 82 5e:       ldw (ru6)       r10, sp[0x2]
             0x00012a7e: 43 5e:       ldw (ru6)       r9, sp[0x3]
             0x00012a80: 04 5e:       ldw (ru6)       r8, sp[0x4]
             0x00012a82: c5 5d:       ldw (ru6)       r7, sp[0x5]
             0x00012a84: 86 5d:       ldw (ru6)       r6, sp[0x6]
             0x00012a86: c4 90:       add (2rus)      r0, r5, 0x0
             0x00012a88: 47 5d:       ldw (ru6)       r5, sp[0x7]
             0x00012a8a: 08 5d:       ldw (ru6)       r4, sp[0x8]
             0x00012a8c: c9 77:       retsp (u6)      0x9
             0x00012a8e: 00 00:       stw (2rus)      r0, r0[0x0]

<dtoa>:
             0x00012a90: ee 17:       get (0r)        r11, id
             0x00012a92: 60 77:       entsp (u6)      0x20
             0x00012a94: 1f 55:       stw (ru6)       r4, sp[0x1f]
             0x00012a96: 5e 55:       stw (ru6)       r5, sp[0x1e]
             0x00012a98: 03 f0 63 61: ldaw (lru6)     r5, dp[0xe3]
             0x00012a9c: 9d 55:       stw (ru6)       r6, sp[0x1d]
             0x00012a9e: dc 55:       stw (ru6)       r7, sp[0x1c]
             0x00012aa0: 1b 56:       stw (ru6)       r8, sp[0x1b]
             0x00012aa2: 60 90:       add (2rus)      r6, r0, 0x0
             0x00012aa4: 5a 56:       stw (ru6)       r9, sp[0x1a]
             0x00012aa6: 99 56:       stw (ru6)       r10, sp[0x19]
             0x00012aa8: d6 54:       stw (ru6)       r3, sp[0x16]
             0x00012aaa: 95 54:       stw (ru6)       r2, sp[0x15]
             0x00012aac: 94 90:       add (2rus)      r9, r1, 0x0
             0x00012aae: 47 4d:       ldw (3r)        r0, r5[r11]
             0x00012ab0: 12 78:       bf (ru6)        r0, 0x12 <.label511>
             0x00012ab2: ee 17:       get (0r)        r11, id
             0x00012ab4: 03 f0 7b 60: ldaw (lru6)     r1, dp[0xfb]
             0x00012ab8: cc 91:       add (2rus)      r4, r11, 0x0
             0x00012aba: 64 4a:       ldw (3r)        r2, r1[r4]
             0x00012abc: c0 69:       ldc (ru6)       r7, 0x0
             0x00012abe: 21 00:       stw (2rus)      r2, r0[0x1]
             0x00012ac0: 04 4b:       ldw (3r)        r0, r5[r4]
             0x00012ac2: d9 a6:       mkmsk (rus)     r2, 0x1
             0x00012ac4: 54 4a:       ldw (3r)        r1, r1[r4]
             0x00012ac6: 19 20:       shl (3r)        r1, r2, r1
             0x00012ac8: 12 00:       stw (2rus)      r1, r0[0x2]
             0x00012aca: 14 4b:       ldw (3r)        r1, r5[r4]
             0x00012acc: cc 90:       add (2rus)      r0, r7, 0x0
             0x00012ace: 02 f0 05 d1: bl (lu10)       0x905 <_Bfree>
             0x00012ad2: 74 fb ec 07: stw (l3r)       r7, r5[r4]
.label511    0x00012ad6: 23 5d:       ldw (ru6)       r4, sp[0x23]
             0x00012ad8: 94 f9 ec 97: ashr (l2rus)    r1, r9, 0x20
             0x00012adc: 22 5c:       ldw (ru6)       r0, sp[0x22]
             0x00012ade: 46 78:       bf (ru6)        r1, 0x6 <.label512>
             0x00012ae0: d5 a6:       mkmsk (rus)     r1, 0x1
             0x00012ae2: 10 00:       stw (2rus)      r1, r0[0x0]
             0x00012ae4: 01 f0 08 6c: ldw (lru6)      r0, cp[0x48]
             0x00012ae8: 14 3a:       and (3r)        r9, r9, r0
             0x00012aea: 02 73:       bu (u6)         0x2 <.label513>
.label512    0x00012aec: 40 68:       ldc (ru6)       r1, 0x0
             0x00012aee: 10 00:       stw (2rus)      r1, r0[0x0]
.label513    0x00012af0: 01 f0 11 6c: ldw (lru6)      r0, cp[0x51]
             0x00012af4: 94 39:       and (3r)        r1, r9, r0
             0x00012af6: 43 54:       stw (ru6)       r1, sp[0x3]
             0x00012af8: 04 30:       eq (3r)         r0, r1, r0
             0x00012afa: 1b 78:       bf (ru6)        r0, 0x1b <.label514>
             0x00012afc: 9c f0 0f 68: ldc (lru6)      r0, 0x270f
             0x00012b00: 61 5c:       ldw (ru6)       r1, sp[0x21]
             0x00012b02: 04 00:       stw (2rus)      r0, r1[0x0]
             0x00012b04: 01 f0 14 6c: ldw (lru6)      r0, cp[0x54]
             0x00012b08: 84 39:       and (3r)        r0, r9, r0
             0x00012b0a: c8 40:       or (3r)         r0, r6, r0
             0x00012b0c: 03 78:       bf (ru6)        r0, 0x3 <.label515>
             0x00012b0e: 01 f0 30 60: ldaw (lru6)     r0, dp[0x70]
             0x00012b12: 02 73:       bu (u6)         0x2 <.label516>
.label515    0x00012b14: 01 f0 2d 60: ldaw (lru6)     r0, dp[0x6d]
.label516    0x00012b18: 1a f0 04 79: bf (lru6)       r4, 0x684 <.label517>
             0x00012b1c: d6 a6:       mkmsk (rus)     r1, 0x2
             0x00012b1e: 11 88:       ld8u (3r)       r1, r0[r1]
             0x00012b20: 44 78:       bf (ru6)        r1, 0x4 <.label518>
             0x00012b22: 90 94:       add (2rus)      r1, r0, 0x8
             0x00012b24: d0 00:       stw (2rus)      r1, r4[0x0]
             0x00012b26: 19 f0 3d 73: bu (lu6)        0x67d <.label517>
.label518    0x00012b2a: 13 90:       add (2rus)      r1, r0, 0x3
             0x00012b2c: d0 00:       stw (2rus)      r1, r4[0x0]
             0x00012b2e: 19 f0 39 73: bu (lu6)        0x679 <.label517>
.label514    0x00012b32: c0 68:       ldc (ru6)       r3, 0x0
             0x00012b34: c8 90:       add (2rus)      r0, r6, 0x0
             0x00012b36: 94 91:       add (2rus)      r1, r9, 0x0
             0x00012b38: 2c 90:       add (2rus)      r2, r3, 0x0
             0x00012b3a: 00 f0 6f d7: bl (lu10)       -0x36f <__nedf2>
             0x00012b3e: 0b 70:       bt (ru6)        r0, 0xb <.label519>
             0x00012b40: 61 5c:       ldw (ru6)       r1, sp[0x21]
             0x00012b42: d1 a6:       mkmsk (rus)     r0, 0x1
             0x00012b44: 04 00:       stw (2rus)      r0, r1[0x0]
             0x00012b46: 01 f0 31 60: ldaw (lru6)     r0, dp[0x71]
             0x00012b4a: 19 f0 2b 79: bf (lru6)       r4, 0x66b <.label517>
             0x00012b4e: 11 90:       add (2rus)      r1, r0, 0x1
             0x00012b50: d0 00:       stw (2rus)      r1, r4[0x0]
             0x00012b52: 19 f0 27 73: bu (lu6)        0x667 <.label517>
.label519    0x00012b56: 18 64:       ldaw (ru6)      r0, sp[0x18]
             0x00012b58: 01 54:       stw (ru6)       r0, sp[0x1]
             0x00012b5a: 00 68:       ldc (ru6)       r0, 0x0
             0x00012b5c: 05 54:       stw (ru6)       r0, sp[0x5]
             0x00012b5e: d7 64:       ldaw (ru6)      r3, sp[0x17]
             0x00012b60: d8 90:       add (2rus)      r1, r6, 0x0
             0x00012b62: a4 91:       add (2rus)      r2, r9, 0x0
             0x00012b64: 02 f0 3a d1: bl (lu10)       0x93a <__d2b>
             0x00012b68: 13 54:       stw (ru6)       r0, sp[0x13]
             0x00012b6a: 14 68:       ldc (ru6)       r0, 0x14
             0x00012b6c: 84 29:       shr (3r)        r0, r9, r0
             0x00012b6e: 1f f0 7f 68: ldc (lru6)      r1, 0x7ff
             0x00012b72: 01 38:       and (3r)        r0, r0, r1
             0x00012b74: 0d 78:       bf (ru6)        r0, 0xd <.label520>
             0x00012b76: 01 f0 53 6c: ldw (lru6)      r1, cp[0x53]
             0x00012b7a: 81 10:       add (3r)        r8, r0, r1
             0x00012b7c: d4 91:       add (2rus)      r5, r9, 0x0
             0x00012b7e: 01 f0 14 6c: ldw (lru6)      r0, cp[0x54]
             0x00012b82: 84 39:       and (3r)        r0, r9, r0
             0x00012b84: 68 91:       add (2rus)      r10, r6, 0x0
             0x00012b86: 01 f0 55 6c: ldw (lru6)      r1, cp[0x55]
             0x00012b8a: 11 40:       or (3r)         r1, r0, r1
             0x00012b8c: c8 90:       add (2rus)      r0, r6, 0x0
             0x00012b8e: 21 73:       bu (u6)         0x21 <.label521>
.label520    0x00012b90: 18 5c:       ldw (ru6)       r0, sp[0x18]
             0x00012b92: 57 5c:       ldw (ru6)       r1, sp[0x17]
             0x00012b94: 44 10:       add (3r)        r4, r1, r0
             0x00012b96: 61 68:       ldc (ru6)       r1, 0x21
             0x00012b98: 10 f0 32 68: ldc (lru6)      r0, 0x432
             0x00012b9c: c0 10:       add (3r)        r0, r4, r0
             0x00012b9e: 01 c0:       lss (3r)        r0, r0, r1
             0x00012ba0: 0a 70:       bt (ru6)        r0, 0xa <.label522>
             0x00012ba2: 01 f0 57 6c: ldw (lru6)      r1, cp[0x57]
             0x00012ba6: 54 1a:       sub (3r)        r1, r1, r4
             0x00012ba8: 10 f0 12 68: ldc (lru6)      r0, 0x412
             0x00012bac: c0 10:       add (3r)        r0, r4, r0
             0x00012bae: c8 28:       shr (3r)        r0, r6, r0
             0x00012bb0: 95 21:       shl (3r)        r1, r9, r1
             0x00012bb2: 04 40:       or (3r)         r0, r1, r0
             0x00012bb4: 04 73:       bu (u6)         0x4 <.label523>
.label522    0x00012bb6: 01 f0 16 6c: ldw (lru6)      r0, cp[0x56]
             0x00012bba: 40 1a:       sub (3r)        r0, r0, r4
             0x00012bbc: c8 20:       shl (3r)        r0, r6, r0
.label523    0x00012bbe: d4 91:       add (2rus)      r5, r9, 0x0
             0x00012bc0: 68 91:       add (2rus)      r10, r6, 0x0
             0x00012bc2: 03 f0 6d d3: bl (lu10)       0xf6d <__floatunsidf>
             0x00012bc6: 01 f0 98 6c: ldw (lru6)      r2, cp[0x58]
             0x00012bca: 16 10:       add (3r)        r1, r1, r2
             0x00012bcc: d9 a6:       mkmsk (rus)     r2, 0x1
             0x00012bce: 85 54:       stw (ru6)       r2, sp[0x5]
             0x00012bd0: 41 99:       sub (2rus)      r8, r4, 0x1
.label521    0x00012bd2: 01 f0 d9 6c: ldw (lru6)      r3, cp[0x59]
             0x00012bd6: 80 69:       ldc (ru6)       r6, 0x0
             0x00012bd8: e8 90:       add (2rus)      r2, r6, 0x0
             0x00012bda: 03 f0 21 d1: bl (lu10)       0xd21 <__adddf3>
             0x00012bde: 01 f0 9a 6c: ldw (lru6)      r2, cp[0x5a]
             0x00012be2: 01 f0 db 6c: ldw (lru6)      r3, cp[0x5b]
             0x00012be6: 04 f0 25 d0: bl (lu10)       0x1025 <__muldf3>
             0x00012bea: 01 f0 9c 6c: ldw (lru6)      r2, cp[0x5c]
             0x00012bee: 01 f0 dd 6c: ldw (lru6)      r3, cp[0x5d]
             0x00012bf2: 03 f0 15 d1: bl (lu10)       0xd15 <__adddf3>
             0x00012bf6: 44 90:       add (2rus)      r4, r1, 0x0
             0x00012bf8: 70 90:       add (2rus)      r7, r0, 0x0
             0x00012bfa: 80 91:       add (2rus)      r0, r8, 0x0
             0x00012bfc: 03 f0 26 d3: bl (lu10)       0xf26 <__floatsidf>
             0x00012c00: 01 f0 9e 6c: ldw (lru6)      r2, cp[0x5e]
             0x00012c04: 01 f0 df 6c: ldw (lru6)      r3, cp[0x5f]
             0x00012c08: 04 f0 14 d0: bl (lu10)       0x1014 <__muldf3>
             0x00012c0c: 34 90:       add (2rus)      r3, r1, 0x0
             0x00012c0e: d0 90:       add (2rus)      r1, r4, 0x0
             0x00012c10: 20 90:       add (2rus)      r2, r0, 0x0
             0x00012c12: cc 90:       add (2rus)      r0, r7, 0x0
             0x00012c14: 03 f0 04 d1: bl (lu10)       0xd04 <__adddf3>
             0x00012c18: f8 90:       add (2rus)      r3, r6, 0x0
             0x00012c1a: e8 90:       add (2rus)      r2, r6, 0x0
             0x00012c1c: 44 90:       add (2rus)      r4, r1, 0x0
             0x00012c1e: d0 90:       add (2rus)      r1, r4, 0x0
             0x00012c20: 70 90:       add (2rus)      r7, r0, 0x0
             0x00012c22: cc 90:       add (2rus)      r0, r7, 0x0
             0x00012c24: 01 f0 22 d4: bl (lu10)       -0x422 <__gedf2>
             0x00012c28: f8 90:       add (2rus)      r3, r6, 0x0
             0x00012c2a: e8 90:       add (2rus)      r2, r6, 0x0
             0x00012c2c: d0 90:       add (2rus)      r1, r4, 0x0
             0x00012c2e: 00 f8 ec 97: ashr (l2rus)    r0, r0, 0x20
             0x00012c32: 90 b0:       eq (2rus)       r9, r0, 0x0
             0x00012c34: cc 90:       add (2rus)      r0, r7, 0x0
             0x00012c36: 00 f0 2f d6: bl (lu10)       -0x22f <__unorddf2>
             0x00012c3a: 00 b0:       eq (2rus)       r0, r0, 0x0
             0x00012c3c: 00 b0:       eq (2rus)       r0, r0, 0x0
             0x00012c3e: 11 45:       or (3r)         r9, r0, r9
             0x00012c40: d0 90:       add (2rus)      r1, r4, 0x0
             0x00012c42: cc 90:       add (2rus)      r0, r7, 0x0
             0x00012c44: 03 f0 d0 d2: bl (lu10)       0xed0 <__fixdfsi>
             0x00012c48: 60 90:       add (2rus)      r6, r0, 0x0
             0x00012c4a: 43 7a:       bf (ru6)        r9, 0x3 <.label524>
             0x00012c4c: f8 91:       add (2rus)      r7, r10, 0x0
             0x00012c4e: 54 91:       add (2rus)      r9, r5, 0x0
             0x00012c50: 0b 73:       bu (u6)         0xb <.label525>
.label524    0x00012c52: c8 90:       add (2rus)      r0, r6, 0x0
             0x00012c54: 03 f0 fa d2: bl (lu10)       0xefa <__floatsidf>
             0x00012c58: f0 90:       add (2rus)      r3, r4, 0x0
             0x00012c5a: ec 90:       add (2rus)      r2, r7, 0x0
             0x00012c5c: 01 f0 62 d4: bl (lu10)       -0x462 <__eqdf2>
             0x00012c60: 54 91:       add (2rus)      r9, r5, 0x0
             0x00012c62: 01 78:       bf (ru6)        r0, 0x1 <.label526>
             0x00012c64: 29 99:       sub (2rus)      r6, r6, 0x1
.label526    0x00012c66: f8 91:       add (2rus)      r7, r10, 0x0
.label525    0x00012c68: 11 a7:       mkmsk (rus)     r4, 0x1
             0x00012c6a: 16 68:       ldc (ru6)       r0, 0x16
             0x00012c6c: 42 ca:       lsu (3r)        r0, r0, r6
             0x00012c6e: 02 78:       bf (ru6)        r0, 0x2 <.label527>
             0x00012c70: 08 55:       stw (ru6)       r4, sp[0x8]
             0x00012c72: 0e 73:       bu (u6)         0xe <.label528>
.label527    0x00012c74: 00 f0 40 7f: ldaw (lu6)      r11, cp[0x0]
             0x00012c78: cb a0:       shl (2rus)      r0, r6, 0x3
             0x00012c7a: 8c 11:       add (3r)        r0, r11, r0
             0x00012c7c: 20 08:       ldw (2rus)      r2, r0[0x0]
             0x00012c7e: 94 91:       add (2rus)      r1, r9, 0x0
             0x00012c80: 31 08:       ldw (2rus)      r3, r0[0x1]
             0x00012c82: cc 90:       add (2rus)      r0, r7, 0x0
             0x00012c84: 03 f0 ac d3: bl (lu10)       0xfac <__ltdf2>
             0x00012c88: 40 68:       ldc (ru6)       r1, 0x0
             0x00012c8a: 01 c0:       lss (3r)        r0, r0, r1
             0x00012c8c: 28 19:       sub (3r)        r6, r6, r0
             0x00012c8e: 48 54:       stw (ru6)       r1, sp[0x8]
.label528    0x00012c90: 80 68:       ldc (ru6)       r2, 0x0
             0x00012c92: 18 5c:       ldw (ru6)       r0, sp[0x18]
             0x00012c94: 8d 54:       stw (ru6)       r2, sp[0xd]
             0x00012c96: 80 1c:       sub (3r)        r0, r0, r8
             0x00012c98: 94 54:       stw (ru6)       r2, sp[0x14]
             0x00012c9a: 18 c0:       lss (3r)        r1, r2, r0
             0x00012c9c: 42 70:       bt (ru6)        r1, 0x2 <.label529>
             0x00012c9e: e0 18:       sub (3r)        r2, r4, r0
             0x00012ca0: 94 54:       stw (ru6)       r2, sp[0x14]
.label529    0x00012ca2: 42 78:       bf (ru6)        r1, 0x2 <.label530>
             0x00012ca4: 01 98:       sub (2rus)      r0, r0, 0x1
             0x00012ca6: 0d 54:       stw (ru6)       r0, sp[0xd]
.label530    0x00012ca8: c8 f8 ec 97: ashr (l2rus)    r0, r6, 0x20
             0x00012cac: d5 5e:       ldw (ru6)       r11, sp[0x15]
             0x00012cae: 07 70:       bt (ru6)        r0, 0x7 <.label531>
             0x00012cb0: f8 90:       add (2rus)      r3, r6, 0x0
             0x00012cb2: 0d 5c:       ldw (ru6)       r0, sp[0xd]
             0x00012cb4: 42 12:       add (3r)        r0, r0, r6
             0x00012cb6: 0d 54:       stw (ru6)       r0, sp[0xd]
             0x00012cb8: 00 68:       ldc (ru6)       r0, 0x0
             0x00012cba: 0a 54:       stw (ru6)       r0, sp[0xa]
             0x00012cbc: 06 73:       bu (u6)         0x6 <.label532>
.label531    0x00012cbe: c0 68:       ldc (ru6)       r3, 0x0
             0x00012cc0: 14 5c:       ldw (ru6)       r0, sp[0x14]
             0x00012cc2: 42 1a:       sub (3r)        r0, r0, r6
             0x00012cc4: 14 54:       stw (ru6)       r0, sp[0x14]
             0x00012cc6: 82 97:       neg (2r)        r0, r6
             0x00012cc8: 0a 54:       stw (ru6)       r0, sp[0xa]
.label532    0x00012cca: 40 68:       ldc (ru6)       r1, 0x0
             0x00012ccc: 24 90:       add (2rus)      r2, r1, 0x0
             0x00012cce: 09 68:       ldc (ru6)       r0, 0x9
             0x00012cd0: 83 cc:       lsu (3r)        r0, r0, r11
             0x00012cd2: 4c 56:       stw (ru6)       r9, sp[0xc]
             0x00012cd4: 01 70:       bt (ru6)        r0, 0x1 <.label533>
             0x00012cd6: ac 91:       add (2rus)      r2, r11, 0x0
.label533    0x00012cd8: c7 54:       stw (ru6)       r3, sp[0x7]
             0x00012cda: 05 68:       ldc (ru6)       r0, 0x5
             0x00012cdc: 42 c0:       lss (3r)        r4, r0, r2
             0x00012cde: 03 79:       bf (ru6)        r4, 0x3 <.label534>
             0x00012ce0: 68 9a:       sub (2rus)      r2, r2, 0x4
             0x00012ce2: cf 55:       stw (ru6)       r7, sp[0xf]
             0x00012ce4: 01 73:       bu (u6)         0x1 <.label535>
.label534    0x00012ce6: cf 55:       stw (ru6)       r7, sp[0xf]
.label535    0x00012ce8: 56 5e:       ldw (ru6)       r9, sp[0x16]
             0x00012cea: 1d a7:       mkmsk (rus)     r7, 0x1
             0x00012cec: dc a6:       mkmsk (rus)     r3, 0x20
             0x00012cee: 02 c8:       lsu (3r)        r0, r0, r2
             0x00012cf0: 03 78:       bf (ru6)        r0, 0x3 <.label536>
             0x00012cf2: bc 90:       add (2rus)      r11, r3, 0x0
             0x00012cf4: 8e 54:       stw (ru6)       r2, sp[0xe]
             0x00012cf6: 14 73:       bu (u6)         0x14 <.label537>
.label536    0x00012cf8: cc 90:       add (2rus)      r0, r7, 0x0
             0x00012cfa: bc 90:       add (2rus)      r11, r3, 0x0
             0x00012cfc: 54 90:       add (2rus)      r5, r1, 0x0
             0x00012cfe: 8e 54:       stw (ru6)       r2, sp[0xe]
             0x00012d00: e2 2f:       bru (1r)        r2
             0x00012d02: 23 73:       bu (u6)         0x23 <.label538>
             0x00012d04: 22 73:       bu (u6)         0x22 <.label538>
             0x00012d06: 03 73:       bu (u6)         0x3 <.label539>
             0x00012d08: 18 73:       bu (u6)         0x18 <.label540>
             0x00012d0a: 02 73:       bu (u6)         0x2 <.label541>
             0x00012d0c: 17 73:       bu (u6)         0x17 <.label542>
.label539    0x00012d0e: 00 68:       ldc (ru6)       r0, 0x0
.label541    0x00012d10: d7 c3:       lss (3r)        r1, r9, r7
             0x00012d12: 41 70:       bt (ru6)        r1, 0x1 <.label543>
             0x00012d14: f4 91:       add (2rus)      r7, r9, 0x0
.label543    0x00012d16: fc 90:       add (2rus)      r3, r7, 0x0
             0x00012d18: 9c 90:       add (2rus)      r9, r3, 0x0
             0x00012d1a: 8c 90:       add (2rus)      r8, r3, 0x0
             0x00012d1c: bc 90:       add (2rus)      r11, r3, 0x0
             0x00012d1e: 70 90:       add (2rus)      r7, r0, 0x0
.label537    0x00012d20: d1 56:       stw (ru6)       r11, sp[0x11]
             0x00012d22: 40 68:       ldc (ru6)       r1, 0x0
             0x00012d24: 03 f0 3b 60: ldaw (lru6)     r0, dp[0xfb]
             0x00012d28: ee 17:       get (0r)        r11, id
             0x00012d2a: 93 fc ec 07: stw (l3r)       r1, r0[r11]
             0x00012d2e: 98 68:       ldc (ru6)       r2, 0x18
             0x00012d30: a2 c9:       lsu (3r)        r2, r8, r2
             0x00012d32: 94 78:       bf (ru6)        r2, 0x14 <.label544>
             0x00012d34: d0 54:       stw (ru6)       r3, sp[0x10]
             0x00012d36: 92 55:       stw (ru6)       r6, sp[0x12]
             0x00012d38: 1e 73:       bu (u6)         0x1e <.label545>
.label540    0x00012d3a: c0 69:       ldc (ru6)       r7, 0x0
.label542    0x00012d3c: d4 91:       add (2rus)      r5, r9, 0x0
             0x00012d3e: 79 15:       add (3r)        r3, r6, r9
             0x00012d40: 0c f8 ec 97: ashr (l2rus)    r0, r3, 0x20
             0x00012d44: bd 90:       add (2rus)      r11, r3, 0x1
             0x00012d46: 0c 92:       add (2rus)      r8, r11, 0x0
             0x00012d48: 15 7c:       bf (ru6)        r0, -0x15 <.label537>
.label538    0x00012d4a: d1 56:       stw (ru6)       r11, sp[0x11]
             0x00012d4c: ee 17:       get (0r)        r11, id
             0x00012d4e: d0 54:       stw (ru6)       r3, sp[0x10]
             0x00012d50: 03 f0 3b 60: ldaw (lru6)     r0, dp[0xfb]
             0x00012d54: 92 55:       stw (ru6)       r6, sp[0x12]
             0x00012d56: 93 fc ec 07: stw (l3r)       r1, r0[r11]
             0x00012d5a: 0e 73:       bu (u6)         0xe <.label546>
.label544    0x00012d5c: d4 6a:       ldc (ru6)       r11, 0x14
             0x00012d5e: d0 54:       stw (ru6)       r3, sp[0x10]
             0x00012d60: 84 68:       ldc (ru6)       r2, 0x4
             0x00012d62: 92 55:       stw (ru6)       r6, sp[0x12]
.label547    0x00012d64: be f9 ec 2f: lda16 (l3r)     r3, r11[r2]
             0x00012d68: b3 c9:       lsu (3r)        r3, r8, r3
             0x00012d6a: 29 a0:       shl (2rus)      r2, r2, 0x1
             0x00012d6c: 15 90:       add (2rus)      r1, r1, 0x1
             0x00012d6e: c6 7c:       bf (ru6)        r3, -0x6 <.label547>
             0x00012d70: ee 17:       get (0r)        r11, id
             0x00012d72: 93 fc ec 07: stw (l3r)       r1, r0[r11]
.label545    0x00012d76: d4 91:       add (2rus)      r5, r9, 0x0
.label546    0x00012d78: cb 55:       stw (ru6)       r7, sp[0xb]
             0x00012d7a: 46 55:       stw (ru6)       r5, sp[0x6]
             0x00012d7c: 00 68:       ldc (ru6)       r0, 0x0
             0x00012d7e: 02 f0 01 d0: bl (lu10)       0x801 <_Balloc>
             0x00012d82: 15 54:       stw (ru6)       r0, sp[0x15]
             0x00012d84: 03 f0 63 60: ldaw (lru6)     r1, dp[0xe3]
             0x00012d88: ee 17:       get (0r)        r11, id
             0x00012d8a: 87 fc ec 07: stw (l3r)       r0, r1[r11]
             0x00012d8e: 4e 68:       ldc (ru6)       r1, 0xe
             0x00012d90: 11 5c:       ldw (ru6)       r0, sp[0x11]
             0x00012d92: 04 c8:       lsu (3r)        r0, r1, r0
             0x00012d94: 07 f0 1c 70: bt (lru6)       r0, 0x1dc <.label548>
             0x00012d98: 07 f0 1a 71: bt (lru6)       r4, 0x1da <.label548>
             0x00012d9c: d1 a6:       mkmsk (rus)     r0, 0x1
             0x00012d9e: 52 5e:       ldw (ru6)       r9, sp[0x12]
             0x00012da0: 84 c1:       lss (3r)        r0, r9, r0
             0x00012da2: 3b 70:       bt (ru6)        r0, 0x3b <.label549>
             0x00012da4: 04 fc ec 97: ashr (l2rus)    r4, r9, 0x4
             0x00012da8: 10 68:       ldc (ru6)       r0, 0x10
             0x00012daa: c0 38:       and (3r)        r0, r4, r0
             0x00012dac: 00 f0 40 7f: ldaw (lu6)      r11, cp[0x0]
             0x00012db0: 94 91:       add (2rus)      r1, r9, 0x0
             0x00012db2: 94 47:       zext (rus)      r1, 0x4
             0x00012db4: 17 a0:       shl (2rus)      r1, r1, 0x3
             0x00012db6: 9d 11:       add (3r)        r1, r11, r1
             0x00012db8: 65 08:       ldw (2rus)      r6, r1[0x1]
             0x00012dba: 74 08:       ldw (2rus)      r7, r1[0x0]
             0x00012dbc: 04 70:       bt (ru6)        r0, 0x4 <.label550>
             0x00012dbe: 0f 5e:       ldw (ru6)       r8, sp[0xf]
             0x00012dc0: 8c 5e:       ldw (ru6)       r10, sp[0xc]
             0x00012dc2: 42 69:       ldc (ru6)       r5, 0x2
             0x00012dc4: 0c 73:       bu (u6)         0xc <.label551>
.label550    0x00012dc6: 00 f0 74 7f: ldaw (lu6)      r11, cp[0x34]
             0x00012dca: 2c 0e:       ldw (2rus)      r2, r11[0x8]
             0x00012dcc: 3d 0e:       ldw (2rus)      r3, r11[0x9]
             0x00012dce: 0f 5c:       ldw (ru6)       r0, sp[0xf]
             0x00012dd0: 4c 5c:       ldw (ru6)       r1, sp[0xc]
             0x00012dd2: 03 f0 77 d1: bl (lu10)       0xd77 <__divdf3>
             0x00012dd6: 16 a7:       mkmsk (rus)     r5, 0x2
             0x00012dd8: d0 47:       zext (rus)      r4, 0x4
             0x00012dda: a4 90:       add (2rus)      r10, r1, 0x0
             0x00012ddc: 80 90:       add (2rus)      r8, r0, 0x0
.label551    0x00012dde: 00 f0 74 7f: ldaw (lu6)      r11, cp[0x34]
             0x00012de2: 1c 92:       add (2rus)      r9, r11, 0x0
             0x00012de4: 10 79:       bf (ru6)        r4, 0x10 <.label552>
.label554    0x00012de6: c0 90:       add (2rus)      r0, r4, 0x0
             0x00012de8: d1 46:       zext (rus)      r0, 0x1
             0x00012dea: 09 78:       bf (ru6)        r0, 0x9 <.label553>
             0x00012dec: 84 09:       ldw (2rus)      r0, r9[0x0]
             0x00012dee: ec 90:       add (2rus)      r2, r7, 0x0
             0x00012df0: 95 09:       ldw (2rus)      r1, r9[0x1]
             0x00012df2: f8 90:       add (2rus)      r3, r6, 0x0
             0x00012df4: 03 f0 1e d3: bl (lu10)       0xf1e <__muldf3>
             0x00012df8: 70 90:       add (2rus)      r7, r0, 0x0
             0x00012dfa: 64 90:       add (2rus)      r6, r1, 0x0
             0x00012dfc: 15 91:       add (2rus)      r5, r5, 0x1
.label553    0x00012dfe: 94 96:       add (2rus)      r9, r9, 0x8
             0x00012e00: 01 f9 ec 97: ashr (l2rus)    r4, r4, 0x1
             0x00012e04: 10 75:       bt (ru6)        r4, -0x10 <.label554>
.label552    0x00012e06: 80 91:       add (2rus)      r0, r8, 0x0
             0x00012e08: 98 91:       add (2rus)      r1, r10, 0x0
             0x00012e0a: f8 90:       add (2rus)      r3, r6, 0x0
             0x00012e0c: ec 90:       add (2rus)      r2, r7, 0x0
             0x00012e0e: 03 f0 59 d1: bl (lu10)       0xd59 <__divdf3>
             0x00012e12: 80 90:       add (2rus)      r8, r0, 0x0
             0x00012e14: 52 5e:       ldw (ru6)       r9, sp[0x12]
             0x00012e16: 64 90:       add (2rus)      r6, r1, 0x0
             0x00012e18: 2b 73:       bu (u6)         0x2b <.label555>
.label549    0x00012e1a: 44 72:       bt (ru6)        r9, 0x4 <.label556>
             0x00012e1c: 0f 5e:       ldw (ru6)       r8, sp[0xf]
             0x00012e1e: 42 69:       ldc (ru6)       r5, 0x2
             0x00012e20: 8c 5d:       ldw (ru6)       r6, sp[0xc]
             0x00012e22: 26 73:       bu (u6)         0x26 <.label555>
.label556    0x00012e24: 61 97:       neg (2r)        r4, r9
             0x00012e26: c0 90:       add (2rus)      r0, r4, 0x0
             0x00012e28: 90 47:       zext (rus)      r0, 0x4
             0x00012e2a: 03 a0:       shl (2rus)      r0, r0, 0x3
             0x00012e2c: 00 f0 40 7f: ldaw (lu6)      r11, cp[0x0]
             0x00012e30: 8c 11:       add (3r)        r0, r11, r0
             0x00012e32: 20 08:       ldw (2rus)      r2, r0[0x0]
             0x00012e34: 31 08:       ldw (2rus)      r3, r0[0x1]
             0x00012e36: 0f 5c:       ldw (ru6)       r0, sp[0xf]
             0x00012e38: 4c 5c:       ldw (ru6)       r1, sp[0xc]
             0x00012e3a: 03 f0 fb d2: bl (lu10)       0xefb <__muldf3>
             0x00012e3e: 42 69:       ldc (ru6)       r5, 0x2
             0x00012e40: 00 f0 74 7f: ldaw (lu6)      r11, cp[0x34]
             0x00012e44: fc 91:       add (2rus)      r7, r11, 0x0
             0x00012e46: 40 fb ec 97: ashr (l2rus)    r4, r4, 0x4
             0x00012e4a: 64 90:       add (2rus)      r6, r1, 0x0
             0x00012e4c: 80 90:       add (2rus)      r8, r0, 0x0
             0x00012e4e: 10 79:       bf (ru6)        r4, 0x10 <.label555>
.label558    0x00012e50: c0 90:       add (2rus)      r0, r4, 0x0
             0x00012e52: d1 46:       zext (rus)      r0, 0x1
             0x00012e54: 09 78:       bf (ru6)        r0, 0x9 <.label557>
             0x00012e56: ec 08:       ldw (2rus)      r2, r7[0x0]
             0x00012e58: fd 08:       ldw (2rus)      r3, r7[0x1]
             0x00012e5a: d8 90:       add (2rus)      r1, r6, 0x0
             0x00012e5c: 80 91:       add (2rus)      r0, r8, 0x0
             0x00012e5e: 03 f0 e9 d2: bl (lu10)       0xee9 <__muldf3>
             0x00012e62: 64 90:       add (2rus)      r6, r1, 0x0
             0x00012e64: 15 91:       add (2rus)      r5, r5, 0x1
             0x00012e66: 80 90:       add (2rus)      r8, r0, 0x0
.label557    0x00012e68: 01 f9 ec 97: ashr (l2rus)    r4, r4, 0x1
             0x00012e6c: bc 95:       add (2rus)      r7, r7, 0x8
             0x00012e6e: 10 75:       bt (ru6)        r4, -0x10 <.label558>
.label555    0x00012e70: 08 5c:       ldw (ru6)       r0, sp[0x8]
             0x00012e72: 04 70:       bt (ru6)        r0, 0x4 <.label559>
.label561    0x00012e74: 52 56:       stw (ru6)       r9, sp[0x12]
             0x00012e76: c4 91:       add (2rus)      r4, r9, 0x0
             0x00012e78: d1 5d:       ldw (ru6)       r7, sp[0x11]
             0x00012e7a: 31 73:       bu (u6)         0x31 <.label560>
.label559    0x00012e7c: c0 69:       ldc (ru6)       r7, 0x0
             0x00012e7e: 01 f0 15 6d: ldw (lru6)      r4, cp[0x55]
             0x00012e82: 80 91:       add (2rus)      r0, r8, 0x0
             0x00012e84: d8 90:       add (2rus)      r1, r6, 0x0
             0x00012e86: ec 90:       add (2rus)      r2, r7, 0x0
             0x00012e88: f0 90:       add (2rus)      r3, r4, 0x0
             0x00012e8a: 01 f0 55 d5: bl (lu10)       -0x555 <__gedf2>
             0x00012e8e: d8 90:       add (2rus)      r1, r6, 0x0
             0x00012e90: 00 f8 ec 97: ashr (l2rus)    r0, r0, 0x20
             0x00012e94: a0 b0:       eq (2rus)       r10, r0, 0x0
             0x00012e96: 80 91:       add (2rus)      r0, r8, 0x0
             0x00012e98: ec 90:       add (2rus)      r2, r7, 0x0
             0x00012e9a: f0 90:       add (2rus)      r3, r4, 0x0
             0x00012e9c: 00 f0 62 d7: bl (lu10)       -0x362 <__unorddf2>
             0x00012ea0: 00 b0:       eq (2rus)       r0, r0, 0x0
             0x00012ea2: 00 b0:       eq (2rus)       r0, r0, 0x0
             0x00012ea4: 82 44:       or (3r)         r0, r0, r10
             0x00012ea6: 1a 74:       bt (ru6)        r0, -0x1a <.label561>
             0x00012ea8: 51 5c:       ldw (ru6)       r1, sp[0x11]
             0x00012eaa: d9 a6:       mkmsk (rus)     r2, 0x1
             0x00012eac: 06 c0:       lss (3r)        r0, r1, r2
             0x00012eae: 04 78:       bf (ru6)        r0, 0x4 <.label562>
             0x00012eb0: c4 91:       add (2rus)      r4, r9, 0x0
             0x00012eb2: 52 56:       stw (ru6)       r9, sp[0x12]
             0x00012eb4: 74 90:       add (2rus)      r7, r1, 0x0
             0x00012eb6: 13 73:       bu (u6)         0x13 <.label560>
.label562    0x00012eb8: 51 54:       stw (ru6)       r1, sp[0x11]
             0x00012eba: 52 56:       stw (ru6)       r9, sp[0x12]
             0x00012ebc: 10 5c:       ldw (ru6)       r0, sp[0x10]
             0x00012ebe: 02 c0:       lss (3r)        r0, r0, r2
             0x00012ec0: 05 f0 06 70: bt (lru6)       r0, 0x146 <.label548>
             0x00012ec4: 80 68:       ldc (ru6)       r2, 0x0
             0x00012ec6: 01 f0 e0 6c: ldw (lru6)      r3, cp[0x60]
             0x00012eca: 80 91:       add (2rus)      r0, r8, 0x0
             0x00012ecc: d8 90:       add (2rus)      r1, r6, 0x0
             0x00012ece: 03 f0 b1 d2: bl (lu10)       0xeb1 <__muldf3>
             0x00012ed2: 80 90:       add (2rus)      r8, r0, 0x0
             0x00012ed4: 64 90:       add (2rus)      r6, r1, 0x0
             0x00012ed6: 12 5c:       ldw (ru6)       r0, sp[0x12]
             0x00012ed8: 15 91:       add (2rus)      r5, r5, 0x1
             0x00012eda: d0 5d:       ldw (ru6)       r7, sp[0x10]
             0x00012edc: 41 98:       sub (2rus)      r4, r0, 0x1
.label560    0x00012ede: c4 90:       add (2rus)      r0, r5, 0x0
             0x00012ee0: 03 f0 b4 d1: bl (lu10)       0xdb4 <__floatsidf>
             0x00012ee4: f8 90:       add (2rus)      r3, r6, 0x0
             0x00012ee6: a0 91:       add (2rus)      r2, r8, 0x0
             0x00012ee8: 03 f0 a4 d2: bl (lu10)       0xea4 <__muldf3>
             0x00012eec: 40 69:       ldc (ru6)       r5, 0x0
             0x00012eee: 01 f0 e1 6c: ldw (lru6)      r3, cp[0x61]
             0x00012ef2: e4 90:       add (2rus)      r2, r5, 0x0
             0x00012ef4: 02 f0 94 d3: bl (lu10)       0xb94 <__adddf3>
             0x00012ef8: a0 90:       add (2rus)      r10, r0, 0x0
             0x00012efa: 01 f0 22 6c: ldw (lru6)      r0, cp[0x62]
             0x00012efe: 94 10:       add (3r)        r9, r1, r0
             0x00012f00: f4 71:       bt (ru6)        r7, 0x34 <.label563>
             0x00012f02: 30 91:       add (2rus)      r7, r4, 0x0
             0x00012f04: 80 91:       add (2rus)      r0, r8, 0x0
             0x00012f06: 01 f0 e5 6c: ldw (lru6)      r3, cp[0x65]
             0x00012f0a: d8 90:       add (2rus)      r1, r6, 0x0
             0x00012f0c: e4 90:       add (2rus)      r2, r5, 0x0
             0x00012f0e: 02 f0 87 d3: bl (lu10)       0xb87 <__adddf3>
             0x00012f12: 60 90:       add (2rus)      r6, r0, 0x0
             0x00012f14: 44 90:       add (2rus)      r4, r1, 0x0
             0x00012f16: c8 90:       add (2rus)      r0, r6, 0x0
             0x00012f18: a8 91:       add (2rus)      r2, r10, 0x0
             0x00012f1a: b4 91:       add (2rus)      r3, r9, 0x0
             0x00012f1c: d0 90:       add (2rus)      r1, r4, 0x0
             0x00012f1e: 03 f0 41 d2: bl (lu10)       0xe41 <__gtdf2>
             0x00012f22: c4 c0:       lss (3r)        r0, r5, r0
             0x00012f24: 0e 78:       bf (ru6)        r0, 0xe <.label564>
             0x00012f26: 54 55:       stw (ru6)       r5, sp[0x14]
             0x00012f28: 00 6a:       ldc (ru6)       r8, 0x0
             0x00012f2a: 56 55:       stw (ru6)       r5, sp[0x16]
             0x00012f2c: 5c 91:       add (2rus)      r9, r7, 0x0
             0x00012f2e: d3 5d:       ldw (ru6)       r7, sp[0x13]
             0x00012f30: 55 5c:       ldw (ru6)       r1, sp[0x15]
.label627    0x00012f32: 55 90:       add (2rus)      r5, r1, 0x1
             0x00012f34: 15 92:       add (2rus)      r9, r9, 0x1
             0x00012f36: 55 54:       stw (ru6)       r1, sp[0x15]
             0x00012f38: 31 68:       ldc (ru6)       r0, 0x31
             0x00012f3a: 84 fc ec 8f: st8 (l3r)       r0, r1[r8]
             0x00012f3e: 11 f0 07 73: bu (lu6)        0x447 <.label565>
.label564    0x00012f42: 01 f0 06 6c: ldw (lru6)      r0, cp[0x46]
             0x00012f46: d0 90:       add (2rus)      r1, r4, 0x0
             0x00012f48: a8 91:       add (2rus)      r2, r10, 0x0
             0x00012f4a: b4 f9 ec 0f: xor (l3r)       r3, r9, r0
             0x00012f4e: c8 90:       add (2rus)      r0, r6, 0x0
             0x00012f50: 03 f0 46 d2: bl (lu10)       0xe46 <__ltdf2>
             0x00012f54: 00 f8 ec 97: ashr (l2rus)    r0, r0, 0x20
             0x00012f58: 03 f0 3a 78: bf (lru6)       r0, 0xfa <.label548>
.label583    0x00012f5c: 00 68:       ldc (ru6)       r0, 0x0
             0x00012f5e: 16 54:       stw (ru6)       r0, sp[0x16]
             0x00012f60: 14 54:       stw (ru6)       r0, sp[0x14]
             0x00012f62: d3 5d:       ldw (ru6)       r7, sp[0x13]
             0x00012f64: 55 5c:       ldw (ru6)       r1, sp[0x15]
             0x00012f66: 0b f0 1f 73: bu (lu6)        0x2df <.label566>
.label563    0x00012f6a: 84 56:       stw (ru6)       r10, sp[0x4]
             0x00012f6c: 09 55:       stw (ru6)       r4, sp[0x9]
             0x00012f6e: 0b 5c:       ldw (ru6)       r0, sp[0xb]
             0x00012f70: 01 f0 21 78: bf (lru6)       r0, 0x61 <.label567>
             0x00012f74: cf a0:       shl (2rus)      r0, r7, 0x3
             0x00012f76: d6 55:       stw (ru6)       r7, sp[0x16]
             0x00012f78: 00 f0 40 7f: ldaw (lu6)      r11, cp[0x0]
             0x00012f7c: 83 14:       add (3r)        r0, r0, r11
             0x00012f7e: 90 9c:       sub (2rus)      r1, r0, 0x8
             0x00012f80: 24 08:       ldw (2rus)      r2, r1[0x0]
             0x00012f82: 40 9a:       sub (2rus)      r0, r0, 0x4
             0x00012f84: 30 08:       ldw (2rus)      r3, r0[0x0]
             0x00012f86: 00 68:       ldc (ru6)       r0, 0x0
             0x00012f88: 68 91:       add (2rus)      r10, r6, 0x0
             0x00012f8a: 01 f0 63 6c: ldw (lru6)      r1, cp[0x63]
             0x00012f8e: e0 91:       add (2rus)      r6, r8, 0x0
             0x00012f90: 03 f0 98 d0: bl (lu10)       0xc98 <__divdf3>
             0x00012f94: 84 5c:       ldw (ru6)       r2, sp[0x4]
             0x00012f96: b4 91:       add (2rus)      r3, r9, 0x0
             0x00012f98: 03 f0 74 d0: bl (lu10)       0xc74 <__subdf3>
             0x00012f9c: 70 90:       add (2rus)      r7, r0, 0x0
             0x00012f9e: 94 90:       add (2rus)      r9, r1, 0x0
             0x00012fa0: d5 a6:       mkmsk (rus)     r1, 0x1
.label570    0x00012fa2: 54 90:       add (2rus)      r5, r1, 0x0
             0x00012fa4: 15 5c:       ldw (ru6)       r0, sp[0x15]
             0x00012fa6: 81 10:       add (3r)        r8, r0, r1
             0x00012fa8: c8 90:       add (2rus)      r0, r6, 0x0
             0x00012faa: 98 91:       add (2rus)      r1, r10, 0x0
             0x00012fac: 03 f0 1c d1: bl (lu10)       0xd1c <__fixdfsi>
             0x00012fb0: 70 68:       ldc (ru6)       r1, 0x30
             0x00012fb2: 11 10:       add (3r)        r1, r0, r1
             0x00012fb4: d8 a6:       mkmsk (rus)     r2, 0x20
             0x00012fb6: 92 f9 ec 8f: st8 (l3r)       r1, r8[r2]
             0x00012fba: 03 f0 47 d1: bl (lu10)       0xd47 <__floatsidf>
             0x00012fbe: 20 90:       add (2rus)      r2, r0, 0x0
             0x00012fc0: 34 90:       add (2rus)      r3, r1, 0x0
             0x00012fc2: c8 90:       add (2rus)      r0, r6, 0x0
             0x00012fc4: 98 91:       add (2rus)      r1, r10, 0x0
             0x00012fc6: 03 f0 5d d0: bl (lu10)       0xc5d <__subdf3>
             0x00012fca: 60 90:       add (2rus)      r6, r0, 0x0
             0x00012fcc: b4 91:       add (2rus)      r3, r9, 0x0
             0x00012fce: ec 90:       add (2rus)      r2, r7, 0x0
             0x00012fd0: c8 90:       add (2rus)      r0, r6, 0x0
             0x00012fd2: 44 90:       add (2rus)      r4, r1, 0x0
             0x00012fd4: d0 90:       add (2rus)      r1, r4, 0x0
             0x00012fd6: 03 f0 03 d2: bl (lu10)       0xe03 <__ltdf2>
             0x00012fda: 00 f8 ec 97: ashr (l2rus)    r0, r0, 0x20
             0x00012fde: 10 f0 0a 70: bt (lru6)       r0, 0x40a <.label568>
             0x00012fe2: 00 68:       ldc (ru6)       r0, 0x0
             0x00012fe4: e8 90:       add (2rus)      r2, r6, 0x0
             0x00012fe6: 01 f0 55 6c: ldw (lru6)      r1, cp[0x55]
             0x00012fea: f0 90:       add (2rus)      r3, r4, 0x0
             0x00012fec: 03 f0 4a d0: bl (lu10)       0xc4a <__subdf3>
             0x00012ff0: ec 90:       add (2rus)      r2, r7, 0x0
             0x00012ff2: b4 91:       add (2rus)      r3, r9, 0x0
             0x00012ff4: 03 f0 f4 d1: bl (lu10)       0xdf4 <__ltdf2>
             0x00012ff8: 00 f8 ec 97: ashr (l2rus)    r0, r0, 0x20
             0x00012ffc: 05 f0 02 70: bt (lru6)       r0, 0x142 <.label569>
             0x00013000: 16 5c:       ldw (ru6)       r0, sp[0x16]
             0x00013002: c4 c0:       lss (3r)        r0, r5, r0
             0x00013004: 02 f0 24 78: bf (lru6)       r0, 0xa4 <.label548>
             0x00013008: c8 90:       add (2rus)      r0, r6, 0x0
             0x0001300a: 01 f0 20 6e: ldw (lru6)      r8, cp[0x60]
             0x0001300e: d0 90:       add (2rus)      r1, r4, 0x0
             0x00013010: 00 69:       ldc (ru6)       r4, 0x0
             0x00013012: e0 90:       add (2rus)      r2, r4, 0x0
             0x00013014: b0 91:       add (2rus)      r3, r8, 0x0
             0x00013016: 03 f0 0d d2: bl (lu10)       0xe0d <__muldf3>
             0x0001301a: 60 90:       add (2rus)      r6, r0, 0x0
             0x0001301c: a4 90:       add (2rus)      r10, r1, 0x0
             0x0001301e: cc 90:       add (2rus)      r0, r7, 0x0
             0x00013020: 94 91:       add (2rus)      r1, r9, 0x0
             0x00013022: e0 90:       add (2rus)      r2, r4, 0x0
             0x00013024: b0 91:       add (2rus)      r3, r8, 0x0
             0x00013026: 03 f0 05 d2: bl (lu10)       0xe05 <__muldf3>
             0x0001302a: 70 90:       add (2rus)      r7, r0, 0x0
             0x0001302c: 94 90:       add (2rus)      r9, r1, 0x0
             0x0001302e: d4 90:       add (2rus)      r1, r5, 0x0
             0x00013030: 15 90:       add (2rus)      r1, r1, 0x1
             0x00013032: 01 f0 0a 77: bu (lu6)        -0x4a <.label570>
.label567    0x00013036: 80 91:       add (2rus)      r0, r8, 0x0
             0x00013038: d8 90:       add (2rus)      r1, r6, 0x0
             0x0001303a: 03 f0 d5 d0: bl (lu10)       0xcd5 <__fixdfsi>
             0x0001303e: 70 68:       ldc (ru6)       r1, 0x30
             0x00013040: 11 10:       add (3r)        r1, r0, r1
             0x00013042: 15 5d:       ldw (ru6)       r4, sp[0x15]
             0x00013044: 11 fb ec 8f: st8 (l3r)       r1, r4[r5]
             0x00013048: 03 f0 00 d1: bl (lu10)       0xd00 <__floatsidf>
             0x0001304c: 20 90:       add (2rus)      r2, r0, 0x0
             0x0001304e: 34 90:       add (2rus)      r3, r1, 0x0
             0x00013050: 80 91:       add (2rus)      r0, r8, 0x0
             0x00013052: d8 90:       add (2rus)      r1, r6, 0x0
             0x00013054: 03 f0 16 d0: bl (lu10)       0xc16 <__subdf3>
             0x00013058: a0 90:       add (2rus)      r10, r0, 0x0
             0x0001305a: cf a0:       shl (2rus)      r0, r7, 0x3
             0x0001305c: 64 90:       add (2rus)      r6, r1, 0x0
             0x0001305e: 00 f0 40 7f: ldaw (lu6)      r11, cp[0x0]
             0x00013062: 83 14:       add (3r)        r0, r0, r11
             0x00013064: 90 9c:       sub (2rus)      r1, r0, 0x8
             0x00013066: 24 08:       ldw (2rus)      r2, r1[0x0]
             0x00013068: 40 9a:       sub (2rus)      r0, r0, 0x4
             0x0001306a: 30 08:       ldw (2rus)      r3, r0[0x0]
             0x0001306c: 94 91:       add (2rus)      r1, r9, 0x0
             0x0001306e: 04 5c:       ldw (ru6)       r0, sp[0x4]
             0x00013070: 03 f0 e0 d1: bl (lu10)       0xde0 <__muldf3>
             0x00013074: 02 54:       stw (ru6)       r0, sp[0x2]
             0x00013076: cd b0:       eq (2rus)       r0, r7, 0x1
             0x00013078: e0 90:       add (2rus)      r2, r4, 0x0
             0x0001307a: 89 90:       add (2rus)      r8, r2, 0x1
             0x0001307c: 44 90:       add (2rus)      r4, r1, 0x0
             0x0001307e: 01 f0 01 78: bf (lru6)       r0, 0x41 <.label571>
             0x00013082: 95 54:       stw (ru6)       r2, sp[0x15]
             0x00013084: 05 73:       bu (u6)         0x5 <.label572>
.label576    0x00013086: 15 5c:       ldw (ru6)       r0, sp[0x15]
             0x00013088: 1c 91:       add (2rus)      r5, r7, 0x0
             0x0001308a: 56 5c:       ldw (ru6)       r1, sp[0x16]
             0x0001308c: 04 5d:       ldw (ru6)       r4, sp[0x4]
             0x0001308e: 81 10:       add (3r)        r8, r0, r1
.label572    0x00013090: d0 90:       add (2rus)      r1, r4, 0x0
             0x00013092: 01 f0 e3 6c: ldw (lru6)      r3, cp[0x63]
             0x00013096: e4 90:       add (2rus)      r2, r5, 0x0
             0x00013098: c2 5d:       ldw (ru6)       r7, sp[0x2]
             0x0001309a: cc 90:       add (2rus)      r0, r7, 0x0
             0x0001309c: 02 f0 c0 d2: bl (lu10)       0xac0 <__adddf3>
             0x000130a0: 20 90:       add (2rus)      r2, r0, 0x0
             0x000130a2: 34 90:       add (2rus)      r3, r1, 0x0
             0x000130a4: 88 91:       add (2rus)      r0, r10, 0x0
             0x000130a6: d8 90:       add (2rus)      r1, r6, 0x0
             0x000130a8: 03 f0 7c d1: bl (lu10)       0xd7c <__gtdf2>
             0x000130ac: c4 c0:       lss (3r)        r0, r5, r0
             0x000130ae: 03 f0 29 70: bt (lru6)       r0, 0xe9 <.label569>
             0x000130b2: 00 68:       ldc (ru6)       r0, 0x0
             0x000130b4: ec 90:       add (2rus)      r2, r7, 0x0
             0x000130b6: 01 f0 63 6c: ldw (lru6)      r1, cp[0x63]
             0x000130ba: f0 90:       add (2rus)      r3, r4, 0x0
             0x000130bc: 02 f0 e2 d3: bl (lu10)       0xbe2 <__subdf3>
             0x000130c0: 50 90:       add (2rus)      r5, r0, 0x0
             0x000130c2: 44 90:       add (2rus)      r4, r1, 0x0
             0x000130c4: 88 91:       add (2rus)      r0, r10, 0x0
             0x000130c6: d8 90:       add (2rus)      r1, r6, 0x0
             0x000130c8: e4 90:       add (2rus)      r2, r5, 0x0
             0x000130ca: f0 90:       add (2rus)      r3, r4, 0x0
             0x000130cc: 01 f0 76 d6: bl (lu10)       -0x676 <__gedf2>
             0x000130d0: 00 f8 ec 97: ashr (l2rus)    r0, r0, 0x20
             0x000130d4: 90 b0:       eq (2rus)       r9, r0, 0x0
             0x000130d6: 88 91:       add (2rus)      r0, r10, 0x0
             0x000130d8: e4 90:       add (2rus)      r2, r5, 0x0
             0x000130da: f0 90:       add (2rus)      r3, r4, 0x0
             0x000130dc: d8 90:       add (2rus)      r1, r6, 0x0
             0x000130de: 01 f0 83 d4: bl (lu10)       -0x483 <__unorddf2>
             0x000130e2: 00 b0:       eq (2rus)       r0, r0, 0x0
             0x000130e4: 00 b0:       eq (2rus)       r0, r0, 0x0
             0x000130e6: 81 44:       or (3r)         r0, r0, r9
             0x000130e8: 33 70:       bt (ru6)        r0, 0x33 <.label548>
             0x000130ea: 01 f0 24 6c: ldw (lru6)      r0, cp[0x64]
             0x000130ee: f0 68:       ldc (ru6)       r3, 0x30
             0x000130f0: 89 5c:       ldw (ru6)       r2, sp[0x9]
             0x000130f2: d1 91:       add (2rus)      r5, r8, 0x1
.label573    0x000130f4: d4 88:       ld8u (3r)       r1, r5[r0]
             0x000130f6: 17 30:       eq (3r)         r1, r1, r3
             0x000130f8: 15 99:       sub (2rus)      r5, r5, 0x1
             0x000130fa: 44 74:       bt (ru6)        r1, -0x4 <.label573>
             0x000130fc: d3 5d:       ldw (ru6)       r7, sp[0x13]
             0x000130fe: 98 90:       add (2rus)      r9, r2, 0x0
             0x00013100: 0e f0 01 73: bu (lu6)        0x381 <.label574>
.label571    0x00013104: 04 55:       stw (ru6)       r4, sp[0x4]
             0x00013106: cc 90:       add (2rus)      r0, r7, 0x0
             0x00013108: 95 54:       stw (ru6)       r2, sp[0x15]
             0x0001310a: 34 91:       add (2rus)      r7, r5, 0x0
             0x0001310c: 16 54:       stw (ru6)       r0, sp[0x16]
             0x0001310e: 51 98:       sub (2rus)      r5, r0, 0x1
             0x00013110: 70 6a:       ldc (ru6)       r9, 0x30
.label575    0x00013112: 88 91:       add (2rus)      r0, r10, 0x0
             0x00013114: d8 90:       add (2rus)      r1, r6, 0x0
             0x00013116: 01 f0 e0 6c: ldw (lru6)      r3, cp[0x60]
             0x0001311a: ec 90:       add (2rus)      r2, r7, 0x0
             0x0001311c: 03 f0 8a d1: bl (lu10)       0xd8a <__muldf3>
             0x00013120: 60 90:       add (2rus)      r6, r0, 0x0
             0x00013122: 44 90:       add (2rus)      r4, r1, 0x0
             0x00013124: c8 90:       add (2rus)      r0, r6, 0x0
             0x00013126: d0 90:       add (2rus)      r1, r4, 0x0
             0x00013128: 03 f0 5e d0: bl (lu10)       0xc5e <__fixdfsi>
             0x0001312c: 91 14:       add (3r)        r1, r0, r9
             0x0001312e: d3 fb ec 8f: st8 (l3r)       r1, r8[r7]
             0x00013132: 03 f0 8b d0: bl (lu10)       0xc8b <__floatsidf>
             0x00013136: 34 90:       add (2rus)      r3, r1, 0x0
             0x00013138: 20 90:       add (2rus)      r2, r0, 0x0
             0x0001313a: c8 90:       add (2rus)      r0, r6, 0x0
             0x0001313c: d0 90:       add (2rus)      r1, r4, 0x0
             0x0001313e: 02 f0 a1 d3: bl (lu10)       0xba1 <__subdf3>
             0x00013142: 01 92:       add (2rus)      r8, r8, 0x1
             0x00013144: 15 99:       sub (2rus)      r5, r5, 0x1
             0x00013146: 64 90:       add (2rus)      r6, r1, 0x0
             0x00013148: a0 90:       add (2rus)      r10, r0, 0x0
             0x0001314a: 5d 75:       bt (ru6)        r5, -0x1d <.label575>
             0x0001314c: 01 f0 25 77: bu (lu6)        -0x65 <.label576>
.label548    0x00013150: 17 5c:       ldw (ru6)       r0, sp[0x17]
             0x00013152: 92 5c:       ldw (ru6)       r2, sp[0x12]
             0x00013154: cf 5d:       ldw (ru6)       r7, sp[0xf]
             0x00013156: 4c 5e:       ldw (ru6)       r9, sp[0xc]
             0x00013158: 10 f8 ec 97: ashr (l2rus)    r1, r0, 0x20
             0x0001315c: cd 5e:       ldw (ru6)       r11, sp[0xd]
             0x0001315e: 02 f0 77 70: bt (lru6)       r1, 0xb7 <.label577>
             0x00013162: 4e 68:       ldc (ru6)       r1, 0xe
             0x00013164: 16 c0:       lss (3r)        r1, r1, r2
             0x00013166: 02 f0 73 70: bt (lru6)       r1, 0xb3 <.label577>
             0x0001316a: 0b a0:       shl (2rus)      r0, r2, 0x3
             0x0001316c: 00 f0 40 7f: ldaw (lu6)      r11, cp[0x0]
             0x00013170: 8c 11:       add (3r)        r0, r11, r0
             0x00013172: 11 08:       ldw (2rus)      r1, r0[0x1]
             0x00013174: b0 08:       ldw (2rus)      r11, r0[0x0]
             0x00013176: 06 5c:       ldw (ru6)       r0, sp[0x6]
             0x00013178: 00 f8 ec 97: ashr (l2rus)    r0, r0, 0x20
             0x0001317c: 91 5c:       ldw (ru6)       r2, sp[0x11]
             0x0001317e: 03 78:       bf (ru6)        r0, 0x3 <.label578>
             0x00013180: d1 a6:       mkmsk (rus)     r0, 0x1
             0x00013182: 08 c0:       lss (3r)        r0, r2, r0
             0x00013184: 3b 70:       bt (ru6)        r0, 0x3b <.label579>
.label578    0x00013186: dc 91:       add (2rus)      r5, r11, 0x0
             0x00013188: 09 98:       sub (2rus)      r0, r2, 0x1
             0x0001318a: 16 54:       stw (ru6)       r0, sp[0x16]
             0x0001318c: a4 90:       add (2rus)      r10, r1, 0x0
             0x0001318e: 15 5d:       ldw (ru6)       r4, sp[0x15]
             0x00013190: 00 6a:       ldc (ru6)       r8, 0x0
.label590    0x00013192: cc 90:       add (2rus)      r0, r7, 0x0
             0x00013194: 94 91:       add (2rus)      r1, r9, 0x0
             0x00013196: e4 90:       add (2rus)      r2, r5, 0x0
             0x00013198: b8 91:       add (2rus)      r3, r10, 0x0
             0x0001319a: 02 f0 93 d3: bl (lu10)       0xb93 <__divdf3>
             0x0001319e: 03 f0 23 d0: bl (lu10)       0xc23 <__fixdfsi>
             0x000131a2: e4 91:       add (2rus)      r6, r9, 0x0
             0x000131a4: 5c 91:       add (2rus)      r9, r7, 0x0
             0x000131a6: 70 90:       add (2rus)      r7, r0, 0x0
             0x000131a8: 30 68:       ldc (ru6)       r0, 0x30
             0x000131aa: cc 10:       add (3r)        r0, r7, r0
             0x000131ac: 40 fd ec 8f: st8 (l3r)       r0, r4[r8]
             0x000131b0: cc 90:       add (2rus)      r0, r7, 0x0
             0x000131b2: 03 f0 4b d0: bl (lu10)       0xc4b <__floatsidf>
             0x000131b6: e4 90:       add (2rus)      r2, r5, 0x0
             0x000131b8: b8 91:       add (2rus)      r3, r10, 0x0
             0x000131ba: 03 f0 3b d1: bl (lu10)       0xd3b <__muldf3>
             0x000131be: 20 90:       add (2rus)      r2, r0, 0x0
             0x000131c0: 34 90:       add (2rus)      r3, r1, 0x0
             0x000131c2: 84 91:       add (2rus)      r0, r9, 0x0
             0x000131c4: d8 90:       add (2rus)      r1, r6, 0x0
             0x000131c6: 02 f0 5d d3: bl (lu10)       0xb5d <__subdf3>
             0x000131ca: b4 90:       add (2rus)      r11, r1, 0x0
             0x000131cc: 96 5d:       ldw (ru6)       r6, sp[0x16]
             0x000131ce: 20 90:       add (2rus)      r2, r0, 0x0
             0x000131d0: 01 f0 a8 71: bt (lru6)       r6, 0x68 <.label580>
             0x000131d4: 08 90:       add (2rus)      r0, r2, 0x0
             0x000131d6: 9c 91:       add (2rus)      r1, r11, 0x0
             0x000131d8: bc 91:       add (2rus)      r3, r11, 0x0
             0x000131da: 02 f0 21 d2: bl (lu10)       0xa21 <__adddf3>
             0x000131de: 90 90:       add (2rus)      r9, r0, 0x0
             0x000131e0: 56 54:       stw (ru6)       r1, sp[0x16]
             0x000131e2: 84 91:       add (2rus)      r0, r9, 0x0
             0x000131e4: e4 90:       add (2rus)      r2, r5, 0x0
             0x000131e6: e8 91:       add (2rus)      r6, r10, 0x0
             0x000131e8: f8 90:       add (2rus)      r3, r6, 0x0
             0x000131ea: 03 f0 db d0: bl (lu10)       0xcdb <__gtdf2>
             0x000131ee: 80 c1:       lss (3r)        r0, r8, r0
             0x000131f0: 41 91:       add (2rus)      r8, r4, 0x1
             0x000131f2: 28 78:       bf (ru6)        r0, 0x28 <.label581>
             0x000131f4: 93 5c:       ldw (ru6)       r2, sp[0x13]
             0x000131f6: 52 5e:       ldw (ru6)       r9, sp[0x12]
             0x000131f8: 01 f0 06 73: bu (lu6)        0x46 <.label582>
.label579    0x000131fc: 08 f8 ec 97: ashr (l2rus)    r0, r2, 0x20
             0x00013200: 05 f0 14 74: bt (lru6)       r0, -0x154 <.label583>
             0x00013204: 00 6a:       ldc (ru6)       r8, 0x0
             0x00013206: 16 56:       stw (ru6)       r8, sp[0x16]
             0x00013208: 8c 91:       add (2rus)      r0, r11, 0x0
             0x0001320a: 01 f0 e6 6c: ldw (lru6)      r3, cp[0x66]
             0x0001320e: a0 91:       add (2rus)      r2, r8, 0x0
             0x00013210: 03 f0 10 d1: bl (lu10)       0xd10 <__muldf3>
             0x00013214: 60 90:       add (2rus)      r6, r0, 0x0
             0x00013216: 44 90:       add (2rus)      r4, r1, 0x0
             0x00013218: cc 90:       add (2rus)      r0, r7, 0x0
             0x0001321a: 94 91:       add (2rus)      r1, r9, 0x0
             0x0001321c: e8 90:       add (2rus)      r2, r6, 0x0
             0x0001321e: f0 90:       add (2rus)      r3, r4, 0x0
             0x00013220: 03 f0 c0 d0: bl (lu10)       0xcc0 <__gtdf2>
             0x00013224: d0 c1:       lss (3r)        r5, r8, r0
             0x00013226: cc 90:       add (2rus)      r0, r7, 0x0
             0x00013228: 94 91:       add (2rus)      r1, r9, 0x0
             0x0001322a: e8 90:       add (2rus)      r2, r6, 0x0
             0x0001322c: f0 90:       add (2rus)      r3, r4, 0x0
             0x0001322e: 01 f0 2b d5: bl (lu10)       -0x52b <__unorddf2>
             0x00013232: 00 b0:       eq (2rus)       r0, r0, 0x0
             0x00013234: 00 b0:       eq (2rus)       r0, r0, 0x0
             0x00013236: 14 56:       stw (ru6)       r8, sp[0x14]
             0x00013238: 00 6a:       ldc (ru6)       r8, 0x0
             0x0001323a: d3 5d:       ldw (ru6)       r7, sp[0x13]
             0x0001323c: 55 5c:       ldw (ru6)       r1, sp[0x15]
             0x0001323e: 41 42:       or (3r)         r0, r0, r5
             0x00013240: 05 f0 2f 73: bu (lu6)        0x16f <.label584>
.label581    0x00013244: f8 90:       add (2rus)      r3, r6, 0x0
             0x00013246: e4 90:       add (2rus)      r2, r5, 0x0
             0x00013248: 56 5c:       ldw (ru6)       r1, sp[0x16]
             0x0001324a: 84 91:       add (2rus)      r0, r9, 0x0
             0x0001324c: 01 f0 f8 d6: bl (lu10)       -0x6f8 <__nedf2>
             0x00013250: 03 78:       bf (ru6)        r0, 0x3 <.label585>
             0x00013252: d0 91:       add (2rus)      r5, r8, 0x0
             0x00013254: 0b f0 15 73: bu (lu6)        0x2d5 <.label586>
.label585    0x00013258: 93 5c:       ldw (ru6)       r2, sp[0x13]
             0x0001325a: 1d 47:       zext (rus)      r7, 0x1
             0x0001325c: 52 5e:       ldw (ru6)       r9, sp[0x12]
             0x0001325e: d4 71:       bt (ru6)        r7, 0x14 <.label582>
             0x00013260: 78 90:       add (2rus)      r7, r2, 0x0
             0x00013262: d0 91:       add (2rus)      r5, r8, 0x0
             0x00013264: 0b f0 0f 73: bu (lu6)        0x2cf <.label574>
.label588    0x00013268: 45 99:       sub (2rus)      r8, r5, 0x1
             0x0001326a: 2c 36:       eq (3r)         r2, r11, r8
             0x0001326c: 91 78:       bf (ru6)        r2, 0x11 <.label587>
             0x0001326e: 70 68:       ldc (ru6)       r1, 0x30
             0x00013270: d5 56:       stw (ru6)       r11, sp[0x15]
             0x00013272: 80 68:       ldc (ru6)       r2, 0x0
             0x00013274: 15 92:       add (2rus)      r9, r9, 0x1
             0x00013276: 92 f9 ec 8f: st8 (l3r)       r1, r8[r2]
             0x0001327a: 71 68:       ldc (ru6)       r1, 0x31
             0x0001327c: d4 f8 ec 8f: st8 (l3r)       r1, r5[r0]
             0x00013280: 0b f0 01 73: bu (lu6)        0x2c1 <.label574>
.label569    0x00013284: 49 5e:       ldw (ru6)       r9, sp[0x9]
             0x00013286: 93 5c:       ldw (ru6)       r2, sp[0x13]
.label582    0x00013288: 78 90:       add (2rus)      r7, r2, 0x0
             0x0001328a: d5 5e:       ldw (ru6)       r11, sp[0x15]
             0x0001328c: 79 68:       ldc (ru6)       r1, 0x39
             0x0001328e: d0 a6:       mkmsk (rus)     r0, 0x20
.label587    0x00013290: d0 91:       add (2rus)      r5, r8, 0x0
             0x00013292: e4 88:       ld8u (3r)       r2, r5[r0]
             0x00013294: 39 30:       eq (3r)         r3, r2, r1
             0x00013296: d8 74:       bt (ru6)        r3, -0x18 <.label588>
             0x00013298: 19 90:       add (2rus)      r1, r2, 0x1
             0x0001329a: d5 56:       stw (ru6)       r11, sp[0x15]
             0x0001329c: d4 f8 ec 8f: st8 (l3r)       r1, r5[r0]
             0x000132a0: 0a f0 31 73: bu (lu6)        0x2b1 <.label574>
.label580    0x000132a4: 08 90:       add (2rus)      r0, r2, 0x0
             0x000132a6: 01 f0 e0 6c: ldw (lru6)      r3, cp[0x60]
             0x000132aa: 9c 91:       add (2rus)      r1, r11, 0x0
             0x000132ac: a0 91:       add (2rus)      r2, r8, 0x0
             0x000132ae: 03 f0 c1 d0: bl (lu10)       0xcc1 <__muldf3>
             0x000132b2: 70 90:       add (2rus)      r7, r0, 0x0
             0x000132b4: b0 91:       add (2rus)      r3, r8, 0x0
             0x000132b6: a0 91:       add (2rus)      r2, r8, 0x0
             0x000132b8: cc 90:       add (2rus)      r0, r7, 0x0
             0x000132ba: 94 90:       add (2rus)      r9, r1, 0x0
             0x000132bc: 94 91:       add (2rus)      r1, r9, 0x0
             0x000132be: 01 f0 93 d7: bl (lu10)       -0x793 <__eqdf2>
             0x000132c2: 0a f0 1d 78: bf (lru6)       r0, 0x29d <.label589>
             0x000132c6: 29 99:       sub (2rus)      r6, r6, 0x1
             0x000132c8: 96 55:       stw (ru6)       r6, sp[0x16]
             0x000132ca: 01 91:       add (2rus)      r4, r4, 0x1
             0x000132cc: 02 f0 1f 77: bu (lu6)        -0x9f <.label590>
.label577    0x000132d0: 4b 5c:       ldw (ru6)       r1, sp[0xb]
             0x000132d2: 46 70:       bt (ru6)        r1, 0x6 <.label591>
             0x000132d4: 40 69:       ldc (ru6)       r5, 0x0
             0x000132d6: 94 5d:       ldw (ru6)       r6, sp[0x14]
             0x000132d8: 08 91:       add (2rus)      r4, r6, 0x0
             0x000132da: 0a 5e:       ldw (ru6)       r8, sp[0xa]
             0x000132dc: 20 92:       add (2rus)      r10, r8, 0x0
             0x000132de: 35 73:       bu (u6)         0x35 <.label592>
.label591    0x000132e0: 8e 5c:       ldw (ru6)       r2, sp[0xe]
             0x000132e2: d5 a6:       mkmsk (rus)     r1, 0x1
             0x000132e4: 94 5d:       ldw (ru6)       r6, sp[0x14]
             0x000132e6: 16 c0:       lss (3r)        r1, r1, r2
             0x000132e8: 0a 5e:       ldw (ru6)       r8, sp[0xa]
             0x000132ea: 4d 70:       bt (ru6)        r1, 0xd <.label593>
             0x000132ec: 8e 54:       stw (ru6)       r2, sp[0xe]
             0x000132ee: 45 5c:       ldw (ru6)       r1, sp[0x5]
             0x000132f0: 46 78:       bf (ru6)        r1, 0x6 <.label594>
             0x000132f2: 10 f0 73 68: ldc (lru6)      r1, 0x433
             0x000132f6: 01 10:       add (3r)        r0, r0, r1
.label596    0x000132f8: 20 92:       add (2rus)      r10, r8, 0x0
             0x000132fa: 08 91:       add (2rus)      r4, r6, 0x0
             0x000132fc: 1d 73:       bu (u6)         0x1d <.label595>
.label594    0x000132fe: 76 68:       ldc (ru6)       r1, 0x36
             0x00013300: 18 5c:       ldw (ru6)       r0, sp[0x18]
             0x00013302: 04 18:       sub (3r)        r0, r1, r0
             0x00013304: 07 77:       bu (u6)         -0x7 <.label596>
.label593    0x00013306: d1 5c:       ldw (ru6)       r3, sp[0x11]
             0x00013308: ad 98:       sub (2rus)      r10, r3, 0x1
             0x0001330a: 02 c6:       lss (3r)        r0, r8, r10
             0x0001330c: 03 70:       bt (ru6)        r0, 0x3 <.label597>
             0x0001330e: 12 1e:       sub (3r)        r1, r8, r10
             0x00013310: 20 92:       add (2rus)      r10, r8, 0x0
             0x00013312: 05 73:       bu (u6)         0x5 <.label598>
.label597    0x00013314: 07 5c:       ldw (ru6)       r0, sp[0x7]
             0x00013316: 80 1c:       sub (3r)        r0, r0, r8
             0x00013318: 82 14:       add (3r)        r0, r0, r10
             0x0001331a: 07 54:       stw (ru6)       r0, sp[0x7]
             0x0001331c: 40 68:       ldc (ru6)       r1, 0x0
.label598    0x0001331e: 8e 54:       stw (ru6)       r2, sp[0xe]
             0x00013320: 0c f8 ec 97: ashr (l2rus)    r0, r3, 0x20
             0x00013324: 23 38:       and (3r)        r2, r0, r3
             0x00013326: 0a 19:       sub (3r)        r4, r6, r2
             0x00013328: 04 70:       bt (ru6)        r0, 0x4 <.label599>
             0x0001332a: 0c 90:       add (2rus)      r0, r3, 0x0
             0x0001332c: d1 54:       stw (ru6)       r3, sp[0x11]
             0x0001332e: 84 90:       add (2rus)      r8, r1, 0x0
             0x00013330: 03 73:       bu (u6)         0x3 <.label595>
.label599    0x00013332: 84 90:       add (2rus)      r8, r1, 0x0
             0x00013334: 00 68:       ldc (ru6)       r0, 0x0
             0x00013336: d1 54:       stw (ru6)       r3, sp[0x11]
.label595    0x00013338: 33 15:       add (3r)        r11, r0, r11
             0x0001333a: a2 12:       add (3r)        r6, r0, r6
             0x0001333c: 00 68:       ldc (ru6)       r0, 0x0
             0x0001333e: d5 a6:       mkmsk (rus)     r1, 0x1
             0x00013340: dc 91:       add (2rus)      r5, r11, 0x0
             0x00013342: 02 f0 5f d0: bl (lu10)       0x85f <__i2b>
             0x00013346: 74 91:       add (2rus)      r11, r5, 0x0
             0x00013348: 50 90:       add (2rus)      r5, r0, 0x0
.label592    0x0001334a: d1 a6:       mkmsk (rus)     r0, 0x1
             0x0001334c: c0 c0:       lss (3r)        r0, r4, r0
             0x0001334e: 0a 70:       bt (ru6)        r0, 0xa <.label600>
             0x00013350: d1 a6:       mkmsk (rus)     r0, 0x1
             0x00013352: 8c c1:       lss (3r)        r0, r11, r0
             0x00013354: 07 70:       bt (ru6)        r0, 0x7 <.label600>
             0x00013356: 53 c5:       lss (3r)        r1, r4, r11
             0x00013358: c0 90:       add (2rus)      r0, r4, 0x0
             0x0001335a: 41 70:       bt (ru6)        r1, 0x1 <.label601>
             0x0001335c: 8c 91:       add (2rus)      r0, r11, 0x0
.label601    0x0001335e: 28 19:       sub (3r)        r6, r6, r0
             0x00013360: 00 19:       sub (3r)        r4, r4, r0
             0x00013362: 3c 1a:       sub (3r)        r11, r11, r0
.label600    0x00013364: d1 a6:       mkmsk (rus)     r0, 0x1
             0x00013366: 88 c1:       lss (3r)        r0, r10, r0
             0x00013368: 05 78:       bf (ru6)        r0, 0x5 <.label602>
             0x0001336a: 94 55:       stw (ru6)       r6, sp[0x14]
             0x0001336c: 09 55:       stw (ru6)       r4, sp[0x9]
             0x0001336e: ec 91:       add (2rus)      r6, r11, 0x0
             0x00013370: 13 5d:       ldw (ru6)       r4, sp[0x13]
             0x00013372: 33 73:       bu (u6)         0x33 <.label603>
.label602    0x00013374: 0b 5c:       ldw (ru6)       r0, sp[0xb]
             0x00013376: 28 78:       bf (ru6)        r0, 0x28 <.label604>
             0x00013378: 09 55:       stw (ru6)       r4, sp[0x9]
             0x0001337a: d1 a6:       mkmsk (rus)     r0, 0x1
             0x0001337c: 80 c1:       lss (3r)        r0, r8, r0
             0x0001337e: 04 78:       bf (ru6)        r0, 0x4 <.label605>
             0x00013380: 94 55:       stw (ru6)       r6, sp[0x14]
             0x00013382: ec 91:       add (2rus)      r6, r11, 0x0
             0x00013384: 13 5d:       ldw (ru6)       r4, sp[0x13]
             0x00013386: 1a 73:       bu (u6)         0x1a <.label606>
.label605    0x00013388: 94 55:       stw (ru6)       r6, sp[0x14]
             0x0001338a: 2c 91:       add (2rus)      r6, r7, 0x0
             0x0001338c: cd 56:       stw (ru6)       r11, sp[0xd]
             0x0001338e: c0 69:       ldc (ru6)       r7, 0x0
             0x00013390: cc 90:       add (2rus)      r0, r7, 0x0
             0x00013392: d4 90:       add (2rus)      r1, r5, 0x0
             0x00013394: a0 91:       add (2rus)      r2, r8, 0x0
             0x00013396: 02 f0 d5 d0: bl (lu10)       0x8d5 <__pow5mult>
             0x0001339a: 0a 56:       stw (ru6)       r8, sp[0xa]
             0x0001339c: 80 90:       add (2rus)      r8, r0, 0x0
             0x0001339e: 53 5d:       ldw (ru6)       r5, sp[0x13]
             0x000133a0: cc 90:       add (2rus)      r0, r7, 0x0
             0x000133a2: 90 91:       add (2rus)      r1, r8, 0x0
             0x000133a4: e4 90:       add (2rus)      r2, r5, 0x0
             0x000133a6: 01 f0 69 d3: bl (lu10)       0x769 <__multiply>
             0x000133aa: 40 90:       add (2rus)      r4, r0, 0x0
             0x000133ac: cc 90:       add (2rus)      r0, r7, 0x0
             0x000133ae: d4 90:       add (2rus)      r1, r5, 0x0
             0x000133b0: 38 91:       add (2rus)      r7, r6, 0x0
             0x000133b2: 8d 5d:       ldw (ru6)       r6, sp[0xd]
             0x000133b4: d0 91:       add (2rus)      r5, r8, 0x0
             0x000133b6: 0a 5e:       ldw (ru6)       r8, sp[0xa]
             0x000133b8: 01 f0 90 d0: bl (lu10)       0x490 <_Bfree>
.label606    0x000133bc: 08 36:       eq (3r)         r0, r10, r8
             0x000133be: 0d 70:       bt (ru6)        r0, 0xd <.label603>
             0x000133c0: 28 1e:       sub (3r)        r2, r10, r8
             0x000133c2: 00 68:       ldc (ru6)       r0, 0x0
             0x000133c4: d0 90:       add (2rus)      r1, r4, 0x0
             0x000133c6: 06 73:       bu (u6)         0x6 <.label607>
.label604    0x000133c8: a8 91:       add (2rus)      r2, r10, 0x0
             0x000133ca: 94 55:       stw (ru6)       r6, sp[0x14]
             0x000133cc: 00 68:       ldc (ru6)       r0, 0x0
             0x000133ce: 09 55:       stw (ru6)       r4, sp[0x9]
             0x000133d0: 53 5c:       ldw (ru6)       r1, sp[0x13]
             0x000133d2: ec 91:       add (2rus)      r6, r11, 0x0
.label607    0x000133d4: 02 f0 b6 d0: bl (lu10)       0x8b6 <__pow5mult>
             0x000133d8: 40 90:       add (2rus)      r4, r0, 0x0
.label603    0x000133da: 00 6a:       ldc (ru6)       r8, 0x0
             0x000133dc: 56 55:       stw (ru6)       r5, sp[0x16]
             0x000133de: 80 91:       add (2rus)      r0, r8, 0x0
             0x000133e0: 15 a7:       mkmsk (rus)     r5, 0x1
             0x000133e2: 45 55:       stw (ru6)       r5, sp[0x5]
             0x000133e4: d4 90:       add (2rus)      r1, r5, 0x0
             0x000133e6: 02 f0 0d d0: bl (lu10)       0x80d <__i2b>
             0x000133ea: 10 90:       add (2rus)      r1, r0, 0x0
             0x000133ec: 87 5e:       ldw (ru6)       r10, sp[0x7]
             0x000133ee: c9 c3:       lss (3r)        r0, r10, r5
             0x000133f0: 02 78:       bf (ru6)        r0, 0x2 <.label608>
             0x000133f2: 24 90:       add (2rus)      r2, r1, 0x0
             0x000133f4: 05 73:       bu (u6)         0x5 <.label609>
.label608    0x000133f6: a8 91:       add (2rus)      r2, r10, 0x0
             0x000133f8: 00 68:       ldc (ru6)       r0, 0x0
             0x000133fa: 02 f0 a3 d0: bl (lu10)       0x8a3 <__pow5mult>
             0x000133fe: 20 90:       add (2rus)      r2, r0, 0x0
.label609    0x00013400: 4e 5d:       ldw (ru6)       r5, sp[0xe]
             0x00013402: d1 a6:       mkmsk (rus)     r0, 0x1
             0x00013404: 41 c2:       lss (3r)        r0, r0, r5
             0x00013406: 02 78:       bf (ru6)        r0, 0x2 <.label610>
             0x00013408: 98 90:       add (2rus)      r9, r2, 0x0
             0x0001340a: 12 73:       bu (u6)         0x12 <.label611>
.label610    0x0001340c: 00 6a:       ldc (ru6)       r8, 0x0
             0x0001340e: 01 f0 14 6c: ldw (lru6)      r0, cp[0x54]
             0x00013412: 84 39:       and (3r)        r0, r9, r0
             0x00013414: cc 40:       or (3r)         r0, r7, r0
             0x00013416: 02 78:       bf (ru6)        r0, 0x2 <.label612>
             0x00013418: 98 90:       add (2rus)      r9, r2, 0x0
             0x0001341a: 0a 73:       bu (u6)         0xa <.label611>
.label612    0x0001341c: 98 90:       add (2rus)      r9, r2, 0x0
             0x0001341e: 40 68:       ldc (ru6)       r1, 0x0
             0x00013420: 03 5c:       ldw (ru6)       r0, sp[0x3]
             0x00013422: 04 40:       or (3r)         r0, r1, r0
             0x00013424: 05 78:       bf (ru6)        r0, 0x5 <.label611>
             0x00013426: 51 a7:       mkmsk (rus)     r8, 0x1
             0x00013428: 14 5c:       ldw (ru6)       r0, sp[0x14]
             0x0001342a: 01 90:       add (2rus)      r0, r0, 0x1
             0x0001342c: 14 54:       stw (ru6)       r0, sp[0x14]
             0x0001342e: 29 91:       add (2rus)      r6, r6, 0x1
.label611    0x00013430: 89 7a:       bf (ru6)        r10, 0x9 <.label613>
             0x00013432: c4 0b:       ldw (2rus)      r0, r9[0x4]
             0x00013434: 84 f9 ec 1f: ldaw (l3r)      r0, r9[r0]
             0x00013438: 40 0a:       ldw (2rus)      r0, r0[0x4]
             0x0001343a: 01 f0 5b d0: bl (lu10)       0x45b <__hi0bits>
             0x0001343e: 60 68:       ldc (ru6)       r1, 0x20
             0x00013440: 04 18:       sub (3r)        r0, r1, r0
             0x00013442: 05 54:       stw (ru6)       r0, sp[0x5]
.label613    0x00013444: f8 90:       add (2rus)      r3, r6, 0x0
             0x00013446: 05 5c:       ldw (ru6)       r0, sp[0x5]
             0x00013448: 03 10:       add (3r)        r0, r0, r3
             0x0001344a: 13 55:       stw (ru6)       r4, sp[0x13]
             0x0001344c: 91 47:       zext (rus)      r0, 0x5
             0x0001344e: 03 78:       bf (ru6)        r0, 0x3 <.label614>
             0x00013450: 60 68:       ldc (ru6)       r1, 0x20
             0x00013452: 04 18:       sub (3r)        r0, r1, r0
             0x00013454: 01 73:       bu (u6)         0x1 <.label615>
.label614    0x00013456: 00 68:       ldc (ru6)       r0, 0x0
.label615    0x00013458: 45 68:       ldc (ru6)       r1, 0x5
             0x0001345a: 09 5d:       ldw (ru6)       r4, sp[0x9]
             0x0001345c: 11 c8:       lsu (3r)        r1, r0, r1
             0x0001345e: 94 5c:       ldw (ru6)       r2, sp[0x14]
             0x00013460: 0f 56:       stw (ru6)       r8, sp[0xf]
             0x00013462: 42 70:       bt (ru6)        r1, 0x2 <.label616>
             0x00013464: 40 9a:       sub (2rus)      r0, r0, 0x4
             0x00013466: 05 73:       bu (u6)         0x5 <.label617>
.label616    0x00013468: d6 a6:       mkmsk (rus)     r1, 0x2
             0x0001346a: 14 c8:       lsu (3r)        r1, r1, r0
             0x0001346c: 45 70:       bt (ru6)        r1, 0x5 <.label618>
             0x0001346e: 43 fa ec 9f: ldaw (l2rus)    r0, r0[0x7]
.label617    0x00013472: 22 10:       add (3r)        r2, r0, r2
             0x00013474: 80 12:       add (3r)        r4, r0, r4
             0x00013476: 33 10:       add (3r)        r3, r0, r3
.label618    0x00013478: d1 a6:       mkmsk (rus)     r0, 0x1
             0x0001347a: 08 c0:       lss (3r)        r0, r2, r0
             0x0001347c: 07 70:       bt (ru6)        r0, 0x7 <.label619>
             0x0001347e: 6c 90:       add (2rus)      r6, r3, 0x0
             0x00013480: 53 5c:       ldw (ru6)       r1, sp[0x13]
             0x00013482: 00 68:       ldc (ru6)       r0, 0x0
             0x00013484: 01 f0 74 d2: bl (lu10)       0x674 <__lshift>
             0x00013488: 13 54:       stw (ru6)       r0, sp[0x13]
             0x0001348a: f8 90:       add (2rus)      r3, r6, 0x0
.label619    0x0001348c: d1 a6:       mkmsk (rus)     r0, 0x1
             0x0001348e: 0c c0:       lss (3r)        r0, r3, r0
             0x00013490: 06 70:       bt (ru6)        r0, 0x6 <.label620>
             0x00013492: 00 68:       ldc (ru6)       r0, 0x0
             0x00013494: 94 91:       add (2rus)      r1, r9, 0x0
             0x00013496: 2c 90:       add (2rus)      r2, r3, 0x0
             0x00013498: 01 f0 6a d2: bl (lu10)       0x66a <__lshift>
             0x0001349c: 90 90:       add (2rus)      r9, r0, 0x0
.label620    0x0001349e: 00 6a:       ldc (ru6)       r8, 0x0
             0x000134a0: 08 5c:       ldw (ru6)       r0, sp[0x8]
             0x000134a2: 03 70:       bt (ru6)        r0, 0x3 <.label621>
             0x000134a4: 54 56:       stw (ru6)       r9, sp[0x14]
             0x000134a6: 51 5e:       ldw (ru6)       r9, sp[0x11]
             0x000134a8: 21 73:       bu (u6)         0x21 <.label622>
.label621    0x000134aa: 20 91:       add (2rus)      r6, r4, 0x0
             0x000134ac: 13 5d:       ldw (ru6)       r4, sp[0x13]
             0x000134ae: 94 91:       add (2rus)      r1, r9, 0x0
             0x000134b0: 54 56:       stw (ru6)       r9, sp[0x14]
             0x000134b2: c0 90:       add (2rus)      r0, r4, 0x0
             0x000134b4: 01 f0 42 d0: bl (lu10)       0x442 <__mcmp>
             0x000134b8: 00 f8 ec 97: ashr (l2rus)    r0, r0, 0x20
             0x000134bc: 50 5e:       ldw (ru6)       r9, sp[0x10]
             0x000134be: 02 70:       bt (ru6)        r0, 0x2 <.label623>
             0x000134c0: 51 5e:       ldw (ru6)       r9, sp[0x11]
             0x000134c2: 13 73:       bu (u6)         0x13 <.label624>
.label623    0x000134c4: c0 68:       ldc (ru6)       r3, 0x0
             0x000134c6: 8a 68:       ldc (ru6)       r2, 0xa
             0x000134c8: 0c 90:       add (2rus)      r0, r3, 0x0
             0x000134ca: d0 90:       add (2rus)      r1, r4, 0x0
             0x000134cc: 01 f0 c8 d3: bl (lu10)       0x7c8 <__multadd>
             0x000134d0: 13 54:       stw (ru6)       r0, sp[0x13]
             0x000134d2: 12 5c:       ldw (ru6)       r0, sp[0x12]
             0x000134d4: 01 98:       sub (2rus)      r0, r0, 0x1
             0x000134d6: 12 54:       stw (ru6)       r0, sp[0x12]
             0x000134d8: 0b 5c:       ldw (ru6)       r0, sp[0xb]
             0x000134da: 07 78:       bf (ru6)        r0, 0x7 <.label624>
             0x000134dc: 56 5c:       ldw (ru6)       r1, sp[0x16]
             0x000134de: c0 68:       ldc (ru6)       r3, 0x0
             0x000134e0: 0c 90:       add (2rus)      r0, r3, 0x0
             0x000134e2: 8a 68:       ldc (ru6)       r2, 0xa
             0x000134e4: 01 f0 bc d3: bl (lu10)       0x7bc <__multadd>
             0x000134e8: 16 54:       stw (ru6)       r0, sp[0x16]
.label624    0x000134ea: 08 91:       add (2rus)      r4, r6, 0x0
.label622    0x000134ec: 80 6a:       ldc (ru6)       r10, 0x0
             0x000134ee: 09 c6:       lss (3r)        r0, r10, r9
             0x000134f0: 22 70:       bt (ru6)        r0, 0x22 <.label625>
             0x000134f2: d2 a6:       mkmsk (rus)     r0, 0x2
             0x000134f4: c4 c0:       lss (3r)        r0, r5, r0
             0x000134f6: 1f 70:       bt (ru6)        r0, 0x1f <.label625>
             0x000134f8: 84 f9 ec 97: ashr (l2rus)    r0, r9, 0x20
             0x000134fc: 03 78:       bf (ru6)        r0, 0x3 <.label626>
             0x000134fe: 55 5c:       ldw (ru6)       r1, sp[0x15]
             0x00013500: d3 5d:       ldw (ru6)       r7, sp[0x13]
             0x00013502: 12 73:       bu (u6)         0x12 <.label566>
.label626    0x00013504: 00 69:       ldc (ru6)       r4, 0x0
             0x00013506: 85 68:       ldc (ru6)       r2, 0x5
             0x00013508: c0 90:       add (2rus)      r0, r4, 0x0
             0x0001350a: 54 5c:       ldw (ru6)       r1, sp[0x14]
             0x0001350c: f0 90:       add (2rus)      r3, r4, 0x0
             0x0001350e: 01 f0 a7 d3: bl (lu10)       0x7a7 <__multadd>
             0x00013512: 10 90:       add (2rus)      r1, r0, 0x0
             0x00013514: 54 54:       stw (ru6)       r1, sp[0x14]
             0x00013516: d3 5d:       ldw (ru6)       r7, sp[0x13]
             0x00013518: cc 90:       add (2rus)      r0, r7, 0x0
             0x0001351a: 01 f0 0f d0: bl (lu10)       0x40f <__mcmp>
             0x0001351e: c0 c0:       lss (3r)        r0, r4, r0
             0x00013520: 55 5c:       ldw (ru6)       r1, sp[0x15]
.label584    0x00013522: 52 5e:       ldw (ru6)       r9, sp[0x12]
             0x00013524: 0b f0 3b 74: bt (lru6)       r0, -0x2fb <.label627>
.label566    0x00013528: 55 54:       stw (ru6)       r1, sp[0x15]
             0x0001352a: 00 6a:       ldc (ru6)       r8, 0x0
             0x0001352c: 06 5c:       ldw (ru6)       r0, sp[0x6]
             0x0001352e: 44 8f:       not (2r)        r9, r0
             0x00013530: 54 90:       add (2rus)      r5, r1, 0x0
             0x00013532: 05 f0 0d 73: bu (lu6)        0x14d <.label565>
.label625    0x00013536: 0b 5c:       ldw (ru6)       r0, sp[0xb]
             0x00013538: 13 70:       bt (ru6)        r0, 0x13 <.label628>
             0x0001353a: 13 5c:       ldw (ru6)       r0, sp[0x13]
             0x0001353c: 54 5c:       ldw (ru6)       r1, sp[0x14]
             0x0001353e: 7a d1:       bl (u10)        0x17a <quorem>
             0x00013540: 30 69:       ldc (ru6)       r4, 0x30
             0x00013542: a0 12:       add (3r)        r6, r0, r4
             0x00013544: 55 5c:       ldw (ru6)       r1, sp[0x15]
             0x00013546: d8 91:       add (2rus)      r5, r10, 0x0
             0x00013548: 02 68:       ldc (ru6)       r0, 0x2
             0x0001354a: a5 fa ec 8f: st8 (l3r)       r6, r1[r5]
             0x0001354e: 84 c1:       lss (3r)        r0, r9, r0
             0x00013550: 75 90:       add (2rus)      r7, r1, 0x1
             0x00013552: 03 f0 32 78: bf (lru6)       r0, 0xf2 <.label629>
             0x00013556: 16 5d:       ldw (ru6)       r4, sp[0x16]
             0x00013558: 52 5e:       ldw (ru6)       r9, sp[0x12]
             0x0001355a: 44 91:       add (2rus)      r8, r5, 0x0
             0x0001355c: 04 f0 10 73: bu (lu6)        0x110 <.label630>
.label628    0x00013560: d1 a6:       mkmsk (rus)     r0, 0x1
             0x00013562: 56 5c:       ldw (ru6)       r1, sp[0x16]
             0x00013564: c0 c0:       lss (3r)        r0, r4, r0
             0x00013566: 02 78:       bf (ru6)        r0, 0x2 <.label631>
             0x00013568: 64 90:       add (2rus)      r6, r1, 0x0
             0x0001356a: 05 73:       bu (u6)         0x5 <.label632>
.label631    0x0001356c: 00 68:       ldc (ru6)       r0, 0x0
             0x0001356e: e0 90:       add (2rus)      r2, r4, 0x0
             0x00013570: 01 f0 fe d1: bl (lu10)       0x5fe <__lshift>
             0x00013574: 60 90:       add (2rus)      r6, r0, 0x0
.label632    0x00013576: 18 91:       add (2rus)      r5, r6, 0x0
             0x00013578: 0f 5c:       ldw (ru6)       r0, sp[0xf]
             0x0001357a: 16 78:       bf (ru6)        r0, 0x16 <.label633>
             0x0001357c: d9 08:       ldw (2rus)      r1, r6[0x1]
             0x0001357e: 00 69:       ldc (ru6)       r4, 0x0
             0x00013580: c0 90:       add (2rus)      r0, r4, 0x0
             0x00013582: 00 f0 ff d3: bl (lu10)       0x3ff <_Balloc>
             0x00013586: 50 90:       add (2rus)      r5, r0, 0x0
             0x00013588: 08 0b:       ldw (2rus)      r0, r6[0x4]
             0x0001358a: 48 68:       ldc (ru6)       r1, 0x8
             0x0001358c: 24 f8 ec 1f: ldaw (l3r)      r2, r1[r0]
             0x00013590: db f8 ec 9f: ldaw (l2rus)    r1, r6[0x3]
             0x00013594: c7 f8 ec 9f: ldaw (l2rus)    r0, r5[0x3]
             0x00013598: 00 f0 c0 d2: bl (lu10)       0x2c0 <memcpy>
             0x0001359c: d9 a6:       mkmsk (rus)     r2, 0x1
             0x0001359e: d4 90:       add (2rus)      r1, r5, 0x0
             0x000135a0: c0 90:       add (2rus)      r0, r4, 0x0
             0x000135a2: 01 f0 e5 d1: bl (lu10)       0x5e5 <__lshift>
             0x000135a6: 50 90:       add (2rus)      r5, r0, 0x0
.label633    0x000135a8: 1d 47:       zext (rus)      r7, 0x1
             0x000135aa: cf 55:       stw (ru6)       r7, sp[0xf]
             0x000135ac: 15 5c:       ldw (ru6)       r0, sp[0x15]
             0x000135ae: 10 54:       stw (ru6)       r0, sp[0x10]
             0x000135b0: d3 5d:       ldw (ru6)       r7, sp[0x13]
             0x000135b2: 15 9a:       sub (2rus)      r9, r9, 0x1
.label650    0x000135b4: cc 90:       add (2rus)      r0, r7, 0x0
             0x000135b6: 91 55:       stw (ru6)       r6, sp[0x11]
             0x000135b8: 56 55:       stw (ru6)       r5, sp[0x16]
             0x000135ba: 14 5e:       ldw (ru6)       r8, sp[0x14]
             0x000135bc: 90 91:       add (2rus)      r1, r8, 0x0
             0x000135be: 3a d1:       bl (u10)        0x13a <quorem>
             0x000135c0: 13 54:       stw (ru6)       r0, sp[0x13]
             0x000135c2: cc 90:       add (2rus)      r0, r7, 0x0
             0x000135c4: d8 90:       add (2rus)      r1, r6, 0x0
             0x000135c6: 00 f0 b9 d3: bl (lu10)       0x3b9 <__mcmp>
             0x000135ca: 40 90:       add (2rus)      r4, r0, 0x0
             0x000135cc: 88 91:       add (2rus)      r0, r10, 0x0
             0x000135ce: 2c 91:       add (2rus)      r6, r7, 0x0
             0x000135d0: f8 91:       add (2rus)      r7, r10, 0x0
             0x000135d2: 90 91:       add (2rus)      r1, r8, 0x0
             0x000135d4: e4 90:       add (2rus)      r2, r5, 0x0
             0x000135d6: 01 f0 ef d0: bl (lu10)       0x4ef <__mdiff>
             0x000135da: 18 91:       add (2rus)      r5, r6, 0x0
             0x000135dc: a0 90:       add (2rus)      r10, r0, 0x0
             0x000135de: 8b 09:       ldw (2rus)      r0, r10[0x3]
             0x000135e0: 51 a7:       mkmsk (rus)     r8, 0x1
             0x000135e2: 05 70:       bt (ru6)        r0, 0x5 <.label634>
             0x000135e4: c4 90:       add (2rus)      r0, r5, 0x0
             0x000135e6: 98 91:       add (2rus)      r1, r10, 0x0
             0x000135e8: 00 f0 a8 d3: bl (lu10)       0x3a8 <__mcmp>
             0x000135ec: 80 90:       add (2rus)      r8, r0, 0x0
.label634    0x000135ee: 30 68:       ldc (ru6)       r0, 0x30
             0x000135f0: 53 5c:       ldw (ru6)       r1, sp[0x13]
             0x000135f2: 64 10:       add (3r)        r6, r1, r0
             0x000135f4: cc 90:       add (2rus)      r0, r7, 0x0
             0x000135f6: 98 91:       add (2rus)      r1, r10, 0x0
             0x000135f8: 00 f0 70 d3: bl (lu10)       0x370 <_Bfree>
             0x000135fc: 8e 5c:       ldw (ru6)       r2, sp[0xe]
             0x000135fe: 92 41:       or (3r)         r1, r8, r2
             0x00013600: 0f 5c:       ldw (ru6)       r0, sp[0xf]
             0x00013602: 43 42:       or (3r)         r0, r0, r7
             0x00013604: 00 b0:       eq (2rus)       r0, r0, 0x0
             0x00013606: 00 b0:       eq (2rus)       r0, r0, 0x0
             0x00013608: fc 90:       add (2rus)      r3, r7, 0x0
             0x0001360a: 34 91:       add (2rus)      r7, r5, 0x0
             0x0001360c: 56 70:       bt (ru6)        r1, 0x16 <.label635>
             0x0001360e: 15 70:       bt (ru6)        r0, 0x15 <.label635>
             0x00013610: 39 68:       ldc (ru6)       r0, 0x39
             0x00013612: d0 5e:       ldw (ru6)       r11, sp[0x10]
             0x00013614: c8 30:       eq (3r)         r0, r6, r0
             0x00013616: 05 78:       bf (ru6)        r0, 0x5 <.label636>
             0x00013618: 5c 90:       add (2rus)      r5, r3, 0x0
             0x0001361a: 52 5e:       ldw (ru6)       r9, sp[0x12]
             0x0001361c: 11 5e:       ldw (ru6)       r8, sp[0x11]
             0x0001361e: 01 f0 02 73: bu (lu6)        0x42 <.label637>
.label636    0x00013622: 52 5e:       ldw (ru6)       r9, sp[0x12]
             0x00013624: 11 5e:       ldw (ru6)       r8, sp[0x11]
             0x00013626: 4c c2:       lss (3r)        r0, r3, r4
             0x00013628: 03 78:       bf (ru6)        r0, 0x3 <.label638>
             0x0001362a: 31 68:       ldc (ru6)       r0, 0x31
             0x0001362c: 53 5c:       ldw (ru6)       r1, sp[0x13]
             0x0001362e: 64 10:       add (3r)        r6, r1, r0
.label638    0x00013630: dd 91:       add (2rus)      r5, r11, 0x1
             0x00013632: ef f9 ec 8f: st8 (l3r)       r6, r11[r3]
             0x00013636: 03 f0 0b 73: bu (lu6)        0xcb <.label565>
.label635    0x0001363a: 5c 90:       add (2rus)      r5, r3, 0x0
             0x0001363c: d0 f8 ec 97: ashr (l2rus)    r1, r4, 0x20
             0x00013640: d0 5e:       ldw (ru6)       r11, sp[0x10]
             0x00013642: 43 70:       bt (ru6)        r1, 0x3 <.label639>
             0x00013644: d2 40:       or (3r)         r1, r4, r2
             0x00013646: 66 70:       bt (ru6)        r1, 0x26 <.label640>
             0x00013648: 25 70:       bt (ru6)        r0, 0x25 <.label640>
.label639    0x0001364a: d1 a6:       mkmsk (rus)     r0, 0x1
             0x0001364c: 80 c1:       lss (3r)        r0, r8, r0
             0x0001364e: 03 78:       bf (ru6)        r0, 0x3 <.label641>
             0x00013650: 52 5e:       ldw (ru6)       r9, sp[0x12]
             0x00013652: 11 5e:       ldw (ru6)       r8, sp[0x11]
             0x00013654: 1a 73:       bu (u6)         0x1a <.label642>
.label641    0x00013656: d9 a6:       mkmsk (rus)     r2, 0x1
             0x00013658: c4 90:       add (2rus)      r0, r5, 0x0
             0x0001365a: dc 90:       add (2rus)      r1, r7, 0x0
             0x0001365c: cc 91:       add (2rus)      r4, r11, 0x0
             0x0001365e: 01 f0 87 d1: bl (lu10)       0x587 <__lshift>
             0x00013662: 70 90:       add (2rus)      r7, r0, 0x0
             0x00013664: cc 90:       add (2rus)      r0, r7, 0x0
             0x00013666: 54 5c:       ldw (ru6)       r1, sp[0x14]
             0x00013668: 00 f0 68 d3: bl (lu10)       0x368 <__mcmp>
             0x0001366c: 52 5e:       ldw (ru6)       r9, sp[0x12]
             0x0001366e: 70 91:       add (2rus)      r11, r4, 0x0
             0x00013670: 11 5e:       ldw (ru6)       r8, sp[0x11]
             0x00013672: d4 c0:       lss (3r)        r1, r5, r0
             0x00013674: 44 70:       bt (ru6)        r1, 0x4 <.label643>
             0x00013676: 09 70:       bt (ru6)        r0, 0x9 <.label642>
             0x00013678: c8 90:       add (2rus)      r0, r6, 0x0
             0x0001367a: d1 46:       zext (rus)      r0, 0x1
             0x0001367c: 06 78:       bf (ru6)        r0, 0x6 <.label642>
.label643    0x0001367e: 31 68:       ldc (ru6)       r0, 0x31
             0x00013680: 53 5c:       ldw (ru6)       r1, sp[0x13]
             0x00013682: 64 10:       add (3r)        r6, r1, r0
             0x00013684: 3a 68:       ldc (ru6)       r0, 0x3a
             0x00013686: c8 30:       eq (3r)         r0, r6, r0
             0x00013688: 0e 70:       bt (ru6)        r0, 0xe <.label637>
.label642    0x0001368a: 2d fc ec 8f: st8 (l3r)       r6, r11[r5]
             0x0001368e: dd 91:       add (2rus)      r5, r11, 0x1
             0x00013690: 02 f0 1e 73: bu (lu6)        0x9e <.label565>
.label640    0x00013694: d1 a6:       mkmsk (rus)     r0, 0x1
             0x00013696: 80 c1:       lss (3r)        r0, r8, r0
             0x00013698: 8a 6a:       ldc (ru6)       r10, 0xa
             0x0001369a: 20 70:       bt (ru6)        r0, 0x20 <.label644>
             0x0001369c: 39 68:       ldc (ru6)       r0, 0x39
             0x0001369e: 11 5e:       ldw (ru6)       r8, sp[0x11]
             0x000136a0: c8 30:       eq (3r)         r0, r6, r0
             0x000136a2: 15 78:       bf (ru6)        r0, 0x15 <.label645>
             0x000136a4: 52 5e:       ldw (ru6)       r9, sp[0x12]
.label637    0x000136a6: 6c 91:       add (2rus)      r10, r7, 0x0
             0x000136a8: 39 68:       ldc (ru6)       r0, 0x39
             0x000136aa: cd fb ec 8f: st8 (l3r)       r0, r11[r5]
             0x000136ae: 24 91:       add (2rus)      r6, r5, 0x0
             0x000136b0: fd 91:       add (2rus)      r7, r11, 0x1
.label653    0x000136b2: 79 68:       ldc (ru6)       r1, 0x39
             0x000136b4: d5 5e:       ldw (ru6)       r11, sp[0x15]
             0x000136b6: d0 a6:       mkmsk (rus)     r0, 0x20
.label657    0x000136b8: 1c 91:       add (2rus)      r5, r7, 0x0
             0x000136ba: e4 88:       ld8u (3r)       r2, r5[r0]
             0x000136bc: 39 30:       eq (3r)         r3, r2, r1
             0x000136be: 01 f0 fd 70: bt (lru6)       r3, 0x7d <.label646>
             0x000136c2: d5 56:       stw (ru6)       r11, sp[0x15]
             0x000136c4: 19 90:       add (2rus)      r1, r2, 0x1
             0x000136c6: d4 f8 ec 8f: st8 (l3r)       r1, r5[r0]
             0x000136ca: 02 f0 00 73: bu (lu6)        0x80 <.label647>
.label645    0x000136ce: c9 90:       add (2rus)      r0, r6, 0x1
             0x000136d0: cd fb ec 8f: st8 (l3r)       r0, r11[r5]
             0x000136d4: 52 5e:       ldw (ru6)       r9, sp[0x12]
             0x000136d6: dd 91:       add (2rus)      r5, r11, 0x1
             0x000136d8: 01 f0 3a 73: bu (lu6)        0x7a <.label565>
.label644    0x000136dc: 2d fc ec 8f: st8 (l3r)       r6, r11[r5]
             0x000136e0: 11 5e:       ldw (ru6)       r8, sp[0x11]
             0x000136e2: 01 f0 49 7a: bf (lru6)       r9, 0x49 <.label648>
             0x000136e6: 3d 92:       add (2rus)      r11, r11, 0x1
             0x000136e8: d0 56:       stw (ru6)       r11, sp[0x10]
             0x000136ea: c4 90:       add (2rus)      r0, r5, 0x0
             0x000136ec: a8 91:       add (2rus)      r2, r10, 0x0
             0x000136ee: f4 90:       add (2rus)      r3, r5, 0x0
             0x000136f0: dc 90:       add (2rus)      r1, r7, 0x0
             0x000136f2: 01 f0 b5 d2: bl (lu10)       0x6b5 <__multadd>
             0x000136f6: 70 90:       add (2rus)      r7, r0, 0x0
             0x000136f8: 16 5d:       ldw (ru6)       r4, sp[0x16]
             0x000136fa: c0 33:       eq (3r)         r0, r8, r4
             0x000136fc: 0c 78:       bf (ru6)        r0, 0xc <.label649>
             0x000136fe: c4 90:       add (2rus)      r0, r5, 0x0
             0x00013700: d0 90:       add (2rus)      r1, r4, 0x0
             0x00013702: a8 91:       add (2rus)      r2, r10, 0x0
             0x00013704: f4 90:       add (2rus)      r3, r5, 0x0
             0x00013706: 01 f0 ab d2: bl (lu10)       0x6ab <__multadd>
             0x0001370a: 60 90:       add (2rus)      r6, r0, 0x0
             0x0001370c: 15 9a:       sub (2rus)      r9, r9, 0x1
             0x0001370e: 64 91:       add (2rus)      r10, r5, 0x0
             0x00013710: 18 91:       add (2rus)      r5, r6, 0x0
             0x00013712: 02 f0 31 77: bu (lu6)        -0xb1 <.label650>
.label649    0x00013716: c4 90:       add (2rus)      r0, r5, 0x0
             0x00013718: 90 91:       add (2rus)      r1, r8, 0x0
             0x0001371a: a8 91:       add (2rus)      r2, r10, 0x0
             0x0001371c: f4 90:       add (2rus)      r3, r5, 0x0
             0x0001371e: 01 f0 9f d2: bl (lu10)       0x69f <__multadd>
             0x00013722: 60 90:       add (2rus)      r6, r0, 0x0
             0x00013724: c4 90:       add (2rus)      r0, r5, 0x0
             0x00013726: d0 90:       add (2rus)      r1, r4, 0x0
             0x00013728: a8 91:       add (2rus)      r2, r10, 0x0
             0x0001372a: f4 90:       add (2rus)      r3, r5, 0x0
             0x0001372c: 01 f0 98 d2: bl (lu10)       0x698 <__multadd>
             0x00013730: 64 91:       add (2rus)      r10, r5, 0x0
             0x00013732: 50 90:       add (2rus)      r5, r0, 0x0
             0x00013734: 15 9a:       sub (2rus)      r9, r9, 0x1
             0x00013736: 03 f0 03 77: bu (lu6)        -0xc3 <.label650>
.label629    0x0001373a: 50 56:       stw (ru6)       r9, sp[0x10]
             0x0001373c: 54 5d:       ldw (ru6)       r5, sp[0x14]
             0x0001373e: 05 9a:       sub (2rus)      r8, r9, 0x1
             0x00013740: 93 5e:       ldw (ru6)       r10, sp[0x13]
             0x00013742: 40 6a:       ldc (ru6)       r9, 0x0
.label651    0x00013744: 84 91:       add (2rus)      r0, r9, 0x0
             0x00013746: 98 91:       add (2rus)      r1, r10, 0x0
             0x00013748: 8a 68:       ldc (ru6)       r2, 0xa
             0x0001374a: b4 91:       add (2rus)      r3, r9, 0x0
             0x0001374c: 01 f0 88 d2: bl (lu10)       0x688 <__multadd>
             0x00013750: a0 90:       add (2rus)      r10, r0, 0x0
             0x00013752: 88 91:       add (2rus)      r0, r10, 0x0
             0x00013754: d4 90:       add (2rus)      r1, r5, 0x0
             0x00013756: 6e d0:       bl (u10)        0x6e <quorem>
             0x00013758: a0 12:       add (3r)        r6, r0, r4
             0x0001375a: ad fd ec 8f: st8 (l3r)       r6, r7[r9]
             0x0001375e: 01 9a:       sub (2rus)      r8, r8, 0x1
             0x00013760: 3d 91:       add (2rus)      r7, r7, 0x1
             0x00013762: 10 76:       bt (ru6)        r8, -0x10 <.label651>
             0x00013764: 93 56:       stw (ru6)       r10, sp[0x13]
             0x00013766: 54 55:       stw (ru6)       r5, sp[0x14]
             0x00013768: 15 5c:       ldw (ru6)       r0, sp[0x15]
             0x0001376a: 04 92:       add (2rus)      r8, r9, 0x0
             0x0001376c: 50 5c:       ldw (ru6)       r1, sp[0x10]
             0x0001376e: 71 10:       add (3r)        r7, r0, r1
             0x00013770: 40 69:       ldc (ru6)       r5, 0x0
             0x00013772: 16 5d:       ldw (ru6)       r4, sp[0x16]
             0x00013774: 52 5e:       ldw (ru6)       r9, sp[0x12]
             0x00013776: 04 73:       bu (u6)         0x4 <.label630>
.label648    0x00013778: d3 55:       stw (ru6)       r7, sp[0x13]
             0x0001377a: 52 5e:       ldw (ru6)       r9, sp[0x12]
             0x0001377c: 16 5d:       ldw (ru6)       r4, sp[0x16]
             0x0001377e: fd 91:       add (2rus)      r7, r11, 0x1
.label630    0x00013780: c4 90:       add (2rus)      r0, r5, 0x0
             0x00013782: 53 5c:       ldw (ru6)       r1, sp[0x13]
             0x00013784: d9 a6:       mkmsk (rus)     r2, 0x1
             0x00013786: 01 f0 f3 d0: bl (lu10)       0x4f3 <__lshift>
             0x0001378a: 10 90:       add (2rus)      r1, r0, 0x0
             0x0001378c: a4 90:       add (2rus)      r10, r1, 0x0
             0x0001378e: 04 90:       add (2rus)      r0, r1, 0x0
             0x00013790: 54 5c:       ldw (ru6)       r1, sp[0x14]
             0x00013792: 00 f0 d3 d2: bl (lu10)       0x2d3 <__mcmp>
             0x00013796: d4 c0:       lss (3r)        r1, r5, r0
             0x00013798: 44 78:       bf (ru6)        r1, 0x4 <.label652>
.label655    0x0001379a: 24 91:       add (2rus)      r6, r5, 0x0
             0x0001379c: 16 55:       stw (ru6)       r4, sp[0x16]
             0x0001379e: 01 f0 38 77: bu (lu6)        -0x78 <.label653>
.label652    0x000137a2: 02 70:       bt (ru6)        r0, 0x2 <.label654>
             0x000137a4: 19 47:       zext (rus)      r6, 0x1
             0x000137a6: 87 75:       bt (ru6)        r6, -0x7 <.label655>
.label654    0x000137a8: 70 68:       ldc (ru6)       r1, 0x30
             0x000137aa: 16 55:       stw (ru6)       r4, sp[0x16]
             0x000137ac: 1d 91:       add (2rus)      r5, r7, 0x1
             0x000137ae: 01 f0 24 6c: ldw (lru6)      r0, cp[0x64]
.label656    0x000137b2: e4 88:       ld8u (3r)       r2, r5[r0]
             0x000137b4: 15 99:       sub (2rus)      r5, r5, 0x1
             0x000137b6: 29 30:       eq (3r)         r2, r2, r1
             0x000137b8: 84 74:       bt (ru6)        r2, -0x4 <.label656>
             0x000137ba: 09 73:       bu (u6)         0x9 <.label647>
.label646    0x000137bc: 35 99:       sub (2rus)      r7, r5, 0x1
             0x000137be: ef 33:       eq (3r)         r2, r11, r7
             0x000137c0: 02 f0 86 7c: bf (lru6)       r2, -0x86 <.label657>
             0x000137c4: 15 92:       add (2rus)      r9, r9, 0x1
             0x000137c6: d5 56:       stw (ru6)       r11, sp[0x15]
             0x000137c8: 31 68:       ldc (ru6)       r0, 0x31
             0x000137ca: 0e fb ec 8f: st8 (l3r)       r0, r7[r6]
.label647    0x000137ce: f8 91:       add (2rus)      r7, r10, 0x0
.label565    0x000137d0: 54 5c:       ldw (ru6)       r1, sp[0x14]
             0x000137d2: 00 68:       ldc (ru6)       r0, 0x0
             0x000137d4: 00 f0 82 d2: bl (lu10)       0x282 <_Bfree>
             0x000137d8: 16 5c:       ldw (ru6)       r0, sp[0x16]
             0x000137da: 15 78:       bf (ru6)        r0, 0x15 <.label574>
             0x000137dc: 07 7a:       bf (ru6)        r8, 0x7 <.label658>
             0x000137de: 16 5c:       ldw (ru6)       r0, sp[0x16]
             0x000137e0: 80 31:       eq (3r)         r0, r8, r0
             0x000137e2: 04 70:       bt (ru6)        r0, 0x4 <.label658>
             0x000137e4: 90 91:       add (2rus)      r1, r8, 0x0
             0x000137e6: 00 68:       ldc (ru6)       r0, 0x0
             0x000137e8: 00 f0 78 d2: bl (lu10)       0x278 <_Bfree>
.label658    0x000137ec: 56 5c:       ldw (ru6)       r1, sp[0x16]
             0x000137ee: 00 68:       ldc (ru6)       r0, 0x0
             0x000137f0: 00 f0 74 d2: bl (lu10)       0x274 <_Bfree>
             0x000137f4: 08 73:       bu (u6)         0x8 <.label574>
.label568    0x000137f6: 15 5c:       ldw (ru6)       r0, sp[0x15]
             0x000137f8: 49 5e:       ldw (ru6)       r9, sp[0x9]
             0x000137fa: 91 12:       add (3r)        r5, r0, r5
             0x000137fc: d3 5d:       ldw (ru6)       r7, sp[0x13]
             0x000137fe: 03 73:       bu (u6)         0x3 <.label574>
.label589    0x00013800: 11 91:       add (2rus)      r5, r4, 0x1
.label586    0x00013802: d3 5d:       ldw (ru6)       r7, sp[0x13]
             0x00013804: 52 5e:       ldw (ru6)       r9, sp[0x12]
.label574    0x00013806: 00 69:       ldc (ru6)       r4, 0x0
             0x00013808: c0 90:       add (2rus)      r0, r4, 0x0
             0x0001380a: dc 90:       add (2rus)      r1, r7, 0x0
             0x0001380c: 00 f0 66 d2: bl (lu10)       0x266 <_Bfree>
             0x00013810: 44 fb ec 8f: st8 (l3r)       r4, r5[r4]
             0x00013814: 61 5c:       ldw (ru6)       r1, sp[0x21]
             0x00013816: 85 91:       add (2rus)      r0, r9, 0x1
             0x00013818: 04 00:       stw (2rus)      r0, r1[0x0]
             0x0001381a: 23 5c:       ldw (ru6)       r0, sp[0x23]
             0x0001381c: 10 90:       add (2rus)      r1, r0, 0x0
             0x0001381e: 15 5c:       ldw (ru6)       r0, sp[0x15]
             0x00013820: 41 78:       bf (ru6)        r1, 0x1 <.label517>
             0x00013822: 54 00:       stw (2rus)      r5, r1[0x0]
.label517    0x00013824: 99 5e:       ldw (ru6)       r10, sp[0x19]
             0x00013826: 5a 5e:       ldw (ru6)       r9, sp[0x1a]
             0x00013828: 1b 5e:       ldw (ru6)       r8, sp[0x1b]
             0x0001382a: dc 5d:       ldw (ru6)       r7, sp[0x1c]
             0x0001382c: 9d 5d:       ldw (ru6)       r6, sp[0x1d]
             0x0001382e: 5e 5d:       ldw (ru6)       r5, sp[0x1e]
             0x00013830: 1f 5d:       ldw (ru6)       r4, sp[0x1f]
             0x00013832: e0 77:       retsp (u6)      0x20

<quorem>:
             0x00013834: 4c 77:       entsp (u6)      0xc
             0x00013836: 0b 55:       stw (ru6)       r4, sp[0xb]
             0x00013838: 4a 55:       stw (ru6)       r5, sp[0xa]
             0x0001383a: 89 55:       stw (ru6)       r6, sp[0x9]
             0x0001383c: c8 55:       stw (ru6)       r7, sp[0x8]
             0x0001383e: 50 90:       add (2rus)      r5, r0, 0x0
             0x00013840: 07 56:       stw (ru6)       r8, sp[0x7]
             0x00013842: 64 90:       add (2rus)      r6, r1, 0x0
             0x00013844: 46 56:       stw (ru6)       r9, sp[0x6]
             0x00013846: 85 56:       stw (ru6)       r10, sp[0x5]
             0x00013848: 18 0b:       ldw (2rus)      r1, r6[0x4]
             0x0001384a: 04 0b:       ldw (2rus)      r0, r5[0x4]
             0x0001384c: 01 c0:       lss (3r)        r0, r0, r1
             0x0001384e: 03 78:       bf (ru6)        r0, 0x3 <.label659>
             0x00013850: 00 69:       ldc (ru6)       r4, 0x0
             0x00013852: 02 f0 0e 73: bu (lu6)        0x8e <.label660>
.label659    0x00013856: 75 98:       sub (2rus)      r7, r1, 0x1
             0x00013858: 07 fb ec 1f: ldaw (l3r)      r0, r5[r7]
             0x0001385c: 42 54:       stw (ru6)       r1, sp[0x2]
             0x0001385e: 61 0a:       ldw (2rus)      r2, r0[0x5]
             0x00013860: 1b fb ec 1f: ldaw (l3r)      r1, r6[r7]
             0x00013864: 75 0a:       ldw (2rus)      r3, r1[0x5]
             0x00013866: 3d 90:       add (2rus)      r3, r3, 0x1
             0x00013868: c5 fa ec 9f: ldaw (l2rus)    r8, r1[0x5]
             0x0001386c: 4b f8 ec 4f: divu (l3r)      r4, r2, r3
             0x00013870: 01 f0 01 79: bf (lru6)       r4, 0x41 <.label661>
             0x00013874: 41 fa ec 9f: ldaw (l2rus)    r0, r0[0x5]
             0x00013878: 01 54:       stw (ru6)       r0, sp[0x1]
             0x0001387a: 80 6a:       ldc (ru6)       r10, 0x0
             0x0001387c: 39 fb ec 9f: ldaw (l2rus)    r3, r6[0x5]
             0x00013880: 83 55:       stw (ru6)       r6, sp[0x3]
             0x00013882: 18 92:       add (2rus)      r9, r10, 0x0
             0x00013884: 05 fb ec 9f: ldaw (l2rus)    r0, r5[0x5]
             0x00013888: b0 90:       add (2rus)      r11, r0, 0x0
             0x0001388a: 44 55:       stw (ru6)       r5, sp[0x4]
.label662    0x0001388c: 2c 08:       ldw (2rus)      r2, r3[0x0]
             0x0001388e: 99 ac:       shr (2rus)      r1, r2, 0x10
             0x00013890: 54 fa ec 3f: mul (l3r)       r1, r1, r4
             0x00013894: 39 47:       zext (rus)      r2, 0x10
             0x00013896: ec 09:       ldw (2rus)      r6, r11[0x0]
             0x00013898: 68 fa ec 3f: mul (l3r)       r2, r2, r4
             0x0001389c: aa 14:       add (3r)        r2, r2, r10
             0x0001389e: d9 ac:       shr (2rus)      r5, r2, 0x10
             0x000138a0: 65 11:       add (3r)        r10, r5, r1
             0x000138a2: 98 91:       add (2rus)      r1, r10, 0x0
             0x000138a4: 35 47:       zext (rus)      r1, 0x10
             0x000138a6: 99 ad:       shr (2rus)      r5, r6, 0x10
             0x000138a8: d5 18:       sub (3r)        r1, r5, r1
             0x000138aa: 39 47:       zext (rus)      r2, 0x10
             0x000138ac: 79 47:       zext (rus)      r6, 0x10
             0x000138ae: ea 18:       sub (3r)        r2, r6, r2
             0x000138b0: a9 14:       add (3r)        r2, r2, r9
             0x000138b2: d9 fc ec 97: ashr (l2rus)    r5, r2, 0x10
             0x000138b6: 55 12:       add (3r)        r1, r1, r5
             0x000138b8: e5 a4:       shl (2rus)      r6, r1, 0x10
             0x000138ba: 39 47:       zext (rus)      r2, 0x10
             0x000138bc: ea 40:       or (3r)         r2, r6, r2
             0x000138be: 15 fd ec 97: ashr (l2rus)    r9, r1, 0x10
             0x000138c2: a9 ae:       shr (2rus)      r10, r10, 0x10
             0x000138c4: 7c 92:       add (2rus)      r3, r3, 0x4
             0x000138c6: 93 c9:       lsu (3r)        r1, r8, r3
             0x000138c8: ac 01:       stw (2rus)      r2, r11[0x0]
             0x000138ca: 7c 94:       add (2rus)      r11, r11, 0x4
             0x000138cc: 61 7c:       bf (ru6)        r1, -0x21 <.label662>
             0x000138ce: 41 5c:       ldw (ru6)       r1, sp[0x1]
             0x000138d0: 14 08:       ldw (2rus)      r1, r1[0x0]
             0x000138d2: 42 78:       bf (ru6)        r1, 0x2 <.label663>
             0x000138d4: 44 5d:       ldw (ru6)       r5, sp[0x4]
             0x000138d6: 0e 73:       bu (u6)         0xe <.label664>
.label663    0x000138d8: 44 5d:       ldw (ru6)       r5, sp[0x4]
             0x000138da: 42 5c:       ldw (ru6)       r1, sp[0x2]
             0x000138dc: d5 f8 ec 1f: ldaw (l3r)      r1, r5[r1]
             0x000138e0: 17 f8 ec 9f: ldaw (l2rus)    r1, r1[0x3]
             0x000138e4: 02 73:       bu (u6)         0x2 <.label665>
.label667    0x000138e6: 54 9a:       sub (2rus)      r1, r1, 0x4
             0x000138e8: 3d 99:       sub (2rus)      r7, r7, 0x1
.label665    0x000138ea: 21 c8:       lsu (3r)        r2, r0, r1
             0x000138ec: 82 78:       bf (ru6)        r2, 0x2 <.label666>
             0x000138ee: 24 08:       ldw (2rus)      r2, r1[0x0]
             0x000138f0: 86 7c:       bf (ru6)        r2, -0x6 <.label667>
.label666    0x000138f2: 74 03:       stw (2rus)      r7, r5[0x4]
.label664    0x000138f4: 83 5d:       ldw (ru6)       r6, sp[0x3]
.label661    0x000138f6: d8 90:       add (2rus)      r1, r6, 0x0
             0x000138f8: c4 90:       add (2rus)      r0, r5, 0x0
             0x000138fa: 00 f0 1f d2: bl (lu10)       0x21f <__mcmp>
             0x000138fe: 00 f8 ec 97: ashr (l2rus)    r0, r0, 0x20
             0x00013902: 37 70:       bt (ru6)        r0, 0x37 <.label660>
             0x00013904: c0 6a:       ldc (ru6)       r11, 0x0
             0x00013906: bc 91:       add (2rus)      r3, r11, 0x0
             0x00013908: 05 fb ec 9f: ldaw (l2rus)    r0, r5[0x5]
             0x0001390c: 20 90:       add (2rus)      r2, r0, 0x0
             0x0001390e: 44 55:       stw (ru6)       r5, sp[0x4]
             0x00013910: 19 fb ec 9f: ldaw (l2rus)    r1, r6[0x5]
.label668    0x00013914: 94 08:       ldw (2rus)      r9, r1[0x0]
             0x00013916: 67 16:       add (3r)        r6, r9, r11
             0x00013918: 24 92:       add (2rus)      r10, r9, 0x0
             0x0001391a: b9 47:       zext (rus)      r10, 0x10
             0x0001391c: bb 16:       add (3r)        r11, r10, r11
             0x0001391e: a8 08:       ldw (2rus)      r10, r2[0x0]
             0x00013920: bd ae:       shr (2rus)      r11, r11, 0x10
             0x00013922: 55 ae:       shr (2rus)      r5, r9, 0x10
             0x00013924: 7d 14:       add (3r)        r11, r11, r5
             0x00013926: 1c 92:       add (2rus)      r9, r11, 0x0
             0x00013928: b5 47:       zext (rus)      r9, 0x10
             0x0001392a: 59 ae:       shr (2rus)      r5, r10, 0x10
             0x0001392c: 79 47:       zext (rus)      r6, 0x10
             0x0001392e: b9 47:       zext (rus)      r10, 0x10
             0x00013930: 2a 1c:       sub (3r)        r6, r10, r6
             0x00013932: fb 10:       add (3r)        r3, r6, r3
             0x00013934: ed fc ec 97: ashr (l2rus)    r6, r3, 0x10
             0x00013938: d5 1d:       sub (3r)        r9, r5, r9
             0x0001393a: 26 14:       add (3r)        r6, r9, r6
             0x0001393c: d9 a5:       shl (2rus)      r9, r6, 0x10
             0x0001393e: 3d 47:       zext (rus)      r3, 0x10
             0x00013940: b7 41:       or (3r)         r3, r9, r3
             0x00013942: bd ae:       shr (2rus)      r11, r11, 0x10
             0x00013944: 54 92:       add (2rus)      r1, r1, 0x4
             0x00013946: 38 00:       stw (2rus)      r3, r2[0x0]
             0x00013948: 68 92:       add (2rus)      r2, r2, 0x4
             0x0001394a: 79 fd ec 97: ashr (l2rus)    r3, r6, 0x10
             0x0001394e: e1 c9:       lsu (3r)        r6, r8, r1
             0x00013950: 9f 7d:       bf (ru6)        r6, -0x1f <.label668>
             0x00013952: c4 5c:       ldw (ru6)       r3, sp[0x4]
             0x00013954: 5f fa ec 1f: ldaw (l3r)      r1, r3[r7]
             0x00013958: 01 91:       add (2rus)      r4, r4, 0x1
             0x0001395a: 65 0a:       ldw (2rus)      r2, r1[0x5]
             0x0001395c: 8a 70:       bt (ru6)        r2, 0xa <.label660>
             0x0001395e: 54 fa ec 9f: ldaw (l2rus)    r1, r1[0x4]
             0x00013962: 02 73:       bu (u6)         0x2 <.label669>
.label671    0x00013964: 3d 99:       sub (2rus)      r7, r7, 0x1
             0x00013966: 54 9a:       sub (2rus)      r1, r1, 0x4
.label669    0x00013968: 21 c8:       lsu (3r)        r2, r0, r1
             0x0001396a: 82 78:       bf (ru6)        r2, 0x2 <.label670>
             0x0001396c: 24 08:       ldw (2rus)      r2, r1[0x0]
             0x0001396e: 86 7c:       bf (ru6)        r2, -0x6 <.label671>
.label670    0x00013970: bc 02:       stw (2rus)      r7, r3[0x4]
.label660    0x00013972: 85 5e:       ldw (ru6)       r10, sp[0x5]
             0x00013974: 46 5e:       ldw (ru6)       r9, sp[0x6]
             0x00013976: 07 5e:       ldw (ru6)       r8, sp[0x7]
             0x00013978: c8 5d:       ldw (ru6)       r7, sp[0x8]
             0x0001397a: 89 5d:       ldw (ru6)       r6, sp[0x9]
             0x0001397c: 4a 5d:       ldw (ru6)       r5, sp[0xa]
             0x0001397e: c0 90:       add (2rus)      r0, r4, 0x0
             0x00013980: 0b 5d:       ldw (ru6)       r4, sp[0xb]
             0x00013982: cc 77:       retsp (u6)      0xc

<__free>:
             0x00013984: 41 77:       entsp (u6)      0x1
             0x00013986: 00 55:       stw (ru6)       r4, sp[0x0]
             0x00013988: 26 78:       bf (ru6)        r0, 0x26 <.label672>
             0x0001398a: 40 9a:       sub (2rus)      r0, r0, 0x4
             0x0001398c: 03 f0 a2 60: ldaw (lru6)     r2, dp[0xe2]
             0x00013990: 1e 73:       bu (u6)         0x1e <.label673>
.label677    0x00013992: 34 08:       ldw (2rus)      r3, r1[0x0]
             0x00013994: bd 10:       add (3r)        r11, r3, r1
             0x00013996: cc 31:       eq (3r)         r4, r11, r0
             0x00013998: b0 08:       ldw (2rus)      r11, r0[0x0]
             0x0001399a: 0f 79:       bf (ru6)        r4, 0xf <.label674>
             0x0001399c: bf 11:       add (3r)        r3, r11, r3
             0x0001399e: 34 00:       stw (2rus)      r3, r1[0x0]
             0x000139a0: 25 08:       ldw (2rus)      r2, r1[0x1]
             0x000139a2: 99 78:       bf (ru6)        r2, 0x19 <.label672>
             0x000139a4: b0 08:       ldw (2rus)      r11, r0[0x0]
             0x000139a6: 8c 11:       add (3r)        r0, r11, r0
             0x000139a8: 02 30:       eq (3r)         r0, r0, r2
             0x000139aa: 15 78:       bf (ru6)        r0, 0x15 <.label672>
             0x000139ac: 08 08:       ldw (2rus)      r0, r2[0x0]
             0x000139ae: 03 10:       add (3r)        r0, r0, r3
             0x000139b0: 04 00:       stw (2rus)      r0, r1[0x0]
             0x000139b2: 09 08:       ldw (2rus)      r0, r2[0x1]
             0x000139b4: 05 00:       stw (2rus)      r0, r1[0x1]
             0x000139b6: 00 5d:       ldw (ru6)       r4, sp[0x0]
             0x000139b8: c1 77:       retsp (u6)      0x1
.label674    0x000139ba: cc 11:       add (3r)        r4, r11, r0
             0x000139bc: 84 32:       eq (3r)         r4, r1, r4
             0x000139be: 04 79:       bf (ru6)        r4, 0x4 <.label675>
             0x000139c0: bf 11:       add (3r)        r3, r11, r3
             0x000139c2: 30 00:       stw (2rus)      r3, r0[0x0]
             0x000139c4: 15 08:       ldw (2rus)      r1, r1[0x1]
             0x000139c6: 05 73:       bu (u6)         0x5 <.label676>
.label675    0x000139c8: 31 c8:       lsu (3r)        r3, r0, r1
             0x000139ca: c3 70:       bt (ru6)        r3, 0x3 <.label676>
             0x000139cc: 64 92:       add (2rus)      r2, r1, 0x4
.label673    0x000139ce: 18 08:       ldw (2rus)      r1, r2[0x0]
             0x000139d0: 60 74:       bt (ru6)        r1, -0x20 <.label677>
.label676    0x000139d2: 11 00:       stw (2rus)      r1, r0[0x1]
             0x000139d4: 08 00:       stw (2rus)      r0, r2[0x0]
.label672    0x000139d6: 00 5d:       ldw (ru6)       r4, sp[0x0]
             0x000139d8: c1 77:       retsp (u6)      0x1
             0x000139da: 00 90:       add (2rus)      r0, r0, 0x0

<free>:
             0x000139dc: 42 77:       entsp (u6)      0x2
             0x000139de: 01 55:       stw (ru6)       r4, sp[0x1]
             0x000139e0: 40 90:       add (2rus)      r4, r0, 0x0
             0x000139e2: 02 f0 1b d1: bl (lu10)       0x91b <__malloc_lock>
             0x000139e6: 25 79:       bf (ru6)        r4, 0x25 <.label678>
             0x000139e8: 03 f0 a2 60: ldaw (lru6)     r2, dp[0xe2]
             0x000139ec: 00 9b:       sub (2rus)      r0, r4, 0x4
             0x000139ee: 1d 73:       bu (u6)         0x1d <.label679>
.label683    0x000139f0: 34 08:       ldw (2rus)      r3, r1[0x0]
             0x000139f2: bd 10:       add (3r)        r11, r3, r1
             0x000139f4: cc 31:       eq (3r)         r4, r11, r0
             0x000139f6: b0 08:       ldw (2rus)      r11, r0[0x0]
             0x000139f8: 0e 79:       bf (ru6)        r4, 0xe <.label680>
             0x000139fa: bf 11:       add (3r)        r3, r11, r3
             0x000139fc: 34 00:       stw (2rus)      r3, r1[0x0]
             0x000139fe: 25 08:       ldw (2rus)      r2, r1[0x1]
             0x00013a00: 98 78:       bf (ru6)        r2, 0x18 <.label678>
             0x00013a02: b0 08:       ldw (2rus)      r11, r0[0x0]
             0x00013a04: 8c 11:       add (3r)        r0, r11, r0
             0x00013a06: 02 30:       eq (3r)         r0, r0, r2
             0x00013a08: 14 78:       bf (ru6)        r0, 0x14 <.label678>
             0x00013a0a: 08 08:       ldw (2rus)      r0, r2[0x0]
             0x00013a0c: 03 10:       add (3r)        r0, r0, r3
             0x00013a0e: 04 00:       stw (2rus)      r0, r1[0x0]
             0x00013a10: 09 08:       ldw (2rus)      r0, r2[0x1]
             0x00013a12: 05 00:       stw (2rus)      r0, r1[0x1]
             0x00013a14: 0e 73:       bu (u6)         0xe <.label678>
.label680    0x00013a16: cc 11:       add (3r)        r4, r11, r0
             0x00013a18: 84 32:       eq (3r)         r4, r1, r4
             0x00013a1a: 04 79:       bf (ru6)        r4, 0x4 <.label681>
             0x00013a1c: bf 11:       add (3r)        r3, r11, r3
             0x00013a1e: 30 00:       stw (2rus)      r3, r0[0x0]
             0x00013a20: 15 08:       ldw (2rus)      r1, r1[0x1]
             0x00013a22: 05 73:       bu (u6)         0x5 <.label682>
.label681    0x00013a24: 31 c8:       lsu (3r)        r3, r0, r1
             0x00013a26: c3 70:       bt (ru6)        r3, 0x3 <.label682>
             0x00013a28: 64 92:       add (2rus)      r2, r1, 0x4
.label679    0x00013a2a: 18 08:       ldw (2rus)      r1, r2[0x0]
             0x00013a2c: 5f 74:       bt (ru6)        r1, -0x1f <.label683>
.label682    0x00013a2e: 11 00:       stw (2rus)      r1, r0[0x1]
             0x00013a30: 08 00:       stw (2rus)      r0, r2[0x0]
.label678    0x00013a32: 02 f0 f9 d0: bl (lu10)       0x8f9 <__malloc_unlock>
             0x00013a36: 01 5d:       ldw (ru6)       r4, sp[0x1]
             0x00013a38: c2 77:       retsp (u6)      0x2
             0x00013a3a: 00 00:       stw (2rus)      r0, r0[0x0]

<localeconv>:
             0x00013a3c: 01 f0 38 60: ldaw (lru6)     r0, dp[0x78]
             0x00013a40: c0 77:       retsp (u6)      0x0
             0x00013a42: 00 00:       stw (2rus)      r0, r0[0x0]

<__malloc>:
             0x00013a44: 44 68:       ldc (ru6)       r1, 0x4
             0x00013a46: 42 77:       entsp (u6)      0x2
             0x00013a48: 01 55:       stw (ru6)       r4, sp[0x1]
             0x00013a4a: 11 c8:       lsu (3r)        r1, r0, r1
             0x00013a4c: 40 55:       stw (ru6)       r5, sp[0x0]
             0x00013a4e: 42 78:       bf (ru6)        r1, 0x2 <.label684>
             0x00013a50: 08 68:       ldc (ru6)       r0, 0x8
             0x00013a52: 04 73:       bu (u6)         0x4 <.label685>
.label684    0x00013a54: c4 96:       neg (2r)        r1, r0
             0x00013a56: d6 46:       zext (rus)      r1, 0x2
             0x00013a58: 01 10:       add (3r)        r0, r0, r1
             0x00013a5a: 40 92:       add (2rus)      r0, r0, 0x4
.label685    0x00013a5c: 03 f0 62 58: ldw (lru6)      r1, dp[0xe2]
             0x00013a60: 00 f0 cb 58: ldw (lru6)      r3, dp[0xb]
             0x00013a64: 03 f0 a2 60: ldaw (lru6)     r2, dp[0xe2]
             0x00013a68: 29 73:       bu (u6)         0x29 <.label686>
.label694    0x00013a6a: b4 08:       ldw (2rus)      r11, r1[0x0]
             0x00013a6c: cc c9:       lsu (3r)        r4, r11, r0
             0x00013a6e: 0e 71:       bt (ru6)        r4, 0xe <.label687>
             0x00013a70: b0 94:       add (2rus)      r3, r0, 0x8
             0x00013a72: bf c9:       lsu (3r)        r3, r11, r3
             0x00013a74: c3 78:       bf (ru6)        r3, 0x3 <.label688>
             0x00013a76: 05 08:       ldw (2rus)      r0, r1[0x1]
             0x00013a78: 08 00:       stw (2rus)      r0, r2[0x0]
             0x00013a7a: 2f 73:       bu (u6)         0x2f <.label689>
.label688    0x00013a7c: 35 08:       ldw (2rus)      r3, r1[0x1]
             0x00013a7e: 44 10:       add (3r)        r4, r1, r0
             0x00013a80: 48 00:       stw (2rus)      r4, r2[0x0]
             0x00013a82: 3c 1a:       sub (3r)        r11, r11, r0
             0x00013a84: 70 01:       stw (2rus)      r11, r4[0x0]
             0x00013a86: 28 08:       ldw (2rus)      r2, r2[0x0]
             0x00013a88: 39 00:       stw (2rus)      r3, r2[0x1]
             0x00013a8a: 26 73:       bu (u6)         0x26 <.label690>
.label687    0x00013a8c: 45 08:       ldw (2rus)      r4, r1[0x1]
             0x00013a8e: 14 71:       bt (ru6)        r4, 0x14 <.label691>
             0x00013a90: dd 11:       add (3r)        r5, r11, r1
             0x00013a92: 17 31:       eq (3r)         r5, r5, r3
             0x00013a94: 51 79:       bf (ru6)        r5, 0x11 <.label691>
             0x00013a96: 01 f0 27 6d: ldw (lru6)      r4, cp[0x67]
             0x00013a9a: 33 1d:       sub (3r)        r11, r0, r11
             0x00013a9c: f3 18:       sub (3r)        r3, r4, r3
             0x00013a9e: 00 f0 0a 59: ldw (lru6)      r4, dp[0xa]
             0x00013aa2: 7c 12:       add (3r)        r3, r3, r4
             0x00013aa4: bf cc:       lsu (3r)        r3, r3, r11
             0x00013aa6: c2 78:       bf (ru6)        r3, 0x2 <.label692>
             0x00013aa8: 00 68:       ldc (ru6)       r0, 0x0
             0x00013aaa: 18 73:       bu (u6)         0x18 <.label693>
.label692    0x00013aac: c0 68:       ldc (ru6)       r3, 0x0
             0x00013aae: 38 00:       stw (2rus)      r3, r2[0x0]
             0x00013ab0: 24 10:       add (3r)        r2, r1, r0
             0x00013ab2: 00 f0 8b 50: stw (lru6)      r2, dp[0xb]
             0x00013ab6: 10 73:       bu (u6)         0x10 <.label690>
.label691    0x00013ab8: 64 92:       add (2rus)      r2, r1, 0x4
             0x00013aba: d0 90:       add (2rus)      r1, r4, 0x0
.label686    0x00013abc: 6a 74:       bt (ru6)        r1, -0x2a <.label694>
             0x00013abe: 00 f0 4a 58: ldw (lru6)      r1, dp[0xa]
             0x00013ac2: 94 fc ec a7: ldaw (l2rus)    r1, r1[-0x8]
             0x00013ac6: 17 18:       sub (3r)        r1, r1, r3
             0x00013ac8: 14 c8:       lsu (3r)        r1, r1, r0
             0x00013aca: 42 78:       bf (ru6)        r1, 0x2 <.label695>
             0x00013acc: 00 68:       ldc (ru6)       r0, 0x0
             0x00013ace: 06 73:       bu (u6)         0x6 <.label693>
.label695    0x00013ad0: 1c 10:       add (3r)        r1, r3, r0
             0x00013ad2: 00 f0 4b 50: stw (lru6)      r1, dp[0xb]
             0x00013ad6: 1c 90:       add (2rus)      r1, r3, 0x0
.label690    0x00013ad8: 04 00:       stw (2rus)      r0, r1[0x0]
.label689    0x00013ada: 44 92:       add (2rus)      r0, r1, 0x4
.label693    0x00013adc: 40 5d:       ldw (ru6)       r5, sp[0x0]
             0x00013ade: 01 5d:       ldw (ru6)       r4, sp[0x1]
             0x00013ae0: c2 77:       retsp (u6)      0x2
             0x00013ae2: 00 90:       add (2rus)      r0, r0, 0x0

<malloc>:
             0x00013ae4: 42 77:       entsp (u6)      0x2
             0x00013ae6: 01 55:       stw (ru6)       r4, sp[0x1]
             0x00013ae8: 40 90:       add (2rus)      r4, r0, 0x0
             0x00013aea: 02 f0 97 d0: bl (lu10)       0x897 <__malloc_lock>
             0x00013aee: c0 90:       add (2rus)      r0, r4, 0x0
             0x00013af0: 57 d4:       bl (u10)        -0x57 <__malloc>
             0x00013af2: 40 90:       add (2rus)      r4, r0, 0x0
             0x00013af4: 02 f0 98 d0: bl (lu10)       0x898 <__malloc_unlock>
             0x00013af8: c0 90:       add (2rus)      r0, r4, 0x0
             0x00013afa: 01 5d:       ldw (ru6)       r4, sp[0x1]
             0x00013afc: c2 77:       retsp (u6)      0x2
             0x00013afe: 00 00:       stw (2rus)      r0, r0[0x0]

<memchr>:
             0x00013b00: 30 90:       add (2rus)      r3, r0, 0x0
             0x00013b02: 00 68:       ldc (ru6)       r0, 0x0
             0x00013b04: 34 47:       zext (rus)      r1, 0x8
             0x00013b06: 07 73:       bu (u6)         0x7 <.label696>
.label698    0x00013b08: bc 88:       ld8u (3r)       r11, r3[r0]
             0x00013b0a: 3d 32:       eq (3r)         r11, r11, r1
             0x00013b0c: c2 7a:       bf (ru6)        r11, 0x2 <.label697>
             0x00013b0e: 0c 90:       add (2rus)      r0, r3, 0x0
             0x00013b10: c0 77:       retsp (u6)      0x0
.label697    0x00013b12: 29 98:       sub (2rus)      r2, r2, 0x1
             0x00013b14: 3d 90:       add (2rus)      r3, r3, 0x1
.label696    0x00013b16: 88 74:       bt (ru6)        r2, -0x8 <.label698>
             0x00013b18: c0 77:       retsp (u6)      0x0
             0x00013b1a: 00 00:       stw (2rus)      r0, r0[0x0]

<memcpy>:
             0x00013b1c: d0 68:       ldc (ru6)       r3, 0x10
             0x00013b1e: 43 77:       entsp (u6)      0x3
             0x00013b20: 02 55:       stw (ru6)       r4, sp[0x2]
             0x00013b22: 41 55:       stw (ru6)       r5, sp[0x1]
             0x00013b24: 80 55:       stw (ru6)       r6, sp[0x0]
             0x00013b26: 3b c8:       lsu (3r)        r3, r2, r3
             0x00013b28: c2 78:       bf (ru6)        r3, 0x2 <.label699>
             0x00013b2a: 30 90:       add (2rus)      r3, r0, 0x0
             0x00013b2c: 2a 73:       bu (u6)         0x2a <.label700>
.label699    0x00013b2e: 34 40:       or (3r)         r3, r1, r0
             0x00013b30: de 46:       zext (rus)      r3, 0x2
             0x00013b32: c2 78:       bf (ru6)        r3, 0x2 <.label701>
             0x00013b34: 30 90:       add (2rus)      r3, r0, 0x0
             0x00013b36: 25 73:       bu (u6)         0x25 <.label700>
.label701    0x00013b38: 9c a7:       mkmsk (rus)     r3, 0x4
             0x00013b3a: c0 6a:       ldc (ru6)       r11, 0x0
.label702    0x00013b3c: d7 14:       add (3r)        r5, r1, r11
             0x00013b3e: 24 09:       ldw (2rus)      r6, r5[0x0]
             0x00013b40: c3 14:       add (3r)        r4, r0, r11
             0x00013b42: 20 01:       stw (2rus)      r6, r4[0x0]
             0x00013b44: 68 fa ec a7: ldaw (l2rus)    r2, r2[-0x4]
             0x00013b48: 25 09:       ldw (2rus)      r6, r5[0x1]
             0x00013b4a: 21 01:       stw (2rus)      r6, r4[0x1]
             0x00013b4c: 26 09:       ldw (2rus)      r6, r5[0x2]
             0x00013b4e: 22 01:       stw (2rus)      r6, r4[0x2]
             0x00013b50: 7c fc ec 9f: ldaw (l2rus)    r11, r11[0x4]
             0x00013b54: 17 09:       ldw (2rus)      r5, r5[0x3]
             0x00013b56: 13 01:       stw (2rus)      r5, r4[0x3]
             0x00013b58: 4e c8:       lsu (3r)        r4, r3, r2
             0x00013b5a: 10 75:       bt (ru6)        r4, -0x10 <.label702>
             0x00013b5c: c4 68:       ldc (ru6)       r3, 0x4
             0x00013b5e: 3b c8:       lsu (3r)        r3, r2, r3
             0x00013b60: c2 78:       bf (ru6)        r3, 0x2 <.label703>
             0x00013b62: b3 14:       add (3r)        r3, r0, r11
             0x00013b64: 0d 73:       bu (u6)         0xd <.label704>
.label703    0x00013b66: b3 14:       add (3r)        r3, r0, r11
             0x00013b68: 97 14:       add (3r)        r1, r1, r11
             0x00013b6a: c0 6a:       ldc (ru6)       r11, 0x0
             0x00013b6c: 12 a7:       mkmsk (rus)     r4, 0x2
.label705    0x00013b6e: df 14:       add (3r)        r5, r3, r11
             0x00013b70: e7 14:       add (3r)        r6, r1, r11
             0x00013b72: 28 09:       ldw (2rus)      r6, r6[0x0]
             0x00013b74: 7c 94:       add (2rus)      r11, r11, 0x4
             0x00013b76: 68 9a:       sub (2rus)      r2, r2, 0x4
             0x00013b78: 24 01:       stw (2rus)      r6, r5[0x0]
             0x00013b7a: 12 c9:       lsu (3r)        r5, r4, r2
             0x00013b7c: 48 75:       bt (ru6)        r5, -0x8 <.label705>
             0x00013b7e: bf 14:       add (3r)        r3, r3, r11
.label704    0x00013b80: 97 14:       add (3r)        r1, r1, r11
.label700    0x00013b82: 88 78:       bf (ru6)        r2, 0x8 <.label706>
             0x00013b84: c0 6a:       ldc (ru6)       r11, 0x0
.label707    0x00013b86: c7 8c:       ld8u (3r)       r4, r1[r11]
             0x00013b88: 15 90:       add (2rus)      r1, r1, 0x1
             0x00013b8a: cf fc ec 8f: st8 (l3r)       r4, r3[r11]
             0x00013b8e: 3d 90:       add (2rus)      r3, r3, 0x1
             0x00013b90: 29 98:       sub (2rus)      r2, r2, 0x1
             0x00013b92: 87 74:       bt (ru6)        r2, -0x7 <.label707>
.label706    0x00013b94: 80 5d:       ldw (ru6)       r6, sp[0x0]
             0x00013b96: 41 5d:       ldw (ru6)       r5, sp[0x1]
             0x00013b98: 02 5d:       ldw (ru6)       r4, sp[0x2]
             0x00013b9a: c3 77:       retsp (u6)      0x3

<memmove>:
             0x00013b9c: 34 c8:       lsu (3r)        r3, r1, r0
             0x00013b9e: 43 77:       entsp (u6)      0x3
             0x00013ba0: 02 55:       stw (ru6)       r4, sp[0x2]
             0x00013ba2: 41 55:       stw (ru6)       r5, sp[0x1]
             0x00013ba4: 80 55:       stw (ru6)       r6, sp[0x0]
             0x00013ba6: ce 78:       bf (ru6)        r3, 0xe <.label708>
             0x00013ba8: 36 10:       add (3r)        r3, r1, r2
             0x00013baa: 33 c8:       lsu (3r)        r3, r0, r3
             0x00013bac: cb 78:       bf (ru6)        r3, 0xb <.label708>
             0x00013bae: 01 f0 81 78: bf (lru6)       r2, 0x41 <.label709>
             0x00013bb2: dc a6:       mkmsk (rus)     r3, 0x20
.label710    0x00013bb4: 46 10:       add (3r)        r4, r1, r2
             0x00013bb6: 03 89:       ld8u (3r)       r4, r4[r3]
             0x00013bb8: b2 10:       add (3r)        r11, r0, r2
             0x00013bba: cf f9 ec 8f: st8 (l3r)       r4, r11[r3]
             0x00013bbe: 29 98:       sub (2rus)      r2, r2, 0x1
             0x00013bc0: 87 74:       bt (ru6)        r2, -0x7 <.label710>
             0x00013bc2: 38 73:       bu (u6)         0x38 <.label709>
.label708    0x00013bc4: d0 68:       ldc (ru6)       r3, 0x10
             0x00013bc6: 3b c8:       lsu (3r)        r3, r2, r3
             0x00013bc8: c2 78:       bf (ru6)        r3, 0x2 <.label711>
             0x00013bca: 30 90:       add (2rus)      r3, r0, 0x0
             0x00013bcc: 2a 73:       bu (u6)         0x2a <.label712>
.label711    0x00013bce: 34 40:       or (3r)         r3, r1, r0
             0x00013bd0: de 46:       zext (rus)      r3, 0x2
             0x00013bd2: c2 78:       bf (ru6)        r3, 0x2 <.label713>
             0x00013bd4: 30 90:       add (2rus)      r3, r0, 0x0
             0x00013bd6: 25 73:       bu (u6)         0x25 <.label712>
.label713    0x00013bd8: 9c a7:       mkmsk (rus)     r3, 0x4
             0x00013bda: c0 6a:       ldc (ru6)       r11, 0x0
.label714    0x00013bdc: d7 14:       add (3r)        r5, r1, r11
             0x00013bde: 24 09:       ldw (2rus)      r6, r5[0x0]
             0x00013be0: c3 14:       add (3r)        r4, r0, r11
             0x00013be2: 20 01:       stw (2rus)      r6, r4[0x0]
             0x00013be4: 68 fa ec a7: ldaw (l2rus)    r2, r2[-0x4]
             0x00013be8: 25 09:       ldw (2rus)      r6, r5[0x1]
             0x00013bea: 21 01:       stw (2rus)      r6, r4[0x1]
             0x00013bec: 26 09:       ldw (2rus)      r6, r5[0x2]
             0x00013bee: 22 01:       stw (2rus)      r6, r4[0x2]
             0x00013bf0: 7c fc ec 9f: ldaw (l2rus)    r11, r11[0x4]
             0x00013bf4: 17 09:       ldw (2rus)      r5, r5[0x3]
             0x00013bf6: 13 01:       stw (2rus)      r5, r4[0x3]
             0x00013bf8: 4e c8:       lsu (3r)        r4, r3, r2
             0x00013bfa: 10 75:       bt (ru6)        r4, -0x10 <.label714>
             0x00013bfc: c4 68:       ldc (ru6)       r3, 0x4
             0x00013bfe: 3b c8:       lsu (3r)        r3, r2, r3
             0x00013c00: c2 78:       bf (ru6)        r3, 0x2 <.label715>
             0x00013c02: b3 14:       add (3r)        r3, r0, r11
             0x00013c04: 0d 73:       bu (u6)         0xd <.label716>
.label715    0x00013c06: b3 14:       add (3r)        r3, r0, r11
             0x00013c08: 97 14:       add (3r)        r1, r1, r11
             0x00013c0a: c0 6a:       ldc (ru6)       r11, 0x0
             0x00013c0c: 12 a7:       mkmsk (rus)     r4, 0x2
.label717    0x00013c0e: df 14:       add (3r)        r5, r3, r11
             0x00013c10: e7 14:       add (3r)        r6, r1, r11
             0x00013c12: 28 09:       ldw (2rus)      r6, r6[0x0]
             0x00013c14: 7c 94:       add (2rus)      r11, r11, 0x4
             0x00013c16: 68 9a:       sub (2rus)      r2, r2, 0x4
             0x00013c18: 24 01:       stw (2rus)      r6, r5[0x0]
             0x00013c1a: 12 c9:       lsu (3r)        r5, r4, r2
             0x00013c1c: 48 75:       bt (ru6)        r5, -0x8 <.label717>
             0x00013c1e: bf 14:       add (3r)        r3, r3, r11
.label716    0x00013c20: 97 14:       add (3r)        r1, r1, r11
.label712    0x00013c22: 88 78:       bf (ru6)        r2, 0x8 <.label709>
             0x00013c24: c0 6a:       ldc (ru6)       r11, 0x0
.label718    0x00013c26: c7 8c:       ld8u (3r)       r4, r1[r11]
             0x00013c28: 15 90:       add (2rus)      r1, r1, 0x1
             0x00013c2a: cf fc ec 8f: st8 (l3r)       r4, r3[r11]
             0x00013c2e: 3d 90:       add (2rus)      r3, r3, 0x1
             0x00013c30: 29 98:       sub (2rus)      r2, r2, 0x1
             0x00013c32: 87 74:       bt (ru6)        r2, -0x7 <.label718>
.label709    0x00013c34: 80 5d:       ldw (ru6)       r6, sp[0x0]
             0x00013c36: 41 5d:       ldw (ru6)       r5, sp[0x1]
             0x00013c38: 02 5d:       ldw (ru6)       r4, sp[0x2]
             0x00013c3a: c3 77:       retsp (u6)      0x3

<raise>:
             0x00013c3c: 86 68:       ldc (ru6)       r2, 0x6
             0x00013c3e: 11 98:       sub (2rus)      r1, r0, 0x1
             0x00013c40: 16 c8:       lsu (3r)        r1, r1, r2
             0x00013c42: 41 77:       entsp (u6)      0x1
             0x00013c44: 46 70:       bt (ru6)        r1, 0x6 <.label719>
             0x00013c46: 03 f0 39 d4: bl (lu10)       -0xc39 <__errno>
             0x00013c4a: 56 68:       ldc (ru6)       r1, 0x16
             0x00013c4c: 10 00:       stw (2rus)      r1, r0[0x0]
             0x00013c4e: d0 a6:       mkmsk (rus)     r0, 0x20
             0x00013c50: c1 77:       retsp (u6)      0x1
.label719    0x00013c52: 02 f0 7f d2: bl (lu10)       0xa7f <.label720>
             0x00013c56: c1 77:       retsp (u6)      0x1

<realloc>:
             0x00013c58: 45 77:       entsp (u6)      0x5
             0x00013c5a: 04 55:       stw (ru6)       r4, sp[0x4]
             0x00013c5c: 43 55:       stw (ru6)       r5, sp[0x3]
             0x00013c5e: 54 90:       add (2rus)      r5, r1, 0x0
             0x00013c60: 40 90:       add (2rus)      r4, r0, 0x0
             0x00013c62: 82 55:       stw (ru6)       r6, sp[0x2]
             0x00013c64: 04 68:       ldc (ru6)       r0, 0x4
             0x00013c66: c1 55:       stw (ru6)       r7, sp[0x1]
             0x00013c68: 24 c9:       lsu (3r)        r6, r5, r0
             0x00013c6a: 01 f0 d7 d3: bl (lu10)       0x7d7 <__malloc_lock>
             0x00013c6e: 00 9b:       sub (2rus)      r0, r4, 0x4
             0x00013c70: 82 79:       bf (ru6)        r6, 0x2 <.label721>
             0x00013c72: 48 68:       ldc (ru6)       r1, 0x8
             0x00013c74: 04 73:       bu (u6)         0x4 <.label722>
.label721    0x00013c76: 85 97:       neg (2r)        r1, r5
             0x00013c78: d6 46:       zext (rus)      r1, 0x2
             0x00013c7a: d5 10:       add (3r)        r1, r5, r1
             0x00013c7c: 54 92:       add (2rus)      r1, r1, 0x4
.label722    0x00013c7e: 05 71:       bt (ru6)        r4, 0x5 <.label723>
             0x00013c80: c4 90:       add (2rus)      r0, r5, 0x0
             0x00013c82: 00 f0 21 d5: bl (lu10)       -0x121 <__malloc>
             0x00013c86: 60 90:       add (2rus)      r6, r0, 0x0
             0x00013c88: 21 73:       bu (u6)         0x21 <.label724>
.label723    0x00013c8a: 70 08:       ldw (2rus)      r7, r0[0x0]
             0x00013c8c: ed c8:       lsu (3r)        r2, r7, r1
             0x00013c8e: 93 78:       bf (ru6)        r2, 0x13 <.label725>
             0x00013c90: c4 90:       add (2rus)      r0, r5, 0x0
             0x00013c92: 00 f0 29 d5: bl (lu10)       -0x129 <__malloc>
             0x00013c96: 60 90:       add (2rus)      r6, r0, 0x0
             0x00013c98: 82 71:       bt (ru6)        r6, 0x2 <.label726>
             0x00013c9a: 80 69:       ldc (ru6)       r6, 0x0
             0x00013c9c: 17 73:       bu (u6)         0x17 <.label724>
.label726    0x00013c9e: 2c 9b:       sub (2rus)      r2, r7, 0x4
             0x00013ca0: 49 ca:       lsu (3r)        r0, r2, r5
             0x00013ca2: 01 70:       bt (ru6)        r0, 0x1 <.label727>
             0x00013ca4: e4 90:       add (2rus)      r2, r5, 0x0
.label727    0x00013ca6: d0 90:       add (2rus)      r1, r4, 0x0
             0x00013ca8: c8 90:       add (2rus)      r0, r6, 0x0
             0x00013caa: 00 f0 c9 d4: bl (lu10)       -0xc9 <memcpy>
             0x00013cae: c0 90:       add (2rus)      r0, r4, 0x0
             0x00013cb0: 00 f0 98 d5: bl (lu10)       -0x198 <__free>
             0x00013cb4: 0b 73:       bu (u6)         0xb <.label724>
.label725    0x00013cb6: c8 68:       ldc (ru6)       r3, 0x8
             0x00013cb8: ed 18:       sub (3r)        r2, r7, r1
             0x00013cba: 3b c8:       lsu (3r)        r3, r2, r3
             0x00013cbc: c6 70:       bt (ru6)        r3, 0x6 <.label728>
             0x00013cbe: 10 00:       stw (2rus)      r1, r0[0x0]
             0x00013cc0: 04 10:       add (3r)        r0, r1, r0
             0x00013cc2: 20 00:       stw (2rus)      r2, r0[0x0]
             0x00013cc4: 40 92:       add (2rus)      r0, r0, 0x4
             0x00013cc6: 00 f0 a3 d5: bl (lu10)       -0x1a3 <__free>
.label728    0x00013cca: 20 91:       add (2rus)      r6, r4, 0x0
.label724    0x00013ccc: 01 f0 ac d3: bl (lu10)       0x7ac <__malloc_unlock>
             0x00013cd0: c1 5d:       ldw (ru6)       r7, sp[0x1]
             0x00013cd2: c8 90:       add (2rus)      r0, r6, 0x0
             0x00013cd4: 82 5d:       ldw (ru6)       r6, sp[0x2]
             0x00013cd6: 43 5d:       ldw (ru6)       r5, sp[0x3]
             0x00013cd8: 04 5d:       ldw (ru6)       r4, sp[0x4]
             0x00013cda: c5 77:       retsp (u6)      0x5

<_Bfree>:
             0x00013cdc: 4a 78:       bf (ru6)        r1, 0xa <.label729>
             0x00013cde: ee 17:       get (0r)        r11, id
             0x00013ce0: 03 f0 2b 60: ldaw (lru6)     r0, dp[0xeb]
             0x00013ce4: b3 4c:       ldw (3r)        r3, r0[r11]
             0x00013ce6: 25 08:       ldw (2rus)      r2, r1[0x1]
             0x00013ce8: 3e 48:       ldw (3r)        r3, r3[r2]
             0x00013cea: 34 00:       stw (2rus)      r3, r1[0x0]
             0x00013cec: 83 4c:       ldw (3r)        r0, r0[r11]
             0x00013cee: 12 f8 ec 07: stw (l3r)       r1, r0[r2]
.label729    0x00013cf2: c0 77:       retsp (u6)      0x0

<__hi0bits>:
             0x00013cf4: 10 90:       add (2rus)      r1, r0, 0x0
             0x00013cf6: 01 f0 28 6c: ldw (lru6)      r0, cp[0x68]
             0x00013cfa: 04 c8:       lsu (3r)        r0, r1, r0
             0x00013cfc: 01 78:       bf (ru6)        r0, 0x1 <.label730>
             0x00013cfe: 95 a4:       shl (2rus)      r1, r1, 0x10
.label730    0x00013d00: 40 a2:       shl (2rus)      r0, r0, 0x4
             0x00013d02: 3a a7:       mkmsk (rus)     r2, 0x18
             0x00013d04: 29 c8:       lsu (3r)        r2, r2, r1
             0x00013d06: 83 70:       bt (ru6)        r2, 0x3 <.label731>
             0x00013d08: 94 a4:       shl (2rus)      r1, r1, 0x8
             0x00013d0a: 88 68:       ldc (ru6)       r2, 0x8
             0x00013d0c: 02 40:       or (3r)         r0, r0, r2
.label731    0x00013d0e: 01 f0 a9 6c: ldw (lru6)      r2, cp[0x69]
             0x00013d12: 29 c8:       lsu (3r)        r2, r2, r1
             0x00013d14: 82 70:       bt (ru6)        r2, 0x2 <.label732>
             0x00013d16: 40 92:       add (2rus)      r0, r0, 0x4
             0x00013d18: 54 a2:       shl (2rus)      r1, r1, 0x4
.label732    0x00013d1a: 01 f0 aa 6c: ldw (lru6)      r2, cp[0x6a]
             0x00013d1e: 29 c8:       lsu (3r)        r2, r2, r1
             0x00013d20: 82 70:       bt (ru6)        r2, 0x2 <.label733>
             0x00013d22: 02 90:       add (2rus)      r0, r0, 0x2
             0x00013d24: 16 a0:       shl (2rus)      r1, r1, 0x2
.label733    0x00013d26: 24 f8 ec 97: ashr (l2rus)    r2, r1, 0x20
             0x00013d2a: 85 70:       bt (ru6)        r2, 0x5 <.label734>
             0x00013d2c: 01 f0 ab 6c: ldw (lru6)      r2, cp[0x6b]
             0x00013d30: 16 38:       and (3r)        r1, r1, r2
             0x00013d32: 42 78:       bf (ru6)        r1, 0x2 <.label735>
             0x00013d34: 01 90:       add (2rus)      r0, r0, 0x1
.label734    0x00013d36: c0 77:       retsp (u6)      0x0
.label735    0x00013d38: 20 68:       ldc (ru6)       r0, 0x20
             0x00013d3a: c0 77:       retsp (u6)      0x0

<__mcmp>:
             0x00013d3c: 41 77:       entsp (u6)      0x1
             0x00013d3e: 00 55:       stw (ru6)       r4, sp[0x0]
             0x00013d40: f4 0a:       ldw (2rus)      r11, r1[0x4]
             0x00013d42: 60 0a:       ldw (2rus)      r2, r0[0x4]
             0x00013d44: bb 34:       eq (3r)         r3, r2, r11
             0x00013d46: c3 70:       bt (ru6)        r3, 0x3 <.label736>
             0x00013d48: 00 5d:       ldw (ru6)       r4, sp[0x0]
             0x00013d4a: 8b 1c:       sub (3r)        r0, r2, r11
             0x00013d4c: c1 77:       retsp (u6)      0x1
.label736    0x00013d4e: 61 fa ec 9f: ldaw (l2rus)    r2, r0[0x5]
             0x00013d52: 87 fc ec 1f: ldaw (l3r)      r0, r1[r11]
             0x00013d56: 50 fa ec 9f: ldaw (l2rus)    r1, r0[0x4]
             0x00013d5a: bb fc ec 1f: ldaw (l3r)      r3, r2[r11]
.label739    0x00013d5e: 04 08:       ldw (2rus)      r0, r1[0x0]
             0x00013d60: 7c 9a:       sub (2rus)      r3, r3, 0x4
             0x00013d62: bc 08:       ldw (2rus)      r11, r3[0x0]
             0x00013d64: cc 31:       eq (3r)         r4, r11, r0
             0x00013d66: 08 71:       bt (ru6)        r4, 0x8 <.label737>
             0x00013d68: 8c c9:       lsu (3r)        r0, r11, r0
             0x00013d6a: 03 78:       bf (ru6)        r0, 0x3 <.label738>
             0x00013d6c: 00 5d:       ldw (ru6)       r4, sp[0x0]
             0x00013d6e: d0 a6:       mkmsk (rus)     r0, 0x20
             0x00013d70: c1 77:       retsp (u6)      0x1
.label738    0x00013d72: d1 a6:       mkmsk (rus)     r0, 0x1
             0x00013d74: 00 5d:       ldw (ru6)       r4, sp[0x0]
             0x00013d76: c1 77:       retsp (u6)      0x1
.label737    0x00013d78: 00 68:       ldc (ru6)       r0, 0x0
             0x00013d7a: 54 9a:       sub (2rus)      r1, r1, 0x4
             0x00013d7c: bb c8:       lsu (3r)        r11, r2, r3
             0x00013d7e: d1 76:       bt (ru6)        r11, -0x11 <.label739>
             0x00013d80: 00 5d:       ldw (ru6)       r4, sp[0x0]
             0x00013d82: c1 77:       retsp (u6)      0x1

<_Balloc>:
             0x00013d84: 43 77:       entsp (u6)      0x3
             0x00013d86: 02 55:       stw (ru6)       r4, sp[0x2]
             0x00013d88: 44 90:       add (2rus)      r4, r1, 0x0
             0x00013d8a: 41 55:       stw (ru6)       r5, sp[0x1]
             0x00013d8c: 03 f0 6b 61: ldaw (lru6)     r5, dp[0xeb]
             0x00013d90: ee 17:       get (0r)        r11, id
             0x00013d92: 57 4d:       ldw (3r)        r1, r5[r11]
             0x00013d94: 4b 70:       bt (ru6)        r1, 0xb <.label740>
             0x00013d96: 50 68:       ldc (ru6)       r1, 0x10
             0x00013d98: 04 68:       ldc (ru6)       r0, 0x4
             0x00013d9a: 02 f0 69 d1: bl (lu10)       0x969 <calloc>
             0x00013d9e: ee 17:       get (0r)        r11, id
             0x00013da0: 10 90:       add (2rus)      r1, r0, 0x0
             0x00013da2: 57 fd ec 07: stw (l3r)       r1, r5[r11]
             0x00013da6: 42 70:       bt (ru6)        r1, 0x2 <.label740>
             0x00013da8: 00 68:       ldc (ru6)       r0, 0x0
             0x00013daa: 15 73:       bu (u6)         0x15 <.label741>
.label740    0x00013dac: 44 4a:       ldw (3r)        r0, r1[r4]
             0x00013dae: 04 78:       bf (ru6)        r0, 0x4 <.label742>
             0x00013db0: 20 08:       ldw (2rus)      r2, r0[0x0]
             0x00013db2: 64 fa ec 07: stw (l3r)       r2, r1[r4]
             0x00013db6: 0c 73:       bu (u6)         0xc <.label743>
.label742    0x00013db8: 54 68:       ldc (ru6)       r1, 0x14
             0x00013dba: d1 a6:       mkmsk (rus)     r0, 0x1
             0x00013dbc: 90 22:       shl (3r)        r5, r0, r4
             0x00013dbe: 55 fa ec 1f: ldaw (l3r)      r1, r1[r5]
             0x00013dc2: 02 f0 55 d1: bl (lu10)       0x955 <calloc>
             0x00013dc6: 02 70:       bt (ru6)        r0, 0x2 <.label744>
             0x00013dc8: 00 68:       ldc (ru6)       r0, 0x0
             0x00013dca: 05 73:       bu (u6)         0x5 <.label741>
.label744    0x00013dcc: 41 00:       stw (2rus)      r4, r0[0x1]
             0x00013dce: 52 00:       stw (2rus)      r5, r0[0x2]
.label743    0x00013dd0: 40 68:       ldc (ru6)       r1, 0x0
             0x00013dd2: 50 02:       stw (2rus)      r1, r0[0x4]
             0x00013dd4: 13 00:       stw (2rus)      r1, r0[0x3]
.label741    0x00013dd6: 41 5d:       ldw (ru6)       r5, sp[0x1]
             0x00013dd8: 02 5d:       ldw (ru6)       r4, sp[0x2]
             0x00013dda: c3 77:       retsp (u6)      0x3

<__d2b>:
             0x00013ddc: 46 77:       entsp (u6)      0x6
             0x00013dde: ee 17:       get (0r)        r11, id
             0x00013de0: 05 55:       stw (ru6)       r4, sp[0x5]
             0x00013de2: 4c 90:       add (2rus)      r4, r3, 0x0
             0x00013de4: 44 55:       stw (ru6)       r5, sp[0x4]
             0x00013de6: 54 90:       add (2rus)      r5, r1, 0x0
             0x00013de8: 83 55:       stw (ru6)       r6, sp[0x3]
             0x00013dea: c2 55:       stw (ru6)       r7, sp[0x2]
             0x00013dec: 03 f0 eb 61: ldaw (lru6)     r7, dp[0xeb]
             0x00013df0: 01 56:       stw (ru6)       r8, sp[0x1]
             0x00013df2: 5f 4d:       ldw (3r)        r1, r7[r11]
             0x00013df4: 68 90:       add (2rus)      r6, r2, 0x0
             0x00013df6: 07 5e:       ldw (ru6)       r8, sp[0x7]
             0x00013df8: 4b 70:       bt (ru6)        r1, 0xb <.label745>
             0x00013dfa: 50 68:       ldc (ru6)       r1, 0x10
             0x00013dfc: 04 68:       ldc (ru6)       r0, 0x4
             0x00013dfe: 02 f0 37 d1: bl (lu10)       0x937 <calloc>
             0x00013e02: ee 17:       get (0r)        r11, id
             0x00013e04: 10 90:       add (2rus)      r1, r0, 0x0
             0x00013e06: 5f fd ec 07: stw (l3r)       r1, r7[r11]
             0x00013e0a: 42 70:       bt (ru6)        r1, 0x2 <.label745>
             0x00013e0c: 00 68:       ldc (ru6)       r0, 0x0
             0x00013e0e: 13 73:       bu (u6)         0x13 <.label746>
.label745    0x00013e10: 05 08:       ldw (2rus)      r0, r1[0x1]
             0x00013e12: 03 78:       bf (ru6)        r0, 0x3 <.label747>
             0x00013e14: 20 08:       ldw (2rus)      r2, r0[0x0]
             0x00013e16: 25 00:       stw (2rus)      r2, r1[0x1]
             0x00013e18: 0b 73:       bu (u6)         0xb <.label748>
.label747    0x00013e1a: 5c 68:       ldc (ru6)       r1, 0x1c
             0x00013e1c: 1d a7:       mkmsk (rus)     r7, 0x1
             0x00013e1e: cc 90:       add (2rus)      r0, r7, 0x0
             0x00013e20: 02 f0 26 d1: bl (lu10)       0x926 <calloc>
             0x00013e24: 02 70:       bt (ru6)        r0, 0x2 <.label749>
             0x00013e26: 00 68:       ldc (ru6)       r0, 0x0
             0x00013e28: 06 73:       bu (u6)         0x6 <.label746>
.label749    0x00013e2a: 71 00:       stw (2rus)      r7, r0[0x1]
             0x00013e2c: 42 68:       ldc (ru6)       r1, 0x2
             0x00013e2e: 12 00:       stw (2rus)      r1, r0[0x2]
.label748    0x00013e30: 40 68:       ldc (ru6)       r1, 0x0
             0x00013e32: 50 02:       stw (2rus)      r1, r0[0x4]
             0x00013e34: 13 00:       stw (2rus)      r1, r0[0x3]
.label746    0x00013e36: 01 f0 54 6c: ldw (lru6)      r1, cp[0x54]
             0x00013e3a: e9 38:       and (3r)        r2, r6, r1
             0x00013e3c: 54 68:       ldc (ru6)       r1, 0x14
             0x00013e3e: d9 28:       shr (3r)        r1, r6, r1
             0x00013e40: 1f f0 ff 68: ldc (lru6)      r3, 0x7ff
             0x00013e44: 17 38:       and (3r)        r1, r1, r3
             0x00013e46: 43 78:       bf (ru6)        r1, 0x3 <.label750>
             0x00013e48: 01 f0 ec 6c: ldw (lru6)      r3, cp[0x6c]
             0x00013e4c: 2b 40:       or (3r)         r2, r2, r3
.label750    0x00013e4e: 7f 79:       bf (ru6)        r5, 0x3f <.label751>
             0x00013e50: f4 90:       add (2rus)      r3, r5, 0x0
             0x00013e52: df 46:       zext (rus)      r3, 0x3
             0x00013e54: cb 78:       bf (ru6)        r3, 0xb <.label752>
             0x00013e56: f4 90:       add (2rus)      r3, r5, 0x0
             0x00013e58: dd 46:       zext (rus)      r3, 0x1
             0x00013e5a: ef 70:       bt (ru6)        r3, 0x2f <.label753>
             0x00013e5c: c2 68:       ldc (ru6)       r3, 0x2
             0x00013e5e: 77 39:       and (3r)        r11, r5, r3
             0x00013e60: c3 7a:       bf (ru6)        r11, 0x3 <.label754>
             0x00013e62: 15 a9:       shr (2rus)      r5, r5, 0x1
             0x00013e64: dd a6:       mkmsk (rus)     r3, 0x1
             0x00013e66: 22 73:       bu (u6)         0x22 <.label755>
.label754    0x00013e68: 16 a9:       shr (2rus)      r5, r5, 0x2
             0x00013e6a: 20 73:       bu (u6)         0x20 <.label755>
.label752    0x00013e6c: f4 90:       add (2rus)      r3, r5, 0x0
             0x00013e6e: 3d 47:       zext (rus)      r3, 0x10
             0x00013e70: 74 91:       add (2rus)      r11, r5, 0x0
             0x00013e72: c1 70:       bt (ru6)        r3, 0x1 <.label756>
             0x00013e74: f5 ad:       shr (2rus)      r11, r5, 0x10
.label756    0x00013e76: ec 91:       add (2rus)      r6, r11, 0x0
             0x00013e78: 78 47:       zext (rus)      r6, 0x8
             0x00013e7a: 3c b0:       eq (2rus)       r3, r3, 0x0
             0x00013e7c: 7c a2:       shl (2rus)      r3, r3, 0x4
             0x00013e7e: 83 71:       bt (ru6)        r6, 0x3 <.label757>
             0x00013e80: 88 69:       ldc (ru6)       r6, 0x8
             0x00013e82: 7e 42:       or (3r)         r3, r3, r6
             0x00013e84: bc ae:       shr (2rus)      r11, r11, 0x8
.label757    0x00013e86: ec 91:       add (2rus)      r6, r11, 0x0
             0x00013e88: d8 47:       zext (rus)      r6, 0x4
             0x00013e8a: 82 71:       bt (ru6)        r6, 0x2 <.label758>
             0x00013e8c: 7c 92:       add (2rus)      r3, r3, 0x4
             0x00013e8e: 7c ac:       shr (2rus)      r11, r11, 0x4
.label758    0x00013e90: ec 91:       add (2rus)      r6, r11, 0x0
             0x00013e92: 1a 47:       zext (rus)      r6, 0x2
             0x00013e94: 82 71:       bt (ru6)        r6, 0x2 <.label759>
             0x00013e96: 3e aa:       shr (2rus)      r11, r11, 0x2
             0x00013e98: 3e 90:       add (2rus)      r3, r3, 0x2
.label759    0x00013e9a: ec 91:       add (2rus)      r6, r11, 0x0
             0x00013e9c: 19 47:       zext (rus)      r6, 0x1
             0x00013e9e: 84 71:       bt (ru6)        r6, 0x4 <.label760>
             0x00013ea0: 3d aa:       shr (2rus)      r11, r11, 0x1
             0x00013ea2: 02 f0 c1 7a: bf (lru6)       r11, 0x81 <.label761>
             0x00013ea6: 3d 90:       add (2rus)      r3, r3, 0x1
.label760    0x00013ea8: dc 91:       add (2rus)      r5, r11, 0x0
             0x00013eaa: c7 78:       bf (ru6)        r3, 0x7 <.label753>
.label755    0x00013eac: e0 6a:       ldc (ru6)       r11, 0x20
             0x00013eae: 3f 1a:       sub (3r)        r11, r11, r3
             0x00013eb0: 3b 25:       shl (3r)        r11, r2, r11
             0x00013eb2: 2b 28:       shr (3r)        r2, r2, r3
             0x00013eb4: 7d 44:       or (3r)         r11, r11, r5
             0x00013eb6: f1 02:       stw (2rus)      r11, r0[0x5]
             0x00013eb8: 02 73:       bu (u6)         0x2 <.label762>
.label753    0x00013eba: c0 68:       ldc (ru6)       r3, 0x0
             0x00013ebc: 91 02:       stw (2rus)      r5, r0[0x5]
.label762    0x00013ebe: 62 02:       stw (2rus)      r2, r0[0x6]
             0x00013ec0: 83 78:       bf (ru6)        r2, 0x3 <.label763>
             0x00013ec2: 82 68:       ldc (ru6)       r2, 0x2
             0x00013ec4: 60 02:       stw (2rus)      r2, r0[0x4]
             0x00013ec6: 37 73:       bu (u6)         0x37 <.label764>
.label763    0x00013ec8: d9 a6:       mkmsk (rus)     r2, 0x1
             0x00013eca: 60 02:       stw (2rus)      r2, r0[0x4]
             0x00013ecc: 34 73:       bu (u6)         0x34 <.label764>
.label751    0x00013ece: 38 90:       add (2rus)      r3, r2, 0x0
             0x00013ed0: df 46:       zext (rus)      r3, 0x3
             0x00013ed2: cd 78:       bf (ru6)        r3, 0xd <.label765>
             0x00013ed4: 38 90:       add (2rus)      r3, r2, 0x0
             0x00013ed6: dd 46:       zext (rus)      r3, 0x1
             0x00013ed8: c2 78:       bf (ru6)        r3, 0x2 <.label766>
             0x00013eda: c0 68:       ldc (ru6)       r3, 0x0
             0x00013edc: 27 73:       bu (u6)         0x27 <.label767>
.label766    0x00013ede: c2 68:       ldc (ru6)       r3, 0x2
             0x00013ee0: bb 38:       and (3r)        r11, r2, r3
             0x00013ee2: c3 7a:       bf (ru6)        r11, 0x3 <.label768>
             0x00013ee4: dd a6:       mkmsk (rus)     r3, 0x1
             0x00013ee6: 29 a8:       shr (2rus)      r2, r2, 0x1
             0x00013ee8: 21 73:       bu (u6)         0x21 <.label767>
.label768    0x00013eea: 2a a8:       shr (2rus)      r2, r2, 0x2
             0x00013eec: 1f 73:       bu (u6)         0x1f <.label767>
.label765    0x00013eee: b8 90:       add (2rus)      r11, r2, 0x0
             0x00013ef0: 38 90:       add (2rus)      r3, r2, 0x0
             0x00013ef2: 3d 47:       zext (rus)      r3, 0x10
             0x00013ef4: c1 70:       bt (ru6)        r3, 0x1 <.label769>
             0x00013ef6: 39 ad:       shr (2rus)      r11, r2, 0x10
.label769    0x00013ef8: 3c b0:       eq (2rus)       r3, r3, 0x0
             0x00013efa: 7c a2:       shl (2rus)      r3, r3, 0x4
             0x00013efc: dc 91:       add (2rus)      r5, r11, 0x0
             0x00013efe: 74 47:       zext (rus)      r5, 0x8
             0x00013f00: 43 71:       bt (ru6)        r5, 0x3 <.label770>
             0x00013f02: bc ae:       shr (2rus)      r11, r11, 0x8
             0x00013f04: 48 69:       ldc (ru6)       r5, 0x8
             0x00013f06: 7d 42:       or (3r)         r3, r3, r5
.label770    0x00013f08: dc 91:       add (2rus)      r5, r11, 0x0
             0x00013f0a: d4 47:       zext (rus)      r5, 0x4
             0x00013f0c: 42 71:       bt (ru6)        r5, 0x2 <.label771>
             0x00013f0e: 7c ac:       shr (2rus)      r11, r11, 0x4
             0x00013f10: 7c 92:       add (2rus)      r3, r3, 0x4
.label771    0x00013f12: dc 91:       add (2rus)      r5, r11, 0x0
             0x00013f14: 16 47:       zext (rus)      r5, 0x2
             0x00013f16: 42 71:       bt (ru6)        r5, 0x2 <.label772>
             0x00013f18: 3e 90:       add (2rus)      r3, r3, 0x2
             0x00013f1a: 3e aa:       shr (2rus)      r11, r11, 0x2
.label772    0x00013f1c: dc 91:       add (2rus)      r5, r11, 0x0
             0x00013f1e: 15 47:       zext (rus)      r5, 0x1
             0x00013f20: 44 71:       bt (ru6)        r5, 0x4 <.label773>
             0x00013f22: 3d aa:       shr (2rus)      r11, r11, 0x1
             0x00013f24: 01 f0 c3 7a: bf (lru6)       r11, 0x43 <.label774>
             0x00013f28: 3d 90:       add (2rus)      r3, r3, 0x1
.label773    0x00013f2a: ac 91:       add (2rus)      r2, r11, 0x0
.label767    0x00013f2c: bc fc ec 9f: ldaw (l2rus)    r3, r3[0x8]
             0x00013f30: 61 02:       stw (2rus)      r2, r0[0x5]
             0x00013f32: d9 a6:       mkmsk (rus)     r2, 0x1
             0x00013f34: 60 02:       stw (2rus)      r2, r0[0x4]
.label764    0x00013f36: 48 78:       bf (ru6)        r1, 0x8 <.label775>
             0x00013f38: 17 10:       add (3r)        r1, r1, r3
             0x00013f3a: 01 f0 ad 6c: ldw (lru6)      r2, cp[0x6d]
             0x00013f3e: 16 10:       add (3r)        r1, r1, r2
             0x00013f40: d0 00:       stw (2rus)      r1, r4[0x0]
             0x00013f42: 75 68:       ldc (ru6)       r1, 0x35
             0x00013f44: 17 18:       sub (3r)        r1, r1, r3
             0x00013f46: 29 73:       bu (u6)         0x29 <.label776>
.label775    0x00013f48: 01 f0 6e 6c: ldw (lru6)      r1, cp[0x6e]
             0x00013f4c: 1d 10:       add (3r)        r1, r3, r1
             0x00013f4e: d0 00:       stw (2rus)      r1, r4[0x0]
             0x00013f50: 12 f8 ec 1f: ldaw (l3r)      r1, r0[r2]
             0x00013f54: 74 0a:       ldw (2rus)      r3, r1[0x4]
             0x00013f56: 01 f0 68 6c: ldw (lru6)      r1, cp[0x68]
             0x00013f5a: 1d c8:       lsu (3r)        r1, r3, r1
             0x00013f5c: 41 78:       bf (ru6)        r1, 0x1 <.label777>
             0x00013f5e: bd a4:       shl (2rus)      r3, r3, 0x10
.label777    0x00013f60: be a7:       mkmsk (rus)     r11, 0x18
             0x00013f62: 3f ca:       lsu (3r)        r11, r11, r3
             0x00013f64: 54 a2:       shl (2rus)      r1, r1, 0x4
             0x00013f66: c3 72:       bt (ru6)        r11, 0x3 <.label778>
             0x00013f68: c8 6a:       ldc (ru6)       r11, 0x8
             0x00013f6a: 97 44:       or (3r)         r1, r1, r11
             0x00013f6c: bc a4:       shl (2rus)      r3, r3, 0x8
.label778    0x00013f6e: 01 f0 e9 6e: ldw (lru6)      r11, cp[0x69]
             0x00013f72: 3f ca:       lsu (3r)        r11, r11, r3
             0x00013f74: c2 72:       bt (ru6)        r11, 0x2 <.label779>
             0x00013f76: 7c a2:       shl (2rus)      r3, r3, 0x4
             0x00013f78: 54 92:       add (2rus)      r1, r1, 0x4
.label779    0x00013f7a: 01 f0 ea 6e: ldw (lru6)      r11, cp[0x6a]
             0x00013f7e: 3f ca:       lsu (3r)        r11, r11, r3
             0x00013f80: c2 72:       bt (ru6)        r11, 0x2 <.label780>
             0x00013f82: 3e a0:       shl (2rus)      r3, r3, 0x2
             0x00013f84: 16 90:       add (2rus)      r1, r1, 0x2
.label780    0x00013f86: 69 a2:       shl (2rus)      r2, r2, 0x5
             0x00013f88: bc f8 ec 97: ashr (l2rus)    r11, r3, 0x20
             0x00013f8c: c5 72:       bt (ru6)        r11, 0x5 <.label781>
             0x00013f8e: 01 f0 eb 6e: ldw (lru6)      r11, cp[0x6b]
             0x00013f92: bf 3c:       and (3r)        r3, r3, r11
             0x00013f94: cf 78:       bf (ru6)        r3, 0xf <.label782>
             0x00013f96: 15 90:       add (2rus)      r1, r1, 0x1
.label781    0x00013f98: 19 18:       sub (3r)        r1, r2, r1
.label776    0x00013f9a: 90 01:       stw (2rus)      r1, r8[0x0]
             0x00013f9c: 01 5e:       ldw (ru6)       r8, sp[0x1]
             0x00013f9e: c2 5d:       ldw (ru6)       r7, sp[0x2]
             0x00013fa0: 83 5d:       ldw (ru6)       r6, sp[0x3]
             0x00013fa2: 44 5d:       ldw (ru6)       r5, sp[0x4]
             0x00013fa4: 05 5d:       ldw (ru6)       r4, sp[0x5]
             0x00013fa6: c6 77:       retsp (u6)      0x6
.label761    0x00013fa8: e0 68:       ldc (ru6)       r3, 0x20
             0x00013faa: 02 f0 01 77: bu (lu6)        -0x81 <.label755>
.label774    0x00013fae: e0 68:       ldc (ru6)       r3, 0x20
             0x00013fb0: 01 f0 04 77: bu (lu6)        -0x44 <.label767>
.label782    0x00013fb4: 60 68:       ldc (ru6)       r1, 0x20
             0x00013fb6: 10 77:       bu (u6)         -0x10 <.label781>

<__mdiff>:
             0x00013fb8: 48 77:       entsp (u6)      0x8
             0x00013fba: 07 55:       stw (ru6)       r4, sp[0x7]
             0x00013fbc: 46 55:       stw (ru6)       r5, sp[0x6]
             0x00013fbe: 85 55:       stw (ru6)       r6, sp[0x5]
             0x00013fc0: c4 55:       stw (ru6)       r7, sp[0x4]
             0x00013fc2: 03 56:       stw (ru6)       r8, sp[0x3]
             0x00013fc4: 48 90:       add (2rus)      r4, r2, 0x0
             0x00013fc6: 42 56:       stw (ru6)       r9, sp[0x2]
             0x00013fc8: 81 56:       stw (ru6)       r10, sp[0x1]
             0x00013fca: 30 0b:       ldw (2rus)      r3, r4[0x4]
             0x00013fcc: 44 0a:       ldw (2rus)      r0, r1[0x4]
             0x00013fce: 23 30:       eq (3r)         r2, r0, r3
             0x00013fd0: bf 78:       bf (ru6)        r2, 0x3f <.label783>
             0x00013fd2: 45 fa ec 9f: ldaw (l2rus)    r0, r1[0x5]
             0x00013fd6: 23 f8 ec 1f: ldaw (l3r)      r2, r0[r3]
             0x00013fda: f3 f8 ec 1f: ldaw (l3r)      r3, r4[r3]
             0x00013fde: 7c fa ec 9f: ldaw (l2rus)    r3, r3[0x4]
.label787    0x00013fe2: bc 08:       ldw (2rus)      r11, r3[0x0]
             0x00013fe4: 68 9a:       sub (2rus)      r2, r2, 0x4
             0x00013fe6: 58 08:       ldw (2rus)      r5, r2[0x0]
             0x00013fe8: a7 35:       eq (3r)         r6, r5, r11
             0x00013fea: 86 71:       bt (ru6)        r6, 0x6 <.label784>
             0x00013fec: 47 cd:       lsu (3r)        r0, r5, r11
             0x00013fee: 02 78:       bf (ru6)        r0, 0x2 <.label785>
             0x00013ff0: d0 a6:       mkmsk (rus)     r0, 0x20
             0x00013ff2: 2f 73:       bu (u6)         0x2f <.label786>
.label785    0x00013ff4: d1 a6:       mkmsk (rus)     r0, 0x1
             0x00013ff6: 2d 73:       bu (u6)         0x2d <.label786>
.label784    0x00013ff8: 7c 9a:       sub (2rus)      r3, r3, 0x4
             0x00013ffa: b2 c8:       lsu (3r)        r11, r0, r2
             0x00013ffc: ce 76:       bt (ru6)        r11, -0xe <.label787>
             0x00013ffe: ee 17:       get (0r)        r11, id
             0x00014000: 03 f0 2b 61: ldaw (lru6)     r4, dp[0xeb]
             0x00014004: 53 4d:       ldw (3r)        r1, r4[r11]
             0x00014006: 4b 70:       bt (ru6)        r1, 0xb <.label788>
             0x00014008: 50 68:       ldc (ru6)       r1, 0x10
             0x0001400a: 04 68:       ldc (ru6)       r0, 0x4
             0x0001400c: 02 f0 30 d0: bl (lu10)       0x830 <calloc>
             0x00014010: ee 17:       get (0r)        r11, id
             0x00014012: 10 90:       add (2rus)      r1, r0, 0x0
             0x00014014: 53 fd ec 07: stw (l3r)       r1, r4[r11]
             0x00014018: 42 70:       bt (ru6)        r1, 0x2 <.label788>
             0x0001401a: 00 68:       ldc (ru6)       r0, 0x0
             0x0001401c: 13 73:       bu (u6)         0x13 <.label789>
.label788    0x0001401e: 04 08:       ldw (2rus)      r0, r1[0x0]
             0x00014020: 03 78:       bf (ru6)        r0, 0x3 <.label790>
             0x00014022: 20 08:       ldw (2rus)      r2, r0[0x0]
             0x00014024: 24 00:       stw (2rus)      r2, r1[0x0]
             0x00014026: 0b 73:       bu (u6)         0xb <.label791>
.label790    0x00014028: 58 68:       ldc (ru6)       r1, 0x18
             0x0001402a: 11 a7:       mkmsk (rus)     r4, 0x1
             0x0001402c: c0 90:       add (2rus)      r0, r4, 0x0
             0x0001402e: 02 f0 1f d0: bl (lu10)       0x81f <calloc>
             0x00014032: 02 70:       bt (ru6)        r0, 0x2 <.label792>
             0x00014034: 00 68:       ldc (ru6)       r0, 0x0
             0x00014036: 06 73:       bu (u6)         0x6 <.label789>
.label792    0x00014038: 40 68:       ldc (ru6)       r1, 0x0
             0x0001403a: 11 00:       stw (2rus)      r1, r0[0x1]
             0x0001403c: 42 00:       stw (2rus)      r4, r0[0x2]
.label791    0x0001403e: 40 68:       ldc (ru6)       r1, 0x0
             0x00014040: 50 02:       stw (2rus)      r1, r0[0x4]
             0x00014042: 13 00:       stw (2rus)      r1, r0[0x3]
.label789    0x00014044: d5 a6:       mkmsk (rus)     r1, 0x1
             0x00014046: 50 02:       stw (2rus)      r1, r0[0x4]
             0x00014048: 40 68:       ldc (ru6)       r1, 0x0
             0x0001404a: 51 02:       stw (2rus)      r1, r0[0x5]
             0x0001404c: 02 f0 07 73: bu (lu6)        0x87 <.label793>
.label783    0x00014050: 03 18:       sub (3r)        r0, r0, r3
.label786    0x00014052: 54 90:       add (2rus)      r5, r1, 0x0
             0x00014054: 20 f8 ec 97: ashr (l2rus)    r2, r0, 0x20
             0x00014058: 81 70:       bt (ru6)        r2, 0x1 <.label794>
             0x0001405a: 10 91:       add (2rus)      r5, r4, 0x0
.label794    0x0001405c: 81 70:       bt (ru6)        r2, 0x1 <.label795>
             0x0001405e: 44 90:       add (2rus)      r4, r1, 0x0
.label795    0x00014060: 31 09:       ldw (2rus)      r7, r4[0x1]
             0x00014062: ee 17:       get (0r)        r11, id
             0x00014064: 03 f0 2b 62: ldaw (lru6)     r8, dp[0xeb]
             0x00014068: 13 4e:       ldw (3r)        r1, r8[r11]
             0x0001406a: 99 a7:       mkmsk (rus)     r2, 0x5
             0x0001406c: 62 28:       shr (3r)        r6, r0, r2
             0x0001406e: 4b 70:       bt (ru6)        r1, 0xb <.label796>
             0x00014070: 50 68:       ldc (ru6)       r1, 0x10
             0x00014072: 04 68:       ldc (ru6)       r0, 0x4
             0x00014074: 01 f0 fc d3: bl (lu10)       0x7fc <calloc>
             0x00014078: ee 17:       get (0r)        r11, id
             0x0001407a: 10 90:       add (2rus)      r1, r0, 0x0
             0x0001407c: 13 fe ec 07: stw (l3r)       r1, r8[r11]
             0x00014080: 42 70:       bt (ru6)        r1, 0x2 <.label796>
             0x00014082: 00 68:       ldc (ru6)       r0, 0x0
             0x00014084: 15 73:       bu (u6)         0x15 <.label797>
.label796    0x00014086: 47 4a:       ldw (3r)        r0, r1[r7]
             0x00014088: 04 78:       bf (ru6)        r0, 0x4 <.label798>
             0x0001408a: 20 08:       ldw (2rus)      r2, r0[0x0]
             0x0001408c: 67 fa ec 07: stw (l3r)       r2, r1[r7]
             0x00014090: 0c 73:       bu (u6)         0xc <.label799>
.label798    0x00014092: 54 68:       ldc (ru6)       r1, 0x14
             0x00014094: d1 a6:       mkmsk (rus)     r0, 0x1
             0x00014096: c3 22:       shl (3r)        r8, r0, r7
             0x00014098: 94 fc ec 1f: ldaw (l3r)      r1, r1[r8]
             0x0001409c: 01 f0 e8 d3: bl (lu10)       0x7e8 <calloc>
             0x000140a0: 02 70:       bt (ru6)        r0, 0x2 <.label800>
             0x000140a2: 00 68:       ldc (ru6)       r0, 0x0
             0x000140a4: 05 73:       bu (u6)         0x5 <.label797>
.label800    0x000140a6: 71 00:       stw (2rus)      r7, r0[0x1]
             0x000140a8: 82 00:       stw (2rus)      r8, r0[0x2]
.label799    0x000140aa: 40 68:       ldc (ru6)       r1, 0x0
             0x000140ac: 50 02:       stw (2rus)      r1, r0[0x4]
             0x000140ae: 13 00:       stw (2rus)      r1, r0[0x3]
.label797    0x000140b0: 63 00:       stw (2rus)      r6, r0[0x3]
             0x000140b2: c0 68:       ldc (ru6)       r3, 0x0
             0x000140b4: b5 fb ec 9f: ldaw (l2rus)    r11, r5[0x5]
             0x000140b8: 14 0b:       ldw (2rus)      r1, r5[0x4]
             0x000140ba: 2c 90:       add (2rus)      r2, r3, 0x0
             0x000140bc: dd f9 ec 1f: ldaw (l3r)      r5, r11[r1]
             0x000140c0: a1 fa ec 9f: ldaw (l2rus)    r6, r0[0x5]
             0x000140c4: 10 0b:       ldw (2rus)      r1, r4[0x4]
.label801    0x000140c6: ff 11:       add (3r)        r7, r11, r3
             0x000140c8: 3c 09:       ldw (2rus)      r7, r7[0x0]
             0x000140ca: cd ad:       shr (2rus)      r8, r7, 0x10
             0x000140cc: 53 11:       add (3r)        r9, r4, r3
             0x000140ce: 55 0c:       ldw (2rus)      r9, r9[0x5]
             0x000140d0: a5 ae:       shr (2rus)      r10, r9, 0x10
             0x000140d2: 88 1e:       sub (3r)        r8, r10, r8
             0x000140d4: 7d 47:       zext (rus)      r7, 0x10
             0x000140d6: b5 47:       zext (rus)      r9, 0x10
             0x000140d8: 37 1c:       sub (3r)        r7, r9, r7
             0x000140da: 3e 11:       add (3r)        r7, r7, r2
             0x000140dc: 6d fd ec 97: ashr (l2rus)    r2, r7, 0x10
             0x000140e0: a8 14:       add (3r)        r2, r2, r8
             0x000140e2: 09 a5:       shl (2rus)      r8, r2, 0x10
             0x000140e4: 7d 47:       zext (rus)      r7, 0x10
             0x000140e6: 33 44:       or (3r)         r7, r8, r7
             0x000140e8: 4b 11:       add (3r)        r8, r6, r3
             0x000140ea: f0 01:       stw (2rus)      r7, r8[0x0]
             0x000140ec: a9 fc ec 97: ashr (l2rus)    r2, r2, 0x10
             0x000140f0: 7c 92:       add (2rus)      r3, r3, 0x4
             0x000140f2: ff 11:       add (3r)        r7, r11, r3
             0x000140f4: 7d cb:       lsu (3r)        r7, r7, r5
             0x000140f6: d9 75:       bt (ru6)        r7, -0x19 <.label801>
             0x000140f8: 71 f9 ec 1f: ldaw (l3r)      r11, r4[r1]
             0x000140fc: 7d fc ec 9f: ldaw (l2rus)    r11, r11[0x5]
             0x00014100: 03 11:       add (3r)        r4, r4, r3
             0x00014102: 51 fb ec 9f: ldaw (l2rus)    r5, r4[0x5]
             0x00014106: 97 cd:       lsu (3r)        r5, r5, r11
             0x00014108: 33 10:       add (3r)        r3, r0, r3
             0x0001410a: 43 71:       bt (ru6)        r5, 0x3 <.label802>
             0x0001410c: 6d fa ec 9f: ldaw (l2rus)    r2, r3[0x5]
             0x00014110: 1d 73:       bu (u6)         0x1d <.label803>
.label802    0x00014112: 40 69:       ldc (ru6)       r5, 0x0
             0x00014114: ad fa ec 9f: ldaw (l2rus)    r6, r3[0x5]
.label804    0x00014118: 71 13:       add (3r)        r7, r4, r5
             0x0001411a: 8d 0b:       ldw (2rus)      r8, r7[0x5]
             0x0001411c: 71 ae:       shr (2rus)      r7, r8, 0x10
             0x0001411e: 10 92:       add (2rus)      r9, r8, 0x0
             0x00014120: b5 47:       zext (rus)      r9, 0x10
             0x00014122: 16 12:       add (3r)        r9, r9, r2
             0x00014124: 95 fe ec 97: ashr (l2rus)    r9, r9, 0x10
             0x00014128: 37 14:       add (3r)        r7, r9, r7
             0x0001412a: a2 11:       add (3r)        r2, r8, r2
             0x0001412c: 39 47:       zext (rus)      r2, 0x10
             0x0001412e: dd a5:       shl (2rus)      r9, r7, 0x10
             0x00014130: a6 41:       or (3r)         r2, r9, r2
             0x00014132: 89 13:       add (3r)        r8, r6, r5
             0x00014134: a0 01:       stw (2rus)      r2, r8[0x0]
             0x00014136: 6d fd ec 97: ashr (l2rus)    r2, r7, 0x10
             0x0001413a: 71 13:       add (3r)        r7, r4, r5
             0x0001413c: 54 93:       add (2rus)      r5, r5, 0x4
             0x0001413e: 7e fb ec 9f: ldaw (l2rus)    r7, r7[0x6]
             0x00014142: bf cd:       lsu (3r)        r7, r7, r11
             0x00014144: d7 75:       bt (ru6)        r7, -0x17 <.label804>
             0x00014146: 6d 12:       add (3r)        r2, r3, r5
             0x00014148: 69 fa ec 9f: ldaw (l2rus)    r2, r2[0x5]
.label803    0x0001414c: 78 9a:       sub (2rus)      r3, r2, 0x4
             0x0001414e: 3c 08:       ldw (2rus)      r3, r3[0x0]
             0x00014150: c5 70:       bt (ru6)        r3, 0x5 <.label805>
             0x00014152: a8 9c:       sub (2rus)      r2, r2, 0x8
.label806    0x00014154: 38 08:       ldw (2rus)      r3, r2[0x0]
             0x00014156: 68 9a:       sub (2rus)      r2, r2, 0x4
             0x00014158: 15 98:       sub (2rus)      r1, r1, 0x1
             0x0001415a: c4 7c:       bf (ru6)        r3, -0x4 <.label806>
.label805    0x0001415c: 50 02:       stw (2rus)      r1, r0[0x4]
.label793    0x0001415e: 81 5e:       ldw (ru6)       r10, sp[0x1]
             0x00014160: 42 5e:       ldw (ru6)       r9, sp[0x2]
             0x00014162: 03 5e:       ldw (ru6)       r8, sp[0x3]
             0x00014164: c4 5d:       ldw (ru6)       r7, sp[0x4]
             0x00014166: 85 5d:       ldw (ru6)       r6, sp[0x5]
             0x00014168: 46 5d:       ldw (ru6)       r5, sp[0x6]
             0x0001416a: 07 5d:       ldw (ru6)       r4, sp[0x7]
             0x0001416c: c8 77:       retsp (u6)      0x8
             0x0001416e: 00 90:       add (2rus)      r0, r0, 0x0

<__lshift>:
             0x00014170: 48 77:       entsp (u6)      0x8
             0x00014172: 07 55:       stw (ru6)       r4, sp[0x7]
             0x00014174: 46 55:       stw (ru6)       r5, sp[0x6]
             0x00014176: 85 55:       stw (ru6)       r6, sp[0x5]
             0x00014178: c4 55:       stw (ru6)       r7, sp[0x4]
             0x0001417a: 44 90:       add (2rus)      r4, r1, 0x0
             0x0001417c: 03 56:       stw (ru6)       r8, sp[0x3]
             0x0001417e: 42 56:       stw (ru6)       r9, sp[0x2]
             0x00014180: 58 90:       add (2rus)      r5, r2, 0x0
             0x00014182: 81 56:       stw (ru6)       r10, sp[0x1]
             0x00014184: 95 fb ec 97: ashr (l2rus)    r9, r5, 0x5
             0x00014188: 00 0b:       ldw (2rus)      r0, r4[0x4]
             0x0001418a: 01 15:       add (3r)        r8, r0, r9
             0x0001418c: c2 08:       ldw (2rus)      r0, r4[0x2]
             0x0001418e: e1 91:       add (2rus)      r6, r8, 0x1
             0x00014190: 61 09:       ldw (2rus)      r10, r4[0x1]
             0x00014192: 52 c2:       lss (3r)        r1, r0, r6
             0x00014194: 44 78:       bf (ru6)        r1, 0x4 <.label807>
.label808    0x00014196: 29 92:       add (2rus)      r10, r10, 0x1
             0x00014198: 01 a0:       shl (2rus)      r0, r0, 0x1
             0x0001419a: 52 c2:       lss (3r)        r1, r0, r6
             0x0001419c: 44 74:       bt (ru6)        r1, -0x4 <.label808>
.label807    0x0001419e: ee 17:       get (0r)        r11, id
             0x000141a0: 03 f0 2b 60: ldaw (lru6)     r0, dp[0xeb]
             0x000141a4: 93 4c:       ldw (3r)        r1, r0[r11]
             0x000141a6: 4d 70:       bt (ru6)        r1, 0xd <.label809>
             0x000141a8: 50 68:       ldc (ru6)       r1, 0x10
             0x000141aa: 04 68:       ldc (ru6)       r0, 0x4
             0x000141ac: 01 f0 60 d3: bl (lu10)       0x760 <calloc>
             0x000141b0: 10 90:       add (2rus)      r1, r0, 0x0
             0x000141b2: ee 17:       get (0r)        r11, id
             0x000141b4: 03 f0 2b 60: ldaw (lru6)     r0, dp[0xeb]
             0x000141b8: 93 fc ec 07: stw (l3r)       r1, r0[r11]
             0x000141bc: 42 70:       bt (ru6)        r1, 0x2 <.label809>
             0x000141be: 00 68:       ldc (ru6)       r0, 0x0
             0x000141c0: 15 73:       bu (u6)         0x15 <.label810>
.label809    0x000141c2: 86 4c:       ldw (3r)        r0, r1[r10]
             0x000141c4: 04 78:       bf (ru6)        r0, 0x4 <.label811>
             0x000141c6: 20 08:       ldw (2rus)      r2, r0[0x0]
             0x000141c8: a6 fc ec 07: stw (l3r)       r2, r1[r10]
             0x000141cc: 0c 73:       bu (u6)         0xc <.label812>
.label811    0x000141ce: 54 68:       ldc (ru6)       r1, 0x14
             0x000141d0: d1 a6:       mkmsk (rus)     r0, 0x1
             0x000141d2: f2 24:       shl (3r)        r7, r0, r10
             0x000141d4: 57 fa ec 1f: ldaw (l3r)      r1, r1[r7]
             0x000141d8: 01 f0 4a d3: bl (lu10)       0x74a <calloc>
             0x000141dc: 02 70:       bt (ru6)        r0, 0x2 <.label813>
             0x000141de: 00 68:       ldc (ru6)       r0, 0x0
             0x000141e0: 05 73:       bu (u6)         0x5 <.label810>
.label813    0x000141e2: a1 00:       stw (2rus)      r10, r0[0x1]
             0x000141e4: 72 00:       stw (2rus)      r7, r0[0x2]
.label812    0x000141e6: 40 68:       ldc (ru6)       r1, 0x0
             0x000141e8: 50 02:       stw (2rus)      r1, r0[0x4]
             0x000141ea: 13 00:       stw (2rus)      r1, r0[0x3]
.label810    0x000141ec: 61 fa ec 9f: ldaw (l2rus)    r2, r0[0x5]
             0x000141f0: d5 a6:       mkmsk (rus)     r1, 0x1
             0x000141f2: 95 c1:       lss (3r)        r1, r9, r1
             0x000141f4: 42 78:       bf (ru6)        r1, 0x2 <.label814>
             0x000141f6: 18 90:       add (2rus)      r1, r2, 0x0
             0x000141f8: 0d 73:       bu (u6)         0xd <.label815>
.label814    0x000141fa: 01 f0 ef 6c: ldw (lru6)      r3, cp[0x6f]
             0x000141fe: d7 f8 ec 97: ashr (l2rus)    r1, r5, 0x3
             0x00014202: 55 fa ec 9f: ldaw (l2rus)    r1, r1[0x5]
             0x00014206: 17 38:       and (3r)        r1, r1, r3
             0x00014208: c0 68:       ldc (ru6)       r3, 0x0
             0x0001420a: 11 10:       add (3r)        r1, r0, r1
.label816    0x0001420c: 38 00:       stw (2rus)      r3, r2[0x0]
             0x0001420e: 15 9a:       sub (2rus)      r9, r9, 0x1
             0x00014210: 68 92:       add (2rus)      r2, r2, 0x4
             0x00014212: 44 76:       bt (ru6)        r9, -0x4 <.label816>
.label815    0x00014214: d5 47:       zext (rus)      r5, 0x5
             0x00014216: 20 0b:       ldw (2rus)      r2, r4[0x4]
             0x00014218: 31 fb ec 9f: ldaw (l2rus)    r3, r4[0x5]
             0x0001421c: 2e f8 ec 1f: ldaw (l3r)      r2, r3[r2]
             0x00014220: 52 79:       bf (ru6)        r5, 0x12 <.label817>
             0x00014222: 40 6a:       ldc (ru6)       r9, 0x0
             0x00014224: e0 6a:       ldc (ru6)       r11, 0x20
             0x00014226: 7d 1c:       sub (3r)        r11, r11, r5
.label818    0x00014228: 7c 08:       ldw (2rus)      r7, r3[0x0]
             0x0001422a: 7d 23:       shl (3r)        r7, r7, r5
             0x0001422c: bd 45:       or (3r)         r7, r7, r9
             0x0001422e: 74 00:       stw (2rus)      r7, r1[0x0]
             0x00014230: 54 92:       add (2rus)      r1, r1, 0x4
             0x00014232: ec 92:       add (2rus)      r10, r3, 0x4
             0x00014234: 3c 08:       ldw (2rus)      r3, r3[0x0]
             0x00014236: 1f 2d:       shr (3r)        r9, r3, r11
             0x00014238: b8 91:       add (2rus)      r3, r10, 0x0
             0x0001423a: fa c9:       lsu (3r)        r7, r10, r2
             0x0001423c: cb 75:       bt (ru6)        r7, -0xb <.label818>
             0x0001423e: 94 00:       stw (2rus)      r9, r1[0x0]
             0x00014240: 48 7a:       bf (ru6)        r9, 0x8 <.label819>
             0x00014242: e2 91:       add (2rus)      r6, r8, 0x2
             0x00014244: 06 73:       bu (u6)         0x6 <.label819>
.label817    0x00014246: bc 08:       ldw (2rus)      r11, r3[0x0]
             0x00014248: 7c 92:       add (2rus)      r3, r3, 0x4
             0x0001424a: b4 00:       stw (2rus)      r11, r1[0x0]
             0x0001424c: 54 92:       add (2rus)      r1, r1, 0x4
             0x0001424e: be c8:       lsu (3r)        r11, r3, r2
             0x00014250: c6 76:       bt (ru6)        r11, -0x6 <.label817>
.label819    0x00014252: d9 98:       sub (2rus)      r1, r6, 0x1
             0x00014254: 50 02:       stw (2rus)      r1, r0[0x4]
             0x00014256: 0a 79:       bf (ru6)        r4, 0xa <.label820>
             0x00014258: 03 f0 eb 60: ldaw (lru6)     r3, dp[0xeb]
             0x0001425c: ee 17:       get (0r)        r11, id
             0x0001425e: af 4c:       ldw (3r)        r2, r3[r11]
             0x00014260: d1 08:       ldw (2rus)      r1, r4[0x1]
             0x00014262: 29 48:       ldw (3r)        r2, r2[r1]
             0x00014264: e0 00:       stw (2rus)      r2, r4[0x0]
             0x00014266: af 4c:       ldw (3r)        r2, r3[r11]
             0x00014268: 49 f8 ec 07: stw (l3r)       r4, r2[r1]
.label820    0x0001426c: 81 5e:       ldw (ru6)       r10, sp[0x1]
             0x0001426e: 42 5e:       ldw (ru6)       r9, sp[0x2]
             0x00014270: 03 5e:       ldw (ru6)       r8, sp[0x3]
             0x00014272: c4 5d:       ldw (ru6)       r7, sp[0x4]
             0x00014274: 85 5d:       ldw (ru6)       r6, sp[0x5]
             0x00014276: 46 5d:       ldw (ru6)       r5, sp[0x6]
             0x00014278: 07 5d:       ldw (ru6)       r4, sp[0x7]
             0x0001427a: c8 77:       retsp (u6)      0x8

<__multiply>:
             0x0001427c: 4d 77:       entsp (u6)      0xd
             0x0001427e: 0c 55:       stw (ru6)       r4, sp[0xc]
             0x00014280: 4b 55:       stw (ru6)       r5, sp[0xb]
             0x00014282: 8a 55:       stw (ru6)       r6, sp[0xa]
             0x00014284: c9 55:       stw (ru6)       r7, sp[0x9]
             0x00014286: 44 90:       add (2rus)      r4, r1, 0x0
             0x00014288: 08 56:       stw (ru6)       r8, sp[0x8]
             0x0001428a: 47 56:       stw (ru6)       r9, sp[0x7]
             0x0001428c: 86 56:       stw (ru6)       r10, sp[0x6]
             0x0001428e: 78 90:       add (2rus)      r7, r2, 0x0
             0x00014290: 48 0a:       ldw (2rus)      r0, r2[0x4]
             0x00014292: 10 0b:       ldw (2rus)      r1, r4[0x4]
             0x00014294: 04 c0:       lss (3r)        r0, r1, r0
             0x00014296: 01 70:       bt (ru6)        r0, 0x1 <.label821>
             0x00014298: 30 91:       add (2rus)      r7, r4, 0x0
.label821    0x0001429a: 1c 0b:       ldw (2rus)      r1, r7[0x4]
             0x0001429c: 01 70:       bt (ru6)        r0, 0x1 <.label822>
             0x0001429e: 48 90:       add (2rus)      r4, r2, 0x0
.label822    0x000142a0: 80 0b:       ldw (2rus)      r8, r4[0x4]
             0x000142a2: e1 11:       add (3r)        r6, r8, r1
             0x000142a4: 44 54:       stw (ru6)       r1, sp[0x4]
             0x000142a6: 6e 09:       ldw (2rus)      r10, r7[0x2]
             0x000142a8: 03 f0 6b 61: ldaw (lru6)     r5, dp[0xeb]
             0x000142ac: ee 17:       get (0r)        r11, id
             0x000142ae: 5d 09:       ldw (2rus)      r9, r7[0x1]
             0x000142b0: 57 4d:       ldw (3r)        r1, r5[r11]
             0x000142b2: 4c 70:       bt (ru6)        r1, 0xc <.label823>
             0x000142b4: 50 68:       ldc (ru6)       r1, 0x10
             0x000142b6: 04 68:       ldc (ru6)       r0, 0x4
             0x000142b8: 01 f0 da d2: bl (lu10)       0x6da <calloc>
             0x000142bc: ee 17:       get (0r)        r11, id
             0x000142be: 10 90:       add (2rus)      r1, r0, 0x0
             0x000142c0: 57 fd ec 07: stw (l3r)       r1, r5[r11]
             0x000142c4: 43 70:       bt (ru6)        r1, 0x3 <.label823>
             0x000142c6: 00 68:       ldc (ru6)       r0, 0x0
             0x000142c8: 68 91:       add (2rus)      r10, r6, 0x0
             0x000142ca: 18 73:       bu (u6)         0x18 <.label824>
.label823    0x000142cc: ca c3:       lss (3r)        r0, r10, r6
             0x000142ce: d1 14:       add (3r)        r5, r0, r9
             0x000142d0: 45 4a:       ldw (3r)        r0, r1[r5]
             0x000142d2: 68 91:       add (2rus)      r10, r6, 0x0
             0x000142d4: 04 78:       bf (ru6)        r0, 0x4 <.label825>
             0x000142d6: 20 08:       ldw (2rus)      r2, r0[0x0]
             0x000142d8: 65 fa ec 07: stw (l3r)       r2, r1[r5]
             0x000142dc: 0c 73:       bu (u6)         0xc <.label826>
.label825    0x000142de: 54 68:       ldc (ru6)       r1, 0x14
             0x000142e0: d1 a6:       mkmsk (rus)     r0, 0x1
             0x000142e2: d1 22:       shl (3r)        r9, r0, r5
             0x000142e4: 95 fc ec 1f: ldaw (l3r)      r1, r1[r9]
             0x000142e8: 01 f0 c2 d2: bl (lu10)       0x6c2 <calloc>
             0x000142ec: 02 70:       bt (ru6)        r0, 0x2 <.label827>
             0x000142ee: 00 68:       ldc (ru6)       r0, 0x0
             0x000142f0: 05 73:       bu (u6)         0x5 <.label824>
.label827    0x000142f2: 51 00:       stw (2rus)      r5, r0[0x1]
             0x000142f4: 92 00:       stw (2rus)      r9, r0[0x2]
.label826    0x000142f6: 40 68:       ldc (ru6)       r1, 0x0
             0x000142f8: 50 02:       stw (2rus)      r1, r0[0x4]
             0x000142fa: 13 00:       stw (2rus)      r1, r0[0x3]
.label824    0x000142fc: 51 fa ec 9f: ldaw (l2rus)    r1, r0[0x5]
             0x00014300: 19 a7:       mkmsk (rus)     r6, 0x1
             0x00014302: ea c3:       lss (3r)        r2, r10, r6
             0x00014304: 88 70:       bt (ru6)        r2, 0x8 <.label828>
             0x00014306: c0 68:       ldc (ru6)       r3, 0x0
             0x00014308: a6 fc ec 1f: ldaw (l3r)      r2, r1[r10]
             0x0001430c: b4 90:       add (2rus)      r11, r1, 0x0
.label829    0x0001430e: bc 01:       stw (2rus)      r3, r11[0x0]
             0x00014310: 7c 94:       add (2rus)      r11, r11, 0x4
             0x00014312: de c9:       lsu (3r)        r5, r11, r2
             0x00014314: 44 75:       bt (ru6)        r5, -0x4 <.label829>
.label828    0x00014316: e2 c3:       lss (3r)        r2, r8, r6
             0x00014318: 01 f0 a5 70: bt (lru6)       r2, 0x65 <.label830>
             0x0001431c: 02 54:       stw (ru6)       r0, sp[0x2]
             0x0001431e: 83 56:       stw (ru6)       r10, sp[0x3]
             0x00014320: 0d fb ec 9f: ldaw (l2rus)    r0, r7[0x5]
             0x00014324: 7d fb ec 9f: ldaw (l2rus)    r7, r7[0x5]
             0x00014328: 05 54:       stw (ru6)       r0, sp[0x5]
             0x0001432a: 84 5c:       ldw (ru6)       r2, sp[0x4]
             0x0001432c: b2 f8 ec 1f: ldaw (l3r)      r11, r0[r2]
             0x00014330: 40 fd ec 1f: ldaw (l3r)      r0, r4[r8]
             0x00014334: 41 fb ec 9f: ldaw (l2rus)    r4, r4[0x5]
             0x00014338: 41 fa ec 9f: ldaw (l2rus)    r0, r0[0x5]
             0x0001433c: 04 54:       stw (ru6)       r0, sp[0x4]
             0x0001433e: 00 68:       ldc (ru6)       r0, 0x0
.label835    0x00014340: f0 08:       ldw (2rus)      r3, r4[0x0]
             0x00014342: 2c 90:       add (2rus)      r2, r3, 0x0
             0x00014344: 39 47:       zext (rus)      r2, 0x10
             0x00014346: 90 90:       add (2rus)      r9, r0, 0x0
             0x00014348: 60 90:       add (2rus)      r6, r0, 0x0
             0x0001434a: 9d 78:       bf (ru6)        r2, 0x1d <.label831>
.label832    0x0001434c: 4d 15:       add (3r)        r0, r7, r9
             0x0001434e: 50 08:       ldw (2rus)      r5, r0[0x0]
             0x00014350: 45 ad:       shr (2rus)      r0, r5, 0x10
             0x00014352: a2 f8 ec 3f: mul (l3r)       r10, r0, r2
             0x00014356: b5 14:       add (3r)        r3, r1, r9
             0x00014358: 8c 08:       ldw (2rus)      r8, r3[0x0]
             0x0001435a: 01 ae:       shr (2rus)      r0, r8, 0x10
             0x0001435c: 28 12:       add (3r)        r10, r10, r0
             0x0001435e: 75 47:       zext (rus)      r5, 0x10
             0x00014360: 16 f9 ec 3f: mul (l3r)       r5, r5, r2
             0x00014364: b1 47:       zext (rus)      r8, 0x10
             0x00014366: 22 14:       add (3r)        r6, r8, r6
             0x00014368: 59 13:       add (3r)        r5, r6, r5
             0x0001436a: a5 ad:       shr (2rus)      r6, r5, 0x10
             0x0001436c: 2a 14:       add (3r)        r6, r10, r6
             0x0001436e: c9 a5:       shl (2rus)      r8, r6, 0x10
             0x00014370: 75 47:       zext (rus)      r5, 0x10
             0x00014372: 11 44:       or (3r)         r5, r8, r5
             0x00014374: 5c 00:       stw (2rus)      r5, r3[0x0]
             0x00014376: a9 ad:       shr (2rus)      r6, r6, 0x10
             0x00014378: 54 94:       add (2rus)      r9, r9, 0x4
             0x0001437a: 7d 15:       add (3r)        r3, r7, r9
             0x0001437c: bf cc:       lsu (3r)        r3, r3, r11
             0x0001437e: da 74:       bt (ru6)        r3, -0x1a <.label832>
             0x00014380: a5 14:       add (3r)        r2, r1, r9
             0x00014382: 68 00:       stw (2rus)      r6, r2[0x0]
             0x00014384: f0 08:       ldw (2rus)      r3, r4[0x0]
.label831    0x00014386: 1d ad:       shr (2rus)      r9, r3, 0x10
             0x00014388: 62 7a:       bf (ru6)        r9, 0x22 <.label833>
             0x0001438a: 40 69:       ldc (ru6)       r5, 0x0
             0x0001438c: 34 08:       ldw (2rus)      r3, r1[0x0]
             0x0001438e: 24 90:       add (2rus)      r2, r1, 0x0
             0x00014390: 85 5e:       ldw (ru6)       r10, sp[0x5]
             0x00014392: 6c 90:       add (2rus)      r6, r3, 0x0
             0x00014394: 00 68:       ldc (ru6)       r0, 0x0
.label834    0x00014396: bd ac:       shr (2rus)      r3, r3, 0x10
             0x00014398: 7d 12:       add (3r)        r3, r3, r5
             0x0001439a: d8 09:       ldw (2rus)      r5, r10[0x0]
             0x0001439c: 75 47:       zext (rus)      r5, 0x10
             0x0001439e: 95 fd ec 3f: mul (l3r)       r5, r5, r9
             0x000143a2: 7d 12:       add (3r)        r3, r3, r5
             0x000143a4: dd a4:       shl (2rus)      r5, r3, 0x10
             0x000143a6: 79 47:       zext (rus)      r6, 0x10
             0x000143a8: 56 43:       or (3r)         r5, r5, r6
             0x000143aa: 58 00:       stw (2rus)      r5, r2[0x0]
             0x000143ac: dd ac:       shr (2rus)      r5, r3, 0x10
             0x000143ae: ba 91:       add (2rus)      r3, r10, 0x2
             0x000143b0: 3c 80:       ld16s (3r)      r3, r3[r0]
             0x000143b2: 3d 47:       zext (rus)      r3, 0x10
             0x000143b4: ed fc ec 3f: mul (l3r)       r6, r3, r9
             0x000143b8: 39 08:       ldw (2rus)      r3, r2[0x1]
             0x000143ba: 8c 90:       add (2rus)      r8, r3, 0x0
             0x000143bc: b1 47:       zext (rus)      r8, 0x10
             0x000143be: a8 15:       add (3r)        r6, r6, r8
             0x000143c0: 69 13:       add (3r)        r6, r6, r5
             0x000143c2: 99 ad:       shr (2rus)      r5, r6, 0x10
             0x000143c4: 68 94:       add (2rus)      r10, r10, 0x4
             0x000143c6: 8b ce:       lsu (3r)        r8, r10, r11
             0x000143c8: 68 92:       add (2rus)      r2, r2, 0x4
             0x000143ca: 1b 76:       bt (ru6)        r8, -0x1b <.label834>
             0x000143cc: 68 00:       stw (2rus)      r6, r2[0x0]
.label833    0x000143ce: 54 92:       add (2rus)      r1, r1, 0x4
             0x000143d0: 04 5c:       ldw (ru6)       r0, sp[0x4]
             0x000143d2: 40 93:       add (2rus)      r4, r4, 0x4
             0x000143d4: e0 c8:       lsu (3r)        r2, r4, r0
             0x000143d6: 00 68:       ldc (ru6)       r0, 0x0
             0x000143d8: 01 f0 8e 74: bt (lru6)       r2, -0x4e <.label835>
             0x000143dc: 19 a7:       mkmsk (rus)     r6, 0x1
             0x000143de: 83 5e:       ldw (ru6)       r10, sp[0x3]
             0x000143e0: 02 5c:       ldw (ru6)       r0, sp[0x2]
             0x000143e2: 01 73:       bu (u6)         0x1 <.label830>
.label837    0x000143e4: 29 9a:       sub (2rus)      r10, r10, 0x1
.label830    0x000143e6: da c3:       lss (3r)        r1, r10, r6
             0x000143e8: 44 70:       bt (ru6)        r1, 0x4 <.label836>
             0x000143ea: 92 fc ec 1f: ldaw (l3r)      r1, r0[r10]
             0x000143ee: 54 0a:       ldw (2rus)      r1, r1[0x4]
             0x000143f0: 47 7c:       bf (ru6)        r1, -0x7 <.label837>
.label836    0x000143f2: e0 02:       stw (2rus)      r10, r0[0x4]
             0x000143f4: 86 5e:       ldw (ru6)       r10, sp[0x6]
             0x000143f6: 47 5e:       ldw (ru6)       r9, sp[0x7]
             0x000143f8: 08 5e:       ldw (ru6)       r8, sp[0x8]
             0x000143fa: c9 5d:       ldw (ru6)       r7, sp[0x9]
             0x000143fc: 8a 5d:       ldw (ru6)       r6, sp[0xa]
             0x000143fe: 4b 5d:       ldw (ru6)       r5, sp[0xb]
             0x00014400: 0c 5d:       ldw (ru6)       r4, sp[0xc]
             0x00014402: cd 77:       retsp (u6)      0xd

<__i2b>:
             0x00014404: 43 77:       entsp (u6)      0x3
             0x00014406: 02 55:       stw (ru6)       r4, sp[0x2]
             0x00014408: 44 90:       add (2rus)      r4, r1, 0x0
             0x0001440a: 41 55:       stw (ru6)       r5, sp[0x1]
             0x0001440c: 03 f0 6b 61: ldaw (lru6)     r5, dp[0xeb]
             0x00014410: ee 17:       get (0r)        r11, id
             0x00014412: 57 4d:       ldw (3r)        r1, r5[r11]
             0x00014414: 4b 70:       bt (ru6)        r1, 0xb <.label838>
             0x00014416: 50 68:       ldc (ru6)       r1, 0x10
             0x00014418: 04 68:       ldc (ru6)       r0, 0x4
             0x0001441a: 01 f0 29 d2: bl (lu10)       0x629 <calloc>
             0x0001441e: ee 17:       get (0r)        r11, id
             0x00014420: 10 90:       add (2rus)      r1, r0, 0x0
             0x00014422: 57 fd ec 07: stw (l3r)       r1, r5[r11]
             0x00014426: 42 70:       bt (ru6)        r1, 0x2 <.label838>
             0x00014428: 00 68:       ldc (ru6)       r0, 0x0
             0x0001442a: 13 73:       bu (u6)         0x13 <.label839>
.label838    0x0001442c: 05 08:       ldw (2rus)      r0, r1[0x1]
             0x0001442e: 03 78:       bf (ru6)        r0, 0x3 <.label840>
             0x00014430: 20 08:       ldw (2rus)      r2, r0[0x0]
             0x00014432: 25 00:       stw (2rus)      r2, r1[0x1]
             0x00014434: 0b 73:       bu (u6)         0xb <.label841>
.label840    0x00014436: 5c 68:       ldc (ru6)       r1, 0x1c
             0x00014438: 15 a7:       mkmsk (rus)     r5, 0x1
             0x0001443a: c4 90:       add (2rus)      r0, r5, 0x0
             0x0001443c: 01 f0 18 d2: bl (lu10)       0x618 <calloc>
             0x00014440: 02 70:       bt (ru6)        r0, 0x2 <.label842>
             0x00014442: 00 68:       ldc (ru6)       r0, 0x0
             0x00014444: 06 73:       bu (u6)         0x6 <.label839>
.label842    0x00014446: 51 00:       stw (2rus)      r5, r0[0x1]
             0x00014448: 42 68:       ldc (ru6)       r1, 0x2
             0x0001444a: 12 00:       stw (2rus)      r1, r0[0x2]
.label841    0x0001444c: 40 68:       ldc (ru6)       r1, 0x0
             0x0001444e: 50 02:       stw (2rus)      r1, r0[0x4]
             0x00014450: 13 00:       stw (2rus)      r1, r0[0x3]
.label839    0x00014452: 81 02:       stw (2rus)      r4, r0[0x5]
             0x00014454: d5 a6:       mkmsk (rus)     r1, 0x1
             0x00014456: 50 02:       stw (2rus)      r1, r0[0x4]
             0x00014458: 41 5d:       ldw (ru6)       r5, sp[0x1]
             0x0001445a: 02 5d:       ldw (ru6)       r4, sp[0x2]
             0x0001445c: c3 77:       retsp (u6)      0x3
             0x0001445e: 00 90:       add (2rus)      r0, r0, 0x0

<__multadd>:
             0x00014460: 48 77:       entsp (u6)      0x8
             0x00014462: 07 55:       stw (ru6)       r4, sp[0x7]
             0x00014464: 46 55:       stw (ru6)       r5, sp[0x6]
             0x00014466: 85 55:       stw (ru6)       r6, sp[0x5]
             0x00014468: c4 55:       stw (ru6)       r7, sp[0x4]
             0x0001446a: 03 56:       stw (ru6)       r8, sp[0x3]
             0x0001446c: 00 68:       ldc (ru6)       r0, 0x0
             0x0001446e: 42 56:       stw (ru6)       r9, sp[0x2]
             0x00014470: 54 90:       add (2rus)      r5, r1, 0x0
             0x00014472: 81 56:       stw (ru6)       r10, sp[0x1]
             0x00014474: 74 0b:       ldw (2rus)      r7, r5[0x4]
             0x00014476: 4c 90:       add (2rus)      r4, r3, 0x0
.label843    0x00014478: d4 f8 ec 1f: ldaw (l3r)      r1, r5[r0]
             0x0001447c: 75 0a:       ldw (2rus)      r3, r1[0x5]
             0x0001447e: 3d ad:       shr (2rus)      r11, r3, 0x10
             0x00014480: 3e fa ec 3f: mul (l3r)       r11, r11, r2
             0x00014484: 3d 47:       zext (rus)      r3, 0x10
             0x00014486: 3e f8 ec 3f: mul (l3r)       r3, r3, r2
             0x0001448a: 7c 12:       add (3r)        r3, r3, r4
             0x0001448c: cd ac:       shr (2rus)      r4, r3, 0x10
             0x0001448e: f3 15:       add (3r)        r11, r4, r11
             0x00014490: 4d a6:       shl (2rus)      r4, r11, 0x10
             0x00014492: 3d 47:       zext (rus)      r3, 0x10
             0x00014494: f3 40:       or (3r)         r3, r4, r3
             0x00014496: 75 02:       stw (2rus)      r3, r1[0x5]
             0x00014498: 4d ae:       shr (2rus)      r4, r11, 0x10
             0x0001449a: 01 90:       add (2rus)      r0, r0, 0x1
             0x0001449c: 53 c2:       lss (3r)        r1, r0, r7
             0x0001449e: 54 74:       bt (ru6)        r1, -0x14 <.label843>
             0x000144a0: 03 71:       bt (ru6)        r4, 0x3 <.label844>
             0x000144a2: 24 91:       add (2rus)      r6, r5, 0x0
             0x000144a4: 01 f0 04 73: bu (lu6)        0x44 <.label845>
.label844    0x000144a8: c6 08:       ldw (2rus)      r0, r5[0x2]
             0x000144aa: cc c0:       lss (3r)        r0, r7, r0
             0x000144ac: 02 78:       bf (ru6)        r0, 0x2 <.label846>
             0x000144ae: 24 91:       add (2rus)      r6, r5, 0x0
             0x000144b0: 3a 73:       bu (u6)         0x3a <.label847>
.label846    0x000144b2: ee 17:       get (0r)        r11, id
             0x000144b4: 03 f0 2b 62: ldaw (lru6)     r8, dp[0xeb]
             0x000144b8: 03 4e:       ldw (3r)        r0, r8[r11]
             0x000144ba: 25 09:       ldw (2rus)      r6, r5[0x1]
             0x000144bc: 0a 70:       bt (ru6)        r0, 0xa <.label848>
             0x000144be: 50 68:       ldc (ru6)       r1, 0x10
             0x000144c0: 04 68:       ldc (ru6)       r0, 0x4
             0x000144c2: 01 f0 d5 d1: bl (lu10)       0x5d5 <calloc>
             0x000144c6: ee 17:       get (0r)        r11, id
             0x000144c8: 03 fe ec 07: stw (l3r)       r0, r8[r11]
             0x000144cc: 02 70:       bt (ru6)        r0, 0x2 <.label848>
             0x000144ce: 80 69:       ldc (ru6)       r6, 0x0
             0x000144d0: 17 73:       bu (u6)         0x17 <.label849>
.label848    0x000144d2: 59 91:       add (2rus)      r9, r6, 0x1
             0x000144d4: e1 4c:       ldw (3r)        r6, r0[r9]
             0x000144d6: 84 79:       bf (ru6)        r6, 0x4 <.label850>
             0x000144d8: d8 08:       ldw (2rus)      r1, r6[0x0]
             0x000144da: 91 fc ec 07: stw (l3r)       r1, r0[r9]
             0x000144de: 0d 73:       bu (u6)         0xd <.label851>
.label850    0x000144e0: 54 68:       ldc (ru6)       r1, 0x14
             0x000144e2: d1 a6:       mkmsk (rus)     r0, 0x1
             0x000144e4: 21 25:       shl (3r)        r10, r0, r9
             0x000144e6: 96 fc ec 1f: ldaw (l3r)      r1, r1[r10]
             0x000144ea: 01 f0 c1 d1: bl (lu10)       0x5c1 <calloc>
             0x000144ee: 60 90:       add (2rus)      r6, r0, 0x0
             0x000144f0: 82 71:       bt (ru6)        r6, 0x2 <.label852>
             0x000144f2: 80 69:       ldc (ru6)       r6, 0x0
             0x000144f4: 05 73:       bu (u6)         0x5 <.label849>
.label852    0x000144f6: 59 01:       stw (2rus)      r9, r6[0x1]
             0x000144f8: 6a 01:       stw (2rus)      r10, r6[0x2]
.label851    0x000144fa: 00 68:       ldc (ru6)       r0, 0x0
             0x000144fc: 08 03:       stw (2rus)      r0, r6[0x4]
             0x000144fe: cb 00:       stw (2rus)      r0, r6[0x3]
.label849    0x00014500: 48 68:       ldc (ru6)       r1, 0x8
             0x00014502: 04 0b:       ldw (2rus)      r0, r5[0x4]
             0x00014504: 24 f8 ec 1f: ldaw (l3r)      r2, r1[r0]
             0x00014508: d7 f8 ec 9f: ldaw (l2rus)    r1, r5[0x3]
             0x0001450c: cb f8 ec 9f: ldaw (l2rus)    r0, r6[0x3]
             0x00014510: 01 f0 fc d4: bl (lu10)       -0x4fc <memcpy>
             0x00014514: 48 79:       bf (ru6)        r5, 0x8 <.label847>
             0x00014516: ee 17:       get (0r)        r11, id
             0x00014518: 13 4e:       ldw (3r)        r1, r8[r11]
             0x0001451a: c5 08:       ldw (2rus)      r0, r5[0x1]
             0x0001451c: 14 48:       ldw (3r)        r1, r1[r0]
             0x0001451e: d4 00:       stw (2rus)      r1, r5[0x0]
             0x00014520: 13 4e:       ldw (3r)        r1, r8[r11]
             0x00014522: 54 f8 ec 07: stw (l3r)       r5, r1[r0]
.label847    0x00014526: 0b fb ec 1f: ldaw (l3r)      r0, r6[r7]
             0x0001452a: 81 02:       stw (2rus)      r4, r0[0x5]
             0x0001452c: cd 90:       add (2rus)      r0, r7, 0x1
             0x0001452e: 08 03:       stw (2rus)      r0, r6[0x4]
.label845    0x00014530: 81 5e:       ldw (ru6)       r10, sp[0x1]
             0x00014532: 42 5e:       ldw (ru6)       r9, sp[0x2]
             0x00014534: 03 5e:       ldw (ru6)       r8, sp[0x3]
             0x00014536: c8 90:       add (2rus)      r0, r6, 0x0
             0x00014538: c4 5d:       ldw (ru6)       r7, sp[0x4]
             0x0001453a: 85 5d:       ldw (ru6)       r6, sp[0x5]
             0x0001453c: 46 5d:       ldw (ru6)       r5, sp[0x6]
             0x0001453e: 07 5d:       ldw (ru6)       r4, sp[0x7]
             0x00014540: c8 77:       retsp (u6)      0x8
             0x00014542: 00 90:       add (2rus)      r0, r0, 0x0

<__pow5mult>:
             0x00014544: 45 77:       entsp (u6)      0x5
             0x00014546: 04 55:       stw (ru6)       r4, sp[0x4]
             0x00014548: 43 55:       stw (ru6)       r5, sp[0x3]
             0x0001454a: 58 90:       add (2rus)      r5, r2, 0x0
             0x0001454c: 82 55:       stw (ru6)       r6, sp[0x2]
             0x0001454e: c4 90:       add (2rus)      r0, r5, 0x0
             0x00014550: d2 46:       zext (rus)      r0, 0x2
             0x00014552: c1 55:       stw (ru6)       r7, sp[0x1]
             0x00014554: 44 90:       add (2rus)      r4, r1, 0x0
             0x00014556: 0a 78:       bf (ru6)        r0, 0xa <.label853>
             0x00014558: 02 f0 46 60: ldaw (lru6)     r1, dp[0x86]
             0x0001455c: c0 68:       ldc (ru6)       r3, 0x0
             0x0001455e: 04 f8 ec 1f: ldaw (l3r)      r0, r1[r0]
             0x00014562: d0 90:       add (2rus)      r1, r4, 0x0
             0x00014564: 40 9a:       sub (2rus)      r0, r0, 0x4
             0x00014566: 20 08:       ldw (2rus)      r2, r0[0x0]
             0x00014568: 85 d4:       bl (u10)        -0x85 <__multadd>
             0x0001456a: 40 90:       add (2rus)      r4, r0, 0x0
.label853    0x0001456c: 26 f9 ec 97: ashr (l2rus)    r6, r5, 0x2
             0x00014570: 01 f0 8f 79: bf (lru6)       r6, 0x4f <.label854>
             0x00014574: 03 f0 f3 61: ldaw (lru6)     r7, dp[0xf3]
             0x00014578: ee 17:       get (0r)        r11, id
             0x0001457a: 4f 4d:       ldw (3r)        r0, r7[r11]
             0x0001457c: 2d 70:       bt (ru6)        r0, 0x2d <.label855>
             0x0001457e: ee 17:       get (0r)        r11, id
             0x00014580: 03 f0 6b 61: ldaw (lru6)     r5, dp[0xeb]
             0x00014584: 57 4d:       ldw (3r)        r1, r5[r11]
             0x00014586: 4b 70:       bt (ru6)        r1, 0xb <.label856>
             0x00014588: 50 68:       ldc (ru6)       r1, 0x10
             0x0001458a: 04 68:       ldc (ru6)       r0, 0x4
             0x0001458c: 01 f0 70 d1: bl (lu10)       0x570 <calloc>
             0x00014590: ee 17:       get (0r)        r11, id
             0x00014592: 10 90:       add (2rus)      r1, r0, 0x0
             0x00014594: 57 fd ec 07: stw (l3r)       r1, r5[r11]
             0x00014598: 42 70:       bt (ru6)        r1, 0x2 <.label856>
             0x0001459a: 00 68:       ldc (ru6)       r0, 0x0
             0x0001459c: 13 73:       bu (u6)         0x13 <.label857>
.label856    0x0001459e: 05 08:       ldw (2rus)      r0, r1[0x1]
             0x000145a0: 03 78:       bf (ru6)        r0, 0x3 <.label858>
             0x000145a2: 20 08:       ldw (2rus)      r2, r0[0x0]
             0x000145a4: 25 00:       stw (2rus)      r2, r1[0x1]
             0x000145a6: 0b 73:       bu (u6)         0xb <.label859>
.label858    0x000145a8: 5c 68:       ldc (ru6)       r1, 0x1c
             0x000145aa: 15 a7:       mkmsk (rus)     r5, 0x1
             0x000145ac: c4 90:       add (2rus)      r0, r5, 0x0
             0x000145ae: 01 f0 5f d1: bl (lu10)       0x55f <calloc>
             0x000145b2: 02 70:       bt (ru6)        r0, 0x2 <.label860>
             0x000145b4: 00 68:       ldc (ru6)       r0, 0x0
             0x000145b6: 06 73:       bu (u6)         0x6 <.label857>
.label860    0x000145b8: 42 68:       ldc (ru6)       r1, 0x2
             0x000145ba: 51 00:       stw (2rus)      r5, r0[0x1]
             0x000145bc: 12 00:       stw (2rus)      r1, r0[0x2]
.label859    0x000145be: 40 68:       ldc (ru6)       r1, 0x0
             0x000145c0: 50 02:       stw (2rus)      r1, r0[0x4]
             0x000145c2: 13 00:       stw (2rus)      r1, r0[0x3]
.label857    0x000145c4: 09 f0 71 68: ldc (lru6)      r1, 0x271
             0x000145c8: ee 17:       get (0r)        r11, id
             0x000145ca: 51 02:       stw (2rus)      r1, r0[0x5]
             0x000145cc: d5 a6:       mkmsk (rus)     r1, 0x1
             0x000145ce: 50 02:       stw (2rus)      r1, r0[0x4]
             0x000145d0: 4f fd ec 07: stw (l3r)       r0, r7[r11]
.label863    0x000145d4: 40 68:       ldc (ru6)       r1, 0x0
             0x000145d6: 10 00:       stw (2rus)      r1, r0[0x0]
.label855    0x000145d8: 50 90:       add (2rus)      r5, r0, 0x0
             0x000145da: c8 90:       add (2rus)      r0, r6, 0x0
             0x000145dc: d1 46:       zext (rus)      r0, 0x1
             0x000145de: 0f 78:       bf (ru6)        r0, 0xf <.label861>
             0x000145e0: e4 90:       add (2rus)      r2, r5, 0x0
             0x000145e2: d0 90:       add (2rus)      r1, r4, 0x0
             0x000145e4: b5 d5:       bl (u10)        -0x1b5 <__multiply>
             0x000145e6: 0a 79:       bf (ru6)        r4, 0xa <.label862>
             0x000145e8: 03 f0 6b 60: ldaw (lru6)     r1, dp[0xeb]
             0x000145ec: ee 17:       get (0r)        r11, id
             0x000145ee: b7 4c:       ldw (3r)        r3, r1[r11]
             0x000145f0: e1 08:       ldw (2rus)      r2, r4[0x1]
             0x000145f2: 3e 48:       ldw (3r)        r3, r3[r2]
             0x000145f4: f0 00:       stw (2rus)      r3, r4[0x0]
             0x000145f6: 97 4c:       ldw (3r)        r1, r1[r11]
             0x000145f8: 46 f8 ec 07: stw (l3r)       r4, r1[r2]
.label862    0x000145fc: 40 90:       add (2rus)      r4, r0, 0x0
.label861    0x000145fe: 29 f9 ec 97: ashr (l2rus)    r6, r6, 0x1
             0x00014602: 87 79:       bf (ru6)        r6, 0x7 <.label854>
             0x00014604: c4 08:       ldw (2rus)      r0, r5[0x0]
             0x00014606: 18 74:       bt (ru6)        r0, -0x18 <.label855>
             0x00014608: e4 90:       add (2rus)      r2, r5, 0x0
             0x0001460a: d4 90:       add (2rus)      r1, r5, 0x0
             0x0001460c: c9 d5:       bl (u10)        -0x1c9 <__multiply>
             0x0001460e: c4 00:       stw (2rus)      r0, r5[0x0]
             0x00014610: 1f 77:       bu (u6)         -0x1f <.label863>
.label854    0x00014612: c1 5d:       ldw (ru6)       r7, sp[0x1]
             0x00014614: 82 5d:       ldw (ru6)       r6, sp[0x2]
             0x00014616: 43 5d:       ldw (ru6)       r5, sp[0x3]
             0x00014618: c0 90:       add (2rus)      r0, r4, 0x0
             0x0001461a: 04 5d:       ldw (ru6)       r4, sp[0x4]
             0x0001461c: c5 77:       retsp (u6)      0x5
             0x0001461e: 00 00:       stw (2rus)      r0, r0[0x0]

<__adddf3>:
             0x00014620: 56 77:       entsp (u6)      0x16
             0x00014622: 15 55:       stw (ru6)       r4, sp[0x15]
             0x00014624: 0f 65:       ldaw (ru6)      r4, sp[0xf]
             0x00014626: 54 55:       stw (ru6)       r5, sp[0x14]
             0x00014628: 44 54:       stw (ru6)       r1, sp[0x4]
             0x0001462a: d0 90:       add (2rus)      r1, r4, 0x0
             0x0001462c: 03 54:       stw (ru6)       r0, sp[0x3]
             0x0001462e: c2 54:       stw (ru6)       r3, sp[0x2]
             0x00014630: 03 64:       ldaw (ru6)      r0, sp[0x3]
             0x00014632: 81 54:       stw (ru6)       r2, sp[0x1]
             0x00014634: 00 f0 d2 d3: bl (lu10)       0x3d2 <__unpack_d>
             0x00014638: 01 64:       ldaw (ru6)      r0, sp[0x1]
             0x0001463a: 4a 65:       ldaw (ru6)      r5, sp[0xa]
             0x0001463c: d4 90:       add (2rus)      r1, r5, 0x0
             0x0001463e: 00 f0 cd d3: bl (lu10)       0x3cd <__unpack_d>
             0x00014642: 85 64:       ldaw (ru6)      r2, sp[0x5]
             0x00014644: c0 90:       add (2rus)      r0, r4, 0x0
             0x00014646: d4 90:       add (2rus)      r1, r5, 0x0
             0x00014648: 05 d0:       bl (u10)        0x5 <_fpadd_parts>
             0x0001464a: 01 f0 5f d0: bl (lu10)       0x45f <__pack_d>
             0x0001464e: 54 5d:       ldw (ru6)       r5, sp[0x14]
             0x00014650: 15 5d:       ldw (ru6)       r4, sp[0x15]
             0x00014652: d6 77:       retsp (u6)      0x16

<_fpadd_parts>:
             0x00014654: 4f 77:       entsp (u6)      0xf
             0x00014656: 0e 55:       stw (ru6)       r4, sp[0xe]
             0x00014658: 48 90:       add (2rus)      r4, r2, 0x0
             0x0001465a: 4d 55:       stw (ru6)       r5, sp[0xd]
             0x0001465c: 50 90:       add (2rus)      r5, r0, 0x0
             0x0001465e: 8c 55:       stw (ru6)       r6, sp[0xc]
             0x00014660: cb 55:       stw (ru6)       r7, sp[0xb]
             0x00014662: 0a 56:       stw (ru6)       r8, sp[0xa]
             0x00014664: 49 56:       stw (ru6)       r9, sp[0x9]
             0x00014666: 02 68:       ldc (ru6)       r0, 0x2
             0x00014668: 88 56:       stw (ru6)       r10, sp[0x8]
             0x0001466a: 74 09:       ldw (2rus)      r11, r5[0x0]
             0x0001466c: ac c9:       lsu (3r)        r2, r11, r0
             0x0001466e: 03 f0 b6 70: bt (lru6)       r2, 0xf6 <.label864>
             0x00014672: 24 08:       ldw (2rus)      r2, r1[0x0]
             0x00014674: 38 c8:       lsu (3r)        r3, r2, r0
             0x00014676: c3 78:       bf (ru6)        r3, 0x3 <.label865>
             0x00014678: 54 90:       add (2rus)      r5, r1, 0x0
             0x0001467a: 03 f0 30 73: bu (lu6)        0xf0 <.label864>
.label865    0x0001467e: fc b3:       eq (2rus)       r3, r11, 0x4
             0x00014680: cd 78:       bf (ru6)        r3, 0xd <.label866>
             0x00014682: 48 b2:       eq (2rus)       r0, r2, 0x4
             0x00014684: 03 f0 2b 78: bf (lru6)       r0, 0xeb <.label864>
             0x00014688: 05 08:       ldw (2rus)      r0, r1[0x1]
             0x0001468a: d5 08:       ldw (2rus)      r1, r5[0x1]
             0x0001468c: 04 30:       eq (3r)         r0, r1, r0
             0x0001468e: 03 f0 26 70: bt (lru6)       r0, 0xe6 <.label864>
             0x00014692: 01 f0 40 7f: ldaw (lu6)      r11, cp[0x40]
             0x00014696: dc 91:       add (2rus)      r5, r11, 0x0
             0x00014698: 03 f0 21 73: bu (lu6)        0xe1 <.label864>
.label866    0x0001469c: 78 b2:       eq (2rus)       r3, r2, 0x4
             0x0001469e: c3 78:       bf (ru6)        r3, 0x3 <.label867>
             0x000146a0: 54 90:       add (2rus)      r5, r1, 0x0
             0x000146a2: 03 f0 1c 73: bu (lu6)        0xdc <.label864>
.label867    0x000146a6: 2a b0:       eq (2rus)       r2, r2, 0x2
             0x000146a8: 92 78:       bf (ru6)        r2, 0x12 <.label868>
             0x000146aa: ae b1:       eq (2rus)       r2, r11, 0x2
             0x000146ac: 03 f0 97 78: bf (lru6)       r2, 0xd7 <.label864>
             0x000146b0: c0 00:       stw (2rus)      r0, r4[0x0]
             0x000146b2: c5 08:       ldw (2rus)      r0, r5[0x1]
             0x000146b4: c1 00:       stw (2rus)      r0, r4[0x1]
             0x000146b6: c6 08:       ldw (2rus)      r0, r5[0x2]
             0x000146b8: c2 00:       stw (2rus)      r0, r4[0x2]
             0x000146ba: c7 08:       ldw (2rus)      r0, r5[0x3]
             0x000146bc: 24 0b:       ldw (2rus)      r2, r5[0x4]
             0x000146be: 20 03:       stw (2rus)      r2, r4[0x4]
             0x000146c0: c3 00:       stw (2rus)      r0, r4[0x3]
             0x000146c2: c5 08:       ldw (2rus)      r0, r5[0x1]
             0x000146c4: 15 08:       ldw (2rus)      r1, r1[0x1]
             0x000146c6: 04 38:       and (3r)        r0, r1, r0
             0x000146c8: c1 00:       stw (2rus)      r0, r4[0x1]
             0x000146ca: 03 f0 07 73: bu (lu6)        0xc7 <.label869>
.label868    0x000146ce: 8e b1:       eq (2rus)       r0, r11, 0x2
             0x000146d0: 03 78:       bf (ru6)        r0, 0x3 <.label870>
             0x000146d2: 54 90:       add (2rus)      r5, r1, 0x0
             0x000146d4: 03 f0 03 73: bu (lu6)        0xc3 <.label864>
.label870    0x000146d8: b6 08:       ldw (2rus)      r11, r1[0x2]
             0x000146da: 44 54:       stw (ru6)       r1, sp[0x4]
             0x000146dc: 26 09:       ldw (2rus)      r6, r5[0x2]
             0x000146de: 6b 1d:       sub (3r)        r2, r6, r11
             0x000146e0: 08 f8 ec 97: ashr (l2rus)    r0, r2, 0x20
             0x000146e4: 38 10:       add (3r)        r3, r2, r0
             0x000146e6: b4 0a:       ldw (2rus)      r7, r1[0x4]
             0x000146e8: 8c f8 ec 0f: xor (l3r)       r8, r3, r0
             0x000146ec: 9e a7:       mkmsk (rus)     r3, 0x6
             0x000146ee: c6 55:       stw (ru6)       r7, sp[0x6]
             0x000146f0: bc c4:       lss (3r)        r3, r3, r8
             0x000146f2: 77 08:       ldw (2rus)      r7, r1[0x3]
             0x000146f4: 14 0b:       ldw (2rus)      r1, r5[0x4]
             0x000146f6: 45 54:       stw (ru6)       r1, sp[0x5]
             0x000146f8: d7 08:       ldw (2rus)      r1, r5[0x3]
             0x000146fa: 47 54:       stw (ru6)       r1, sp[0x7]
             0x000146fc: 01 f0 c7 70: bt (lru6)       r3, 0x47 <.label871>
             0x00014700: d5 a6:       mkmsk (rus)     r1, 0x1
             0x00014702: 19 c0:       lss (3r)        r1, r2, r1
             0x00014704: 5c 70:       bt (ru6)        r1, 0x1c <.label872>
             0x00014706: cc 90:       add (2rus)      r0, r7, 0x0
             0x00014708: 86 5e:       ldw (ru6)       r10, sp[0x6]
             0x0001470a: 98 91:       add (2rus)      r1, r10, 0x0
             0x0001470c: a0 91:       add (2rus)      r2, r8, 0x0
             0x0001470e: 00 f0 e9 d3: bl (lu10)       0x3e9 <__lshrdi3>
             0x00014712: 94 90:       add (2rus)      r9, r1, 0x0
             0x00014714: 03 54:       stw (ru6)       r0, sp[0x3]
             0x00014716: d1 a6:       mkmsk (rus)     r0, 0x1
             0x00014718: a0 91:       add (2rus)      r2, r8, 0x0
             0x0001471a: 40 68:       ldc (ru6)       r1, 0x0
             0x0001471c: 00 f0 ce d3: bl (lu10)       0x3ce <__ashldi3>
             0x00014720: d8 a6:       mkmsk (rus)     r2, 0x20
             0x00014722: c0 68:       ldc (ru6)       r3, 0x0
             0x00014724: 02 f8 df 06: ladd (l5r)      r3, r0, r0, r2, r3
             0x00014728: 16 f8 db 06: ladd (l5r)      r2, r1, r1, r2, r3
             0x0001472c: 96 3c:       and (3r)        r1, r1, r10
             0x0001472e: 43 3a:       and (3r)        r0, r0, r7
             0x00014730: 01 40:       or (3r)         r0, r0, r1
             0x00014732: 43 5c:       ldw (ru6)       r1, sp[0x3]
             0x00014734: 85 5e:       ldw (ru6)       r10, sp[0x5]
             0x00014736: 00 b0:       eq (2rus)       r0, r0, 0x0
             0x00014738: 00 b0:       eq (2rus)       r0, r0, 0x0
             0x0001473a: 01 40:       or (3r)         r0, r0, r1
             0x0001473c: 37 73:       bu (u6)         0x37 <.label873>
.label872    0x0001473e: 04 70:       bt (ru6)        r0, 0x4 <.label874>
             0x00014740: 46 5e:       ldw (ru6)       r9, sp[0x6]
             0x00014742: cc 90:       add (2rus)      r0, r7, 0x0
             0x00014744: 85 5e:       ldw (ru6)       r10, sp[0x5]
             0x00014746: 32 73:       bu (u6)         0x32 <.label873>
.label874    0x00014748: c3 55:       stw (ru6)       r7, sp[0x3]
             0x0001474a: a0 91:       add (2rus)      r2, r8, 0x0
             0x0001474c: c7 5d:       ldw (ru6)       r7, sp[0x7]
             0x0001474e: cc 90:       add (2rus)      r0, r7, 0x0
             0x00014750: 45 5e:       ldw (ru6)       r9, sp[0x5]
             0x00014752: 94 91:       add (2rus)      r1, r9, 0x0
             0x00014754: 00 f0 c6 d3: bl (lu10)       0x3c6 <__lshrdi3>
             0x00014758: 02 54:       stw (ru6)       r0, sp[0x2]
             0x0001475a: d1 a6:       mkmsk (rus)     r0, 0x1
             0x0001475c: 41 54:       stw (ru6)       r1, sp[0x1]
             0x0001475e: 80 68:       ldc (ru6)       r2, 0x0
             0x00014760: 18 90:       add (2rus)      r1, r2, 0x0
             0x00014762: a8 90:       add (2rus)      r10, r2, 0x0
             0x00014764: a0 91:       add (2rus)      r2, r8, 0x0
             0x00014766: 00 f0 a9 d3: bl (lu10)       0x3a9 <__ashldi3>
             0x0001476a: d8 a6:       mkmsk (rus)     r2, 0x20
             0x0001476c: 02 f8 3e 07: ladd (l5r)      r3, r0, r0, r2, r10
             0x00014770: 16 f8 db 06: ladd (l5r)      r2, r1, r1, r2, r3
             0x00014774: 95 3c:       and (3r)        r1, r1, r9
             0x00014776: 43 3a:       and (3r)        r0, r0, r7
             0x00014778: 01 40:       or (3r)         r0, r0, r1
             0x0001477a: 42 5c:       ldw (ru6)       r1, sp[0x2]
             0x0001477c: 00 b0:       eq (2rus)       r0, r0, 0x0
             0x0001477e: 00 b0:       eq (2rus)       r0, r0, 0x0
             0x00014780: 01 40:       or (3r)         r0, r0, r1
             0x00014782: 07 54:       stw (ru6)       r0, sp[0x7]
             0x00014784: 81 5e:       ldw (ru6)       r10, sp[0x1]
             0x00014786: 03 5c:       ldw (ru6)       r0, sp[0x3]
             0x00014788: 46 5e:       ldw (ru6)       r9, sp[0x6]
             0x0001478a: 22 14:       add (3r)        r6, r8, r6
             0x0001478c: 0f 73:       bu (u6)         0xf <.label873>
.label871    0x0001478e: c0 68:       ldc (ru6)       r3, 0x0
             0x00014790: 9c 90:       add (2rus)      r9, r3, 0x0
             0x00014792: ee c3:       lss (3r)        r2, r11, r6
             0x00014794: 81 70:       bt (ru6)        r2, 0x1 <.label875>
             0x00014796: 46 5e:       ldw (ru6)       r9, sp[0x6]
.label875    0x00014798: 85 5e:       ldw (ru6)       r10, sp[0x5]
             0x0001479a: 0c 90:       add (2rus)      r0, r3, 0x0
             0x0001479c: 81 70:       bt (ru6)        r2, 0x1 <.label876>
             0x0001479e: cc 90:       add (2rus)      r0, r7, 0x0
.label876    0x000147a0: 81 70:       bt (ru6)        r2, 0x1 <.label877>
             0x000147a2: ac 90:       add (2rus)      r10, r3, 0x0
.label877    0x000147a4: 81 70:       bt (ru6)        r2, 0x1 <.label878>
             0x000147a6: c7 54:       stw (ru6)       r3, sp[0x7]
.label878    0x000147a8: 81 70:       bt (ru6)        r2, 0x1 <.label873>
             0x000147aa: ec 91:       add (2rus)      r6, r11, 0x0
.label873    0x000147ac: 44 5c:       ldw (ru6)       r1, sp[0x4]
             0x000147ae: 15 08:       ldw (2rus)      r1, r1[0x1]
             0x000147b0: f5 08:       ldw (2rus)      r3, r5[0x1]
             0x000147b2: 1d 30:       eq (3r)         r1, r3, r1
             0x000147b4: 01 f0 5c 70: bt (lru6)       r1, 0x5c <.label879>
             0x000147b8: 87 5c:       ldw (ru6)       r2, sp[0x7]
             0x000147ba: 40 68:       ldc (ru6)       r1, 0x0
             0x000147bc: 58 f8 4d 0f: lsub (l5r)      r11, r5, r2, r0, r1
             0x000147c0: 22 f8 c1 0e: lsub (l5r)      r0, r2, r0, r2, r1
             0x000147c4: c1 70:       bt (ru6)        r3, 0x1 <.label880>
             0x000147c6: e4 90:       add (2rus)      r2, r5, 0x0
.label880    0x000147c8: b9 fe 67 0f: lsub (l5r)      r5, r11, r10, r9, r11
             0x000147cc: 06 fe 04 0f: lsub (l5r)      r5, r0, r9, r10, r0
             0x000147d0: c1 70:       bt (ru6)        r3, 0x1 <.label881>
             0x000147d2: 8c 91:       add (2rus)      r0, r11, 0x0
.label881    0x000147d4: 30 f8 ec 97: ashr (l2rus)    r3, r0, 0x20
             0x000147d8: c3 70:       bt (ru6)        r3, 0x3 <.label882>
             0x000147da: d1 00:       stw (2rus)      r1, r4[0x1]
             0x000147dc: 22 01:       stw (2rus)      r6, r4[0x2]
             0x000147de: 07 73:       bu (u6)         0x7 <.label883>
.label882    0x000147e0: dd a6:       mkmsk (rus)     r3, 0x1
             0x000147e2: f1 00:       stw (2rus)      r3, r4[0x1]
             0x000147e4: 26 f8 cd 0e: lsub (l5r)      r3, r2, r1, r2, r1
             0x000147e8: 04 f8 cf 0e: lsub (l5r)      r3, r0, r1, r0, r3
             0x000147ec: 22 01:       stw (2rus)      r6, r4[0x2]
.label883    0x000147ee: 00 03:       stw (2rus)      r0, r4[0x4]
             0x000147f0: 5c a7:       mkmsk (rus)     r11, 0x20
             0x000147f2: e3 00:       stw (2rus)      r2, r4[0x3]
             0x000147f4: bb fc 15 07: ladd (l5r)      r5, r3, r2, r11, r1
             0x000147f8: f3 fc d5 07: ladd (l5r)      r5, r7, r0, r11, r5
             0x000147fc: 01 f0 69 6d: ldw (lru6)      r5, cp[0x69]
             0x00014800: 8d 33:       eq (3r)         r8, r7, r5
             0x00014802: 02 7a:       bf (ru6)        r8, 0x2 <.label884>
             0x00014804: bf 34:       eq (3r)         r3, r3, r11
             0x00014806: 01 73:       bu (u6)         0x1 <.label885>
.label884    0x00014808: 37 cb:       lsu (3r)        r3, r5, r7
.label885    0x0001480a: c2 78:       bf (ru6)        r3, 0x2 <.label886>
             0x0001480c: 38 90:       add (2rus)      r3, r2, 0x0
             0x0001480e: 15 73:       bu (u6)         0x15 <.label887>
.label886    0x00014810: dd a7:       mkmsk (rus)     r7, 0x5
.label890    0x00014812: 39 a0:       shl (2rus)      r3, r2, 0x1
             0x00014814: 6b 2a:       shr (3r)        r2, r2, r7
             0x00014816: 01 a0:       shl (2rus)      r0, r0, 0x1
             0x00014818: 0f fd 55 07: ladd (l5r)      r9, r8, r3, r11, r1
             0x0001481c: 02 40:       or (3r)         r0, r0, r2
             0x0001481e: a3 fc b5 07: ladd (l5r)      r9, r2, r0, r11, r9
             0x00014822: d9 32:       eq (3r)         r9, r2, r5
             0x00014824: 43 7a:       bf (ru6)        r9, 0x3 <.label888>
             0x00014826: 23 36:       eq (3r)         r2, r8, r11
             0x00014828: 88 b0:       eq (2rus)       r8, r2, 0x0
             0x0001482a: 01 73:       bu (u6)         0x1 <.label889>
.label888    0x0001482c: c9 ca:       lsu (3r)        r8, r2, r5
.label889    0x0001482e: 29 99:       sub (2rus)      r6, r6, 0x1
             0x00014830: 2c 90:       add (2rus)      r2, r3, 0x0
             0x00014832: 11 76:       bt (ru6)        r8, -0x11 <.label890>
             0x00014834: 22 01:       stw (2rus)      r6, r4[0x2]
.label891    0x00014836: 00 03:       stw (2rus)      r0, r4[0x4]
             0x00014838: f3 00:       stw (2rus)      r3, r4[0x3]
.label887    0x0001483a: d6 a6:       mkmsk (rus)     r1, 0x2
             0x0001483c: d0 00:       stw (2rus)      r1, r4[0x0]
             0x0001483e: 01 f0 49 6c: ldw (lru6)      r1, cp[0x49]
             0x00014842: 11 c8:       lsu (3r)        r1, r0, r1
             0x00014844: 4b 70:       bt (ru6)        r1, 0xb <.label869>
             0x00014846: 11 a8:       shr (2rus)      r1, r0, 0x1
             0x00014848: 10 03:       stw (2rus)      r1, r4[0x4]
             0x0001484a: 95 a7:       mkmsk (rus)     r1, 0x5
             0x0001484c: 01 20:       shl (3r)        r0, r0, r1
             0x0001484e: 1d a8:       shr (2rus)      r1, r3, 0x1
             0x00014850: dd 46:       zext (rus)      r3, 0x1
             0x00014852: 04 40:       or (3r)         r0, r1, r0
             0x00014854: 03 40:       or (3r)         r0, r0, r3
             0x00014856: c3 00:       stw (2rus)      r0, r4[0x3]
             0x00014858: c9 90:       add (2rus)      r0, r6, 0x1
             0x0001485a: c2 00:       stw (2rus)      r0, r4[0x2]
.label869    0x0001485c: 10 91:       add (2rus)      r5, r4, 0x0
.label864    0x0001485e: 88 5e:       ldw (ru6)       r10, sp[0x8]
             0x00014860: 49 5e:       ldw (ru6)       r9, sp[0x9]
             0x00014862: 0a 5e:       ldw (ru6)       r8, sp[0xa]
             0x00014864: cb 5d:       ldw (ru6)       r7, sp[0xb]
             0x00014866: 8c 5d:       ldw (ru6)       r6, sp[0xc]
             0x00014868: c4 90:       add (2rus)      r0, r5, 0x0
             0x0001486a: 4d 5d:       ldw (ru6)       r5, sp[0xd]
             0x0001486c: 0e 5d:       ldw (ru6)       r4, sp[0xe]
             0x0001486e: cf 77:       retsp (u6)      0xf
.label879    0x00014870: 40 68:       ldc (ru6)       r1, 0x0
             0x00014872: f1 00:       stw (2rus)      r3, r4[0x1]
             0x00014874: 22 01:       stw (2rus)      r6, r4[0x2]
             0x00014876: 87 5c:       ldw (ru6)       r2, sp[0x7]
             0x00014878: 32 f8 d1 06: ladd (l5r)      r0, r3, r0, r2, r1
             0x0001487c: 06 fe d4 06: ladd (l5r)      r1, r0, r9, r10, r0
             0x00014880: 26 77:       bu (u6)         -0x26 <.label891>
             0x00014882: 00 90:       add (2rus)      r0, r0, 0x0

<__subdf3>:
             0x00014884: 56 77:       entsp (u6)      0x16
             0x00014886: 15 55:       stw (ru6)       r4, sp[0x15]
             0x00014888: 54 55:       stw (ru6)       r5, sp[0x14]
             0x0001488a: 0f 65:       ldaw (ru6)      r4, sp[0xf]
             0x0001488c: 44 54:       stw (ru6)       r1, sp[0x4]
             0x0001488e: d0 90:       add (2rus)      r1, r4, 0x0
             0x00014890: 03 54:       stw (ru6)       r0, sp[0x3]
             0x00014892: c2 54:       stw (ru6)       r3, sp[0x2]
             0x00014894: 03 64:       ldaw (ru6)      r0, sp[0x3]
             0x00014896: 81 54:       stw (ru6)       r2, sp[0x1]
             0x00014898: 00 f0 a0 d2: bl (lu10)       0x2a0 <__unpack_d>
             0x0001489c: 01 64:       ldaw (ru6)      r0, sp[0x1]
             0x0001489e: 4a 65:       ldaw (ru6)      r5, sp[0xa]
             0x000148a0: d4 90:       add (2rus)      r1, r5, 0x0
             0x000148a2: 00 f0 9b d2: bl (lu10)       0x29b <__unpack_d>
             0x000148a6: d1 a6:       mkmsk (rus)     r0, 0x1
             0x000148a8: 4b 5c:       ldw (ru6)       r1, sp[0xb]
             0x000148aa: 85 64:       ldaw (ru6)      r2, sp[0x5]
             0x000148ac: 04 f8 ec 0f: xor (l3r)       r0, r1, r0
             0x000148b0: d4 90:       add (2rus)      r1, r5, 0x0
             0x000148b2: 0b 54:       stw (ru6)       r0, sp[0xb]
             0x000148b4: c0 90:       add (2rus)      r0, r4, 0x0
             0x000148b6: 32 d5:       bl (u10)        -0x132 <_fpadd_parts>
             0x000148b8: 00 f0 28 d3: bl (lu10)       0x328 <__pack_d>
             0x000148bc: 54 5d:       ldw (ru6)       r5, sp[0x14]
             0x000148be: 15 5d:       ldw (ru6)       r4, sp[0x15]
             0x000148c0: d6 77:       retsp (u6)      0x16
             0x000148c2: 00 00:       stw (2rus)      r0, r0[0x0]

<__divdf3>:
             0x000148c4: 54 77:       entsp (u6)      0x14
             0x000148c6: 13 55:       stw (ru6)       r4, sp[0x13]
             0x000148c8: 52 55:       stw (ru6)       r5, sp[0x12]
             0x000148ca: 91 55:       stw (ru6)       r6, sp[0x11]
             0x000148cc: d0 55:       stw (ru6)       r7, sp[0x10]
             0x000148ce: 0a 65:       ldaw (ru6)      r4, sp[0xa]
             0x000148d0: 0f 56:       stw (ru6)       r8, sp[0xf]
             0x000148d2: 44 54:       stw (ru6)       r1, sp[0x4]
             0x000148d4: 03 54:       stw (ru6)       r0, sp[0x3]
             0x000148d6: 03 64:       ldaw (ru6)      r0, sp[0x3]
             0x000148d8: d0 90:       add (2rus)      r1, r4, 0x0
             0x000148da: c2 54:       stw (ru6)       r3, sp[0x2]
             0x000148dc: 81 54:       stw (ru6)       r2, sp[0x1]
             0x000148de: 00 f0 7d d2: bl (lu10)       0x27d <__unpack_d>
             0x000148e2: 45 65:       ldaw (ru6)      r5, sp[0x5]
             0x000148e4: 01 64:       ldaw (ru6)      r0, sp[0x1]
             0x000148e6: d4 90:       add (2rus)      r1, r5, 0x0
             0x000148e8: 00 f0 78 d2: bl (lu10)       0x278 <__unpack_d>
             0x000148ec: 0a 5c:       ldw (ru6)       r0, sp[0xa]
             0x000148ee: 82 68:       ldc (ru6)       r2, 0x2
             0x000148f0: 12 c8:       lsu (3r)        r1, r0, r2
             0x000148f2: 01 f0 6f 70: bt (lru6)       r1, 0x6f <.label892>
             0x000148f6: 04 91:       add (2rus)      r4, r5, 0x0
             0x000148f8: 45 5c:       ldw (ru6)       r1, sp[0x5]
             0x000148fa: 26 c8:       lsu (3r)        r2, r1, r2
             0x000148fc: 01 f0 aa 70: bt (lru6)       r2, 0x6a <.label892>
             0x00014900: 8b 5c:       ldw (ru6)       r2, sp[0xb]
             0x00014902: c6 5c:       ldw (ru6)       r3, sp[0x6]
             0x00014904: 2e f8 ec 0f: xor (l3r)       r2, r3, r2
             0x00014908: 8b 54:       stw (ru6)       r2, sp[0xb]
             0x0001490a: 22 b0:       eq (2rus)       r2, r0, 0x2
             0x0001490c: 82 70:       bt (ru6)        r2, 0x2 <.label893>
             0x0001490e: 60 b2:       eq (2rus)       r2, r0, 0x4
             0x00014910: 88 78:       bf (ru6)        r2, 0x8 <.label894>
.label893    0x00014912: 01 30:       eq (3r)         r0, r0, r1
             0x00014914: 01 f0 1d 78: bf (lru6)       r0, 0x5d <.label895>
             0x00014918: 01 f0 40 7f: ldaw (lu6)      r11, cp[0x40]
             0x0001491c: cc 91:       add (2rus)      r4, r11, 0x0
             0x0001491e: 01 f0 19 73: bu (lu6)        0x59 <.label892>
.label894    0x00014922: 06 b0:       eq (2rus)       r0, r1, 0x2
             0x00014924: 08 70:       bt (ru6)        r0, 0x8 <.label896>
             0x00014926: 44 b2:       eq (2rus)       r0, r1, 0x4
             0x00014928: 0a 78:       bf (ru6)        r0, 0xa <.label897>
             0x0001492a: 00 68:       ldc (ru6)       r0, 0x0
             0x0001492c: 0e 54:       stw (ru6)       r0, sp[0xe]
             0x0001492e: 0d 54:       stw (ru6)       r0, sp[0xd]
             0x00014930: 0c 54:       stw (ru6)       r0, sp[0xc]
             0x00014932: 01 f0 0e 73: bu (lu6)        0x4e <.label895>
.label896    0x00014936: 04 68:       ldc (ru6)       r0, 0x4
             0x00014938: 0a 54:       stw (ru6)       r0, sp[0xa]
             0x0001493a: 01 f0 0a 73: bu (lu6)        0x4a <.label895>
.label897    0x0001493e: 07 5c:       ldw (ru6)       r0, sp[0x7]
             0x00014940: 4c 5c:       ldw (ru6)       r1, sp[0xc]
             0x00014942: 34 18:       sub (3r)        r3, r1, r0
             0x00014944: cc 54:       stw (ru6)       r3, sp[0xc]
             0x00014946: 89 5c:       ldw (ru6)       r2, sp[0x9]
             0x00014948: 0e 5c:       ldw (ru6)       r0, sp[0xe]
             0x0001494a: c8 5e:       ldw (ru6)       r11, sp[0x8]
             0x0001494c: 4d 5c:       ldw (ru6)       r1, sp[0xd]
             0x0001494e: 42 30:       eq (3r)         r4, r0, r2
             0x00014950: 02 79:       bf (ru6)        r4, 0x2 <.label898>
             0x00014952: c7 cc:       lsu (3r)        r4, r1, r11
             0x00014954: 01 73:       bu (u6)         0x1 <.label899>
.label898    0x00014956: 42 c8:       lsu (3r)        r4, r0, r2
.label899    0x00014958: 00 b1:       eq (2rus)       r4, r4, 0x0
             0x0001495a: 04 79:       bf (ru6)        r4, 0x4 <.label900>
             0x0001495c: c0 68:       ldc (ru6)       r3, 0x0
             0x0001495e: 01 f0 70 6d: ldw (lru6)      r5, cp[0x70]
             0x00014962: 0a 73:       bu (u6)         0xa <.label901>
.label900    0x00014964: 3d 98:       sub (2rus)      r3, r3, 0x1
             0x00014966: cc 54:       stw (ru6)       r3, sp[0xc]
             0x00014968: 9d a7:       mkmsk (rus)     r3, 0x5
             0x0001496a: 37 28:       shr (3r)        r3, r1, r3
             0x0001496c: 15 a0:       shl (2rus)      r1, r1, 0x1
             0x0001496e: 01 a0:       shl (2rus)      r0, r0, 0x1
             0x00014970: 03 40:       or (3r)         r0, r0, r3
             0x00014972: 01 f0 70 6d: ldw (lru6)      r5, cp[0x70]
             0x00014976: c0 68:       ldc (ru6)       r3, 0x0
.label901    0x00014978: 6c 90:       add (2rus)      r6, r3, 0x0
             0x0001497a: 4c 90:       add (2rus)      r4, r3, 0x0
.label905    0x0001497c: 72 30:       eq (3r)         r7, r0, r2
             0x0001497e: c2 79:       bf (ru6)        r7, 0x2 <.label902>
             0x00014980: f7 cc:       lsu (3r)        r7, r1, r11
             0x00014982: 01 73:       bu (u6)         0x1 <.label903>
.label902    0x00014984: 72 c8:       lsu (3r)        r7, r0, r2
.label903    0x00014986: c7 71:       bt (ru6)        r7, 0x7 <.label904>
             0x00014988: c0 69:       ldc (ru6)       r7, 0x0
             0x0001498a: 97 fc cf 0f: lsub (l5r)      r7, r1, r1, r11, r7
             0x0001498e: fb 40:       or (3r)         r3, r6, r3
             0x00014990: 02 f8 cf 0f: lsub (l5r)      r7, r0, r0, r2, r7
             0x00014994: 44 43:       or (3r)         r4, r5, r4
.label904    0x00014996: dd a7:       mkmsk (rus)     r7, 0x5
             0x00014998: c7 2a:       shr (3r)        r8, r1, r7
             0x0001499a: 01 a0:       shl (2rus)      r0, r0, 0x1
             0x0001499c: 80 44:       or (3r)         r0, r0, r8
             0x0001499e: 77 23:       shl (3r)        r7, r5, r7
             0x000149a0: 29 a9:       shr (2rus)      r6, r6, 0x1
             0x000149a2: 6b 43:       or (3r)         r6, r6, r7
             0x000149a4: 15 a9:       shr (2rus)      r5, r5, 0x1
             0x000149a6: 79 43:       or (3r)         r7, r6, r5
             0x000149a8: 15 a0:       shl (2rus)      r1, r1, 0x1
             0x000149aa: d8 75:       bt (ru6)        r7, -0x18 <.label905>
             0x000149ac: 07 f0 bf 68: ldc (lru6)      r2, 0x1ff
             0x000149b0: be 38:       and (3r)        r11, r3, r2
             0x000149b2: 02 f0 80 68: ldc (lru6)      r2, 0x80
             0x000149b6: 3e fa ec 0f: xor (l3r)       r11, r11, r2
             0x000149ba: c9 72:       bt (ru6)        r11, 0x9 <.label906>
             0x000149bc: 04 40:       or (3r)         r0, r1, r0
             0x000149be: 07 78:       bf (ru6)        r0, 0x7 <.label906>
             0x000149c0: 00 68:       ldc (ru6)       r0, 0x0
             0x000149c2: 0e f8 d4 06: ladd (l5r)      r1, r0, r3, r2, r0
             0x000149c6: 01 11:       add (3r)        r4, r4, r1
             0x000149c8: 01 f0 71 6c: ldw (lru6)      r1, cp[0x71]
             0x000149cc: 31 38:       and (3r)        r3, r0, r1
.label906    0x000149ce: cd 54:       stw (ru6)       r3, sp[0xd]
             0x000149d0: 0e 55:       stw (ru6)       r4, sp[0xe]
.label895    0x000149d2: 0a 65:       ldaw (ru6)      r4, sp[0xa]
.label892    0x000149d4: c0 90:       add (2rus)      r0, r4, 0x0
             0x000149d6: 00 f0 99 d2: bl (lu10)       0x299 <__pack_d>
             0x000149da: 0f 5e:       ldw (ru6)       r8, sp[0xf]
             0x000149dc: d0 5d:       ldw (ru6)       r7, sp[0x10]
             0x000149de: 91 5d:       ldw (ru6)       r6, sp[0x11]
             0x000149e0: 52 5d:       ldw (ru6)       r5, sp[0x12]
             0x000149e2: 13 5d:       ldw (ru6)       r4, sp[0x13]
             0x000149e4: d4 77:       retsp (u6)      0x14
             0x000149e6: 00 00:       stw (2rus)      r0, r0[0x0]

<__fixdfsi>:
             0x000149e8: 48 77:       entsp (u6)      0x8
             0x000149ea: 42 54:       stw (ru6)       r1, sp[0x2]
             0x000149ec: 43 64:       ldaw (ru6)      r1, sp[0x3]
             0x000149ee: 01 54:       stw (ru6)       r0, sp[0x1]
             0x000149f0: 01 64:       ldaw (ru6)      r0, sp[0x1]
             0x000149f2: 00 f0 f3 d1: bl (lu10)       0x1f3 <__unpack_d>
             0x000149f6: d6 a6:       mkmsk (rus)     r1, 0x2
             0x000149f8: 03 5c:       ldw (ru6)       r0, sp[0x3]
             0x000149fa: 11 c8:       lsu (3r)        r1, r0, r1
             0x000149fc: 42 78:       bf (ru6)        r1, 0x2 <.label907>
             0x000149fe: 00 68:       ldc (ru6)       r0, 0x0
             0x00014a00: c8 77:       retsp (u6)      0x8
.label907    0x00014a02: 40 b2:       eq (2rus)       r0, r0, 0x4
             0x00014a04: 08 78:       bf (ru6)        r0, 0x8 <.label908>
             0x00014a06: 04 5c:       ldw (ru6)       r0, sp[0x4]
             0x00014a08: 03 78:       bf (ru6)        r0, 0x3 <.label909>
             0x00014a0a: 01 f0 06 6c: ldw (lru6)      r0, cp[0x46]
             0x00014a0e: c8 77:       retsp (u6)      0x8
.label909    0x00014a10: 01 f0 08 6c: ldw (lru6)      r0, cp[0x48]
             0x00014a14: c8 77:       retsp (u6)      0x8
.label908    0x00014a16: 05 5c:       ldw (ru6)       r0, sp[0x5]
             0x00014a18: 10 f8 ec 97: ashr (l2rus)    r1, r0, 0x20
             0x00014a1c: 42 78:       bf (ru6)        r1, 0x2 <.label910>
             0x00014a1e: 00 68:       ldc (ru6)       r0, 0x0
             0x00014a20: c8 77:       retsp (u6)      0x8
.label910    0x00014a22: 95 a7:       mkmsk (rus)     r1, 0x5
             0x00014a24: 11 c0:       lss (3r)        r1, r0, r1
             0x00014a26: 48 70:       bt (ru6)        r1, 0x8 <.label911>
             0x00014a28: 04 5c:       ldw (ru6)       r0, sp[0x4]
             0x00014a2a: 03 78:       bf (ru6)        r0, 0x3 <.label912>
             0x00014a2c: 01 f0 06 6c: ldw (lru6)      r0, cp[0x46]
             0x00014a30: c8 77:       retsp (u6)      0x8
.label912    0x00014a32: 01 f0 08 6c: ldw (lru6)      r0, cp[0x48]
             0x00014a36: c8 77:       retsp (u6)      0x8
.label911    0x00014a38: 7c 68:       ldc (ru6)       r1, 0x3c
             0x00014a3a: 24 18:       sub (3r)        r2, r1, r0
             0x00014a3c: 06 5c:       ldw (ru6)       r0, sp[0x6]
             0x00014a3e: 47 5c:       ldw (ru6)       r1, sp[0x7]
             0x00014a40: 00 f0 50 d2: bl (lu10)       0x250 <__lshrdi3>
             0x00014a44: 44 5c:       ldw (ru6)       r1, sp[0x4]
             0x00014a46: 41 78:       bf (ru6)        r1, 0x1 <.label913>
             0x00014a48: c0 96:       neg (2r)        r0, r0
.label913    0x00014a4a: c8 77:       retsp (u6)      0x8

<__floatsidf>:
             0x00014a4c: 48 77:       entsp (u6)      0x8
             0x00014a4e: 07 55:       stw (ru6)       r4, sp[0x7]
             0x00014a50: d6 a6:       mkmsk (rus)     r1, 0x2
             0x00014a52: 46 55:       stw (ru6)       r5, sp[0x6]
             0x00014a54: 41 54:       stw (ru6)       r1, sp[0x1]
             0x00014a56: d1 a7:       mkmsk (rus)     r4, 0x5
             0x00014a58: 50 2a:       shr (3r)        r1, r0, r4
             0x00014a5a: 42 54:       stw (ru6)       r1, sp[0x2]
             0x00014a5c: 03 70:       bt (ru6)        r0, 0x3 <.label914>
             0x00014a5e: 02 68:       ldc (ru6)       r0, 0x2
             0x00014a60: 01 54:       stw (ru6)       r0, sp[0x1]
             0x00014a62: 17 73:       bu (u6)         0x17 <.label915>
.label914    0x00014a64: bc 68:       ldc (ru6)       r2, 0x3c
             0x00014a66: 83 54:       stw (ru6)       r2, sp[0x3]
             0x00014a68: 49 78:       bf (ru6)        r1, 0x9 <.label916>
             0x00014a6a: 01 f0 46 6c: ldw (lru6)      r1, cp[0x46]
             0x00014a6e: 11 30:       eq (3r)         r1, r0, r1
             0x00014a70: 44 78:       bf (ru6)        r1, 0x4 <.label917>
             0x00014a72: 01 f0 72 6c: ldw (lru6)      r1, cp[0x72]
             0x00014a76: 00 68:       ldc (ru6)       r0, 0x0
             0x00014a78: 0f 73:       bu (u6)         0xf <.label918>
.label917    0x00014a7a: c0 96:       neg (2r)        r0, r0
.label916    0x00014a7c: 5d 68:       ldc (ru6)       r1, 0x1d
             0x00014a7e: 04 ff ec 0f: clz (l2r)       r5, r0
             0x00014a82: e5 10:       add (3r)        r2, r5, r1
             0x00014a84: 40 68:       ldc (ru6)       r1, 0x0
             0x00014a86: 00 f0 19 d2: bl (lu10)       0x219 <__ashldi3>
             0x00014a8a: 45 54:       stw (ru6)       r1, sp[0x5]
             0x00014a8c: 04 54:       stw (ru6)       r0, sp[0x4]
             0x00014a8e: 01 1b:       sub (3r)        r0, r4, r5
             0x00014a90: 03 54:       stw (ru6)       r0, sp[0x3]
.label915    0x00014a92: 01 64:       ldaw (ru6)      r0, sp[0x1]
             0x00014a94: 00 f0 3a d2: bl (lu10)       0x23a <__pack_d>
.label918    0x00014a98: 46 5d:       ldw (ru6)       r5, sp[0x6]
             0x00014a9a: 07 5d:       ldw (ru6)       r4, sp[0x7]
             0x00014a9c: c8 77:       retsp (u6)      0x8
             0x00014a9e: 00 00:       stw (2rus)      r0, r0[0x0]

<__floatunsidf>:
             0x00014aa0: 40 68:       ldc (ru6)       r1, 0x0
             0x00014aa2: 47 77:       entsp (u6)      0x7
             0x00014aa4: 06 55:       stw (ru6)       r4, sp[0x6]
             0x00014aa6: 42 54:       stw (ru6)       r1, sp[0x2]
             0x00014aa8: 03 70:       bt (ru6)        r0, 0x3 <.label919>
             0x00014aaa: 02 68:       ldc (ru6)       r0, 0x2
             0x00014aac: 01 54:       stw (ru6)       r0, sp[0x1]
             0x00014aae: 0e 73:       bu (u6)         0xe <.label920>
.label919    0x00014ab0: 00 ff ec 0f: clz (l2r)       r4, r0
             0x00014ab4: d6 a6:       mkmsk (rus)     r1, 0x2
             0x00014ab6: 41 54:       stw (ru6)       r1, sp[0x1]
             0x00014ab8: 5d 68:       ldc (ru6)       r1, 0x1d
             0x00014aba: e1 10:       add (3r)        r2, r4, r1
             0x00014abc: 40 68:       ldc (ru6)       r1, 0x0
             0x00014abe: 00 f0 fd d1: bl (lu10)       0x1fd <__ashldi3>
             0x00014ac2: 45 54:       stw (ru6)       r1, sp[0x5]
             0x00014ac4: 04 54:       stw (ru6)       r0, sp[0x4]
             0x00014ac6: 91 a7:       mkmsk (rus)     r0, 0x5
             0x00014ac8: 40 1a:       sub (3r)        r0, r0, r4
             0x00014aca: 03 54:       stw (ru6)       r0, sp[0x3]
.label920    0x00014acc: 01 64:       ldaw (ru6)      r0, sp[0x1]
             0x00014ace: 00 f0 1d d2: bl (lu10)       0x21d <__pack_d>
             0x00014ad2: 06 5d:       ldw (ru6)       r4, sp[0x6]
             0x00014ad4: c7 77:       retsp (u6)      0x7
             0x00014ad6: 00 00:       stw (2rus)      r0, r0[0x0]

<__fpcmp_parts_d>:
             0x00014ad8: c2 6a:       ldc (ru6)       r11, 0x2
             0x00014ada: 42 77:       entsp (u6)      0x2
             0x00014adc: 01 55:       stw (ru6)       r4, sp[0x1]
             0x00014ade: 40 55:       stw (ru6)       r5, sp[0x0]
             0x00014ae0: 20 08:       ldw (2rus)      r2, r0[0x0]
             0x00014ae2: bb cc:       lsu (3r)        r3, r2, r11
             0x00014ae4: c3 78:       bf (ru6)        r3, 0x3 <.label921>
             0x00014ae6: d1 a6:       mkmsk (rus)     r0, 0x1
             0x00014ae8: 01 f0 19 73: bu (lu6)        0x59 <.label922>
.label921    0x00014aec: 34 08:       ldw (2rus)      r3, r1[0x0]
             0x00014aee: 3f cd:       lsu (3r)        r11, r3, r11
             0x00014af0: c3 7a:       bf (ru6)        r11, 0x3 <.label923>
             0x00014af2: d1 a6:       mkmsk (rus)     r0, 0x1
             0x00014af4: 01 f0 13 73: bu (lu6)        0x53 <.label922>
.label923    0x00014af8: f8 b2:       eq (2rus)       r11, r2, 0x4
             0x00014afa: c7 7a:       bf (ru6)        r11, 0x7 <.label924>
             0x00014afc: 8c b2:       eq (2rus)       r4, r3, 0x4
             0x00014afe: 05 79:       bf (ru6)        r4, 0x5 <.label924>
             0x00014b00: 01 08:       ldw (2rus)      r0, r0[0x1]
             0x00014b02: 15 08:       ldw (2rus)      r1, r1[0x1]
             0x00014b04: 04 18:       sub (3r)        r0, r1, r0
             0x00014b06: 01 f0 0a 73: bu (lu6)        0x4a <.label922>
.label924    0x00014b0a: c6 7a:       bf (ru6)        r11, 0x6 <.label925>
             0x00014b0c: 01 08:       ldw (2rus)      r0, r0[0x1]
             0x00014b0e: 01 f0 05 70: bt (lru6)       r0, 0x45 <.label926>
             0x00014b12: d1 a6:       mkmsk (rus)     r0, 0x1
             0x00014b14: 01 f0 03 73: bu (lu6)        0x43 <.label922>
.label925    0x00014b18: fc b2:       eq (2rus)       r11, r3, 0x4
             0x00014b1a: c4 7a:       bf (ru6)        r11, 0x4 <.label927>
             0x00014b1c: 05 08:       ldw (2rus)      r0, r1[0x1]
             0x00014b1e: 3e 78:       bf (ru6)        r0, 0x3e <.label926>
             0x00014b20: d1 a6:       mkmsk (rus)     r0, 0x1
             0x00014b22: 3d 73:       bu (u6)         0x3d <.label922>
.label927    0x00014b24: 2a b0:       eq (2rus)       r2, r2, 0x2
             0x00014b26: 84 78:       bf (ru6)        r2, 0x4 <.label928>
             0x00014b28: be b0:       eq (2rus)       r11, r3, 0x2
             0x00014b2a: c2 7a:       bf (ru6)        r11, 0x2 <.label928>
             0x00014b2c: 00 68:       ldc (ru6)       r0, 0x0
             0x00014b2e: 37 73:       bu (u6)         0x37 <.label922>
.label928    0x00014b30: 84 78:       bf (ru6)        r2, 0x4 <.label929>
             0x00014b32: 05 08:       ldw (2rus)      r0, r1[0x1]
             0x00014b34: 33 78:       bf (ru6)        r0, 0x33 <.label926>
             0x00014b36: d1 a6:       mkmsk (rus)     r0, 0x1
             0x00014b38: 32 73:       bu (u6)         0x32 <.label922>
.label929    0x00014b3a: 3e b0:       eq (2rus)       r3, r3, 0x2
             0x00014b3c: 21 08:       ldw (2rus)      r2, r0[0x1]
             0x00014b3e: c3 78:       bf (ru6)        r3, 0x3 <.label930>
             0x00014b40: ad 70:       bt (ru6)        r2, 0x2d <.label926>
             0x00014b42: d1 a6:       mkmsk (rus)     r0, 0x1
             0x00014b44: 2c 73:       bu (u6)         0x2c <.label922>
.label930    0x00014b46: 35 08:       ldw (2rus)      r3, r1[0x1]
             0x00014b48: 3b 30:       eq (3r)         r3, r2, r3
             0x00014b4a: c3 70:       bt (ru6)        r3, 0x3 <.label931>
             0x00014b4c: a7 70:       bt (ru6)        r2, 0x27 <.label926>
             0x00014b4e: d1 a6:       mkmsk (rus)     r0, 0x1
             0x00014b50: 26 73:       bu (u6)         0x26 <.label922>
.label931    0x00014b52: 32 08:       ldw (2rus)      r3, r0[0x2]
             0x00014b54: b6 08:       ldw (2rus)      r11, r1[0x2]
             0x00014b56: cf c1:       lss (3r)        r4, r11, r3
             0x00014b58: 03 79:       bf (ru6)        r4, 0x3 <.label932>
             0x00014b5a: a0 70:       bt (ru6)        r2, 0x20 <.label926>
             0x00014b5c: d1 a6:       mkmsk (rus)     r0, 0x1
             0x00014b5e: 1f 73:       bu (u6)         0x1f <.label922>
.label932    0x00014b60: bf c4:       lss (3r)        r3, r3, r11
             0x00014b62: c3 78:       bf (ru6)        r3, 0x3 <.label933>
             0x00014b64: 9b 78:       bf (ru6)        r2, 0x1b <.label926>
             0x00014b66: d1 a6:       mkmsk (rus)     r0, 0x1
             0x00014b68: 1a 73:       bu (u6)         0x1a <.label922>
.label933    0x00014b6a: 74 0a:       ldw (2rus)      r3, r1[0x4]
             0x00014b6c: f0 0a:       ldw (2rus)      r11, r0[0x4]
             0x00014b6e: 03 08:       ldw (2rus)      r0, r0[0x3]
             0x00014b70: 17 08:       ldw (2rus)      r1, r1[0x3]
             0x00014b72: cf 31:       eq (3r)         r4, r11, r3
             0x00014b74: 02 79:       bf (ru6)        r4, 0x2 <.label934>
             0x00014b76: 54 c8:       lsu (3r)        r5, r1, r0
             0x00014b78: 01 73:       bu (u6)         0x1 <.label935>
.label934    0x00014b7a: df cc:       lsu (3r)        r5, r3, r11
.label935    0x00014b7c: 14 b1:       eq (2rus)       r5, r5, 0x0
             0x00014b7e: 43 71:       bt (ru6)        r5, 0x3 <.label936>
             0x00014b80: 8d 70:       bt (ru6)        r2, 0xd <.label926>
             0x00014b82: d1 a6:       mkmsk (rus)     r0, 0x1
             0x00014b84: 0c 73:       bu (u6)         0xc <.label922>
.label936    0x00014b86: 02 79:       bf (ru6)        r4, 0x2 <.label937>
             0x00014b88: 01 c8:       lsu (3r)        r0, r0, r1
             0x00014b8a: 01 73:       bu (u6)         0x1 <.label938>
.label937    0x00014b8c: 8f c9:       lsu (3r)        r0, r11, r3
.label938    0x00014b8e: 00 b0:       eq (2rus)       r0, r0, 0x0
             0x00014b90: 02 78:       bf (ru6)        r0, 0x2 <.label939>
             0x00014b92: 00 68:       ldc (ru6)       r0, 0x0
             0x00014b94: 04 73:       bu (u6)         0x4 <.label922>
.label939    0x00014b96: 82 78:       bf (ru6)        r2, 0x2 <.label926>
             0x00014b98: d1 a6:       mkmsk (rus)     r0, 0x1
             0x00014b9a: 01 73:       bu (u6)         0x1 <.label922>
.label926    0x00014b9c: d0 a6:       mkmsk (rus)     r0, 0x20
.label922    0x00014b9e: 40 5d:       ldw (ru6)       r5, sp[0x0]
             0x00014ba0: 01 5d:       ldw (ru6)       r4, sp[0x1]
             0x00014ba2: c2 77:       retsp (u6)      0x2

<__gtdf2>:
             0x00014ba4: 4f 77:       entsp (u6)      0xf
             0x00014ba6: 44 54:       stw (ru6)       r1, sp[0x4]
             0x00014ba8: 03 54:       stw (ru6)       r0, sp[0x3]
             0x00014baa: c2 54:       stw (ru6)       r3, sp[0x2]
             0x00014bac: 03 64:       ldaw (ru6)      r0, sp[0x3]
             0x00014bae: 81 54:       stw (ru6)       r2, sp[0x1]
             0x00014bb0: 4a 64:       ldaw (ru6)      r1, sp[0xa]
             0x00014bb2: 00 f0 13 d1: bl (lu10)       0x113 <__unpack_d>
             0x00014bb6: 01 64:       ldaw (ru6)      r0, sp[0x1]
             0x00014bb8: 45 64:       ldaw (ru6)      r1, sp[0x5]
             0x00014bba: 00 f0 0f d1: bl (lu10)       0x10f <__unpack_d>
             0x00014bbe: 02 68:       ldc (ru6)       r0, 0x2
             0x00014bc0: 4a 5c:       ldw (ru6)       r1, sp[0xa]
             0x00014bc2: 14 c8:       lsu (3r)        r1, r1, r0
             0x00014bc4: 42 78:       bf (ru6)        r1, 0x2 <.label940>
             0x00014bc6: d0 a6:       mkmsk (rus)     r0, 0x20
             0x00014bc8: cf 77:       retsp (u6)      0xf
.label940    0x00014bca: 45 5c:       ldw (ru6)       r1, sp[0x5]
             0x00014bcc: 04 c8:       lsu (3r)        r0, r1, r0
             0x00014bce: 02 78:       bf (ru6)        r0, 0x2 <.label941>
             0x00014bd0: d0 a6:       mkmsk (rus)     r0, 0x20
             0x00014bd2: cf 77:       retsp (u6)      0xf
.label941    0x00014bd4: 45 64:       ldaw (ru6)      r1, sp[0x5]
             0x00014bd6: 0a 64:       ldaw (ru6)      r0, sp[0xa]
             0x00014bd8: 00 f0 82 d4: bl (lu10)       -0x82 <__fpcmp_parts_d>
             0x00014bdc: cf 77:       retsp (u6)      0xf
             0x00014bde: 00 00:       stw (2rus)      r0, r0[0x0]

<__ltdf2>:
             0x00014be0: 4f 77:       entsp (u6)      0xf
             0x00014be2: 44 54:       stw (ru6)       r1, sp[0x4]
             0x00014be4: 03 54:       stw (ru6)       r0, sp[0x3]
             0x00014be6: c2 54:       stw (ru6)       r3, sp[0x2]
             0x00014be8: 03 64:       ldaw (ru6)      r0, sp[0x3]
             0x00014bea: 81 54:       stw (ru6)       r2, sp[0x1]
             0x00014bec: 4a 64:       ldaw (ru6)      r1, sp[0xa]
             0x00014bee: 00 f0 f5 d0: bl (lu10)       0xf5 <__unpack_d>
             0x00014bf2: 01 64:       ldaw (ru6)      r0, sp[0x1]
             0x00014bf4: 45 64:       ldaw (ru6)      r1, sp[0x5]
             0x00014bf6: 00 f0 f1 d0: bl (lu10)       0xf1 <__unpack_d>
             0x00014bfa: 02 68:       ldc (ru6)       r0, 0x2
             0x00014bfc: 4a 5c:       ldw (ru6)       r1, sp[0xa]
             0x00014bfe: 14 c8:       lsu (3r)        r1, r1, r0
             0x00014c00: 42 78:       bf (ru6)        r1, 0x2 <.label942>
             0x00014c02: d1 a6:       mkmsk (rus)     r0, 0x1
             0x00014c04: cf 77:       retsp (u6)      0xf
.label942    0x00014c06: 45 5c:       ldw (ru6)       r1, sp[0x5]
             0x00014c08: 04 c8:       lsu (3r)        r0, r1, r0
             0x00014c0a: 02 78:       bf (ru6)        r0, 0x2 <.label943>
             0x00014c0c: d1 a6:       mkmsk (rus)     r0, 0x1
             0x00014c0e: cf 77:       retsp (u6)      0xf
.label943    0x00014c10: 45 64:       ldaw (ru6)      r1, sp[0x5]
             0x00014c12: 0a 64:       ldaw (ru6)      r0, sp[0xa]
             0x00014c14: 00 f0 a0 d4: bl (lu10)       -0xa0 <__fpcmp_parts_d>
             0x00014c18: cf 77:       retsp (u6)      0xf
             0x00014c1a: 00 00:       stw (2rus)      r0, r0[0x0]

<__malloc_lock>:
             0x00014c1c: 04 f0 03 60: ldaw (lru6)     r0, dp[0x103]
             0x00014c20: 41 77:       entsp (u6)      0x1
             0x00014c22: 08 f0 8b d4: bl (lu10)       -0x208b <__spin_lock_acquire>
             0x00014c26: c1 77:       retsp (u6)      0x1

<__malloc_unlock>:
             0x00014c28: 04 f0 03 60: ldaw (lru6)     r0, dp[0x103]
             0x00014c2c: 41 77:       entsp (u6)      0x1
             0x00014c2e: 08 f0 85 d4: bl (lu10)       -0x2085 <__spin_lock_release>
             0x00014c32: c1 77:       retsp (u6)      0x1

<__muldf3>:
             0x00014c34: 5b 77:       entsp (u6)      0x1b
             0x00014c36: 1a 55:       stw (ru6)       r4, sp[0x1a]
             0x00014c38: 0f 65:       ldaw (ru6)      r4, sp[0xf]
             0x00014c3a: 59 55:       stw (ru6)       r5, sp[0x19]
             0x00014c3c: 98 55:       stw (ru6)       r6, sp[0x18]
             0x00014c3e: d7 55:       stw (ru6)       r7, sp[0x17]
             0x00014c40: 16 56:       stw (ru6)       r8, sp[0x16]
             0x00014c42: 55 56:       stw (ru6)       r9, sp[0x15]
             0x00014c44: 94 56:       stw (ru6)       r10, sp[0x14]
             0x00014c46: 44 54:       stw (ru6)       r1, sp[0x4]
             0x00014c48: d0 90:       add (2rus)      r1, r4, 0x0
             0x00014c4a: 03 54:       stw (ru6)       r0, sp[0x3]
             0x00014c4c: c2 54:       stw (ru6)       r3, sp[0x2]
             0x00014c4e: 03 64:       ldaw (ru6)      r0, sp[0x3]
             0x00014c50: 81 54:       stw (ru6)       r2, sp[0x1]
             0x00014c52: 00 f0 c3 d0: bl (lu10)       0xc3 <__unpack_d>
             0x00014c56: 4a 65:       ldaw (ru6)      r5, sp[0xa]
             0x00014c58: d4 90:       add (2rus)      r1, r5, 0x0
             0x00014c5a: 01 64:       ldaw (ru6)      r0, sp[0x1]
             0x00014c5c: 00 f0 be d0: bl (lu10)       0xbe <__unpack_d>
             0x00014c60: d5 a6:       mkmsk (rus)     r1, 0x1
             0x00014c62: 0f 5c:       ldw (ru6)       r0, sp[0xf]
             0x00014c64: 24 c8:       lsu (3r)        r2, r1, r0
             0x00014c66: 88 70:       bt (ru6)        r2, 0x8 <.label944>
.label948    0x00014c68: 0f 65:       ldaw (ru6)      r4, sp[0xf]
             0x00014c6a: 0b 5c:       ldw (ru6)       r0, sp[0xb]
             0x00014c6c: 50 5c:       ldw (ru6)       r1, sp[0x10]
             0x00014c6e: 04 30:       eq (3r)         r0, r1, r0
             0x00014c70: 00 b0:       eq (2rus)       r0, r0, 0x0
             0x00014c72: 10 54:       stw (ru6)       r0, sp[0x10]
             0x00014c74: 02 f0 26 73: bu (lu6)        0xa6 <.label945>
.label944    0x00014c78: 8a 5c:       ldw (ru6)       r2, sp[0xa]
             0x00014c7a: 36 c8:       lsu (3r)        r3, r1, r2
             0x00014c7c: c8 70:       bt (ru6)        r3, 0x8 <.label946>
.label950    0x00014c7e: 0b 5c:       ldw (ru6)       r0, sp[0xb]
             0x00014c80: 50 5c:       ldw (ru6)       r1, sp[0x10]
             0x00014c82: 04 30:       eq (3r)         r0, r1, r0
             0x00014c84: 00 b0:       eq (2rus)       r0, r0, 0x0
             0x00014c86: 0b 54:       stw (ru6)       r0, sp[0xb]
             0x00014c88: 0a 65:       ldaw (ru6)      r4, sp[0xa]
             0x00014c8a: 02 f0 1b 73: bu (lu6)        0x9b <.label945>
.label946    0x00014c8e: 70 b2:       eq (2rus)       r3, r0, 0x4
             0x00014c90: c7 78:       bf (ru6)        r3, 0x7 <.label947>
             0x00014c92: 0a b0:       eq (2rus)       r0, r2, 0x2
             0x00014c94: 01 f0 40 7f: ldaw (lu6)      r11, cp[0x40]
             0x00014c98: cc 91:       add (2rus)      r4, r11, 0x0
             0x00014c9a: 1a 7c:       bf (ru6)        r0, -0x1a <.label948>
             0x00014c9c: 02 f0 12 73: bu (lu6)        0x92 <.label945>
.label947    0x00014ca0: 78 b2:       eq (2rus)       r3, r2, 0x4
             0x00014ca2: 02 b0:       eq (2rus)       r0, r0, 0x2
             0x00014ca4: c6 78:       bf (ru6)        r3, 0x6 <.label949>
             0x00014ca6: 01 f0 40 7f: ldaw (lu6)      r11, cp[0x40]
             0x00014caa: cc 91:       add (2rus)      r4, r11, 0x0
             0x00014cac: 18 7c:       bf (ru6)        r0, -0x18 <.label950>
             0x00014cae: 02 f0 09 73: bu (lu6)        0x89 <.label945>
.label949    0x00014cb2: 07 78:       bf (ru6)        r0, 0x7 <.label951>
             0x00014cb4: 0b 5c:       ldw (ru6)       r0, sp[0xb]
             0x00014cb6: 50 5c:       ldw (ru6)       r1, sp[0x10]
             0x00014cb8: 04 30:       eq (3r)         r0, r1, r0
             0x00014cba: 00 b0:       eq (2rus)       r0, r0, 0x0
             0x00014cbc: 10 54:       stw (ru6)       r0, sp[0x10]
             0x00014cbe: 02 f0 01 73: bu (lu6)        0x81 <.label945>
.label951    0x00014cc2: 0a b0:       eq (2rus)       r0, r2, 0x2
             0x00014cc4: 08 78:       bf (ru6)        r0, 0x8 <.label952>
             0x00014cc6: 0b 5c:       ldw (ru6)       r0, sp[0xb]
             0x00014cc8: 50 5c:       ldw (ru6)       r1, sp[0x10]
             0x00014cca: 04 30:       eq (3r)         r0, r1, r0
             0x00014ccc: 00 b0:       eq (2rus)       r0, r0, 0x0
             0x00014cce: 0b 54:       stw (ru6)       r0, sp[0xb]
             0x00014cd0: 04 91:       add (2rus)      r4, r5, 0x0
             0x00014cd2: 01 f0 37 73: bu (lu6)        0x77 <.label945>
.label952    0x00014cd6: 0c 5c:       ldw (ru6)       r0, sp[0xc]
             0x00014cd8: 91 5c:       ldw (ru6)       r2, sp[0x11]
             0x00014cda: 08 10:       add (3r)        r0, r2, r0
             0x00014cdc: 40 92:       add (2rus)      r0, r0, 0x4
             0x00014cde: cd 5d:       ldw (ru6)       r7, sp[0xd]
             0x00014ce0: d3 5e:       ldw (ru6)       r11, sp[0x13]
             0x00014ce2: 0e 5d:       ldw (ru6)       r4, sp[0xe]
             0x00014ce4: 12 5e:       ldw (ru6)       r8, sp[0x12]
             0x00014ce6: 07 54:       stw (ru6)       r0, sp[0x7]
             0x00014ce8: 8b 5c:       ldw (ru6)       r2, sp[0xb]
             0x00014cea: 40 69:       ldc (ru6)       r5, 0x0
             0x00014cec: d0 5c:       ldw (ru6)       r3, sp[0x10]
             0x00014cee: 2e 30:       eq (3r)         r2, r3, r2
             0x00014cf0: 28 b0:       eq (2rus)       r2, r2, 0x0
             0x00014cf2: 86 54:       stw (ru6)       r2, sp[0x6]
             0x00014cf4: af fd 35 03: lmul (l6r)      r6, r3, r7, r11, r5, r5
             0x00014cf8: a0 fd f3 07: maccu (l4r)     r6, r3, r4, r8
             0x00014cfc: d0 fd 25 03: lmul (l6r)      r9, r2, r4, r8, r5, r5
             0x00014d00: e9 35:       eq (3r)         r10, r6, r9
             0x00014d02: 82 7a:       bf (ru6)        r10, 0x2 <.label953>
             0x00014d04: 2e c8:       lsu (3r)        r2, r3, r2
             0x00014d06: 01 73:       bu (u6)         0x1 <.label954>
.label953    0x00014d08: 69 cd:       lsu (3r)        r2, r6, r9
.label954    0x00014d0a: 81 70:       bt (ru6)        r2, 0x1 <.label955>
             0x00014d0c: d4 90:       add (2rus)      r1, r5, 0x0
.label955    0x00014d0e: e4 90:       add (2rus)      r2, r5, 0x0
             0x00014d10: ec fd 95 03: lmul (l6r)      r10, r9, r7, r8, r5, r5
             0x00014d14: 7c fd f2 07: maccu (l4r)     r3, r2, r7, r8
             0x00014d18: fe 34:       eq (3r)         r7, r3, r10
             0x00014d1a: c2 79:       bf (ru6)        r7, 0x2 <.label956>
             0x00014d1c: f9 cc:       lsu (3r)        r7, r2, r9
             0x00014d1e: 01 73:       bu (u6)         0x1 <.label957>
.label956    0x00014d20: fe cc:       lsu (3r)        r7, r3, r10
.label957    0x00014d22: 44 91:       add (2rus)      r8, r5, 0x0
             0x00014d24: c3 fd f6 07: maccu (l4r)     r8, r6, r4, r11
             0x00014d28: bb fb d1 07: ladd (l5r)      r4, r11, r6, r7, r5
             0x00014d2c: 91 f9 d0 07: ladd (l5r)      r4, r1, r8, r1, r4
             0x00014d30: 01 f0 09 6d: ldw (lru6)      r4, cp[0x49]
             0x00014d34: 84 ca:       lsu (3r)        r4, r1, r4
             0x00014d36: 16 71:       bt (ru6)        r4, 0x16 <.label958>
             0x00014d38: d5 a7:       mkmsk (rus)     r5, 0x5
             0x00014d3a: 01 f0 2a 6d: ldw (lru6)      r4, cp[0x6a]
.label960    0x00014d3e: ec 91:       add (2rus)      r6, r11, 0x0
             0x00014d40: 19 47:       zext (rus)      r6, 0x1
             0x00014d42: 88 79:       bf (ru6)        r6, 0x8 <.label959>
             0x00014d44: 6d a8:       shr (2rus)      r6, r3, 0x1
             0x00014d46: 01 f0 c6 6d: ldw (lru6)      r7, cp[0x46]
             0x00014d4a: 7d 22:       shl (3r)        r3, r3, r5
             0x00014d4c: 29 a8:       shr (2rus)      r2, r2, 0x1
             0x00014d4e: 6b 43:       or (3r)         r6, r6, r7
             0x00014d50: 2b 40:       or (3r)         r2, r2, r3
             0x00014d52: f8 90:       add (2rus)      r3, r6, 0x0
.label959    0x00014d54: 3d aa:       shr (2rus)      r11, r11, 0x1
             0x00014d56: b5 22:       shl (3r)        r7, r1, r5
             0x00014d58: 7f 44:       or (3r)         r11, r11, r7
             0x00014d5a: 21 c9:       lsu (3r)        r6, r4, r1
             0x00014d5c: 15 a8:       shr (2rus)      r1, r1, 0x1
             0x00014d5e: 01 90:       add (2rus)      r0, r0, 0x1
             0x00014d60: 92 75:       bt (ru6)        r6, -0x12 <.label960>
             0x00014d62: 07 54:       stw (ru6)       r0, sp[0x7]
.label958    0x00014d64: 01 f0 29 6d: ldw (lru6)      r4, cp[0x69]
             0x00014d68: 01 c9:       lsu (3r)        r4, r4, r1
             0x00014d6a: 03 79:       bf (ru6)        r4, 0x3 <.label961>
             0x00014d6c: 5c 90:       add (2rus)      r5, r3, 0x0
             0x00014d6e: cc 91:       add (2rus)      r4, r11, 0x0
             0x00014d70: 13 73:       bu (u6)         0x13 <.label962>
.label961    0x00014d72: 01 f0 f0 6d: ldw (lru6)      r7, cp[0x70]
             0x00014d76: d9 a7:       mkmsk (rus)     r6, 0x5
.label963    0x00014d78: 8a 2a:       shr (3r)        r4, r2, r6
             0x00014d7a: 5d a0:       shl (2rus)      r5, r3, 0x1
             0x00014d7c: 54 43:       or (3r)         r5, r5, r4
             0x00014d7e: 7e 2a:       shr (3r)        r3, r3, r6
             0x00014d80: cd a1:       shl (2rus)      r4, r11, 0x1
             0x00014d82: 8c 42:       or (3r)         r4, r3, r4
             0x00014d84: fe 2b:       shr (3r)        r3, r11, r6
             0x00014d86: 15 a0:       shl (2rus)      r1, r1, 0x1
             0x00014d88: 17 40:       or (3r)         r1, r1, r3
             0x00014d8a: c7 ca:       lsu (3r)        r8, r1, r7
             0x00014d8c: 01 98:       sub (2rus)      r0, r0, 0x1
             0x00014d8e: 29 a0:       shl (2rus)      r2, r2, 0x1
             0x00014d90: f4 90:       add (2rus)      r3, r5, 0x0
             0x00014d92: 70 91:       add (2rus)      r11, r4, 0x0
             0x00014d94: 0f 76:       bt (ru6)        r8, -0xf <.label963>
             0x00014d96: 07 54:       stw (ru6)       r0, sp[0x7]
.label962    0x00014d98: 07 f0 3f 68: ldc (lru6)      r0, 0x1ff
             0x00014d9c: f0 38:       and (3r)        r3, r4, r0
             0x00014d9e: 02 f0 00 68: ldc (lru6)      r0, 0x80
             0x00014da2: 3c f8 ec 0f: xor (l3r)       r3, r3, r0
             0x00014da6: c9 70:       bt (ru6)        r3, 0x9 <.label964>
             0x00014da8: 69 42:       or (3r)         r2, r2, r5
             0x00014daa: 87 78:       bf (ru6)        r2, 0x7 <.label964>
             0x00014dac: 80 68:       ldc (ru6)       r2, 0x0
             0x00014dae: c0 f8 da 06: ladd (l5r)      r2, r0, r4, r0, r2
             0x00014db2: 16 10:       add (3r)        r1, r1, r2
             0x00014db4: 01 f0 b1 6c: ldw (lru6)      r2, cp[0x71]
             0x00014db8: 42 38:       and (3r)        r4, r0, r2
.label964    0x00014dba: 08 55:       stw (ru6)       r4, sp[0x8]
             0x00014dbc: 05 65:       ldaw (ru6)      r4, sp[0x5]
             0x00014dbe: 49 54:       stw (ru6)       r1, sp[0x9]
             0x00014dc0: d2 a6:       mkmsk (rus)     r0, 0x2
             0x00014dc2: 05 54:       stw (ru6)       r0, sp[0x5]
.label945    0x00014dc4: c0 90:       add (2rus)      r0, r4, 0x0
             0x00014dc6: 00 f0 a1 d0: bl (lu10)       0xa1 <__pack_d>
             0x00014dca: 94 5e:       ldw (ru6)       r10, sp[0x14]
             0x00014dcc: 55 5e:       ldw (ru6)       r9, sp[0x15]
             0x00014dce: 16 5e:       ldw (ru6)       r8, sp[0x16]
             0x00014dd0: d7 5d:       ldw (ru6)       r7, sp[0x17]
             0x00014dd2: 98 5d:       ldw (ru6)       r6, sp[0x18]
             0x00014dd4: 59 5d:       ldw (ru6)       r5, sp[0x19]
             0x00014dd6: 1a 5d:       ldw (ru6)       r4, sp[0x1a]
             0x00014dd8: db 77:       retsp (u6)      0x1b
             0x00014dda: 00 00:       stw (2rus)      r0, r0[0x0]

<__unpack_d>:
             0x00014ddc: 42 77:       entsp (u6)      0x2
             0x00014dde: 01 55:       stw (ru6)       r4, sp[0x1]
             0x00014de0: 40 55:       stw (ru6)       r5, sp[0x0]
             0x00014de2: 99 a7:       mkmsk (rus)     r2, 0x5
             0x00014de4: b1 08:       ldw (2rus)      r11, r0[0x1]
             0x00014de6: be 29:       shr (3r)        r3, r11, r2
             0x00014de8: 00 08:       ldw (2rus)      r0, r0[0x0]
             0x00014dea: 14 69:       ldc (ru6)       r4, 0x14
             0x00014dec: 35 00:       stw (2rus)      r3, r1[0x1]
             0x00014dee: 0c 2c:       shr (3r)        r4, r11, r4
             0x00014df0: 1f f0 7f 69: ldc (lru6)      r5, 0x7ff
             0x00014df4: 41 3b:       and (3r)        r4, r4, r5
             0x00014df6: 01 f0 d4 6c: ldw (lru6)      r3, cp[0x54]
             0x00014dfa: 51 33:       eq (3r)         r5, r4, r5
             0x00014dfc: bf 39:       and (3r)        r3, r11, r3
             0x00014dfe: 5c 71:       bt (ru6)        r5, 0x1c <.label965>
             0x00014e00: 25 71:       bt (ru6)        r4, 0x25 <.label966>
             0x00014e02: b3 40:       or (3r)         r11, r0, r3
             0x00014e04: c3 72:       bt (ru6)        r11, 0x3 <.label967>
             0x00014e06: 02 68:       ldc (ru6)       r0, 0x2
             0x00014e08: 04 00:       stw (2rus)      r0, r1[0x0]
             0x00014e0a: 2f 73:       bu (u6)         0x2f <.label968>
.label967    0x00014e0c: 01 f0 f3 6e: ldw (lru6)      r11, cp[0x73]
             0x00014e10: b6 00:       stw (2rus)      r11, r1[0x2]
             0x00014e12: bc a4:       shl (2rus)      r3, r3, 0x8
             0x00014e14: 12 a7:       mkmsk (rus)     r4, 0x2
             0x00014e16: 44 00:       stw (2rus)      r4, r1[0x0]
             0x00014e18: c2 ac:       shr (2rus)      r4, r0, 0x18
             0x00014e1a: 80 a4:       shl (2rus)      r0, r0, 0x8
             0x00014e1c: 7c 42:       or (3r)         r3, r3, r4
             0x00014e1e: 01 f0 30 6d: ldw (lru6)      r4, cp[0x70]
.label969    0x00014e22: 52 28:       shr (3r)        r5, r0, r2
             0x00014e24: 3d a0:       shl (2rus)      r3, r3, 0x1
             0x00014e26: 7d 42:       or (3r)         r3, r3, r5
             0x00014e28: 9c ca:       lsu (3r)        r5, r3, r4
             0x00014e2a: 01 a0:       shl (2rus)      r0, r0, 0x1
             0x00014e2c: 3d 9a:       sub (2rus)      r11, r11, 0x1
             0x00014e2e: 47 75:       bt (ru6)        r5, -0x7 <.label969>
             0x00014e30: b6 00:       stw (2rus)      r11, r1[0x2]
.label971    0x00014e32: 74 02:       stw (2rus)      r3, r1[0x4]
             0x00014e34: 07 00:       stw (2rus)      r0, r1[0x3]
             0x00014e36: 19 73:       bu (u6)         0x19 <.label968>
.label965    0x00014e38: 23 40:       or (3r)         r2, r0, r3
             0x00014e3a: 83 70:       bt (ru6)        r2, 0x3 <.label970>
             0x00014e3c: 04 68:       ldc (ru6)       r0, 0x4
             0x00014e3e: 04 00:       stw (2rus)      r0, r1[0x0]
             0x00014e40: 14 73:       bu (u6)         0x14 <.label968>
.label970    0x00014e42: 93 68:       ldc (ru6)       r2, 0x13
             0x00014e44: ae 29:       shr (3r)        r2, r11, r2
             0x00014e46: d9 46:       zext (rus)      r2, 0x1
             0x00014e48: 24 00:       stw (2rus)      r2, r1[0x0]
             0x00014e4a: 0d 77:       bu (u6)         -0xd <.label971>
.label966    0x00014e4c: 01 f0 93 6c: ldw (lru6)      r2, cp[0x53]
             0x00014e50: e2 10:       add (3r)        r2, r4, r2
             0x00014e52: 26 00:       stw (2rus)      r2, r1[0x2]
             0x00014e54: da a6:       mkmsk (rus)     r2, 0x2
             0x00014e56: 24 00:       stw (2rus)      r2, r1[0x0]
             0x00014e58: a0 a4:       shl (2rus)      r2, r0, 0x8
             0x00014e5a: 82 ac:       shr (2rus)      r0, r0, 0x18
             0x00014e5c: 27 00:       stw (2rus)      r2, r1[0x3]
             0x00014e5e: ac a4:       shl (2rus)      r2, r3, 0x8
             0x00014e60: 08 40:       or (3r)         r0, r2, r0
             0x00014e62: 01 f0 b0 6c: ldw (lru6)      r2, cp[0x70]
             0x00014e66: 02 40:       or (3r)         r0, r0, r2
             0x00014e68: 44 02:       stw (2rus)      r0, r1[0x4]
.label968    0x00014e6a: 40 5d:       ldw (ru6)       r5, sp[0x0]
             0x00014e6c: 01 5d:       ldw (ru6)       r4, sp[0x1]
             0x00014e6e: c2 77:       retsp (u6)      0x2

<_close>:
             0x00014e70: 10 90:       add (2rus)      r1, r0, 0x0
             0x00014e72: 04 68:       ldc (ru6)       r0, 0x4
             0x00014e74: 00 f0 12 73: bu (lu6)        0x12 <_DoSyscallErrno>

<_lseek>:
             0x00014e78: 38 90:       add (2rus)      r3, r2, 0x0
             0x00014e7a: 24 90:       add (2rus)      r2, r1, 0x0
             0x00014e7c: 10 90:       add (2rus)      r1, r0, 0x0
             0x00014e7e: 08 68:       ldc (ru6)       r0, 0x8
             0x00014e80: 00 f0 0c 73: bu (lu6)        0xc <_DoSyscallErrno>

<_read>:
             0x00014e84: 38 90:       add (2rus)      r3, r2, 0x0
             0x00014e86: 24 90:       add (2rus)      r2, r1, 0x0
             0x00014e88: 10 90:       add (2rus)      r1, r0, 0x0
             0x00014e8a: 05 68:       ldc (ru6)       r0, 0x5
             0x00014e8c: 00 f0 06 73: bu (lu6)        0x6 <_DoSyscallErrno>

<_write>:
             0x00014e90: 38 90:       add (2rus)      r3, r2, 0x0
             0x00014e92: 24 90:       add (2rus)      r2, r1, 0x0
             0x00014e94: 10 90:       add (2rus)      r1, r0, 0x0
             0x00014e96: 06 68:       ldc (ru6)       r0, 0x6
             0x00014e98: 00 f0 00 73: bu (lu6)        0x0 <_DoSyscallErrno>

<_DoSyscallErrno>:
             0x00014e9c: 42 77:       entsp (u6)      0x2
             0x00014e9e: 08 f0 d0 d7: bl (lu10)       -0x23d0 <_DoSyscall>
             0x00014ea2: c4 8e:       not (2r)        r1, r0
             0x00014ea4: 57 aa:       shr (2rus)      r1, r1, 0x7
             0x00014ea6: 41 78:       bf (ru6)        r1, 0x1 <.label972>
             0x00014ea8: c2 77:       retsp (u6)      0x2
.label972    0x00014eaa: c4 96:       neg (2r)        r1, r0
             0x00014eac: 41 54:       stw (ru6)       r1, sp[0x1]
             0x00014eae: 05 f0 6d d5: bl (lu10)       -0x156d <__errno>
             0x00014eb2: 41 5c:       ldw (ru6)       r1, sp[0x1]
             0x00014eb4: 10 00:       stw (2rus)      r1, r0[0x0]
             0x00014eb6: d0 a6:       mkmsk (rus)     r0, 0x20
             0x00014eb8: c2 77:       retsp (u6)      0x2
             0x00014eba: 00 00:       stw (2rus)      r0, r0[0x0]

<__ashldi3>:
             0x00014ebc: 41 77:       entsp (u6)      0x1
             0x00014ebe: 00 55:       stw (ru6)       r4, sp[0x0]
             0x00014ec0: 8f 78:       bf (ru6)        r2, 0xf <.label973>
             0x00014ec2: e0 68:       ldc (ru6)       r3, 0x20
             0x00014ec4: be 18:       sub (3r)        r11, r3, r2
             0x00014ec6: c0 68:       ldc (ru6)       r3, 0x0
             0x00014ec8: cf c4:       lss (3r)        r4, r3, r11
             0x00014eca: 05 71:       bt (ru6)        r4, 0x5 <.label974>
             0x00014ecc: 27 97:       neg (2r)        r1, r11
             0x00014ece: 11 20:       shl (3r)        r1, r0, r1
             0x00014ed0: 00 68:       ldc (ru6)       r0, 0x0
             0x00014ed2: 30 90:       add (2rus)      r3, r0, 0x0
             0x00014ed4: 04 73:       bu (u6)         0x4 <.label975>
.label974    0x00014ed6: 33 2d:       shr (3r)        r11, r0, r11
             0x00014ed8: 16 20:       shl (3r)        r1, r1, r2
             0x00014eda: 97 44:       or (3r)         r1, r1, r11
             0x00014edc: 02 20:       shl (3r)        r0, r0, r2
.label975    0x00014ede: 17 40:       or (3r)         r1, r1, r3
.label973    0x00014ee0: 00 5d:       ldw (ru6)       r4, sp[0x0]
             0x00014ee2: c1 77:       retsp (u6)      0x1

<__lshrdi3>:
             0x00014ee4: 41 77:       entsp (u6)      0x1
             0x00014ee6: 00 55:       stw (ru6)       r4, sp[0x0]
             0x00014ee8: 8f 78:       bf (ru6)        r2, 0xf <.label976>
             0x00014eea: e0 68:       ldc (ru6)       r3, 0x20
             0x00014eec: be 18:       sub (3r)        r11, r3, r2
             0x00014eee: c0 68:       ldc (ru6)       r3, 0x0
             0x00014ef0: cf c4:       lss (3r)        r4, r3, r11
             0x00014ef2: 05 71:       bt (ru6)        r4, 0x5 <.label977>
             0x00014ef4: c0 68:       ldc (ru6)       r3, 0x0
             0x00014ef6: 23 97:       neg (2r)        r0, r11
             0x00014ef8: 04 28:       shr (3r)        r0, r1, r0
             0x00014efa: 1c 90:       add (2rus)      r1, r3, 0x0
             0x00014efc: 04 73:       bu (u6)         0x4 <.label978>
.label977    0x00014efe: 02 28:       shr (3r)        r0, r0, r2
             0x00014f00: 37 25:       shl (3r)        r11, r1, r11
             0x00014f02: 8c 41:       or (3r)         r0, r11, r0
             0x00014f04: 16 28:       shr (3r)        r1, r1, r2
.label978    0x00014f06: 03 40:       or (3r)         r0, r0, r3
.label976    0x00014f08: 00 5d:       ldw (ru6)       r4, sp[0x0]
             0x00014f0a: c1 77:       retsp (u6)      0x1

<__pack_d>:
             0x00014f0c: 49 77:       entsp (u6)      0x9
             0x00014f0e: 08 55:       stw (ru6)       r4, sp[0x8]
             0x00014f10: 47 55:       stw (ru6)       r5, sp[0x7]
             0x00014f12: 86 55:       stw (ru6)       r6, sp[0x6]
             0x00014f14: c5 55:       stw (ru6)       r7, sp[0x5]
             0x00014f16: d9 a6:       mkmsk (rus)     r2, 0x1
             0x00014f18: 04 56:       stw (ru6)       r8, sp[0x4]
             0x00014f1a: 43 56:       stw (ru6)       r9, sp[0x3]
             0x00014f1c: 10 90:       add (2rus)      r1, r0, 0x0
             0x00014f1e: 82 56:       stw (ru6)       r10, sp[0x2]
             0x00014f20: 04 08:       ldw (2rus)      r0, r1[0x0]
             0x00014f22: 35 08:       ldw (2rus)      r3, r1[0x1]
             0x00014f24: c1 54:       stw (ru6)       r3, sp[0x1]
             0x00014f26: 84 0a:       ldw (2rus)      r4, r1[0x4]
             0x00014f28: 57 08:       ldw (2rus)      r5, r1[0x3]
             0x00014f2a: 28 c8:       lsu (3r)        r2, r2, r0
             0x00014f2c: 88 70:       bt (ru6)        r2, 0x8 <.label979>
             0x00014f2e: 01 f0 34 6c: ldw (lru6)      r0, cp[0x74]
             0x00014f32: f0 40:       or (3r)         r3, r4, r0
             0x00014f34: 1f f0 bf 68: ldc (lru6)      r2, 0x7ff
             0x00014f38: c4 90:       add (2rus)      r0, r5, 0x0
             0x00014f3a: 02 f0 03 73: bu (lu6)        0x83 <.label980>
.label979    0x00014f3e: 60 b2:       eq (2rus)       r2, r0, 0x4
             0x00014f40: 86 78:       bf (ru6)        r2, 0x6 <.label981>
.label987    0x00014f42: 00 68:       ldc (ru6)       r0, 0x0
             0x00014f44: 1f f0 bf 68: ldc (lru6)      r2, 0x7ff
             0x00014f48: 30 90:       add (2rus)      r3, r0, 0x0
             0x00014f4a: 01 f0 3b 73: bu (lu6)        0x7b <.label980>
.label981    0x00014f4e: 22 b0:       eq (2rus)       r2, r0, 0x2
             0x00014f50: 00 68:       ldc (ru6)       r0, 0x0
             0x00014f52: 84 78:       bf (ru6)        r2, 0x4 <.label982>
             0x00014f54: 20 90:       add (2rus)      r2, r0, 0x0
             0x00014f56: 30 90:       add (2rus)      r3, r0, 0x0
             0x00014f58: 01 f0 34 73: bu (lu6)        0x74 <.label980>
.label982    0x00014f5c: b4 43:       or (3r)         r11, r5, r4
             0x00014f5e: 30 90:       add (2rus)      r3, r0, 0x0
             0x00014f60: 20 90:       add (2rus)      r2, r0, 0x0
             0x00014f62: 01 f0 ef 7a: bf (lru6)       r11, 0x6f <.label980>
             0x00014f66: 06 08:       ldw (2rus)      r0, r1[0x2]
             0x00014f68: 01 f0 53 6c: ldw (lru6)      r1, cp[0x53]
             0x00014f6c: 14 c0:       lss (3r)        r1, r1, r0
             0x00014f6e: 7e 70:       bt (ru6)        r1, 0x3e <.label983>
             0x00014f70: 80 6a:       ldc (ru6)       r10, 0x0
             0x00014f72: 01 f0 73 6c: ldw (lru6)      r1, cp[0x73]
             0x00014f76: 94 18:       sub (3r)        r9, r1, r0
             0x00014f78: 38 68:       ldc (ru6)       r0, 0x38
             0x00014f7a: 81 c4:       lss (3r)        r0, r0, r9
             0x00014f7c: 98 91:       add (2rus)      r1, r10, 0x0
             0x00014f7e: e8 91:       add (2rus)      r6, r10, 0x0
             0x00014f80: 29 70:       bt (ru6)        r0, 0x29 <.label984>
             0x00014f82: c4 90:       add (2rus)      r0, r5, 0x0
             0x00014f84: d0 90:       add (2rus)      r1, r4, 0x0
             0x00014f86: a4 91:       add (2rus)      r2, r9, 0x0
             0x00014f88: 00 f0 54 d4: bl (lu10)       -0x54 <__lshrdi3>
             0x00014f8c: 70 90:       add (2rus)      r7, r0, 0x0
             0x00014f8e: 64 90:       add (2rus)      r6, r1, 0x0
             0x00014f90: 00 6a:       ldc (ru6)       r8, 0x0
             0x00014f92: 90 91:       add (2rus)      r1, r8, 0x0
             0x00014f94: a4 91:       add (2rus)      r2, r9, 0x0
             0x00014f96: d1 a6:       mkmsk (rus)     r0, 0x1
             0x00014f98: 00 f0 70 d4: bl (lu10)       -0x70 <__ashldi3>
             0x00014f9c: d8 a6:       mkmsk (rus)     r2, 0x20
             0x00014f9e: 02 f8 3c 07: ladd (l5r)      r3, r0, r0, r2, r8
             0x00014fa2: 41 3a:       and (3r)        r0, r0, r5
             0x00014fa4: 16 f8 db 06: ladd (l5r)      r2, r1, r1, r2, r3
             0x00014fa8: 54 3a:       and (3r)        r1, r1, r4
             0x00014faa: 01 40:       or (3r)         r0, r0, r1
             0x00014fac: 00 b0:       eq (2rus)       r0, r0, 0x0
             0x00014fae: 00 b0:       eq (2rus)       r0, r0, 0x0
             0x00014fb0: 53 42:       or (3r)         r1, r0, r7
             0x00014fb2: 02 f0 00 68: ldc (lru6)      r0, 0x80
             0x00014fb6: 24 90:       add (2rus)      r2, r1, 0x0
             0x00014fb8: 38 47:       zext (rus)      r2, 0x8
             0x00014fba: 28 f8 ec 0f: xor (l3r)       r2, r2, r0
             0x00014fbe: 8a 70:       bt (ru6)        r2, 0xa <.label984>
             0x00014fc0: 04 f8 38 07: ladd (l5r)      r2, r0, r1, r0, r8
             0x00014fc4: 04 f0 c0 68: ldc (lru6)      r3, 0x100
             0x00014fc8: ff 38:       and (3r)        r3, r7, r3
             0x00014fca: c1 70:       bt (ru6)        r3, 0x1 <.label985>
             0x00014fcc: 04 90:       add (2rus)      r0, r1, 0x0
.label985    0x00014fce: c6 78:       bf (ru6)        r3, 0x6 <.label986>
             0x00014fd0: 2a 11:       add (3r)        r6, r6, r2
             0x00014fd2: 04 73:       bu (u6)         0x4 <.label986>
.label984    0x00014fd4: 93 a7:       mkmsk (rus)     r0, 0x7
             0x00014fd6: 04 f8 36 07: ladd (l5r)      r1, r0, r1, r0, r10
             0x00014fda: 29 11:       add (3r)        r6, r6, r1
.label986    0x00014fdc: 80 ac:       shr (2rus)      r0, r0, 0x8
             0x00014fde: 01 f0 69 6c: ldw (lru6)      r1, cp[0x69]
             0x00014fe2: 66 ca:       lsu (3r)        r2, r1, r6
             0x00014fe4: 5a a5:       shl (2rus)      r1, r6, 0x18
             0x00014fe6: 01 40:       or (3r)         r0, r0, r1
             0x00014fe8: 78 ad:       shr (2rus)      r3, r6, 0x8
             0x00014fea: 2c 73:       bu (u6)         0x2c <.label980>
.label983    0x00014fec: 0f f0 7f 68: ldc (lru6)      r1, 0x3ff
             0x00014ff0: 24 c0:       lss (3r)        r2, r1, r0
             0x00014ff2: 01 f0 9a 74: bt (lru6)       r2, -0x5a <.label987>
             0x00014ff6: f4 90:       add (2rus)      r3, r5, 0x0
             0x00014ff8: 3c 47:       zext (rus)      r3, 0x8
             0x00014ffa: 21 10:       add (3r)        r2, r0, r1
             0x00014ffc: 02 f0 40 68: ldc (lru6)      r1, 0x80
             0x00015000: 3d f8 ec 0f: xor (l3r)       r3, r3, r1
             0x00015004: ca 70:       bt (ru6)        r3, 0xa <.label988>
             0x00015006: c0 68:       ldc (ru6)       r3, 0x0
             0x00015008: d5 f8 df 06: ladd (l5r)      r3, r1, r5, r1, r3
             0x0001500c: 04 f0 c0 6a: ldc (lru6)      r11, 0x100
             0x00015010: f7 3d:       and (3r)        r11, r5, r11
             0x00015012: c1 72:       bt (ru6)        r11, 0x1 <.label989>
             0x00015014: d4 90:       add (2rus)      r1, r5, 0x0
.label989    0x00015016: c5 72:       bt (ru6)        r11, 0x5 <.label990>
             0x00015018: 05 73:       bu (u6)         0x5 <.label991>
.label988    0x0001501a: 9f a7:       mkmsk (rus)     r3, 0x7
             0x0001501c: 40 68:       ldc (ru6)       r1, 0x0
             0x0001501e: d7 f8 dd 06: ladd (l5r)      r3, r1, r5, r3, r1
.label990    0x00015022: 03 11:       add (3r)        r4, r4, r3
.label991    0x00015024: 01 f0 c9 6c: ldw (lru6)      r3, cp[0x49]
             0x00015028: f3 c8:       lsu (3r)        r3, r4, r3
             0x0001502a: c8 70:       bt (ru6)        r3, 0x8 <.label992>
             0x0001502c: 10 f0 80 68: ldc (lru6)      r2, 0x400
             0x00015030: 22 10:       add (3r)        r2, r0, r2
             0x00015032: 91 a7:       mkmsk (rus)     r0, 0x5
             0x00015034: 15 a8:       shr (2rus)      r1, r1, 0x1
             0x00015036: c0 20:       shl (3r)        r0, r4, r0
             0x00015038: 14 40:       or (3r)         r1, r1, r0
             0x0001503a: 01 a9:       shr (2rus)      r4, r4, 0x1
.label992    0x0001503c: 70 ad:       shr (2rus)      r3, r4, 0x8
             0x0001503e: 84 ac:       shr (2rus)      r0, r1, 0x8
             0x00015040: 52 a5:       shl (2rus)      r1, r4, 0x18
             0x00015042: 01 40:       or (3r)         r0, r0, r1
.label980    0x00015044: c1 5e:       ldw (ru6)       r11, sp[0x1]
             0x00015046: 95 a7:       mkmsk (rus)     r1, 0x5
             0x00015048: 9d 21:       shl (3r)        r1, r11, r1
             0x0001504a: 01 f0 d4 6e: ldw (lru6)      r11, cp[0x54]
             0x0001504e: bf 3c:       and (3r)        r3, r3, r11
             0x00015050: 1d 40:       or (3r)         r1, r3, r1
             0x00015052: d4 68:       ldc (ru6)       r3, 0x14
             0x00015054: 2b 20:       shl (3r)        r2, r2, r3
             0x00015056: 01 f0 d1 6c: ldw (lru6)      r3, cp[0x51]
             0x0001505a: 2b 38:       and (3r)        r2, r2, r3
             0x0001505c: 82 5e:       ldw (ru6)       r10, sp[0x2]
             0x0001505e: 16 40:       or (3r)         r1, r1, r2
             0x00015060: 43 5e:       ldw (ru6)       r9, sp[0x3]
             0x00015062: 04 5e:       ldw (ru6)       r8, sp[0x4]
             0x00015064: c5 5d:       ldw (ru6)       r7, sp[0x5]
             0x00015066: 86 5d:       ldw (ru6)       r6, sp[0x6]
             0x00015068: 47 5d:       ldw (ru6)       r5, sp[0x7]
             0x0001506a: 08 5d:       ldw (ru6)       r4, sp[0x8]
             0x0001506c: c9 77:       retsp (u6)      0x9
             0x0001506e: 00 00:       stw (2rus)      r0, r0[0x0]

<calloc>:
             0x00015070: 43 77:       entsp (u6)      0x3
             0x00015072: 02 55:       stw (ru6)       r4, sp[0x2]
             0x00015074: 44 f8 ec 3f: mul (l3r)       r4, r1, r0
             0x00015078: c0 90:       add (2rus)      r0, r4, 0x0
             0x0001507a: 41 55:       stw (ru6)       r5, sp[0x1]
             0x0001507c: 02 f0 ce d6: bl (lu10)       -0xace <malloc>
             0x00015080: 50 90:       add (2rus)      r5, r0, 0x0
             0x00015082: 45 79:       bf (ru6)        r5, 0x5 <.label993>
             0x00015084: e0 90:       add (2rus)      r2, r4, 0x0
             0x00015086: c4 90:       add (2rus)      r0, r5, 0x0
             0x00015088: 40 68:       ldc (ru6)       r1, 0x0
             0x0001508a: 09 f0 39 d5: bl (lu10)       -0x2539 <memset>
.label993    0x0001508e: c4 90:       add (2rus)      r0, r5, 0x0
             0x00015090: 41 5d:       ldw (ru6)       r5, sp[0x1]
             0x00015092: 02 5d:       ldw (ru6)       r4, sp[0x2]
             0x00015094: c3 77:       retsp (u6)      0x3

Disassembly of section .init (size: 92)

<_init>:
.label3      0x00015096: 41 77:       entsp (u6)      0x1
             0x00015098: 00 f0 76 d9: ldap (lu10)     r11, 0x176 <.label994>
             0x0001509c: 8c 91:       add (2rus)      r0, r11, 0x0
             0x0001509e: 40 68:       ldc (ru6)       r1, 0x0
             0x000150a0: 00 f0 72 d9: ldap (lu10)     r11, 0x172 <.label994>
             0x000150a4: ac 19:       sub (3r)        r2, r11, r0
             0x000150a6: 09 f0 47 d5: bl (lu10)       -0x2547 <.label995>
             0x000150aa: 00 f0 89 da: ldap (lu10)     r11, 0x289 <.label996>
             0x000150ae: 8c 91:       add (2rus)      r0, r11, 0x0
             0x000150b0: 40 68:       ldc (ru6)       r1, 0x0
             0x000150b2: 00 f0 83 db: ldap (lu10)     r11, 0x383 <.label997>
             0x000150b6: ac 19:       sub (3r)        r2, r11, r0
             0x000150b8: 09 f0 50 d5: bl (lu10)       -0x2550 <.label995>
             0x000150bc: 08 f0 dc d6: bl (lu10)       -0x22dc <.label998>
             0x000150c0: 00 f0 50 d8: ldap (lu10)     r11, 0x50 <.label999>
             0x000150c4: 8c 91:       add (2rus)      r0, r11, 0x0
             0x000150c6: 04 f0 44 60: ldaw (lru6)     r1, dp[0x104]
             0x000150ca: 80 68:       ldc (ru6)       r2, 0x0
             0x000150cc: c0 68:       ldc (ru6)       r3, 0x0
             0x000150ce: 0a f0 14 d4: bl (lu10)       -0x2814 <.label1000>
             0x000150d2: 00 f0 0d 59: ldw (lru6)      r4, dp[0xd]
             0x000150d6: 02 a9:       shr (2rus)      r4, r4, 0x2
             0x000150d8: 0b 79:       bf (ru6)        r4, 0xb <do_ctors_end>
             0x000150da: 00 f0 53 d9: ldap (lu10)     r11, 0x153 <.label1001>
             0x000150de: dc 91:       add (2rus)      r5, r11, 0x0
             0x000150e0: 00 f0 8c 59: ldw (lru6)      r6, dp[0xc]
             0x000150e4: 66 1b:       sub (3r)        r6, r5, r6

<do_ctors_loop>:
             0x000150e6: 01 99:       sub (2rus)      r4, r4, 0x1
             0x000150e8: 04 4b:       ldw (3r)        r0, r5[r4]
             0x000150ea: 42 12:       add (3r)        r0, r0, r6
             0x000150ec: e0 27:       bla (1r)        r0
             0x000150ee: 05 75:       bt (ru6)        r4, -0x5 <do_ctors_loop>

<do_ctors_end>:
             0x000150f0: c1 77:       retsp (u6)      0x1

Disassembly of section .fini (size: 58)

<_fini>:
.label42     0x000150f2: 41 77:       entsp (u6)      0x1
             0x000150f4: 85 77:       extsp (u6)      0x5
             0x000150f6: 01 55:       stw (ru6)       r4, sp[0x1]
             0x000150f8: 42 55:       stw (ru6)       r5, sp[0x2]
             0x000150fa: 83 55:       stw (ru6)       r6, sp[0x3]
             0x000150fc: c4 55:       stw (ru6)       r7, sp[0x4]
             0x000150fe: 00 f0 c2 59: ldw (lru6)      r7, dp[0x2]
             0x00015102: 3e a9:       shr (2rus)      r7, r7, 0x2
             0x00015104: cd 79:       bf (ru6)        r7, 0xd <do_dtors_end>
             0x00015106: 00 69:       ldc (ru6)       r4, 0x0
             0x00015108: 00 f0 3e d9: ldap (lu10)     r11, 0x13e <.label994>
             0x0001510c: dc 91:       add (2rus)      r5, r11, 0x0
             0x0001510e: 00 f0 81 59: ldw (lru6)      r6, dp[0x1]
             0x00015112: 66 1b:       sub (3r)        r6, r5, r6

<do_dtors_loop>:
             0x00015114: 04 4b:       ldw (3r)        r0, r5[r4]
             0x00015116: 42 12:       add (3r)        r0, r0, r6
             0x00015118: e0 27:       bla (1r)        r0
             0x0001511a: 01 91:       add (2rus)      r4, r4, 0x1
             0x0001511c: b3 cb:       lsu (3r)        r11, r4, r7
             0x0001511e: c6 76:       bt (ru6)        r11, -0x6 <do_dtors_loop>

<do_dtors_end>:
             0x00015120: 01 5d:       ldw (ru6)       r4, sp[0x1]
             0x00015122: 42 5d:       ldw (ru6)       r5, sp[0x2]
             0x00015124: 83 5d:       ldw (ru6)       r6, sp[0x3]
             0x00015126: c4 5d:       ldw (ru6)       r7, sp[0x4]
             0x00015128: 85 67:       ldaw (ru6)      sp, sp[0x5]
             0x0001512a: c1 77:       retsp (u6)      0x1

Disassembly of section .globcode (size: 34)

<getAllChansFunc>:
             0x0001512c: 41 77:       entsp (u6)      0x1
             0x0001512e: 00 55:       stw (ru6)       r4, sp[0x0]

<getAllChannels>:
             0x00015130: c2 86:       getr (rus)      r0, 0x2
             0x00015132: 02 74:       bt (ru6)        r0, -0x2 <getAllChannels>
             0x00015134: 9f 68:       ldc (ru6)       r2, 0x1f
             0x00015136: c0 68:       ldc (ru6)       r3, 0x0
             0x00015138: 04 f0 40 68: ldc (lru6)      r1, 0x100
             0x0001513c: 01 f0 05 6c: ldw (lru6)      r0, cp[0x45]

<freeAllChannels>:
             0x00015140: e0 17:       freer (1r)      res[r0]

<skipFree>:
             0x00015142: 01 10:       add (3r)        r0, r0, r1
             0x00015144: 4e 30:       eq (3r)         r4, r3, r2
             0x00015146: 3d 90:       add (2rus)      r3, r3, 0x1
             0x00015148: 05 7d:       bf (ru6)        r4, -0x5 <freeAllChannels>
             0x0001514a: 00 5d:       ldw (ru6)       r4, sp[0x0]
             0x0001514c: c1 77:       retsp (u6)      0x1

Disassembly of section .text.__call_exitprocs_impl (size: 2)

<__call_exitprocs_impl>:
.label58     0x00015150: c0 77:       retsp (u6)      0x0

Disassembly of section .text._raise (size: 4)

<_raise>:
.label720    0x00015154: 00 68:       ldc (ru6)       r0, 0x0
             0x00015156: e0 4f:       ecallf (1r)     r0


